
vga_radar.elf:     file format elf32-littlenios2
vga_radar.elf
architecture: nios2:r1, flags 0x00000112:
EXEC_P, HAS_SYMS, D_PAGED
start address 0x00000230

Program Header:
    LOAD off    0x00001000 vaddr 0x00000000 paddr 0x00000000 align 2**12
         filesz 0x00000020 memsz 0x00000020 flags r-x
    LOAD off    0x00001020 vaddr 0x00000020 paddr 0x00000020 align 2**12
         filesz 0x00013478 memsz 0x00013478 flags r-x
    LOAD off    0x00014498 vaddr 0x00013498 paddr 0x00015080 align 2**12
         filesz 0x00001be8 memsz 0x00001be8 flags rw-
    LOAD off    0x00016c68 vaddr 0x00016c68 paddr 0x00016c68 align 2**12
         filesz 0x00000000 memsz 0x00000174 flags rw-

Sections:
Idx Name          Size      VMA       LMA       File off  Algn
  0 .entry        00000020  00000000  00000000  00001000  2**5
                  CONTENTS, ALLOC, LOAD, READONLY, CODE
  1 .exceptions   00000210  00000020  00000020  00001020  2**2
                  CONTENTS, ALLOC, LOAD, READONLY, CODE
  2 .text         00012cfc  00000230  00000230  00001230  2**2
                  CONTENTS, ALLOC, LOAD, READONLY, CODE
  3 .rodata       0000056c  00012f2c  00012f2c  00013f2c  2**2
                  CONTENTS, ALLOC, LOAD, READONLY, DATA
  4 .rwdata       00001be8  00013498  00015080  00014498  2**2
                  CONTENTS, ALLOC, LOAD, DATA, SMALL_DATA
  5 .bss          00000174  00016c68  00016c68  00016c68  2**2
                  ALLOC, SMALL_DATA
  6 .SDRAM        00000000  00016ddc  00016ddc  00016080  2**0
                  CONTENTS
  7 .Onchip_SRAM  00000000  08000000  08000000  00016080  2**0
                  CONTENTS
  8 .VGA_Subsystem_Char_Buf_Subsystem_Onchip_SRAM 00000000  09000000  09000000  00016080  2**0
                  CONTENTS
  9 .comment      00000023  00000000  00000000  00016080  2**0
                  CONTENTS, READONLY
 10 .debug_aranges 00001010  00000000  00000000  000160a8  2**3
                  CONTENTS, READONLY, DEBUGGING
 11 .debug_info   000246de  00000000  00000000  000170b8  2**0
                  CONTENTS, READONLY, DEBUGGING
 12 .debug_abbrev 0000982e  00000000  00000000  0003b796  2**0
                  CONTENTS, READONLY, DEBUGGING
 13 .debug_line   0000c9b6  00000000  00000000  00044fc4  2**0
                  CONTENTS, READONLY, DEBUGGING
 14 .debug_frame  000024d8  00000000  00000000  0005197c  2**2
                  CONTENTS, READONLY, DEBUGGING
 15 .debug_str    00003fd8  00000000  00000000  00053e54  2**0
                  CONTENTS, READONLY, DEBUGGING
 16 .debug_loc    000196eb  00000000  00000000  00057e2c  2**0
                  CONTENTS, READONLY, DEBUGGING
 17 .debug_alt_sim_info 00000040  00000000  00000000  00071518  2**2
                  CONTENTS, READONLY, DEBUGGING
 18 .debug_ranges 00001978  00000000  00000000  00071558  2**3
                  CONTENTS, READONLY, DEBUGGING
 19 .thread_model 00000003  00000000  00000000  00076546  2**0
                  CONTENTS, READONLY
 20 .cpu          00000005  00000000  00000000  00076549  2**0
                  CONTENTS, READONLY
 21 .qsys         00000001  00000000  00000000  0007654e  2**0
                  CONTENTS, READONLY
 22 .simulation_enabled 00000001  00000000  00000000  0007654f  2**0
                  CONTENTS, READONLY
 23 .sysid_hash   00000004  00000000  00000000  00076550  2**0
                  CONTENTS, READONLY
 24 .sysid_base   00000004  00000000  00000000  00076554  2**0
                  CONTENTS, READONLY
 25 .sysid_time   00000004  00000000  00000000  00076558  2**0
                  CONTENTS, READONLY
 26 .stderr_dev   00000009  00000000  00000000  0007655c  2**0
                  CONTENTS, READONLY
 27 .stdin_dev    00000009  00000000  00000000  00076565  2**0
                  CONTENTS, READONLY
 28 .stdout_dev   00000009  00000000  00000000  0007656e  2**0
                  CONTENTS, READONLY
 29 .sopc_system_name 0000000f  00000000  00000000  00076577  2**0
                  CONTENTS, READONLY
 30 .quartus_project_dir 00000055  00000000  00000000  00076586  2**0
                  CONTENTS, READONLY
 31 .jdi          000080a5  00000000  00000000  000765db  2**0
                  CONTENTS, READONLY
 32 .sopcinfo     00100281  00000000  00000000  0007e680  2**0
                  CONTENTS, READONLY
SYMBOL TABLE:
00000000 l    d  .entry	00000000 .entry
00000020 l    d  .exceptions	00000000 .exceptions
00000230 l    d  .text	00000000 .text
00012f2c l    d  .rodata	00000000 .rodata
00013498 l    d  .rwdata	00000000 .rwdata
00016c68 l    d  .bss	00000000 .bss
00016ddc l    d  .SDRAM	00000000 .SDRAM
08000000 l    d  .Onchip_SRAM	00000000 .Onchip_SRAM
09000000 l    d  .VGA_Subsystem_Char_Buf_Subsystem_Onchip_SRAM	00000000 .VGA_Subsystem_Char_Buf_Subsystem_Onchip_SRAM
00000000 l    d  .comment	00000000 .comment
00000000 l    d  .debug_aranges	00000000 .debug_aranges
00000000 l    d  .debug_info	00000000 .debug_info
00000000 l    d  .debug_abbrev	00000000 .debug_abbrev
00000000 l    d  .debug_line	00000000 .debug_line
00000000 l    d  .debug_frame	00000000 .debug_frame
00000000 l    d  .debug_str	00000000 .debug_str
00000000 l    d  .debug_loc	00000000 .debug_loc
00000000 l    d  .debug_alt_sim_info	00000000 .debug_alt_sim_info
00000000 l    d  .debug_ranges	00000000 .debug_ranges
00000000 l    df *ABS*	00000000 ../vga_radar_bsp//obj/HAL/src/crt0.o
00000268 l       .text	00000000 alt_after_alt_main
00000000 l    df *ABS*	00000000 alt_irq_handler.c
00000000 l    df *ABS*	00000000 alt_instruction_exception_entry.c
00000000 l    df *ABS*	00000000 vga_radar.c
00012f2c l     O .rodata	0000000a SEG7_LUT
00016c68 l     O .bss	00000004 res_offset
00016c6c l     O .bss	00000004 col_offset
00016c70 l     O .bss	00000004 cx
00016c74 l     O .bss	00000004 cy
00016c78 l     O .bss	00000004 radar_r
0000026c l     F .text	0000004c seg7
000002b8 l     F .text	000000b8 split3
00000370 l     F .text	00000054 pos_from_angle
000003c4 l     F .text	00000064 cm_to_px
00000428 l     F .text	00000140 video_box
00000568 l     F .text	00000094 clear_char_buffer
000005fc l     F .text	000000fc plot
000006f8 l     F .text	00000154 draw_line
0000084c l     F .text	000001b0 draw_arc
00000000 l    df *ABS*	00000000 s_cos.c
00000000 l    df *ABS*	00000000 s_sin.c
00000000 l    df *ABS*	00000000 e_rem_pio2.c
00012fc8 l     O .rodata	00000108 two_over_pi
00012f48 l     O .rodata	00000080 npio2_hw
00000000 l    df *ABS*	00000000 k_cos.c
00000000 l    df *ABS*	00000000 k_rem_pio2.c
00013110 l     O .rodata	00000010 init_jk
000130d0 l     O .rodata	00000040 PIo2
00000000 l    df *ABS*	00000000 k_sin.c
00000000 l    df *ABS*	00000000 s_fabs.c
00000000 l    df *ABS*	00000000 s_floor.c
00000000 l    df *ABS*	00000000 s_scalbn.c
00000000 l    df *ABS*	00000000 s_copysign.c
00000000 l    df *ABS*	00000000 lib2-divmod.c
00000000 l    df *ABS*	00000000 lib2-mul.c
00000000 l    df *ABS*	00000000 adddf3.c
00000000 l    df *ABS*	00000000 divdf3.c
00000000 l    df *ABS*	00000000 eqdf2.c
00000000 l    df *ABS*	00000000 gedf2.c
00000000 l    df *ABS*	00000000 muldf3.c
00000000 l    df *ABS*	00000000 subdf3.c
00000000 l    df *ABS*	00000000 fixdfsi.c
00000000 l    df *ABS*	00000000 floatsidf.c
00000000 l    df *ABS*	00000000 floatunsidf.c
00000000 l    df *ABS*	00000000 libgcc2.c
00000000 l    df *ABS*	00000000 libgcc2.c
00000000 l    df *ABS*	00000000 printf.c
00000000 l    df *ABS*	00000000 vfprintf.c
00013262 l     O .rodata	00000010 zeroes.4404
00007e84 l     F .text	000000bc __sbprintf
00013272 l     O .rodata	00000010 blanks.4403
00000000 l    df *ABS*	00000000 wsetup.c
00000000 l    df *ABS*	00000000 dtoa.c
00008094 l     F .text	00000228 quorem
00000000 l    df *ABS*	00000000 fflush.c
00000000 l    df *ABS*	00000000 findfp.c
00009bec l     F .text	00000008 __fp_unlock
00009c00 l     F .text	0000019c __sinit.part.1
00009d9c l     F .text	00000008 __fp_lock
00000000 l    df *ABS*	00000000 mallocr.c
00000000 l    df *ABS*	00000000 fwalk.c
00000000 l    df *ABS*	00000000 impure.c
00013498 l     O .rwdata	00000424 impure_data
00000000 l    df *ABS*	00000000 locale.c
000138dc l     O .rwdata	00000020 lc_ctype_charset
000138bc l     O .rwdata	00000020 lc_message_charset
000138fc l     O .rwdata	00000038 lconv
00000000 l    df *ABS*	00000000 makebuf.c
00000000 l    df *ABS*	00000000 mallocr.c
00000000 l    df *ABS*	00000000 memchr.c
00000000 l    df *ABS*	00000000 memcpy.c
00000000 l    df *ABS*	00000000 memset.c
00000000 l    df *ABS*	00000000 mprec.c
000132a4 l     O .rodata	0000000c p05.2768
00000000 l    df *ABS*	00000000 s_fpclassify.c
00000000 l    df *ABS*	00000000 sbrkr.c
00000000 l    df *ABS*	00000000 stdio.c
00000000 l    df *ABS*	00000000 strcmp.c
00000000 l    df *ABS*	00000000 strlen.c
00000000 l    df *ABS*	00000000 vfprintf.c
0000c780 l     F .text	000000fc __sprint_r.part.0
000133c8 l     O .rodata	00000010 zeroes.4349
0000ddbc l     F .text	000000bc __sbprintf
000133d8 l     O .rodata	00000010 blanks.4348
00000000 l    df *ABS*	00000000 writer.c
00000000 l    df *ABS*	00000000 closer.c
00000000 l    df *ABS*	00000000 mallocr.c
00000000 l    df *ABS*	00000000 fclose.c
00000000 l    df *ABS*	00000000 fputwc.c
00000000 l    df *ABS*	00000000 fstatr.c
00000000 l    df *ABS*	00000000 fvwrite.c
00000000 l    df *ABS*	00000000 int_errno.c
00000000 l    df *ABS*	00000000 isattyr.c
00000000 l    df *ABS*	00000000 lseekr.c
00000000 l    df *ABS*	00000000 memmove.c
00000000 l    df *ABS*	00000000 readr.c
00000000 l    df *ABS*	00000000 mallocr.c
00000000 l    df *ABS*	00000000 wbuf.c
00000000 l    df *ABS*	00000000 wcrtomb.c
00000000 l    df *ABS*	00000000 wctomb_r.c
00000000 l    df *ABS*	00000000 libgcc2.c
00000000 l    df *ABS*	00000000 libgcc2.c
00000000 l    df *ABS*	00000000 ledf2.c
00000000 l    df *ABS*	00000000 alt_close.c
00010000 l     F .text	0000003c alt_get_errno
00000000 l    df *ABS*	00000000 alt_dev.c
00010114 l     F .text	0000002c alt_dev_null_write
00000000 l    df *ABS*	00000000 alt_errno.c
00000000 l    df *ABS*	00000000 alt_fstat.c
00010140 l     F .text	0000003c alt_get_errno
00000000 l    df *ABS*	00000000 alt_isatty.c
00010234 l     F .text	0000003c alt_get_errno
00000000 l    df *ABS*	00000000 alt_load.c
0001031c l     F .text	00000068 alt_load_section
00000000 l    df *ABS*	00000000 alt_lseek.c
00010408 l     F .text	0000003c alt_get_errno
00000000 l    df *ABS*	00000000 alt_main.c
00000000 l    df *ABS*	00000000 alt_malloc_lock.c
00000000 l    df *ABS*	00000000 alt_read.c
000105e4 l     F .text	0000003c alt_get_errno
00000000 l    df *ABS*	00000000 alt_release_fd.c
00000000 l    df *ABS*	00000000 alt_sbrk.c
00015070 l     O .rwdata	00000004 heap_end
00000000 l    df *ABS*	00000000 alt_usleep.c
00000000 l    df *ABS*	00000000 alt_write.c
00010888 l     F .text	0000003c alt_get_errno
00000000 l    df *ABS*	00000000 alt_sys_init.c
000109c4 l     F .text	00000034 alt_dev_reg
00013ee4 l     O .rwdata	00001060 JTAG_UART
00014f44 l     O .rwdata	0000005c VGA_Subsystem_Char_Buf_Subsystem_Char_Buf_DMA
00014fa0 l     O .rwdata	0000005c VGA_Subsystem_VGA_Pixel_DMA
00014ffc l     O .rwdata	00000044 VGA_Subsystem_VGA_Pixel_RGB_Resampler
00000000 l    df *ABS*	00000000 altera_avalon_jtag_uart_fd.c
00000000 l    df *ABS*	00000000 altera_avalon_jtag_uart_init.c
000112b8 l     F .text	0000020c altera_avalon_jtag_uart_irq
000114c4 l     F .text	000000a0 altera_avalon_jtag_uart_timeout
00000000 l    df *ABS*	00000000 altera_avalon_jtag_uart_ioctl.c
00000000 l    df *ABS*	00000000 altera_avalon_jtag_uart_read.c
00000000 l    df *ABS*	00000000 altera_avalon_jtag_uart_write.c
00000000 l    df *ABS*	00000000 altera_avalon_timer_sc.c
00011afc l     F .text	00000078 alt_avalon_timer_sc_irq
00000000 l    df *ABS*	00000000 alt_alarm_start.c
00000000 l    df *ABS*	00000000 alt_busy_sleep.c
00000000 l    df *ABS*	00000000 alt_dcache_flush_all.c
00000000 l    df *ABS*	00000000 alt_dev_llist_insert.c
00011e94 l     F .text	0000003c alt_get_errno
00000000 l    df *ABS*	00000000 alt_do_ctors.c
00000000 l    df *ABS*	00000000 alt_do_dtors.c
00000000 l    df *ABS*	00000000 alt_icache_flush_all.c
00000000 l    df *ABS*	00000000 alt_iic.c
00000000 l    df *ABS*	00000000 alt_iic_isr_register.c
00000000 l    df *ABS*	00000000 alt_io_redirect.c
000122f4 l     F .text	000000e4 alt_open_fd
00000000 l    df *ABS*	00000000 alt_irq_vars.c
00000000 l    df *ABS*	00000000 alt_open.c
00012454 l     F .text	0000003c alt_get_errno
00012490 l     F .text	000000ec alt_file_locked
00000000 l    df *ABS*	00000000 alt_tick.c
00000000 l    df *ABS*	00000000 altera_nios2_gen2_irq.c
00000000 l    df *ABS*	00000000 alt_find_dev.c
00000000 l    df *ABS*	00000000 alt_find_file.c
00000000 l    df *ABS*	00000000 alt_get_fd.c
00000000 l    df *ABS*	00000000 atexit.c
00000000 l    df *ABS*	00000000 exit.c
00000000 l    df *ABS*	00000000 memcmp.c
00000000 l    df *ABS*	00000000 __atexit.c
00000000 l    df *ABS*	00000000 __call_atexit.c
00000000 l    df *ABS*	00000000 alt_exit.c
00016cb0 g     O .bss	00000004 alt_instruction_exception_handler
0000c290 g     F .text	00000074 _mprec_log10
0000c37c g     F .text	0000008c __any_on
0000e838 g     F .text	00000054 _isatty_r
000132b0 g     O .rodata	00000028 __mprec_tinytens
00010520 g     F .text	0000007c alt_main
00016cdc g     O .bss	00000100 alt_irq
00002ddc g     F .text	00000014 fabs
0000e88c g     F .text	00000060 _lseek_r
00015080 g       *ABS*	00000000 __flash_rwdata_start
000045ec g     F .text	00000088 .hidden __eqdf2
00016ddc g       *ABS*	00000000 __alt_heap_start
00005b50 g     F .text	0000003c printf
0000f164 g     F .text	0000009c _wcrtomb_r
0000c5a8 g     F .text	0000005c __sseek
00009f4c g     F .text	00000010 __sinit
0000f00c g     F .text	00000140 __swbuf_r
0000a558 g     F .text	0000007c _setlocale_r
00009da4 g     F .text	00000078 __sfmoreglue
000105c0 g     F .text	00000024 __malloc_unlock
0000e8ec g     F .text	0000015c memmove
00009f34 g     F .text	00000018 _cleanup
0000b350 g     F .text	000000a8 _Balloc
00004674 g     F .text	000000dc .hidden __gtdf2
0001287c g     F .text	00000024 altera_nios2_gen2_irq_init
00000000 g     F .entry	0000000c __reset
00000020 g       *ABS*	00000000 __flash_exceptions_start
0000e314 g     F .text	0000005c _fstat_r
00016c94 g     O .bss	00000004 errno
00002df0 g     F .text	000001ec floor
0000c524 g     F .text	00000008 __seofread
00016c9c g     O .bss	00000004 alt_argv
0001d040 g       *ABS*	00000000 _gp
00010858 g     F .text	00000030 usleep
00013d64 g     O .rwdata	00000180 alt_fd_list
00001168 g     F .text	0000076c __ieee754_rem_pio2
000128a0 g     F .text	00000090 alt_find_dev
0000b0e0 g     F .text	00000148 memcpy
00009bf4 g     F .text	0000000c _cleanup_r
00005938 g     F .text	000000dc .hidden __floatsidf
000123d8 g     F .text	0000007c alt_io_redirect
0000ff0c g     F .text	000000f4 .hidden __ltdf2
00012f2c g       *ABS*	00000000 __DTOR_END__
00012afc g     F .text	0000009c alt_exception_cause_generated_bad_addr
0000c408 g     F .text	00000074 __fpclassifyd
0000c1ec g     F .text	000000a4 __ratio
0000dda0 g     F .text	0000001c __vfiprintf_internal
000116bc g     F .text	0000021c altera_avalon_jtag_uart_read
00005b20 g     F .text	00000030 _printf_r
0000328c g     F .text	00000064 .hidden __udivsi3
00010270 g     F .text	000000ac isatty
00013300 g     O .rodata	000000c8 __mprec_tens
0000a5d4 g     F .text	0000000c __locale_charset
000018d4 g     F .text	000004a4 __kernel_cos
00016c90 g     O .bss	00000004 __malloc_top_pad
00015048 g     O .rwdata	00000004 __mb_cur_max
0000a604 g     F .text	0000000c _localeconv_r
0000e370 g     F .text	000004c8 __sfvwrite_r
0000b784 g     F .text	0000003c __i2b
0000c47c g     F .text	00000054 _sbrk_r
0000ea48 g     F .text	00000060 _read_r
00015068 g     O .rwdata	00000004 alt_max_fd
0000e008 g     F .text	000000f0 _fclose_r
00009bbc g     F .text	00000030 fflush
00016c8c g     O .bss	00000004 __malloc_max_sbrked_mem
00002b10 g     F .text	000002cc __kernel_sin
00003370 g     F .text	000008ac .hidden __adddf3
0000bf94 g     F .text	0000010c __b2d
0000f948 g     F .text	000005c4 .hidden __umoddi3
00010444 g     F .text	000000dc lseek
00015040 g     O .rwdata	00000004 _global_impure_ptr
0000eaa8 g     F .text	00000564 _realloc_r
00016ddc g       *ABS*	00000000 __bss_end
00012204 g     F .text	000000f0 alt_iic_isr_register
00012774 g     F .text	00000108 alt_tick
0000f34c g     F .text	000005fc .hidden __udivdi3
0000e270 g     F .text	00000024 _fputwc_r
000132d8 g     O .rodata	00000028 __mprec_bigtens
0000b568 g     F .text	00000104 __s2b
00005a14 g     F .text	000000a8 .hidden __floatunsidf
0000bcd4 g     F .text	00000060 __mcmp
00009f6c g     F .text	00000018 __fp_lock_all
000121b8 g     F .text	0000004c alt_ic_irq_enabled
000126d8 g     F .text	0000009c alt_alarm_stop
00016ca4 g     O .bss	00000004 alt_irq_active
000000fc g     F .exceptions	000000d4 alt_irq_handler
00013d3c g     O .rwdata	00000028 alt_dev_null
00001d78 g     F .text	00000d98 __kernel_rem_pio2
00011e74 g     F .text	00000020 alt_dcache_flush_all
0000b66c g     F .text	00000068 __hi0bits
000058b8 g     F .text	00000080 .hidden __fixdfsi
00015080 g       *ABS*	00000000 __ram_rwdata_end
00015060 g     O .rwdata	00000008 alt_dev_list
000108c4 g     F .text	00000100 write
00013498 g       *ABS*	00000000 __ram_rodata_end
0001017c g     F .text	000000b8 fstat
00000000 g       *ABS*	00000000 __alt_mem_SDRAM
0000ff0c g     F .text	000000f4 .hidden __ledf2
0000ba4c g     F .text	00000140 __pow5mult
0000c894 g     F .text	0000150c ___vfiprintf_internal_r
00016c84 g     O .bss	00000004 __nlocale_changed
000032f0 g     F .text	00000058 .hidden __umodsi3
00016ddc g       *ABS*	00000000 end
000111f8 g     F .text	000000c0 altera_avalon_jtag_uart_init
000001d0 g     F .exceptions	00000060 alt_instruction_exception_entry
00012f2c g       *ABS*	00000000 __CTOR_LIST__
04000000 g       *ABS*	00000000 __alt_stack_pointer
00011b74 g     F .text	0000007c alt_avalon_timer_sc_init
00005abc g     F .text	00000064 .hidden __clzsi2
000118d8 g     F .text	00000224 altera_avalon_jtag_uart_write
00000f8c g     F .text	000000ec cos
00009f5c g     F .text	00000004 __sfp_lock_acquire
0000affc g     F .text	000000e4 memchr
00005b8c g     F .text	000022dc ___vfprintf_internal_r
0000a0c0 g     F .text	00000310 _free_r
0000a5e0 g     F .text	00000010 __locale_mb_cur_max
00012d78 g     F .text	00000180 __call_exitprocs
00016c80 g     O .bss	00000004 __mlocale_changed
0001504c g     O .rwdata	00000004 __malloc_sbrk_base
00000230 g     F .text	0000003c _start
00016ca8 g     O .bss	00000004 _alt_tick_rate
00001078 g     F .text	000000f0 sin
0000bb8c g     F .text	00000148 __lshift
00016cac g     O .bss	00000004 _alt_nticks
00010620 g     F .text	00000104 read
00010a30 g     F .text	00000664 alt_sys_init
00012c60 g     F .text	00000118 __register_exitproc
0000b7c0 g     F .text	0000028c __multiply
00011564 g     F .text	00000068 altera_avalon_jtag_uart_close
00003348 g     F .text	00000028 .hidden __mulsi3
00013498 g       *ABS*	00000000 __ram_rwdata_start
00012f2c g       *ABS*	00000000 __ram_rodata_start
00016cb4 g     O .bss	00000028 __malloc_current_mallinfo
0000c0a0 g     F .text	0000014c __d2b
00011094 g     F .text	00000060 altera_avalon_jtag_uart_read_fd
00012a38 g     F .text	000000c4 alt_get_fd
00011d1c g     F .text	00000158 alt_busy_sleep
0000ded8 g     F .text	00000054 _close_r
00012be4 g     F .text	0000007c memcmp
00011154 g     F .text	00000050 altera_avalon_jtag_uart_close_fd
00016ddc g       *ABS*	00000000 __alt_stack_base
000111a4 g     F .text	00000054 altera_avalon_jtag_uart_ioctl_fd
00007f40 g     F .text	00000154 __swsetup_r
00003c1c g     F .text	000009d0 .hidden __divdf3
00009e1c g     F .text	00000118 __sfp
0000c304 g     F .text	00000078 __copybits
00013934 g     O .rwdata	00000408 __malloc_av_
00009f68 g     F .text	00000004 __sinit_lock_release
00004750 g     F .text	0000086c .hidden __muldf3
0000c4d0 g     F .text	00000054 __sread
00012930 g     F .text	00000108 alt_find_file
00011ed0 g     F .text	000000a4 alt_dev_llist_insert
0001059c g     F .text	00000024 __malloc_lock
000107a8 g     F .text	000000b0 sbrk
00009b60 g     F .text	0000005c _fflush_r
0000df2c g     F .text	000000dc _calloc_r
00016c68 g       *ABS*	00000000 __bss_start
0000b228 g     F .text	00000128 memset
000009fc g     F .text	00000590 main
00016ca0 g     O .bss	00000004 alt_envp
00016c88 g     O .bss	00000004 __malloc_max_total_mem
000110f4 g     F .text	00000060 altera_avalon_jtag_uart_write_fd
0000f14c g     F .text	00000018 __swbuf
0000c604 g     F .text	00000008 __sclose
04000000 g       *ABS*	00000000 __alt_heap_limit
0000e0f8 g     F .text	00000014 fclose
000082bc g     F .text	00001688 _dtoa_r
0000a7f0 g     F .text	0000080c _malloc_r
0000f2c0 g     F .text	00000030 __ascii_wctomb
0001506c g     O .rwdata	00000004 alt_errno
0000a3d0 g     F .text	000000c4 _fwalk
00003194 g     F .text	00000084 .hidden __divsi3
00009f9c g     F .text	00000124 _malloc_trim_r
00012f2c g       *ABS*	00000000 __CTOR_END__
0000c60c g     F .text	000000dc strcmp
00012f2c g       *ABS*	00000000 __flash_rodata_start
00012f2c g       *ABS*	00000000 __DTOR_LIST__
00003178 g     F .text	0000001c copysign
000045ec g     F .text	00000088 .hidden __nedf2
000109f8 g     F .text	00000038 alt_irq_init
00010724 g     F .text	00000084 alt_release_fd
00013120 g     O .rodata	00000100 .hidden __clz_tab
00016c7c g     O .bss	00000004 _PathLocale
00012b98 g     F .text	00000014 atexit
0000de78 g     F .text	00000060 _write_r
0000a610 g     F .text	00000018 setlocale
00015044 g     O .rwdata	00000004 _impure_ptr
00016c98 g     O .bss	00000004 alt_argc
00009944 g     F .text	0000021c __sflush_r
00002fdc g     F .text	0000019c scalbn
00011fd4 g     F .text	00000060 _do_dtors
0000a5fc g     F .text	00000008 __locale_cjk_lang
09000000 g       *ABS*	00000000 __alt_mem_VGA_Subsystem_Char_Buf_Subsystem_Onchip_SRAM
00000020 g       .exceptions	00000000 alt_irq_entry
0000bf30 g     F .text	00000064 __ulp
00009f84 g     F .text	00000018 __fp_unlock_all
00015058 g     O .rwdata	00000008 alt_fs_list
00000020 g       *ABS*	00000000 __ram_exceptions_start
0000a628 g     F .text	0000000c localeconv
00012054 g     F .text	00000050 alt_ic_isr_register
00015080 g       *ABS*	00000000 _edata
00016ddc g       *ABS*	00000000 _end
0000e10c g     F .text	00000164 __fputwc
00000230 g       *ABS*	00000000 __ram_exceptions_end
000115cc g     F .text	000000f0 altera_avalon_jtag_uart_ioctl
08000000 g       *ABS*	00000000 __alt_mem_Onchip_SRAM
0001212c g     F .text	0000008c alt_ic_irq_disable
0000c52c g     F .text	0000007c __swrite
00015050 g     O .rwdata	00000004 __malloc_trim_threshold
0000a5f0 g     F .text	0000000c __locale_msgcharset
00012bac g     F .text	00000038 exit
0000a494 g     F .text	000000c4 _fwalk_reent
0000bd34 g     F .text	000001fc __mdiff
00003218 g     F .text	00000074 .hidden __modsi3
04000000 g       *ABS*	00000000 __alt_data_end
00000020 g     F .exceptions	00000000 alt_exception
00009f60 g     F .text	00000004 __sfp_lock_release
00012ef8 g     F .text	00000034 _exit
00011bf0 g     F .text	0000012c alt_alarm_start
0000a634 g     F .text	000001bc __smakebuf_r
0000c6e8 g     F .text	00000098 strlen
0001257c g     F .text	0000015c open
00004674 g     F .text	000000dc .hidden __gedf2
00015054 g     O .rwdata	00000004 __wctomb
0000c87c g     F .text	00000018 __sprint_r
00012034 g     F .text	00000020 alt_icache_flush_all
00015074 g     O .rwdata	00000004 alt_priority_mask
000120a4 g     F .text	00000088 alt_ic_irq_enable
00007e68 g     F .text	0000001c __vfprintf_internal
0000f2f0 g     F .text	0000005c _wctomb_r
00004fbc g     F .text	000008fc .hidden __subdf3
0000b6d4 g     F .text	000000b0 __lo0bits
00015078 g     O .rwdata	00000008 alt_alarm_list
00011f74 g     F .text	00000060 _do_ctors
0000f200 g     F .text	000000c0 wcrtomb
0001003c g     F .text	000000d8 close
00010384 g     F .text	00000084 alt_load
0000e294 g     F .text	00000080 fputwc
00009f64 g     F .text	00000004 __sinit_lock_acquire
0000b420 g     F .text	00000148 __multadd
0000b3f8 g     F .text	00000028 _Bfree



Disassembly of section .entry:

00000000 <__reset>:
 * Jump to the _start entry point in the .text section if reset code
 * is allowed or if optimizing for RTL simulation.
 */
#if defined(ALT_ALLOW_CODE_AT_RESET) || defined(ALT_SIM_OPTIMIZE)
    /* Jump to the _start entry point in the .text section. */
    movhi r1, %hi(_start)
   0:	00400034 	movhi	at,0
    ori r1, r1, %lo(_start)
   4:	08408c14 	ori	at,at,560
    jmp r1
   8:	0800683a 	jmp	at
	...

Disassembly of section .exceptions:

00000020 <alt_exception>:

#else /* ALT_EXCEPTION_STACK disabled */
        /* 
         * Reserve space on normal stack for registers about to be pushed.
         */
        addi  sp, sp, -76
  20:	deffed04 	addi	sp,sp,-76
         * documentation for details).
         *
         * Leave a gap in the stack frame at 4(sp) for the muldiv handler to
         * store zero into.
         */
        stw   ra,  0(sp)
  24:	dfc00015 	stw	ra,0(sp)
        stw   r1,   8(sp)
  28:	d8400215 	stw	at,8(sp)
        stw   r2,  12(sp)
  2c:	d8800315 	stw	r2,12(sp)
        stw   r3,  16(sp)
  30:	d8c00415 	stw	r3,16(sp)
        stw   r4,  20(sp)
  34:	d9000515 	stw	r4,20(sp)
        stw   r5,  24(sp)
  38:	d9400615 	stw	r5,24(sp)
        stw   r6,  28(sp)
  3c:	d9800715 	stw	r6,28(sp)
        stw   r7,  32(sp)
  40:	d9c00815 	stw	r7,32(sp)
        rdctl r5, estatus   /* Read early to avoid usage stall */
  44:	000b307a 	rdctl	r5,estatus
        stw   r8,  36(sp)
  48:	da000915 	stw	r8,36(sp)
        stw   r9,  40(sp)
  4c:	da400a15 	stw	r9,40(sp)
        stw   r10, 44(sp)
  50:	da800b15 	stw	r10,44(sp)
        stw   r11, 48(sp)
  54:	dac00c15 	stw	r11,48(sp)
        stw   r12, 52(sp)
  58:	db000d15 	stw	r12,52(sp)
        stw   r13, 56(sp)
  5c:	db400e15 	stw	r13,56(sp)
        stw   r14, 60(sp)
  60:	db800f15 	stw	r14,60(sp)
        stw   r15, 64(sp)
  64:	dbc01015 	stw	r15,64(sp)
        /*
         * ea-4 contains the address of the instruction being executed
         * when the exception occured. For interrupt exceptions, we will
         * will be re-issue the isntruction. Store it in 72(sp)
         */
        stw   r5,  68(sp)  /* estatus */
  68:	d9401115 	stw	r5,68(sp)
        addi  r15, ea, -4  /* instruction that caused exception */
  6c:	ebffff04 	addi	r15,ea,-4
        stw   r15,  72(sp)
  70:	dbc01215 	stw	r15,72(sp)
#else
        /*
         * Test to see if the exception was a software exception or caused 
         * by an external interrupt, and vector accordingly.
         */
        rdctl r4, ipending
  74:	0009313a 	rdctl	r4,ipending
        andi  r2, r5, 1
  78:	2880004c 	andi	r2,r5,1
        beq   r2, zero, .Lnot_irq
  7c:	10000326 	beq	r2,zero,8c <alt_exception+0x6c>
        beq   r4, zero, .Lnot_irq
  80:	20000226 	beq	r4,zero,8c <alt_exception+0x6c>
        /*
         * Now that all necessary registers have been preserved, call 
         * alt_irq_handler() to process the interrupts.
         */

        call alt_irq_handler
  84:	00000fc0 	call	fc <alt_irq_handler>

        .section .exceptions.irqreturn, "xa"

        br    .Lexception_exit
  88:	00000706 	br	a8 <alt_exception+0x88>
         * upon completion, so we write ea (address of instruction *after*
         * the one where the exception occured) into 72(sp). The actual
         * instruction that caused the exception is written in r2, which these
         * handlers will utilize.
         */
        stw ea, 72(sp) /* EA is PC+4 so will skip over instruction causing exception */
  8c:	df401215 	stw	ea,72(sp)
.Lunknown_16bit:
        addi.n r4, r4, 2 /* Need PC+2 to skip over instruction causing exception */
        stw r4, 72(sp)

#else /* CDX is not Enabled and all instructions are 32bits */
        ldw r2, -4(ea) /* Instruction value that caused exception */
  90:	e8bfff17 	ldw	r2,-4(ea)
         * debugger is present) or go into an infinite loop since the
         * handling behavior is undefined; in that case we will not return here.
         */

        /* Load exception-causing address as first argument (r4) */
        addi   r4, ea, -4
  94:	e93fff04 	addi	r4,ea,-4

        /* Call the instruction-exception entry */
        call   alt_instruction_exception_entry
  98:	00001d00 	call	1d0 <alt_instruction_exception_entry>
         * instruction
         *
         * Return code was 0: Skip. The instruction after the exception is
         * already stored in 72(sp).
         */
        bne   r2, r0, .Lexception_exit
  9c:	1000021e 	bne	r2,zero,a8 <alt_exception+0x88>

        /*
         * Otherwise, modify 72(sp) to re-issue the instruction that caused the
         * exception.
         */
        addi  r15, ea, -4  /* instruction that caused exception */
  a0:	ebffff04 	addi	r15,ea,-4
        stw   r15,  72(sp)
  a4:	dbc01215 	stw	r15,72(sp)
        /* 
         * Restore the saved registers, so that all general purpose registers 
         * have been restored to their state at the time the interrupt occured.
         */

        ldw   r5,  68(sp)
  a8:	d9401117 	ldw	r5,68(sp)
        ldw   ea,  72(sp)  /* This becomes the PC once eret is executed */
  ac:	df401217 	ldw	ea,72(sp)
        ldw   ra,   0(sp)
  b0:	dfc00017 	ldw	ra,0(sp)

        wrctl estatus, r5
  b4:	2801707a 	wrctl	estatus,r5

        ldw   r1,   8(sp)
  b8:	d8400217 	ldw	at,8(sp)
        ldw   r2,  12(sp)
  bc:	d8800317 	ldw	r2,12(sp)
        ldw   r3,  16(sp)
  c0:	d8c00417 	ldw	r3,16(sp)
        ldw   r4,  20(sp)
  c4:	d9000517 	ldw	r4,20(sp)
        ldw   r5,  24(sp)
  c8:	d9400617 	ldw	r5,24(sp)
        ldw   r6,  28(sp)
  cc:	d9800717 	ldw	r6,28(sp)
        ldw   r7,  32(sp)
  d0:	d9c00817 	ldw	r7,32(sp)

#if defined(ALT_EXCEPTION_STACK) && defined(ALT_STACK_CHECK)
        ldw   et, %gprel(alt_exception_old_stack_limit)(gp)
#endif

        ldw   r8,  36(sp)
  d4:	da000917 	ldw	r8,36(sp)
        ldw   r9,  40(sp)
  d8:	da400a17 	ldw	r9,40(sp)
        ldw   r10, 44(sp)
  dc:	da800b17 	ldw	r10,44(sp)
        ldw   r11, 48(sp)
  e0:	dac00c17 	ldw	r11,48(sp)
        ldw   r12, 52(sp)
  e4:	db000d17 	ldw	r12,52(sp)
        ldw   r13, 56(sp)
  e8:	db400e17 	ldw	r13,56(sp)
        ldw   r14, 60(sp)
  ec:	db800f17 	ldw	r14,60(sp)
        ldw   r15, 64(sp)
  f0:	dbc01017 	ldw	r15,64(sp)
        stw   et, %gprel(alt_stack_limit_value)(gp)
        stw   zero, %gprel(alt_exception_old_stack_limit)(gp)
#endif /* ALT_STACK_CHECK */
        ldw   sp,  76(sp)
#else /* ALT_EXCEPTION_STACK disabled */
        addi  sp, sp, 76
  f4:	dec01304 	addi	sp,sp,76

        /*
         * Return to the interrupted instruction.
         */

        eret
  f8:	ef80083a 	eret

000000fc <alt_irq_handler>:
 * instruction is present if the macro ALT_CI_INTERRUPT_VECTOR defined.
 */

void alt_irq_handler (void) __attribute__ ((section (".exceptions")));
void alt_irq_handler (void)
{
  fc:	defff904 	addi	sp,sp,-28
 100:	dfc00615 	stw	ra,24(sp)
 104:	df000515 	stw	fp,20(sp)
 108:	df000504 	addi	fp,sp,20
  
  /*
   * Notify the operating system that we are at interrupt level.
   */ 
  
  ALT_OS_INT_ENTER();
 10c:	0001883a 	nop
#ifndef NIOS2_EIC_PRESENT
static ALT_INLINE alt_u32 ALT_ALWAYS_INLINE alt_irq_pending (void)
{
  alt_u32 active;

  NIOS2_READ_IPENDING (active);
 110:	0005313a 	rdctl	r2,ipending
 114:	e0bffe15 	stw	r2,-8(fp)

  return active;
 118:	e0bffe17 	ldw	r2,-8(fp)
   * Consider the case where the high priority interupt is asserted during
   * the interrupt entry sequence for a lower priority interrupt to see why
   * this is the case.
   */

  active = alt_irq_pending ();
 11c:	e0bffb15 	stw	r2,-20(fp)

  do
  {
    i = 0;
 120:	e03ffd15 	stw	zero,-12(fp)
    mask = 1;
 124:	00800044 	movi	r2,1
 128:	e0bffc15 	stw	r2,-16(fp)
     * called to clear the interrupt condition.
     */

    do
    {
      if (active & mask)
 12c:	e0fffb17 	ldw	r3,-20(fp)
 130:	e0bffc17 	ldw	r2,-16(fp)
 134:	1884703a 	and	r2,r3,r2
 138:	10001426 	beq	r2,zero,18c <alt_irq_handler+0x90>
      { 
#ifdef ALT_ENHANCED_INTERRUPT_API_PRESENT
        alt_irq[i].handler(alt_irq[i].context); 
 13c:	00800074 	movhi	r2,1
 140:	109b3704 	addi	r2,r2,27868
 144:	e0fffd17 	ldw	r3,-12(fp)
 148:	180690fa 	slli	r3,r3,3
 14c:	10c5883a 	add	r2,r2,r3
 150:	10c00017 	ldw	r3,0(r2)
 154:	00800074 	movhi	r2,1
 158:	109b3704 	addi	r2,r2,27868
 15c:	e13ffd17 	ldw	r4,-12(fp)
 160:	200890fa 	slli	r4,r4,3
 164:	1105883a 	add	r2,r2,r4
 168:	10800104 	addi	r2,r2,4
 16c:	10800017 	ldw	r2,0(r2)
 170:	1009883a 	mov	r4,r2
 174:	183ee83a 	callr	r3
#else
        alt_irq[i].handler(alt_irq[i].context, i); 
#endif
        break;
 178:	0001883a 	nop
#ifndef NIOS2_EIC_PRESENT
static ALT_INLINE alt_u32 ALT_ALWAYS_INLINE alt_irq_pending (void)
{
  alt_u32 active;

  NIOS2_READ_IPENDING (active);
 17c:	0005313a 	rdctl	r2,ipending
 180:	e0bfff15 	stw	r2,-4(fp)

  return active;
 184:	e0bfff17 	ldw	r2,-4(fp)
 188:	00000706 	br	1a8 <alt_irq_handler+0xac>
      }
      mask <<= 1;
 18c:	e0bffc17 	ldw	r2,-16(fp)
 190:	1085883a 	add	r2,r2,r2
 194:	e0bffc15 	stw	r2,-16(fp)
      i++;
 198:	e0bffd17 	ldw	r2,-12(fp)
 19c:	10800044 	addi	r2,r2,1
 1a0:	e0bffd15 	stw	r2,-12(fp)

    } while (1);
 1a4:	003fe106 	br	12c <__alt_mem_VGA_Subsystem_Char_Buf_Subsystem_Onchip_SRAM+0xf700012c>

    active = alt_irq_pending ();
 1a8:	e0bffb15 	stw	r2,-20(fp)
    
  } while (active);
 1ac:	e0bffb17 	ldw	r2,-20(fp)
 1b0:	103fdb1e 	bne	r2,zero,120 <__alt_mem_VGA_Subsystem_Char_Buf_Subsystem_Onchip_SRAM+0xf7000120>

  /*
   * Notify the operating system that interrupt processing is complete.
   */ 

  ALT_OS_INT_EXIT();
 1b4:	0001883a 	nop
}
 1b8:	0001883a 	nop
 1bc:	e037883a 	mov	sp,fp
 1c0:	dfc00117 	ldw	ra,4(sp)
 1c4:	df000017 	ldw	fp,0(sp)
 1c8:	dec00204 	addi	sp,sp,8
 1cc:	f800283a 	ret

000001d0 <alt_instruction_exception_entry>:
 * that handler if it has been registered. Absent a handler, it will
 * break break or hang as discussed below.
 */
int 
alt_instruction_exception_entry (alt_u32 exception_pc)
{
 1d0:	defffb04 	addi	sp,sp,-20
 1d4:	dfc00415 	stw	ra,16(sp)
 1d8:	df000315 	stw	fp,12(sp)
 1dc:	df000304 	addi	fp,sp,12
 1e0:	e13fff15 	stw	r4,-4(fp)
  cause = ( (cause & NIOS2_EXCEPTION_REG_CAUSE_MASK) >>
              NIOS2_EXCEPTION_REG_CAUSE_OFST );

  NIOS2_READ_BADADDR(badaddr);
#else
  cause = NIOS2_EXCEPTION_CAUSE_NOT_PRESENT;
 1e4:	00bfffc4 	movi	r2,-1
 1e8:	e0bffd15 	stw	r2,-12(fp)
  badaddr = 0;
 1ec:	e03ffe15 	stw	zero,-8(fp)
#endif /* NIOS2_HAS_EXTRA_EXCEPTION_INFO */

  if(alt_instruction_exception_handler) {
 1f0:	d0a71c17 	ldw	r2,-25488(gp)
 1f4:	10000726 	beq	r2,zero,214 <alt_instruction_exception_entry+0x44>
     * Call handler. Its return value indicates whether the exception-causing
     * instruction should be re-issued. The code that called us,
     * alt_eceptions_entry.S, will look at this value and adjust the ea
     * register as necessary
     */
    return alt_instruction_exception_handler(cause, exception_pc, badaddr);
 1f8:	d0a71c17 	ldw	r2,-25488(gp)
 1fc:	e0fffd17 	ldw	r3,-12(fp)
 200:	e1bffe17 	ldw	r6,-8(fp)
 204:	e17fff17 	ldw	r5,-4(fp)
 208:	1809883a 	mov	r4,r3
 20c:	103ee83a 	callr	r2
 210:	00000206 	br	21c <alt_instruction_exception_entry+0x4c>
   *    (a peripheral which negates its interrupt output before its
   *    interrupt handler has been executed will cause spurious interrupts)
   */
  else {
#ifdef NIOS2_HAS_DEBUG_STUB
    NIOS2_BREAK();
 214:	003da03a 	break	0
      ;
#endif /* NIOS2_HAS_DEBUG_STUB */
  }

  /* We should not get here. Remove compiler warning. */
  return NIOS2_EXCEPTION_RETURN_REISSUE_INST;
 218:	0005883a 	mov	r2,zero
}
 21c:	e037883a 	mov	sp,fp
 220:	dfc00117 	ldw	ra,4(sp)
 224:	df000017 	ldw	fp,0(sp)
 228:	dec00204 	addi	sp,sp,8
 22c:	f800283a 	ret

Disassembly of section .text:

00000230 <_start>:

    /*
     * Now that the caches are initialized, set up the stack pointer and global pointer.
     * The values provided by the linker are assumed to be correctly aligned.
     */
    movhi sp, %hi(__alt_stack_pointer)
     230:	06c10034 	movhi	sp,1024
    ori sp, sp, %lo(__alt_stack_pointer)
     234:	dec00014 	ori	sp,sp,0
    movhi gp, %hi(_gp)
     238:	06800074 	movhi	gp,1
    ori gp, gp, %lo(_gp)
     23c:	d6b41014 	ori	gp,gp,53312
 */
#ifndef ALT_SIM_OPTIMIZE
    /* Log that the BSS is about to be cleared. */
    ALT_LOG_PUTS(alt_log_msg_bss)

    movhi r2, %hi(__bss_start)
     240:	00800074 	movhi	r2,1
    ori r2, r2, %lo(__bss_start)
     244:	109b1a14 	ori	r2,r2,27752

    movhi r3, %hi(__bss_end)
     248:	00c00074 	movhi	r3,1
    ori r3, r3, %lo(__bss_end)
     24c:	18db7714 	ori	r3,r3,28124

    beq r2, r3, 1f
     250:	10c00326 	beq	r2,r3,260 <_start+0x30>

0:
    stw zero, (r2)
     254:	10000015 	stw	zero,0(r2)
    addi r2, r2, 4
     258:	10800104 	addi	r2,r2,4
    bltu r2, r3, 0b
     25c:	10fffd36 	bltu	r2,r3,254 <__alt_mem_VGA_Subsystem_Char_Buf_Subsystem_Onchip_SRAM+0xf7000254>
     * section aren't defined until alt_load() has been called).
     */
    mov   et, zero
#endif

    call alt_load
     260:	00103840 	call	10384 <alt_load>

    /* Log that alt_main is about to be called. */
    ALT_LOG_PUTS(alt_log_msg_alt_main)

    /* Call the C entry point. It should never return. */
    call alt_main
     264:	00105200 	call	10520 <alt_main>

00000268 <alt_after_alt_main>:

    /* Wait in infinite loop in case alt_main does return. */
alt_after_alt_main:
    br alt_after_alt_main
     268:	003fff06 	br	268 <__alt_mem_VGA_Subsystem_Char_Buf_Subsystem_Onchip_SRAM+0xf7000268>

0000026c <seg7>:
};

static int res_offset, col_offset;
static int cx, cy, radar_r;

static inline uint8_t seg7(uint8_t d) { return (d < 10u) ? SEG7_LUT[d] : 0u; }
     26c:	defffe04 	addi	sp,sp,-8
     270:	df000115 	stw	fp,4(sp)
     274:	df000104 	addi	fp,sp,4
     278:	2005883a 	mov	r2,r4
     27c:	e0bfff05 	stb	r2,-4(fp)
     280:	e0bfff03 	ldbu	r2,-4(fp)
     284:	108002a8 	cmpgeui	r2,r2,10
     288:	1000061e 	bne	r2,zero,2a4 <seg7+0x38>
     28c:	e0ffff03 	ldbu	r3,-4(fp)
     290:	00800074 	movhi	r2,1
     294:	108bcb04 	addi	r2,r2,12076
     298:	10c5883a 	add	r2,r2,r3
     29c:	10800003 	ldbu	r2,0(r2)
     2a0:	00000106 	br	2a8 <seg7+0x3c>
     2a4:	0005883a 	mov	r2,zero
     2a8:	e037883a 	mov	sp,fp
     2ac:	df000017 	ldw	fp,0(sp)
     2b0:	dec00104 	addi	sp,sp,4
     2b4:	f800283a 	ret

000002b8 <split3>:

static inline void split3(uint32_t v, uint8_t *h, uint8_t *t, uint8_t *u)
{
     2b8:	defffa04 	addi	sp,sp,-24
     2bc:	dfc00515 	stw	ra,20(sp)
     2c0:	df000415 	stw	fp,16(sp)
     2c4:	df000404 	addi	fp,sp,16
     2c8:	e13ffc15 	stw	r4,-16(fp)
     2cc:	e17ffd15 	stw	r5,-12(fp)
     2d0:	e1bffe15 	stw	r6,-8(fp)
     2d4:	e1ffff15 	stw	r7,-4(fp)
    if (v > 999u) v = 999u;
     2d8:	e0bffc17 	ldw	r2,-16(fp)
     2dc:	1080fa30 	cmpltui	r2,r2,1000
     2e0:	1000021e 	bne	r2,zero,2ec <split3+0x34>
     2e4:	0080f9c4 	movi	r2,999
     2e8:	e0bffc15 	stw	r2,-16(fp)
    *u = (uint8_t)(v % 10u);
     2ec:	e0bffc17 	ldw	r2,-16(fp)
     2f0:	01400284 	movi	r5,10
     2f4:	1009883a 	mov	r4,r2
     2f8:	00032f00 	call	32f0 <__umodsi3>
     2fc:	1007883a 	mov	r3,r2
     300:	e0bfff17 	ldw	r2,-4(fp)
     304:	10c00005 	stb	r3,0(r2)
    *t = (uint8_t)((v / 10u) % 10u);
     308:	e0bffc17 	ldw	r2,-16(fp)
     30c:	01400284 	movi	r5,10
     310:	1009883a 	mov	r4,r2
     314:	000328c0 	call	328c <__udivsi3>
     318:	01400284 	movi	r5,10
     31c:	1009883a 	mov	r4,r2
     320:	00032f00 	call	32f0 <__umodsi3>
     324:	1007883a 	mov	r3,r2
     328:	e0bffe17 	ldw	r2,-8(fp)
     32c:	10c00005 	stb	r3,0(r2)
    *h = (uint8_t)((v / 100u) % 10u);
     330:	e0bffc17 	ldw	r2,-16(fp)
     334:	01401904 	movi	r5,100
     338:	1009883a 	mov	r4,r2
     33c:	000328c0 	call	328c <__udivsi3>
     340:	01400284 	movi	r5,10
     344:	1009883a 	mov	r4,r2
     348:	00032f00 	call	32f0 <__umodsi3>
     34c:	1007883a 	mov	r3,r2
     350:	e0bffd17 	ldw	r2,-12(fp)
     354:	10c00005 	stb	r3,0(r2)
}
     358:	0001883a 	nop
     35c:	e037883a 	mov	sp,fp
     360:	dfc00117 	ldw	ra,4(sp)
     364:	df000017 	ldw	fp,0(sp)
     368:	dec00204 	addi	sp,sp,8
     36c:	f800283a 	ret

00000370 <pos_from_angle>:

static inline uint32_t pos_from_angle(uint32_t a)
{
     370:	defffd04 	addi	sp,sp,-12
     374:	dfc00215 	stw	ra,8(sp)
     378:	df000115 	stw	fp,4(sp)
     37c:	df000104 	addi	fp,sp,4
     380:	e13fff15 	stw	r4,-4(fp)
    if (a > 180u) a = 180u;
     384:	e0bfff17 	ldw	r2,-4(fp)
     388:	10802d70 	cmpltui	r2,r2,181
     38c:	1000021e 	bne	r2,zero,398 <pos_from_angle+0x28>
     390:	00802d04 	movi	r2,180
     394:	e0bfff15 	stw	r2,-4(fp)
    return (a * 1023u) / 180u;
     398:	0140ffc4 	movi	r5,1023
     39c:	e13fff17 	ldw	r4,-4(fp)
     3a0:	00033480 	call	3348 <__mulsi3>
     3a4:	01402d04 	movi	r5,180
     3a8:	1009883a 	mov	r4,r2
     3ac:	000328c0 	call	328c <__udivsi3>
}
     3b0:	e037883a 	mov	sp,fp
     3b4:	dfc00117 	ldw	ra,4(sp)
     3b8:	df000017 	ldw	fp,0(sp)
     3bc:	dec00204 	addi	sp,sp,8
     3c0:	f800283a 	ret

000003c4 <cm_to_px>:

static inline int cm_to_px(int cm)
{
     3c4:	defffd04 	addi	sp,sp,-12
     3c8:	dfc00215 	stw	ra,8(sp)
     3cc:	df000115 	stw	fp,4(sp)
     3d0:	df000104 	addi	fp,sp,4
     3d4:	e13fff15 	stw	r4,-4(fp)
    if (cm < 0) cm = 0;
     3d8:	e0bfff17 	ldw	r2,-4(fp)
     3dc:	1000010e 	bge	r2,zero,3e4 <cm_to_px+0x20>
     3e0:	e03fff15 	stw	zero,-4(fp)
    if (cm > RADAR_MAX_CM) cm = RADAR_MAX_CM;
     3e4:	e0bfff17 	ldw	r2,-4(fp)
     3e8:	10801310 	cmplti	r2,r2,76
     3ec:	1000021e 	bne	r2,zero,3f8 <cm_to_px+0x34>
     3f0:	008012c4 	movi	r2,75
     3f4:	e0bfff15 	stw	r2,-4(fp)
    return (cm * radar_r) / RADAR_MAX_CM;
     3f8:	d0a70e17 	ldw	r2,-25544(gp)
     3fc:	e17fff17 	ldw	r5,-4(fp)
     400:	1009883a 	mov	r4,r2
     404:	00033480 	call	3348 <__mulsi3>
     408:	014012c4 	movi	r5,75
     40c:	1009883a 	mov	r4,r2
     410:	00031940 	call	3194 <__divsi3>
}
     414:	e037883a 	mov	sp,fp
     418:	dfc00117 	ldw	ra,4(sp)
     41c:	df000017 	ldw	fp,0(sp)
     420:	dec00204 	addi	sp,sp,8
     424:	f800283a 	ret

00000428 <video_box>:

static void video_box(int x1, int y1, int x2, int y2, uint16_t color)
{
     428:	defff304 	addi	sp,sp,-52
     42c:	dfc00c15 	stw	ra,48(sp)
     430:	df000b15 	stw	fp,44(sp)
     434:	df000b04 	addi	fp,sp,44
     438:	e13ffb15 	stw	r4,-20(fp)
     43c:	e17ffc15 	stw	r5,-16(fp)
     440:	e1bffd15 	stw	r6,-12(fp)
     444:	e1fffe15 	stw	r7,-8(fp)
     448:	e0800217 	ldw	r2,8(fp)
     44c:	e0bfff0d 	sth	r2,-4(fp)
    int base = *(volatile int *)PIXEL_BUF_CTRL_BASE;
     450:	00bfc834 	movhi	r2,65312
     454:	108c0804 	addi	r2,r2,12320
     458:	10800017 	ldw	r2,0(r2)
     45c:	e0bff715 	stw	r2,-36(fp)

    int xf = 1 << (res_offset + col_offset);
     460:	d0e70a17 	ldw	r3,-25560(gp)
     464:	d0a70b17 	ldw	r2,-25556(gp)
     468:	1885883a 	add	r2,r3,r2
     46c:	00c00044 	movi	r3,1
     470:	1884983a 	sll	r2,r3,r2
     474:	e0bff815 	stw	r2,-32(fp)
    int yf = 1 << res_offset;
     478:	d0a70a17 	ldw	r2,-25560(gp)
     47c:	00c00044 	movi	r3,1
     480:	1884983a 	sll	r2,r3,r2
     484:	e0bff915 	stw	r2,-28(fp)

    x1 /= xf; x2 /= xf;
     488:	e17ff817 	ldw	r5,-32(fp)
     48c:	e13ffb17 	ldw	r4,-20(fp)
     490:	00031940 	call	3194 <__divsi3>
     494:	e0bffb15 	stw	r2,-20(fp)
     498:	e17ff817 	ldw	r5,-32(fp)
     49c:	e13ffd17 	ldw	r4,-12(fp)
     4a0:	00031940 	call	3194 <__divsi3>
     4a4:	e0bffd15 	stw	r2,-12(fp)
    y1 /= yf; y2 /= yf;
     4a8:	e17ff917 	ldw	r5,-28(fp)
     4ac:	e13ffc17 	ldw	r4,-16(fp)
     4b0:	00031940 	call	3194 <__divsi3>
     4b4:	e0bffc15 	stw	r2,-16(fp)
     4b8:	e17ff917 	ldw	r5,-28(fp)
     4bc:	e13ffe17 	ldw	r4,-8(fp)
     4c0:	00031940 	call	3194 <__divsi3>
     4c4:	e0bffe15 	stw	r2,-8(fp)

    for (int row = y1; row <= y2; row++) {
     4c8:	e0bffc17 	ldw	r2,-16(fp)
     4cc:	e0bff515 	stw	r2,-44(fp)
     4d0:	00001c06 	br	544 <video_box+0x11c>
        for (int col = x1; col <= x2; col++) {
     4d4:	e0bffb17 	ldw	r2,-20(fp)
     4d8:	e0bff615 	stw	r2,-40(fp)
     4dc:	00001306 	br	52c <video_box+0x104>
            int ptr = base + (row << (10 - res_offset - col_offset)) + (col << 1);
     4e0:	d0a70a17 	ldw	r2,-25560(gp)
     4e4:	00c00284 	movi	r3,10
     4e8:	1887c83a 	sub	r3,r3,r2
     4ec:	d0a70b17 	ldw	r2,-25556(gp)
     4f0:	1885c83a 	sub	r2,r3,r2
     4f4:	e0fff517 	ldw	r3,-44(fp)
     4f8:	1886983a 	sll	r3,r3,r2
     4fc:	e0bff717 	ldw	r2,-36(fp)
     500:	1887883a 	add	r3,r3,r2
     504:	e0bff617 	ldw	r2,-40(fp)
     508:	1085883a 	add	r2,r2,r2
     50c:	1885883a 	add	r2,r3,r2
     510:	e0bffa15 	stw	r2,-24(fp)
            *(volatile uint16_t *)ptr = color;
     514:	e0bffa17 	ldw	r2,-24(fp)
     518:	e0ffff0b 	ldhu	r3,-4(fp)
     51c:	10c0000d 	sth	r3,0(r2)

    x1 /= xf; x2 /= xf;
    y1 /= yf; y2 /= yf;

    for (int row = y1; row <= y2; row++) {
        for (int col = x1; col <= x2; col++) {
     520:	e0bff617 	ldw	r2,-40(fp)
     524:	10800044 	addi	r2,r2,1
     528:	e0bff615 	stw	r2,-40(fp)
     52c:	e0bff617 	ldw	r2,-40(fp)
     530:	e0fffd17 	ldw	r3,-12(fp)
     534:	18bfea0e 	bge	r3,r2,4e0 <__alt_mem_VGA_Subsystem_Char_Buf_Subsystem_Onchip_SRAM+0xf70004e0>
    int yf = 1 << res_offset;

    x1 /= xf; x2 /= xf;
    y1 /= yf; y2 /= yf;

    for (int row = y1; row <= y2; row++) {
     538:	e0bff517 	ldw	r2,-44(fp)
     53c:	10800044 	addi	r2,r2,1
     540:	e0bff515 	stw	r2,-44(fp)
     544:	e0bff517 	ldw	r2,-44(fp)
     548:	e0fffe17 	ldw	r3,-8(fp)
     54c:	18bfe10e 	bge	r3,r2,4d4 <__alt_mem_VGA_Subsystem_Char_Buf_Subsystem_Onchip_SRAM+0xf70004d4>
        for (int col = x1; col <= x2; col++) {
            int ptr = base + (row << (10 - res_offset - col_offset)) + (col << 1);
            *(volatile uint16_t *)ptr = color;
        }
    }
}
     550:	0001883a 	nop
     554:	e037883a 	mov	sp,fp
     558:	dfc00117 	ldw	ra,4(sp)
     55c:	df000017 	ldw	fp,0(sp)
     560:	dec00204 	addi	sp,sp,8
     564:	f800283a 	ret

00000568 <clear_char_buffer>:

static void clear_char_buffer(void)
{
     568:	defffb04 	addi	sp,sp,-20
     56c:	df000415 	stw	fp,16(sp)
     570:	df000404 	addi	fp,sp,16
    volatile char *cb = (volatile char *)CHAR_BUF_BASE;
     574:	00824034 	movhi	r2,2304
     578:	e0bffe15 	stw	r2,-8(fp)
    for (int y = 0; y < 60; y++) {
     57c:	e03ffc15 	stw	zero,-16(fp)
     580:	00001606 	br	5dc <clear_char_buffer+0x74>
        int off = (y << 7);
     584:	e0bffc17 	ldw	r2,-16(fp)
     588:	100491fa 	slli	r2,r2,7
     58c:	e0bfff15 	stw	r2,-4(fp)
        for (int x = 0; x < 128; x++) {
     590:	e03ffd15 	stw	zero,-12(fp)
     594:	00000b06 	br	5c4 <clear_char_buffer+0x5c>
            cb[off + x] = ' ';
     598:	e0ffff17 	ldw	r3,-4(fp)
     59c:	e0bffd17 	ldw	r2,-12(fp)
     5a0:	1885883a 	add	r2,r3,r2
     5a4:	1007883a 	mov	r3,r2
     5a8:	e0bffe17 	ldw	r2,-8(fp)
     5ac:	10c5883a 	add	r2,r2,r3
     5b0:	00c00804 	movi	r3,32
     5b4:	10c00005 	stb	r3,0(r2)
static void clear_char_buffer(void)
{
    volatile char *cb = (volatile char *)CHAR_BUF_BASE;
    for (int y = 0; y < 60; y++) {
        int off = (y << 7);
        for (int x = 0; x < 128; x++) {
     5b8:	e0bffd17 	ldw	r2,-12(fp)
     5bc:	10800044 	addi	r2,r2,1
     5c0:	e0bffd15 	stw	r2,-12(fp)
     5c4:	e0bffd17 	ldw	r2,-12(fp)
     5c8:	10802010 	cmplti	r2,r2,128
     5cc:	103ff21e 	bne	r2,zero,598 <__alt_mem_VGA_Subsystem_Char_Buf_Subsystem_Onchip_SRAM+0xf7000598>
}

static void clear_char_buffer(void)
{
    volatile char *cb = (volatile char *)CHAR_BUF_BASE;
    for (int y = 0; y < 60; y++) {
     5d0:	e0bffc17 	ldw	r2,-16(fp)
     5d4:	10800044 	addi	r2,r2,1
     5d8:	e0bffc15 	stw	r2,-16(fp)
     5dc:	e0bffc17 	ldw	r2,-16(fp)
     5e0:	10800f10 	cmplti	r2,r2,60
     5e4:	103fe71e 	bne	r2,zero,584 <__alt_mem_VGA_Subsystem_Char_Buf_Subsystem_Onchip_SRAM+0xf7000584>
        int off = (y << 7);
        for (int x = 0; x < 128; x++) {
            cb[off + x] = ' ';
        }
    }
}
     5e8:	0001883a 	nop
     5ec:	e037883a 	mov	sp,fp
     5f0:	df000017 	ldw	fp,0(sp)
     5f4:	dec00104 	addi	sp,sp,4
     5f8:	f800283a 	ret

000005fc <plot>:

static void plot(int x, int y, uint16_t c)
{
     5fc:	defff704 	addi	sp,sp,-36
     600:	dfc00815 	stw	ra,32(sp)
     604:	df000715 	stw	fp,28(sp)
     608:	df000704 	addi	fp,sp,28
     60c:	e13ffd15 	stw	r4,-12(fp)
     610:	e17ffe15 	stw	r5,-8(fp)
     614:	3005883a 	mov	r2,r6
     618:	e0bfff0d 	sth	r2,-4(fp)
    if (x < 0 || x >= SCREEN_W || y < 0 || y >= SCREEN_H) return;
     61c:	e0bffd17 	ldw	r2,-12(fp)
     620:	10002f16 	blt	r2,zero,6e0 <plot+0xe4>
     624:	e0bffd17 	ldw	r2,-12(fp)
     628:	10805008 	cmpgei	r2,r2,320
     62c:	10002c1e 	bne	r2,zero,6e0 <plot+0xe4>
     630:	e0bffe17 	ldw	r2,-8(fp)
     634:	10002a16 	blt	r2,zero,6e0 <plot+0xe4>
     638:	e0bffe17 	ldw	r2,-8(fp)
     63c:	10803c10 	cmplti	r2,r2,240
     640:	10002726 	beq	r2,zero,6e0 <plot+0xe4>

    int base = *(volatile int *)PIXEL_BUF_CTRL_BASE;
     644:	00bfc834 	movhi	r2,65312
     648:	108c0804 	addi	r2,r2,12320
     64c:	10800017 	ldw	r2,0(r2)
     650:	e0bff915 	stw	r2,-28(fp)
    int xf = 1 << (res_offset + col_offset);
     654:	d0e70a17 	ldw	r3,-25560(gp)
     658:	d0a70b17 	ldw	r2,-25556(gp)
     65c:	1885883a 	add	r2,r3,r2
     660:	00c00044 	movi	r3,1
     664:	1884983a 	sll	r2,r3,r2
     668:	e0bffa15 	stw	r2,-24(fp)
    int yf = 1 << res_offset;
     66c:	d0a70a17 	ldw	r2,-25560(gp)
     670:	00c00044 	movi	r3,1
     674:	1884983a 	sll	r2,r3,r2
     678:	e0bffb15 	stw	r2,-20(fp)

    x /= xf;
     67c:	e17ffa17 	ldw	r5,-24(fp)
     680:	e13ffd17 	ldw	r4,-12(fp)
     684:	00031940 	call	3194 <__divsi3>
     688:	e0bffd15 	stw	r2,-12(fp)
    y /= yf;
     68c:	e17ffb17 	ldw	r5,-20(fp)
     690:	e13ffe17 	ldw	r4,-8(fp)
     694:	00031940 	call	3194 <__divsi3>
     698:	e0bffe15 	stw	r2,-8(fp)

    int ptr = base + (y << (10 - res_offset - col_offset)) + (x << 1);
     69c:	d0a70a17 	ldw	r2,-25560(gp)
     6a0:	00c00284 	movi	r3,10
     6a4:	1887c83a 	sub	r3,r3,r2
     6a8:	d0a70b17 	ldw	r2,-25556(gp)
     6ac:	1885c83a 	sub	r2,r3,r2
     6b0:	e0fffe17 	ldw	r3,-8(fp)
     6b4:	1886983a 	sll	r3,r3,r2
     6b8:	e0bff917 	ldw	r2,-28(fp)
     6bc:	1887883a 	add	r3,r3,r2
     6c0:	e0bffd17 	ldw	r2,-12(fp)
     6c4:	1085883a 	add	r2,r2,r2
     6c8:	1885883a 	add	r2,r3,r2
     6cc:	e0bffc15 	stw	r2,-16(fp)
    *(volatile uint16_t *)ptr = c;
     6d0:	e0bffc17 	ldw	r2,-16(fp)
     6d4:	e0ffff0b 	ldhu	r3,-4(fp)
     6d8:	10c0000d 	sth	r3,0(r2)
     6dc:	00000106 	br	6e4 <plot+0xe8>
    }
}

static void plot(int x, int y, uint16_t c)
{
    if (x < 0 || x >= SCREEN_W || y < 0 || y >= SCREEN_H) return;
     6e0:	0001883a 	nop
    x /= xf;
    y /= yf;

    int ptr = base + (y << (10 - res_offset - col_offset)) + (x << 1);
    *(volatile uint16_t *)ptr = c;
}
     6e4:	e037883a 	mov	sp,fp
     6e8:	dfc00117 	ldw	ra,4(sp)
     6ec:	df000017 	ldw	fp,0(sp)
     6f0:	dec00204 	addi	sp,sp,8
     6f4:	f800283a 	ret

000006f8 <draw_line>:

static void draw_line(int x0, int y0, int x1, int y1, uint16_t c)
{
     6f8:	defff304 	addi	sp,sp,-52
     6fc:	dfc00c15 	stw	ra,48(sp)
     700:	df000b15 	stw	fp,44(sp)
     704:	df000b04 	addi	fp,sp,44
     708:	e13ffb15 	stw	r4,-20(fp)
     70c:	e17ffc15 	stw	r5,-16(fp)
     710:	e1bffd15 	stw	r6,-12(fp)
     714:	e1fffe15 	stw	r7,-8(fp)
     718:	e0800217 	ldw	r2,8(fp)
     71c:	e0bfff0d 	sth	r2,-4(fp)
    int dx = abs(x1 - x0), sx = (x0 < x1) ? 1 : -1;
     720:	e0fffd17 	ldw	r3,-12(fp)
     724:	e0bffb17 	ldw	r2,-20(fp)
     728:	1885c83a 	sub	r2,r3,r2
     72c:	1000010e 	bge	r2,zero,734 <draw_line+0x3c>
     730:	0085c83a 	sub	r2,zero,r2
     734:	e0bff615 	stw	r2,-40(fp)
     738:	e0fffb17 	ldw	r3,-20(fp)
     73c:	e0bffd17 	ldw	r2,-12(fp)
     740:	1880020e 	bge	r3,r2,74c <draw_line+0x54>
     744:	00800044 	movi	r2,1
     748:	00000106 	br	750 <draw_line+0x58>
     74c:	00bfffc4 	movi	r2,-1
     750:	e0bff715 	stw	r2,-36(fp)
    int dy = -abs(y1 - y0), sy = (y0 < y1) ? 1 : -1;
     754:	e0fffe17 	ldw	r3,-8(fp)
     758:	e0bffc17 	ldw	r2,-16(fp)
     75c:	1885c83a 	sub	r2,r3,r2
     760:	1000010e 	bge	r2,zero,768 <draw_line+0x70>
     764:	0085c83a 	sub	r2,zero,r2
     768:	0085c83a 	sub	r2,zero,r2
     76c:	e0bff815 	stw	r2,-32(fp)
     770:	e0fffc17 	ldw	r3,-16(fp)
     774:	e0bffe17 	ldw	r2,-8(fp)
     778:	1880020e 	bge	r3,r2,784 <draw_line+0x8c>
     77c:	00800044 	movi	r2,1
     780:	00000106 	br	788 <draw_line+0x90>
     784:	00bfffc4 	movi	r2,-1
     788:	e0bff915 	stw	r2,-28(fp)
    int err = dx + dy;
     78c:	e0fff617 	ldw	r3,-40(fp)
     790:	e0bff817 	ldw	r2,-32(fp)
     794:	1885883a 	add	r2,r3,r2
     798:	e0bff515 	stw	r2,-44(fp)

    for (;;) {
        plot(x0, y0, c);
     79c:	e0bfff0b 	ldhu	r2,-4(fp)
     7a0:	100d883a 	mov	r6,r2
     7a4:	e17ffc17 	ldw	r5,-16(fp)
     7a8:	e13ffb17 	ldw	r4,-20(fp)
     7ac:	00005fc0 	call	5fc <plot>
        if (x0 == x1 && y0 == y1) break;
     7b0:	e0fffb17 	ldw	r3,-20(fp)
     7b4:	e0bffd17 	ldw	r2,-12(fp)
     7b8:	1880031e 	bne	r3,r2,7c8 <draw_line+0xd0>
     7bc:	e0fffc17 	ldw	r3,-16(fp)
     7c0:	e0bffe17 	ldw	r2,-8(fp)
     7c4:	18801a26 	beq	r3,r2,830 <draw_line+0x138>
        int e2 = 2 * err;
     7c8:	e0bff517 	ldw	r2,-44(fp)
     7cc:	1085883a 	add	r2,r2,r2
     7d0:	e0bffa15 	stw	r2,-24(fp)
        if (e2 >= dy) { err += dy; x0 += sx; }
     7d4:	e0fffa17 	ldw	r3,-24(fp)
     7d8:	e0bff817 	ldw	r2,-32(fp)
     7dc:	18800816 	blt	r3,r2,800 <draw_line+0x108>
     7e0:	e0fff517 	ldw	r3,-44(fp)
     7e4:	e0bff817 	ldw	r2,-32(fp)
     7e8:	1885883a 	add	r2,r3,r2
     7ec:	e0bff515 	stw	r2,-44(fp)
     7f0:	e0fffb17 	ldw	r3,-20(fp)
     7f4:	e0bff717 	ldw	r2,-36(fp)
     7f8:	1885883a 	add	r2,r3,r2
     7fc:	e0bffb15 	stw	r2,-20(fp)
        if (e2 <= dx) { err += dx; y0 += sy; }
     800:	e0bffa17 	ldw	r2,-24(fp)
     804:	e0fff617 	ldw	r3,-40(fp)
     808:	18bfe416 	blt	r3,r2,79c <__alt_mem_VGA_Subsystem_Char_Buf_Subsystem_Onchip_SRAM+0xf700079c>
     80c:	e0fff517 	ldw	r3,-44(fp)
     810:	e0bff617 	ldw	r2,-40(fp)
     814:	1885883a 	add	r2,r3,r2
     818:	e0bff515 	stw	r2,-44(fp)
     81c:	e0fffc17 	ldw	r3,-16(fp)
     820:	e0bff917 	ldw	r2,-28(fp)
     824:	1885883a 	add	r2,r3,r2
     828:	e0bffc15 	stw	r2,-16(fp)
    }
     82c:	003fdb06 	br	79c <__alt_mem_VGA_Subsystem_Char_Buf_Subsystem_Onchip_SRAM+0xf700079c>
    int dy = -abs(y1 - y0), sy = (y0 < y1) ? 1 : -1;
    int err = dx + dy;

    for (;;) {
        plot(x0, y0, c);
        if (x0 == x1 && y0 == y1) break;
     830:	0001883a 	nop
        int e2 = 2 * err;
        if (e2 >= dy) { err += dy; x0 += sx; }
        if (e2 <= dx) { err += dx; y0 += sy; }
    }
}
     834:	0001883a 	nop
     838:	e037883a 	mov	sp,fp
     83c:	dfc00117 	ldw	ra,4(sp)
     840:	df000017 	ldw	fp,0(sp)
     844:	dec00204 	addi	sp,sp,8
     848:	f800283a 	ret

0000084c <draw_arc>:

static void draw_arc(int cm, uint16_t c)
{
     84c:	defff304 	addi	sp,sp,-52
     850:	dfc00c15 	stw	ra,48(sp)
     854:	df000b15 	stw	fp,44(sp)
     858:	dc800a15 	stw	r18,40(sp)
     85c:	dc400915 	stw	r17,36(sp)
     860:	dc000815 	stw	r16,32(sp)
     864:	df000b04 	addi	fp,sp,44
     868:	e13ffb15 	stw	r4,-20(fp)
     86c:	2805883a 	mov	r2,r5
     870:	e0bffc0d 	sth	r2,-16(fp)
    int r = cm_to_px(cm);
     874:	e13ffb17 	ldw	r4,-20(fp)
     878:	00003c40 	call	3c4 <cm_to_px>
     87c:	e0bff615 	stw	r2,-40(fp)
    for (int a = 0; a <= 180; a += 2) {
     880:	e03ff515 	stw	zero,-44(fp)
     884:	00005106 	br	9cc <draw_arc+0x180>
        double rad = (double)a * PI / 180.0;
     888:	e13ff517 	ldw	r4,-44(fp)
     88c:	00059380 	call	5938 <__floatsidf>
     890:	1011883a 	mov	r8,r2
     894:	1813883a 	mov	r9,r3
     898:	01980034 	movhi	r6,24576
     89c:	01d00274 	movhi	r7,16393
     8a0:	39c87ec4 	addi	r7,r7,8699
     8a4:	4009883a 	mov	r4,r8
     8a8:	480b883a 	mov	r5,r9
     8ac:	00047500 	call	4750 <__muldf3>
     8b0:	1009883a 	mov	r4,r2
     8b4:	180b883a 	mov	r5,r3
     8b8:	2005883a 	mov	r2,r4
     8bc:	2807883a 	mov	r3,r5
     8c0:	000d883a 	mov	r6,zero
     8c4:	01d019f4 	movhi	r7,16487
     8c8:	39e00004 	addi	r7,r7,-32768
     8cc:	1009883a 	mov	r4,r2
     8d0:	180b883a 	mov	r5,r3
     8d4:	0003c1c0 	call	3c1c <__divdf3>
     8d8:	1009883a 	mov	r4,r2
     8dc:	180b883a 	mov	r5,r3
     8e0:	e13ff715 	stw	r4,-36(fp)
     8e4:	e17ff815 	stw	r5,-32(fp)
        int x = cx + (int)(cos(rad) * r);
     8e8:	e13ff717 	ldw	r4,-36(fp)
     8ec:	e17ff817 	ldw	r5,-32(fp)
     8f0:	0000f8c0 	call	f8c <cos>
     8f4:	1021883a 	mov	r16,r2
     8f8:	1823883a 	mov	r17,r3
     8fc:	e13ff617 	ldw	r4,-40(fp)
     900:	00059380 	call	5938 <__floatsidf>
     904:	1009883a 	mov	r4,r2
     908:	180b883a 	mov	r5,r3
     90c:	200d883a 	mov	r6,r4
     910:	280f883a 	mov	r7,r5
     914:	8009883a 	mov	r4,r16
     918:	880b883a 	mov	r5,r17
     91c:	00047500 	call	4750 <__muldf3>
     920:	1009883a 	mov	r4,r2
     924:	180b883a 	mov	r5,r3
     928:	2005883a 	mov	r2,r4
     92c:	2807883a 	mov	r3,r5
     930:	1009883a 	mov	r4,r2
     934:	180b883a 	mov	r5,r3
     938:	00058b80 	call	58b8 <__fixdfsi>
     93c:	1007883a 	mov	r3,r2
     940:	d0a70c17 	ldw	r2,-25552(gp)
     944:	1885883a 	add	r2,r3,r2
     948:	e0bff915 	stw	r2,-28(fp)
        int y = cy - (int)(sin(rad) * r);
     94c:	d4a70d17 	ldw	r18,-25548(gp)
     950:	e13ff717 	ldw	r4,-36(fp)
     954:	e17ff817 	ldw	r5,-32(fp)
     958:	00010780 	call	1078 <sin>
     95c:	1021883a 	mov	r16,r2
     960:	1823883a 	mov	r17,r3
     964:	e13ff617 	ldw	r4,-40(fp)
     968:	00059380 	call	5938 <__floatsidf>
     96c:	1009883a 	mov	r4,r2
     970:	180b883a 	mov	r5,r3
     974:	200d883a 	mov	r6,r4
     978:	280f883a 	mov	r7,r5
     97c:	8009883a 	mov	r4,r16
     980:	880b883a 	mov	r5,r17
     984:	00047500 	call	4750 <__muldf3>
     988:	1009883a 	mov	r4,r2
     98c:	180b883a 	mov	r5,r3
     990:	2005883a 	mov	r2,r4
     994:	2807883a 	mov	r3,r5
     998:	1009883a 	mov	r4,r2
     99c:	180b883a 	mov	r5,r3
     9a0:	00058b80 	call	58b8 <__fixdfsi>
     9a4:	9085c83a 	sub	r2,r18,r2
     9a8:	e0bffa15 	stw	r2,-24(fp)
        plot(x, y, c);
     9ac:	e0bffc0b 	ldhu	r2,-16(fp)
     9b0:	100d883a 	mov	r6,r2
     9b4:	e17ffa17 	ldw	r5,-24(fp)
     9b8:	e13ff917 	ldw	r4,-28(fp)
     9bc:	00005fc0 	call	5fc <plot>
}

static void draw_arc(int cm, uint16_t c)
{
    int r = cm_to_px(cm);
    for (int a = 0; a <= 180; a += 2) {
     9c0:	e0bff517 	ldw	r2,-44(fp)
     9c4:	10800084 	addi	r2,r2,2
     9c8:	e0bff515 	stw	r2,-44(fp)
     9cc:	e0bff517 	ldw	r2,-44(fp)
     9d0:	10802d50 	cmplti	r2,r2,181
     9d4:	103fac1e 	bne	r2,zero,888 <__alt_mem_VGA_Subsystem_Char_Buf_Subsystem_Onchip_SRAM+0xf7000888>
        double rad = (double)a * PI / 180.0;
        int x = cx + (int)(cos(rad) * r);
        int y = cy - (int)(sin(rad) * r);
        plot(x, y, c);
    }
}
     9d8:	0001883a 	nop
     9dc:	e6fffd04 	addi	sp,fp,-12
     9e0:	dfc00417 	ldw	ra,16(sp)
     9e4:	df000317 	ldw	fp,12(sp)
     9e8:	dc800217 	ldw	r18,8(sp)
     9ec:	dc400117 	ldw	r17,4(sp)
     9f0:	dc000017 	ldw	r16,0(sp)
     9f4:	dec00504 	addi	sp,sp,20
     9f8:	f800283a 	ret

000009fc <main>:

int main(void)
{
     9fc:	deffe404 	addi	sp,sp,-112
     a00:	dfc01b15 	stw	ra,108(sp)
     a04:	df001a15 	stw	fp,104(sp)
     a08:	dc801915 	stw	r18,100(sp)
     a0c:	dc401815 	stw	r17,96(sp)
     a10:	dc001715 	stw	r16,92(sp)
     a14:	df001a04 	addi	fp,sp,104
    volatile int *res = (int *)(PIXEL_BUF_CTRL_BASE + 8);
     a18:	00bfc834 	movhi	r2,65312
     a1c:	108c0a04 	addi	r2,r2,12328
     a20:	e0bfeb15 	stw	r2,-84(fp)
    int sx = (*res) & 0xFFFF;
     a24:	e0bfeb17 	ldw	r2,-84(fp)
     a28:	10800017 	ldw	r2,0(r2)
     a2c:	10bfffcc 	andi	r2,r2,65535
     a30:	e0bfec15 	stw	r2,-80(fp)

    volatile int *rgb = (int *)(RGB_RESAMPLER_BASE);
     a34:	00810034 	movhi	r2,1024
     a38:	e0bfed15 	stw	r2,-76(fp)
    int db = (*rgb) & 0x3F;
     a3c:	e0bfed17 	ldw	r2,-76(fp)
     a40:	10800017 	ldw	r2,0(r2)
     a44:	10800fcc 	andi	r2,r2,63
     a48:	e0bfee15 	stw	r2,-72(fp)

    res_offset = (sx == 160) ? 1 : 0;
     a4c:	e0bfec17 	ldw	r2,-80(fp)
     a50:	10802820 	cmpeqi	r2,r2,160
     a54:	10803fcc 	andi	r2,r2,255
     a58:	d0a70a15 	stw	r2,-25560(gp)
    col_offset = (db == 8) ? 1 : 0;
     a5c:	e0bfee17 	ldw	r2,-72(fp)
     a60:	10800220 	cmpeqi	r2,r2,8
     a64:	10803fcc 	andi	r2,r2,255
     a68:	d0a70b15 	stw	r2,-25556(gp)

    cx = SCREEN_W / 2;
     a6c:	00802804 	movi	r2,160
     a70:	d0a70c15 	stw	r2,-25552(gp)
    cy = SCREEN_H - 10;
     a74:	00803984 	movi	r2,230
     a78:	d0a70d15 	stw	r2,-25548(gp)
    radar_r = 200;
     a7c:	00803204 	movi	r2,200
     a80:	d0a70e15 	stw	r2,-25544(gp)

    video_box(0, 0, SCREEN_W - 1, SCREEN_H - 1, BLACK);
     a84:	d8000015 	stw	zero,0(sp)
     a88:	01c03bc4 	movi	r7,239
     a8c:	01804fc4 	movi	r6,319
     a90:	000b883a 	mov	r5,zero
     a94:	0009883a 	mov	r4,zero
     a98:	00004280 	call	428 <video_box>
    clear_char_buffer();
     a9c:	00005680 	call	568 <clear_char_buffer>

    int arc1 = (RADAR_MAX_CM * 1) / 4;
     aa0:	00800484 	movi	r2,18
     aa4:	e0bfe715 	stw	r2,-100(fp)
    int arc2 = (RADAR_MAX_CM * 2) / 4;
     aa8:	00800944 	movi	r2,37
     aac:	e0bfef15 	stw	r2,-68(fp)
    int arc3 = (RADAR_MAX_CM * 3) / 4;
     ab0:	00800e04 	movi	r2,56
     ab4:	e0bff015 	stw	r2,-64(fp)
    int arcM = RADAR_MAX_CM;
     ab8:	008012c4 	movi	r2,75
     abc:	e0bff115 	stw	r2,-60(fp)

    if (arc1 < 1) arc1 = 1;
     ac0:	e0bfe717 	ldw	r2,-100(fp)
     ac4:	00800216 	blt	zero,r2,ad0 <main+0xd4>
     ac8:	00800044 	movi	r2,1
     acc:	e0bfe715 	stw	r2,-100(fp)

    draw_arc(arcM, WHITE);
     ad0:	017fffd4 	movui	r5,65535
     ad4:	e13ff117 	ldw	r4,-60(fp)
     ad8:	000084c0 	call	84c <draw_arc>
    draw_arc(arc3, GRAY);
     adc:	01610414 	movui	r5,33808
     ae0:	e13ff017 	ldw	r4,-64(fp)
     ae4:	000084c0 	call	84c <draw_arc>
    draw_arc(arc2, GRAY);
     ae8:	01610414 	movui	r5,33808
     aec:	e13fef17 	ldw	r4,-68(fp)
     af0:	000084c0 	call	84c <draw_arc>
    draw_arc(arc1, GRAY);
     af4:	01610414 	movui	r5,33808
     af8:	e13fe717 	ldw	r4,-100(fp)
     afc:	000084c0 	call	84c <draw_arc>

    draw_line(0, cy, SCREEN_W - 1, cy, BLUE);
     b00:	d0e70d17 	ldw	r3,-25548(gp)
     b04:	d1270d17 	ldw	r4,-25548(gp)
     b08:	008007c4 	movi	r2,31
     b0c:	d8800015 	stw	r2,0(sp)
     b10:	200f883a 	mov	r7,r4
     b14:	01804fc4 	movi	r6,319
     b18:	180b883a 	mov	r5,r3
     b1c:	0009883a 	mov	r4,zero
     b20:	00006f80 	call	6f8 <draw_line>
    draw_line(cx, 0, cx, SCREEN_H - 1, BLUE);
     b24:	d0e70c17 	ldw	r3,-25552(gp)
     b28:	d1270c17 	ldw	r4,-25552(gp)
     b2c:	008007c4 	movi	r2,31
     b30:	d8800015 	stw	r2,0(sp)
     b34:	01c03bc4 	movi	r7,239
     b38:	200d883a 	mov	r6,r4
     b3c:	000b883a 	mov	r5,zero
     b40:	1809883a 	mov	r4,r3
     b44:	00006f80 	call	6f8 <draw_line>

    uint32_t angle = 0;
     b48:	e03fe815 	stw	zero,-96(fp)
    int dir = +1;
     b4c:	00800044 	movi	r2,1
     b50:	e0bfe915 	stw	r2,-92(fp)

    while (1) {
        uint32_t sw = IORD_32DIRECT(SLIDER_SWITCHES_BASE, 0);
     b54:	00bfc834 	movhi	r2,65312
     b58:	10801004 	addi	r2,r2,64
     b5c:	10800037 	ldwio	r2,0(r2)
     b60:	e0bff215 	stw	r2,-56(fp)

        if ((sw & 0x1u) == 0u) {
     b64:	e0bff217 	ldw	r2,-56(fp)
     b68:	1080004c 	andi	r2,r2,1
     b6c:	1000041e 	bne	r2,zero,b80 <main+0x184>
            usleep(100000);
     b70:	010000b4 	movhi	r4,2
     b74:	2121a804 	addi	r4,r4,-31072
     b78:	00108580 	call	10858 <usleep>
     b7c:	003ff506 	br	b54 <__alt_mem_VGA_Subsystem_Char_Buf_Subsystem_Onchip_SRAM+0xf7000b54>
            continue;
        }

        IOWR_32DIRECT(SERVOMOTEUR_0_BASE, 0, pos_from_angle(angle));
     b80:	e13fe817 	ldw	r4,-96(fp)
     b84:	00003700 	call	370 <pos_from_angle>
     b88:	1007883a 	mov	r3,r2
     b8c:	00810034 	movhi	r2,1024
     b90:	10800104 	addi	r2,r2,4
     b94:	10c00035 	stwio	r3,0(r2)
        usleep(60000);
     b98:	013a9814 	movui	r4,60000
     b9c:	00108580 	call	10858 <usleep>

        uint32_t raw = IORD_32DIRECT(TELEMETRE_0_BASE, 0);
     ba0:	00810034 	movhi	r2,1024
     ba4:	10800204 	addi	r2,r2,8
     ba8:	10800037 	ldwio	r2,0(r2)
     bac:	e0bff315 	stw	r2,-52(fp)
        uint32_t dist = raw & 0x3FFu;
     bb0:	e0bff317 	ldw	r2,-52(fp)
     bb4:	1080ffcc 	andi	r2,r2,1023
     bb8:	e0bfea15 	stw	r2,-88(fp)
        if (dist > RADAR_MAX_CM) dist = RADAR_MAX_CM;
     bbc:	e0bfea17 	ldw	r2,-88(fp)
     bc0:	10801330 	cmpltui	r2,r2,76
     bc4:	1000021e 	bne	r2,zero,bd0 <main+0x1d4>
     bc8:	008012c4 	movi	r2,75
     bcc:	e0bfea15 	stw	r2,-88(fp)

        double rad = (double)angle * PI / 180.0;
     bd0:	e13fe817 	ldw	r4,-96(fp)
     bd4:	0005a140 	call	5a14 <__floatunsidf>
     bd8:	1011883a 	mov	r8,r2
     bdc:	1813883a 	mov	r9,r3
     be0:	01980034 	movhi	r6,24576
     be4:	01d00274 	movhi	r7,16393
     be8:	39c87ec4 	addi	r7,r7,8699
     bec:	4009883a 	mov	r4,r8
     bf0:	480b883a 	mov	r5,r9
     bf4:	00047500 	call	4750 <__muldf3>
     bf8:	1009883a 	mov	r4,r2
     bfc:	180b883a 	mov	r5,r3
     c00:	2005883a 	mov	r2,r4
     c04:	2807883a 	mov	r3,r5
     c08:	000d883a 	mov	r6,zero
     c0c:	01d019f4 	movhi	r7,16487
     c10:	39e00004 	addi	r7,r7,-32768
     c14:	1009883a 	mov	r4,r2
     c18:	180b883a 	mov	r5,r3
     c1c:	0003c1c0 	call	3c1c <__divdf3>
     c20:	1009883a 	mov	r4,r2
     c24:	180b883a 	mov	r5,r3
     c28:	e13ff415 	stw	r4,-48(fp)
     c2c:	e17ff515 	stw	r5,-44(fp)
        int r_obj = cm_to_px((int)dist);
     c30:	e0bfea17 	ldw	r2,-88(fp)
     c34:	1009883a 	mov	r4,r2
     c38:	00003c40 	call	3c4 <cm_to_px>
     c3c:	e0bff615 	stw	r2,-40(fp)

        int x_obj = cx + (int)(cos(rad) * r_obj);
     c40:	e13ff417 	ldw	r4,-48(fp)
     c44:	e17ff517 	ldw	r5,-44(fp)
     c48:	0000f8c0 	call	f8c <cos>
     c4c:	1021883a 	mov	r16,r2
     c50:	1823883a 	mov	r17,r3
     c54:	e13ff617 	ldw	r4,-40(fp)
     c58:	00059380 	call	5938 <__floatsidf>
     c5c:	1009883a 	mov	r4,r2
     c60:	180b883a 	mov	r5,r3
     c64:	200d883a 	mov	r6,r4
     c68:	280f883a 	mov	r7,r5
     c6c:	8009883a 	mov	r4,r16
     c70:	880b883a 	mov	r5,r17
     c74:	00047500 	call	4750 <__muldf3>
     c78:	1009883a 	mov	r4,r2
     c7c:	180b883a 	mov	r5,r3
     c80:	2005883a 	mov	r2,r4
     c84:	2807883a 	mov	r3,r5
     c88:	1009883a 	mov	r4,r2
     c8c:	180b883a 	mov	r5,r3
     c90:	00058b80 	call	58b8 <__fixdfsi>
     c94:	1007883a 	mov	r3,r2
     c98:	d0a70c17 	ldw	r2,-25552(gp)
     c9c:	1885883a 	add	r2,r3,r2
     ca0:	e0bff715 	stw	r2,-36(fp)
        int y_obj = cy - (int)(sin(rad) * r_obj);
     ca4:	d4a70d17 	ldw	r18,-25548(gp)
     ca8:	e13ff417 	ldw	r4,-48(fp)
     cac:	e17ff517 	ldw	r5,-44(fp)
     cb0:	00010780 	call	1078 <sin>
     cb4:	1021883a 	mov	r16,r2
     cb8:	1823883a 	mov	r17,r3
     cbc:	e13ff617 	ldw	r4,-40(fp)
     cc0:	00059380 	call	5938 <__floatsidf>
     cc4:	1009883a 	mov	r4,r2
     cc8:	180b883a 	mov	r5,r3
     ccc:	200d883a 	mov	r6,r4
     cd0:	280f883a 	mov	r7,r5
     cd4:	8009883a 	mov	r4,r16
     cd8:	880b883a 	mov	r5,r17
     cdc:	00047500 	call	4750 <__muldf3>
     ce0:	1009883a 	mov	r4,r2
     ce4:	180b883a 	mov	r5,r3
     ce8:	2005883a 	mov	r2,r4
     cec:	2807883a 	mov	r3,r5
     cf0:	1009883a 	mov	r4,r2
     cf4:	180b883a 	mov	r5,r3
     cf8:	00058b80 	call	58b8 <__fixdfsi>
     cfc:	9085c83a 	sub	r2,r18,r2
     d00:	e0bff815 	stw	r2,-32(fp)
        int x_max = cx + (int)(cos(rad) * radar_r);
     d04:	e13ff417 	ldw	r4,-48(fp)
     d08:	e17ff517 	ldw	r5,-44(fp)
     d0c:	0000f8c0 	call	f8c <cos>
     d10:	1021883a 	mov	r16,r2
     d14:	1823883a 	mov	r17,r3
     d18:	d0a70e17 	ldw	r2,-25544(gp)
     d1c:	1009883a 	mov	r4,r2
     d20:	00059380 	call	5938 <__floatsidf>
     d24:	1009883a 	mov	r4,r2
     d28:	180b883a 	mov	r5,r3
     d2c:	200d883a 	mov	r6,r4
     d30:	280f883a 	mov	r7,r5
     d34:	8009883a 	mov	r4,r16
     d38:	880b883a 	mov	r5,r17
     d3c:	00047500 	call	4750 <__muldf3>
     d40:	1009883a 	mov	r4,r2
     d44:	180b883a 	mov	r5,r3
     d48:	2005883a 	mov	r2,r4
     d4c:	2807883a 	mov	r3,r5
     d50:	1009883a 	mov	r4,r2
     d54:	180b883a 	mov	r5,r3
     d58:	00058b80 	call	58b8 <__fixdfsi>
     d5c:	1007883a 	mov	r3,r2
     d60:	d0a70c17 	ldw	r2,-25552(gp)
     d64:	1885883a 	add	r2,r3,r2
     d68:	e0bff915 	stw	r2,-28(fp)
        int y_max = cy - (int)(sin(rad) * radar_r);
     d6c:	d4a70d17 	ldw	r18,-25548(gp)
     d70:	e13ff417 	ldw	r4,-48(fp)
     d74:	e17ff517 	ldw	r5,-44(fp)
     d78:	00010780 	call	1078 <sin>
     d7c:	1021883a 	mov	r16,r2
     d80:	1823883a 	mov	r17,r3
     d84:	d0a70e17 	ldw	r2,-25544(gp)
     d88:	1009883a 	mov	r4,r2
     d8c:	00059380 	call	5938 <__floatsidf>
     d90:	1009883a 	mov	r4,r2
     d94:	180b883a 	mov	r5,r3
     d98:	200d883a 	mov	r6,r4
     d9c:	280f883a 	mov	r7,r5
     da0:	8009883a 	mov	r4,r16
     da4:	880b883a 	mov	r5,r17
     da8:	00047500 	call	4750 <__muldf3>
     dac:	1009883a 	mov	r4,r2
     db0:	180b883a 	mov	r5,r3
     db4:	2005883a 	mov	r2,r4
     db8:	2807883a 	mov	r3,r5
     dbc:	1009883a 	mov	r4,r2
     dc0:	180b883a 	mov	r5,r3
     dc4:	00058b80 	call	58b8 <__fixdfsi>
     dc8:	9085c83a 	sub	r2,r18,r2
     dcc:	e0bffa15 	stw	r2,-24(fp)

        draw_line(cx, cy, x_obj, y_obj, GREEN);
     dd0:	d0e70c17 	ldw	r3,-25552(gp)
     dd4:	d1270d17 	ldw	r4,-25548(gp)
     dd8:	0081f804 	movi	r2,2016
     ddc:	d8800015 	stw	r2,0(sp)
     de0:	e1fff817 	ldw	r7,-32(fp)
     de4:	e1bff717 	ldw	r6,-36(fp)
     de8:	200b883a 	mov	r5,r4
     dec:	1809883a 	mov	r4,r3
     df0:	00006f80 	call	6f8 <draw_line>
        draw_line(x_obj, y_obj, x_max, y_max, RED);
     df4:	00be0014 	movui	r2,63488
     df8:	d8800015 	stw	r2,0(sp)
     dfc:	e1fffa17 	ldw	r7,-24(fp)
     e00:	e1bff917 	ldw	r6,-28(fp)
     e04:	e17ff817 	ldw	r5,-32(fp)
     e08:	e13ff717 	ldw	r4,-36(fp)
     e0c:	00006f80 	call	6f8 <draw_line>

        printf("%lu -> %lu cm\n", (unsigned long)angle, (unsigned long)dist);
     e10:	e1bfea17 	ldw	r6,-88(fp)
     e14:	e17fe817 	ldw	r5,-96(fp)
     e18:	01000074 	movhi	r4,1
     e1c:	210bce04 	addi	r4,r4,12088
     e20:	0005b500 	call	5b50 <printf>

        uint8_t ah, at, au, dh, dt, du;
        split3(angle, &ah, &at, &au);
     e24:	e13ffb84 	addi	r4,fp,-18
     e28:	e0fffb44 	addi	r3,fp,-19
     e2c:	e0bffb04 	addi	r2,fp,-20
     e30:	200f883a 	mov	r7,r4
     e34:	180d883a 	mov	r6,r3
     e38:	100b883a 	mov	r5,r2
     e3c:	e13fe817 	ldw	r4,-96(fp)
     e40:	00002b80 	call	2b8 <split3>
        split3(dist,  &dh, &dt, &du);
     e44:	e13ffc44 	addi	r4,fp,-15
     e48:	e0fffc04 	addi	r3,fp,-16
     e4c:	e0bffbc4 	addi	r2,fp,-17
     e50:	200f883a 	mov	r7,r4
     e54:	180d883a 	mov	r6,r3
     e58:	100b883a 	mov	r5,r2
     e5c:	e13fea17 	ldw	r4,-88(fp)
     e60:	00002b80 	call	2b8 <split3>

        IOWR_32DIRECT(HEX3_HEX0_BASE, 0,
     e64:	e0bffb83 	ldbu	r2,-18(fp)
     e68:	10803fcc 	andi	r2,r2,255
     e6c:	1009883a 	mov	r4,r2
     e70:	000026c0 	call	26c <seg7>
     e74:	14003fcc 	andi	r16,r2,255
     e78:	e0bffb43 	ldbu	r2,-19(fp)
     e7c:	10803fcc 	andi	r2,r2,255
     e80:	1009883a 	mov	r4,r2
     e84:	000026c0 	call	26c <seg7>
     e88:	10803fcc 	andi	r2,r2,255
     e8c:	1004923a 	slli	r2,r2,8
     e90:	80a0b03a 	or	r16,r16,r2
     e94:	e0bffb03 	ldbu	r2,-20(fp)
     e98:	10803fcc 	andi	r2,r2,255
     e9c:	1009883a 	mov	r4,r2
     ea0:	000026c0 	call	26c <seg7>
     ea4:	10803fcc 	andi	r2,r2,255
     ea8:	1004943a 	slli	r2,r2,16
     eac:	80a0b03a 	or	r16,r16,r2
     eb0:	e0bffc43 	ldbu	r2,-15(fp)
     eb4:	10803fcc 	andi	r2,r2,255
     eb8:	1009883a 	mov	r4,r2
     ebc:	000026c0 	call	26c <seg7>
     ec0:	10803fcc 	andi	r2,r2,255
     ec4:	1004963a 	slli	r2,r2,24
     ec8:	8084b03a 	or	r2,r16,r2
     ecc:	1007883a 	mov	r3,r2
     ed0:	00bfc834 	movhi	r2,65312
     ed4:	10800804 	addi	r2,r2,32
     ed8:	10c00035 	stwio	r3,0(r2)
            ((uint32_t)seg7(au) << 0)  |
            ((uint32_t)seg7(at) << 8)  |
            ((uint32_t)seg7(ah) << 16) |
            ((uint32_t)seg7(du) << 24));

        IOWR_32DIRECT(HEX5_HEX4_BASE, 0,
     edc:	e0bffc03 	ldbu	r2,-16(fp)
     ee0:	10803fcc 	andi	r2,r2,255
     ee4:	1009883a 	mov	r4,r2
     ee8:	000026c0 	call	26c <seg7>
     eec:	14003fcc 	andi	r16,r2,255
     ef0:	e0bffbc3 	ldbu	r2,-17(fp)
     ef4:	10803fcc 	andi	r2,r2,255
     ef8:	1009883a 	mov	r4,r2
     efc:	000026c0 	call	26c <seg7>
     f00:	10803fcc 	andi	r2,r2,255
     f04:	1004923a 	slli	r2,r2,8
     f08:	8084b03a 	or	r2,r16,r2
     f0c:	1007883a 	mov	r3,r2
     f10:	00bfc834 	movhi	r2,65312
     f14:	10800c04 	addi	r2,r2,48
     f18:	10c00035 	stwio	r3,0(r2)
            ((uint32_t)seg7(dt) << 0) |
            ((uint32_t)seg7(dh) << 8));

        if (dir > 0) {
     f1c:	e0bfe917 	ldw	r2,-92(fp)
     f20:	00800d0e 	bge	zero,r2,f58 <main+0x55c>
            if (angle + STEP_DEG >= 180u) { angle = 180u; dir = -1; }
     f24:	e0bfe817 	ldw	r2,-96(fp)
     f28:	10800084 	addi	r2,r2,2
     f2c:	10802d30 	cmpltui	r2,r2,180
     f30:	1000051e 	bne	r2,zero,f48 <main+0x54c>
     f34:	00802d04 	movi	r2,180
     f38:	e0bfe815 	stw	r2,-96(fp)
     f3c:	00bfffc4 	movi	r2,-1
     f40:	e0bfe915 	stw	r2,-92(fp)
     f44:	00000e06 	br	f80 <main+0x584>
            else angle += STEP_DEG;
     f48:	e0bfe817 	ldw	r2,-96(fp)
     f4c:	10800084 	addi	r2,r2,2
     f50:	e0bfe815 	stw	r2,-96(fp)
     f54:	00000a06 	br	f80 <main+0x584>
        } else {
            if (angle <= STEP_DEG) { angle = 0u; dir = +1; }
     f58:	e0bfe817 	ldw	r2,-96(fp)
     f5c:	108000e8 	cmpgeui	r2,r2,3
     f60:	1000041e 	bne	r2,zero,f74 <main+0x578>
     f64:	e03fe815 	stw	zero,-96(fp)
     f68:	00800044 	movi	r2,1
     f6c:	e0bfe915 	stw	r2,-92(fp)
     f70:	00000306 	br	f80 <main+0x584>
            else angle -= STEP_DEG;
     f74:	e0bfe817 	ldw	r2,-96(fp)
     f78:	10bfff84 	addi	r2,r2,-2
     f7c:	e0bfe815 	stw	r2,-96(fp)
        }

        usleep(40000);
     f80:	01271014 	movui	r4,40000
     f84:	00108580 	call	10858 <usleep>
    }
     f88:	003ef206 	br	b54 <__alt_mem_VGA_Subsystem_Char_Buf_Subsystem_Onchip_SRAM+0xf7000b54>

00000f8c <cos>:
     f8c:	00a00034 	movhi	r2,32768
     f90:	defffa04 	addi	sp,sp,-24
     f94:	10bfffc4 	addi	r2,r2,-1
     f98:	00cffa74 	movhi	r3,16361
     f9c:	dfc00515 	stw	ra,20(sp)
     fa0:	2884703a 	and	r2,r5,r2
     fa4:	18c87ec4 	addi	r3,r3,8699
     fa8:	1880180e 	bge	r3,r2,100c <cos+0x80>
     fac:	00dffc34 	movhi	r3,32752
     fb0:	18ffffc4 	addi	r3,r3,-1
     fb4:	1880060e 	bge	r3,r2,fd0 <cos+0x44>
     fb8:	280f883a 	mov	r7,r5
     fbc:	200d883a 	mov	r6,r4
     fc0:	0004fbc0 	call	4fbc <__subdf3>
     fc4:	dfc00517 	ldw	ra,20(sp)
     fc8:	dec00604 	addi	sp,sp,24
     fcc:	f800283a 	ret
     fd0:	d9800104 	addi	r6,sp,4
     fd4:	00011680 	call	1168 <__ieee754_rem_pio2>
     fd8:	108000cc 	andi	r2,r2,3
     fdc:	00c00044 	movi	r3,1
     fe0:	10c01726 	beq	r2,r3,1040 <cos+0xb4>
     fe4:	01000084 	movi	r4,2
     fe8:	11000e26 	beq	r2,r4,1024 <cos+0x98>
     fec:	10001c26 	beq	r2,zero,1060 <cos+0xd4>
     ff0:	d9800317 	ldw	r6,12(sp)
     ff4:	d9c00417 	ldw	r7,16(sp)
     ff8:	d9000117 	ldw	r4,4(sp)
     ffc:	d9400217 	ldw	r5,8(sp)
    1000:	d8c00015 	stw	r3,0(sp)
    1004:	0002b100 	call	2b10 <__kernel_sin>
    1008:	003fee06 	br	fc4 <__alt_mem_VGA_Subsystem_Char_Buf_Subsystem_Onchip_SRAM+0xf7000fc4>
    100c:	000d883a 	mov	r6,zero
    1010:	000f883a 	mov	r7,zero
    1014:	00018d40 	call	18d4 <__kernel_cos>
    1018:	dfc00517 	ldw	ra,20(sp)
    101c:	dec00604 	addi	sp,sp,24
    1020:	f800283a 	ret
    1024:	d9800317 	ldw	r6,12(sp)
    1028:	d9c00417 	ldw	r7,16(sp)
    102c:	d9000117 	ldw	r4,4(sp)
    1030:	d9400217 	ldw	r5,8(sp)
    1034:	00018d40 	call	18d4 <__kernel_cos>
    1038:	18e0003c 	xorhi	r3,r3,32768
    103c:	003fe106 	br	fc4 <__alt_mem_VGA_Subsystem_Char_Buf_Subsystem_Onchip_SRAM+0xf7000fc4>
    1040:	d9800317 	ldw	r6,12(sp)
    1044:	d9c00417 	ldw	r7,16(sp)
    1048:	d9000117 	ldw	r4,4(sp)
    104c:	d9400217 	ldw	r5,8(sp)
    1050:	d8800015 	stw	r2,0(sp)
    1054:	0002b100 	call	2b10 <__kernel_sin>
    1058:	18e0003c 	xorhi	r3,r3,32768
    105c:	003fd906 	br	fc4 <__alt_mem_VGA_Subsystem_Char_Buf_Subsystem_Onchip_SRAM+0xf7000fc4>
    1060:	d9800317 	ldw	r6,12(sp)
    1064:	d9c00417 	ldw	r7,16(sp)
    1068:	d9000117 	ldw	r4,4(sp)
    106c:	d9400217 	ldw	r5,8(sp)
    1070:	00018d40 	call	18d4 <__kernel_cos>
    1074:	003fd306 	br	fc4 <__alt_mem_VGA_Subsystem_Char_Buf_Subsystem_Onchip_SRAM+0xf7000fc4>

00001078 <sin>:
    1078:	00a00034 	movhi	r2,32768
    107c:	defffa04 	addi	sp,sp,-24
    1080:	10bfffc4 	addi	r2,r2,-1
    1084:	00cffa74 	movhi	r3,16361
    1088:	dfc00515 	stw	ra,20(sp)
    108c:	2884703a 	and	r2,r5,r2
    1090:	18c87ec4 	addi	r3,r3,8699
    1094:	1880180e 	bge	r3,r2,10f8 <sin+0x80>
    1098:	00dffc34 	movhi	r3,32752
    109c:	18ffffc4 	addi	r3,r3,-1
    10a0:	1880060e 	bge	r3,r2,10bc <sin+0x44>
    10a4:	280f883a 	mov	r7,r5
    10a8:	200d883a 	mov	r6,r4
    10ac:	0004fbc0 	call	4fbc <__subdf3>
    10b0:	dfc00517 	ldw	ra,20(sp)
    10b4:	dec00604 	addi	sp,sp,24
    10b8:	f800283a 	ret
    10bc:	d9800104 	addi	r6,sp,4
    10c0:	00011680 	call	1168 <__ieee754_rem_pio2>
    10c4:	108000cc 	andi	r2,r2,3
    10c8:	00c00044 	movi	r3,1
    10cc:	10c01926 	beq	r2,r3,1134 <sin+0xbc>
    10d0:	01000084 	movi	r4,2
    10d4:	11000f26 	beq	r2,r4,1114 <sin+0x9c>
    10d8:	10001c26 	beq	r2,zero,114c <sin+0xd4>
    10dc:	d9800317 	ldw	r6,12(sp)
    10e0:	d9c00417 	ldw	r7,16(sp)
    10e4:	d9000117 	ldw	r4,4(sp)
    10e8:	d9400217 	ldw	r5,8(sp)
    10ec:	00018d40 	call	18d4 <__kernel_cos>
    10f0:	18e0003c 	xorhi	r3,r3,32768
    10f4:	003fee06 	br	10b0 <__alt_mem_VGA_Subsystem_Char_Buf_Subsystem_Onchip_SRAM+0xf70010b0>
    10f8:	d8000015 	stw	zero,0(sp)
    10fc:	000d883a 	mov	r6,zero
    1100:	000f883a 	mov	r7,zero
    1104:	0002b100 	call	2b10 <__kernel_sin>
    1108:	dfc00517 	ldw	ra,20(sp)
    110c:	dec00604 	addi	sp,sp,24
    1110:	f800283a 	ret
    1114:	d9800317 	ldw	r6,12(sp)
    1118:	d9c00417 	ldw	r7,16(sp)
    111c:	d9000117 	ldw	r4,4(sp)
    1120:	d9400217 	ldw	r5,8(sp)
    1124:	d8c00015 	stw	r3,0(sp)
    1128:	0002b100 	call	2b10 <__kernel_sin>
    112c:	18e0003c 	xorhi	r3,r3,32768
    1130:	003fdf06 	br	10b0 <__alt_mem_VGA_Subsystem_Char_Buf_Subsystem_Onchip_SRAM+0xf70010b0>
    1134:	d9800317 	ldw	r6,12(sp)
    1138:	d9c00417 	ldw	r7,16(sp)
    113c:	d9000117 	ldw	r4,4(sp)
    1140:	d9400217 	ldw	r5,8(sp)
    1144:	00018d40 	call	18d4 <__kernel_cos>
    1148:	003fd906 	br	10b0 <__alt_mem_VGA_Subsystem_Char_Buf_Subsystem_Onchip_SRAM+0xf70010b0>
    114c:	d9800317 	ldw	r6,12(sp)
    1150:	d9c00417 	ldw	r7,16(sp)
    1154:	d9000117 	ldw	r4,4(sp)
    1158:	d9400217 	ldw	r5,8(sp)
    115c:	d8c00015 	stw	r3,0(sp)
    1160:	0002b100 	call	2b10 <__kernel_sin>
    1164:	003fd206 	br	10b0 <__alt_mem_VGA_Subsystem_Char_Buf_Subsystem_Onchip_SRAM+0xf70010b0>

00001168 <__ieee754_rem_pio2>:
    1168:	02200034 	movhi	r8,32768
    116c:	deffea04 	addi	sp,sp,-88
    1170:	423fffc4 	addi	r8,r8,-1
    1174:	00cffa74 	movhi	r3,16361
    1178:	ddc01315 	stw	r23,76(sp)
    117c:	dc400d15 	stw	r17,52(sp)
    1180:	dfc01515 	stw	ra,84(sp)
    1184:	df001415 	stw	fp,80(sp)
    1188:	dd801215 	stw	r22,72(sp)
    118c:	dd401115 	stw	r21,68(sp)
    1190:	dd001015 	stw	r20,64(sp)
    1194:	dcc00f15 	stw	r19,60(sp)
    1198:	dc800e15 	stw	r18,56(sp)
    119c:	dc000c15 	stw	r16,48(sp)
    11a0:	2a2e703a 	and	r23,r5,r8
    11a4:	18c87ec4 	addi	r3,r3,8699
    11a8:	2823883a 	mov	r17,r5
    11ac:	1dc0790e 	bge	r3,r23,1394 <__ieee754_rem_pio2+0x22c>
    11b0:	009000f4 	movhi	r2,16387
    11b4:	10b65ec4 	addi	r2,r2,-9861
    11b8:	3021883a 	mov	r16,r6
    11bc:	2027883a 	mov	r19,r4
    11c0:	15c02316 	blt	r2,r23,1250 <__ieee754_rem_pio2+0xe8>
    11c4:	01cffe74 	movhi	r7,16377
    11c8:	39c87ec4 	addi	r7,r7,8699
    11cc:	01951034 	movhi	r6,21568
    11d0:	01417a0e 	bge	zero,r5,17bc <__ieee754_rem_pio2+0x654>
    11d4:	0004fbc0 	call	4fbc <__subdf3>
    11d8:	1025883a 	mov	r18,r2
    11dc:	008ffe74 	movhi	r2,16377
    11e0:	10887ec4 	addi	r2,r2,8699
    11e4:	1823883a 	mov	r17,r3
    11e8:	b8808426 	beq	r23,r2,13fc <__ieee754_rem_pio2+0x294>
    11ec:	018698b4 	movhi	r6,6754
    11f0:	01cf7474 	movhi	r7,15825
    11f4:	3198cc44 	addi	r6,r6,25393
    11f8:	39ed1844 	addi	r7,r7,-19359
    11fc:	9009883a 	mov	r4,r18
    1200:	180b883a 	mov	r5,r3
    1204:	0004fbc0 	call	4fbc <__subdf3>
    1208:	100d883a 	mov	r6,r2
    120c:	180f883a 	mov	r7,r3
    1210:	9009883a 	mov	r4,r18
    1214:	880b883a 	mov	r5,r17
    1218:	80800015 	stw	r2,0(r16)
    121c:	80c00115 	stw	r3,4(r16)
    1220:	0004fbc0 	call	4fbc <__subdf3>
    1224:	018698b4 	movhi	r6,6754
    1228:	01cf7474 	movhi	r7,15825
    122c:	3198cc44 	addi	r6,r6,25393
    1230:	39ed1844 	addi	r7,r7,-19359
    1234:	1009883a 	mov	r4,r2
    1238:	180b883a 	mov	r5,r3
    123c:	0004fbc0 	call	4fbc <__subdf3>
    1240:	80800215 	stw	r2,8(r16)
    1244:	80c00315 	stw	r3,12(r16)
    1248:	00800044 	movi	r2,1
    124c:	00005606 	br	13a8 <__ieee754_rem_pio2+0x240>
    1250:	00904e74 	movhi	r2,16697
    1254:	10887ec4 	addi	r2,r2,8699
    1258:	15c0830e 	bge	r2,r23,1468 <__ieee754_rem_pio2+0x300>
    125c:	009ffc34 	movhi	r2,32752
    1260:	10bfffc4 	addi	r2,r2,-1
    1264:	15c05c16 	blt	r2,r23,13d8 <__ieee754_rem_pio2+0x270>
    1268:	b829d53a 	srai	r20,r23,20
    126c:	a53efa84 	addi	r20,r20,-1046
    1270:	a024953a 	slli	r18,r20,20
    1274:	bca5c83a 	sub	r18,r23,r18
    1278:	900b883a 	mov	r5,r18
    127c:	00058b80 	call	58b8 <__fixdfsi>
    1280:	1009883a 	mov	r4,r2
    1284:	00059380 	call	5938 <__floatsidf>
    1288:	9809883a 	mov	r4,r19
    128c:	900b883a 	mov	r5,r18
    1290:	100d883a 	mov	r6,r2
    1294:	180f883a 	mov	r7,r3
    1298:	d8800215 	stw	r2,8(sp)
    129c:	d8c00315 	stw	r3,12(sp)
    12a0:	0004fbc0 	call	4fbc <__subdf3>
    12a4:	000d883a 	mov	r6,zero
    12a8:	01d05c34 	movhi	r7,16752
    12ac:	1009883a 	mov	r4,r2
    12b0:	180b883a 	mov	r5,r3
    12b4:	00047500 	call	4750 <__muldf3>
    12b8:	180b883a 	mov	r5,r3
    12bc:	1009883a 	mov	r4,r2
    12c0:	182b883a 	mov	r21,r3
    12c4:	102d883a 	mov	r22,r2
    12c8:	00058b80 	call	58b8 <__fixdfsi>
    12cc:	1009883a 	mov	r4,r2
    12d0:	00059380 	call	5938 <__floatsidf>
    12d4:	100d883a 	mov	r6,r2
    12d8:	180f883a 	mov	r7,r3
    12dc:	b009883a 	mov	r4,r22
    12e0:	a80b883a 	mov	r5,r21
    12e4:	1027883a 	mov	r19,r2
    12e8:	1825883a 	mov	r18,r3
    12ec:	d8800415 	stw	r2,16(sp)
    12f0:	d8c00515 	stw	r3,20(sp)
    12f4:	0004fbc0 	call	4fbc <__subdf3>
    12f8:	000d883a 	mov	r6,zero
    12fc:	01d05c34 	movhi	r7,16752
    1300:	1009883a 	mov	r4,r2
    1304:	180b883a 	mov	r5,r3
    1308:	00047500 	call	4750 <__muldf3>
    130c:	000d883a 	mov	r6,zero
    1310:	000f883a 	mov	r7,zero
    1314:	1009883a 	mov	r4,r2
    1318:	180b883a 	mov	r5,r3
    131c:	d8800615 	stw	r2,24(sp)
    1320:	d8c00715 	stw	r3,28(sp)
    1324:	00045ec0 	call	45ec <__eqdf2>
    1328:	1001431e 	bne	r2,zero,1838 <__ieee754_rem_pio2+0x6d0>
    132c:	000f883a 	mov	r7,zero
    1330:	000d883a 	mov	r6,zero
    1334:	9809883a 	mov	r4,r19
    1338:	900b883a 	mov	r5,r18
    133c:	00045ec0 	call	45ec <__eqdf2>
    1340:	100f003a 	cmpeq	r7,r2,zero
    1344:	00800084 	movi	r2,2
    1348:	11cfc83a 	sub	r7,r2,r7
    134c:	00800084 	movi	r2,2
    1350:	d8800015 	stw	r2,0(sp)
    1354:	00800074 	movhi	r2,1
    1358:	108bf204 	addi	r2,r2,12232
    135c:	d8800115 	stw	r2,4(sp)
    1360:	a00d883a 	mov	r6,r20
    1364:	800b883a 	mov	r5,r16
    1368:	d9000204 	addi	r4,sp,8
    136c:	0001d780 	call	1d78 <__kernel_rem_pio2>
    1370:	88000d0e 	bge	r17,zero,13a8 <__ieee754_rem_pio2+0x240>
    1374:	81000117 	ldw	r4,4(r16)
    1378:	80c00317 	ldw	r3,12(r16)
    137c:	0085c83a 	sub	r2,zero,r2
    1380:	2120003c 	xorhi	r4,r4,32768
    1384:	18e0003c 	xorhi	r3,r3,32768
    1388:	81000115 	stw	r4,4(r16)
    138c:	80c00315 	stw	r3,12(r16)
    1390:	00000506 	br	13a8 <__ieee754_rem_pio2+0x240>
    1394:	31000015 	stw	r4,0(r6)
    1398:	31400115 	stw	r5,4(r6)
    139c:	30000215 	stw	zero,8(r6)
    13a0:	30000315 	stw	zero,12(r6)
    13a4:	0005883a 	mov	r2,zero
    13a8:	dfc01517 	ldw	ra,84(sp)
    13ac:	df001417 	ldw	fp,80(sp)
    13b0:	ddc01317 	ldw	r23,76(sp)
    13b4:	dd801217 	ldw	r22,72(sp)
    13b8:	dd401117 	ldw	r21,68(sp)
    13bc:	dd001017 	ldw	r20,64(sp)
    13c0:	dcc00f17 	ldw	r19,60(sp)
    13c4:	dc800e17 	ldw	r18,56(sp)
    13c8:	dc400d17 	ldw	r17,52(sp)
    13cc:	dc000c17 	ldw	r16,48(sp)
    13d0:	dec01604 	addi	sp,sp,88
    13d4:	f800283a 	ret
    13d8:	200d883a 	mov	r6,r4
    13dc:	280f883a 	mov	r7,r5
    13e0:	0004fbc0 	call	4fbc <__subdf3>
    13e4:	80800215 	stw	r2,8(r16)
    13e8:	80800015 	stw	r2,0(r16)
    13ec:	80c00315 	stw	r3,12(r16)
    13f0:	80c00115 	stw	r3,4(r16)
    13f4:	0005883a 	mov	r2,zero
    13f8:	003feb06 	br	13a8 <__alt_mem_VGA_Subsystem_Char_Buf_Subsystem_Onchip_SRAM+0xf70013a8>
    13fc:	01cf7474 	movhi	r7,15825
    1400:	9009883a 	mov	r4,r18
    1404:	39ed1844 	addi	r7,r7,-19359
    1408:	01869834 	movhi	r6,6752
    140c:	180b883a 	mov	r5,r3
    1410:	0004fbc0 	call	4fbc <__subdf3>
    1414:	018b80f4 	movhi	r6,11779
    1418:	01cee8f4 	movhi	r7,15267
    141c:	319c1cc4 	addi	r6,r6,28787
    1420:	39c66284 	addi	r7,r7,6538
    1424:	1009883a 	mov	r4,r2
    1428:	180b883a 	mov	r5,r3
    142c:	1025883a 	mov	r18,r2
    1430:	1823883a 	mov	r17,r3
    1434:	0004fbc0 	call	4fbc <__subdf3>
    1438:	100d883a 	mov	r6,r2
    143c:	180f883a 	mov	r7,r3
    1440:	9009883a 	mov	r4,r18
    1444:	880b883a 	mov	r5,r17
    1448:	80800015 	stw	r2,0(r16)
    144c:	80c00115 	stw	r3,4(r16)
    1450:	0004fbc0 	call	4fbc <__subdf3>
    1454:	018b80f4 	movhi	r6,11779
    1458:	01cee8f4 	movhi	r7,15267
    145c:	319c1cc4 	addi	r6,r6,28787
    1460:	39c66284 	addi	r7,r7,6538
    1464:	003f7306 	br	1234 <__alt_mem_VGA_Subsystem_Char_Buf_Subsystem_Onchip_SRAM+0xf7001234>
    1468:	0002ddc0 	call	2ddc <fabs>
    146c:	019b72b4 	movhi	r6,28106
    1470:	01cff934 	movhi	r7,16356
    1474:	31b220c4 	addi	r6,r6,-14205
    1478:	39d7cc04 	addi	r7,r7,24368
    147c:	1009883a 	mov	r4,r2
    1480:	180b883a 	mov	r5,r3
    1484:	102d883a 	mov	r22,r2
    1488:	182b883a 	mov	r21,r3
    148c:	00047500 	call	4750 <__muldf3>
    1490:	000d883a 	mov	r6,zero
    1494:	01cff834 	movhi	r7,16352
    1498:	1009883a 	mov	r4,r2
    149c:	180b883a 	mov	r5,r3
    14a0:	00033700 	call	3370 <__adddf3>
    14a4:	180b883a 	mov	r5,r3
    14a8:	1009883a 	mov	r4,r2
    14ac:	00058b80 	call	58b8 <__fixdfsi>
    14b0:	1009883a 	mov	r4,r2
    14b4:	1025883a 	mov	r18,r2
    14b8:	00059380 	call	5938 <__floatsidf>
    14bc:	01cffe74 	movhi	r7,16377
    14c0:	39c87ec4 	addi	r7,r7,8699
    14c4:	01951034 	movhi	r6,21568
    14c8:	1009883a 	mov	r4,r2
    14cc:	180b883a 	mov	r5,r3
    14d0:	1029883a 	mov	r20,r2
    14d4:	1827883a 	mov	r19,r3
    14d8:	00047500 	call	4750 <__muldf3>
    14dc:	b009883a 	mov	r4,r22
    14e0:	a80b883a 	mov	r5,r21
    14e4:	100d883a 	mov	r6,r2
    14e8:	180f883a 	mov	r7,r3
    14ec:	0004fbc0 	call	4fbc <__subdf3>
    14f0:	018698b4 	movhi	r6,6754
    14f4:	01cf7474 	movhi	r7,15825
    14f8:	a009883a 	mov	r4,r20
    14fc:	3198cc44 	addi	r6,r6,25393
    1500:	39ed1844 	addi	r7,r7,-19359
    1504:	980b883a 	mov	r5,r19
    1508:	1039883a 	mov	fp,r2
    150c:	d8c00815 	stw	r3,32(sp)
    1510:	00047500 	call	4750 <__muldf3>
    1514:	010007c4 	movi	r4,31
    1518:	e017883a 	mov	r11,fp
    151c:	da800817 	ldw	r10,32(sp)
    1520:	102d883a 	mov	r22,r2
    1524:	182b883a 	mov	r21,r3
    1528:	24802816 	blt	r4,r18,15cc <__ieee754_rem_pio2+0x464>
    152c:	913fffc4 	addi	r4,r18,-1
    1530:	2109883a 	add	r4,r4,r4
    1534:	01400074 	movhi	r5,1
    1538:	2109883a 	add	r4,r4,r4
    153c:	294bd204 	addi	r5,r5,12104
    1540:	2909883a 	add	r4,r5,r4
    1544:	21000017 	ldw	r4,0(r4)
    1548:	b9002026 	beq	r23,r4,15cc <__ieee754_rem_pio2+0x464>
    154c:	100d883a 	mov	r6,r2
    1550:	180f883a 	mov	r7,r3
    1554:	e009883a 	mov	r4,fp
    1558:	500b883a 	mov	r5,r10
    155c:	da800b15 	stw	r10,44(sp)
    1560:	df000a15 	stw	fp,40(sp)
    1564:	0004fbc0 	call	4fbc <__subdf3>
    1568:	da800b17 	ldw	r10,44(sp)
    156c:	dac00a17 	ldw	r11,40(sp)
    1570:	1019883a 	mov	r12,r2
    1574:	1813883a 	mov	r9,r3
    1578:	80800015 	stw	r2,0(r16)
    157c:	80c00115 	stw	r3,4(r16)
    1580:	600d883a 	mov	r6,r12
    1584:	480f883a 	mov	r7,r9
    1588:	5809883a 	mov	r4,r11
    158c:	500b883a 	mov	r5,r10
    1590:	da400b15 	stw	r9,44(sp)
    1594:	db000a15 	stw	r12,40(sp)
    1598:	0004fbc0 	call	4fbc <__subdf3>
    159c:	b00d883a 	mov	r6,r22
    15a0:	a80f883a 	mov	r7,r21
    15a4:	1009883a 	mov	r4,r2
    15a8:	180b883a 	mov	r5,r3
    15ac:	0004fbc0 	call	4fbc <__subdf3>
    15b0:	80800215 	stw	r2,8(r16)
    15b4:	80c00315 	stw	r3,12(r16)
    15b8:	da400b17 	ldw	r9,44(sp)
    15bc:	db000a17 	ldw	r12,40(sp)
    15c0:	88009f16 	blt	r17,zero,1840 <__ieee754_rem_pio2+0x6d8>
    15c4:	9005883a 	mov	r2,r18
    15c8:	003f7706 	br	13a8 <__alt_mem_VGA_Subsystem_Char_Buf_Subsystem_Onchip_SRAM+0xf70013a8>
    15cc:	d9400817 	ldw	r5,32(sp)
    15d0:	100d883a 	mov	r6,r2
    15d4:	180f883a 	mov	r7,r3
    15d8:	e009883a 	mov	r4,fp
    15dc:	da800b15 	stw	r10,44(sp)
    15e0:	dac00a15 	stw	r11,40(sp)
    15e4:	0004fbc0 	call	4fbc <__subdf3>
    15e8:	1019883a 	mov	r12,r2
    15ec:	1804d53a 	srli	r2,r3,20
    15f0:	b811d53a 	srai	r8,r23,20
    15f4:	1813883a 	mov	r9,r3
    15f8:	1081ffcc 	andi	r2,r2,2047
    15fc:	80c00115 	stw	r3,4(r16)
    1600:	83000015 	stw	r12,0(r16)
    1604:	4085c83a 	sub	r2,r8,r2
    1608:	00c00404 	movi	r3,16
    160c:	da800b17 	ldw	r10,44(sp)
    1610:	dac00a17 	ldw	r11,40(sp)
    1614:	18bfda0e 	bge	r3,r2,1580 <__alt_mem_VGA_Subsystem_Char_Buf_Subsystem_Onchip_SRAM+0xf7001580>
    1618:	01cf7474 	movhi	r7,15825
    161c:	39ed1844 	addi	r7,r7,-19359
    1620:	01869834 	movhi	r6,6752
    1624:	a009883a 	mov	r4,r20
    1628:	980b883a 	mov	r5,r19
    162c:	da000a15 	stw	r8,40(sp)
    1630:	00047500 	call	4750 <__muldf3>
    1634:	d9400817 	ldw	r5,32(sp)
    1638:	100d883a 	mov	r6,r2
    163c:	180f883a 	mov	r7,r3
    1640:	e009883a 	mov	r4,fp
    1644:	102d883a 	mov	r22,r2
    1648:	182b883a 	mov	r21,r3
    164c:	0004fbc0 	call	4fbc <__subdf3>
    1650:	d9400817 	ldw	r5,32(sp)
    1654:	100d883a 	mov	r6,r2
    1658:	180f883a 	mov	r7,r3
    165c:	e009883a 	mov	r4,fp
    1660:	182f883a 	mov	r23,r3
    1664:	d8800915 	stw	r2,36(sp)
    1668:	0004fbc0 	call	4fbc <__subdf3>
    166c:	b00d883a 	mov	r6,r22
    1670:	a80f883a 	mov	r7,r21
    1674:	1009883a 	mov	r4,r2
    1678:	180b883a 	mov	r5,r3
    167c:	0004fbc0 	call	4fbc <__subdf3>
    1680:	018b80f4 	movhi	r6,11779
    1684:	01cee8f4 	movhi	r7,15267
    1688:	319c1cc4 	addi	r6,r6,28787
    168c:	39c66284 	addi	r7,r7,6538
    1690:	a009883a 	mov	r4,r20
    1694:	980b883a 	mov	r5,r19
    1698:	102d883a 	mov	r22,r2
    169c:	182b883a 	mov	r21,r3
    16a0:	00047500 	call	4750 <__muldf3>
    16a4:	b00d883a 	mov	r6,r22
    16a8:	a80f883a 	mov	r7,r21
    16ac:	1009883a 	mov	r4,r2
    16b0:	180b883a 	mov	r5,r3
    16b4:	0004fbc0 	call	4fbc <__subdf3>
    16b8:	d9000917 	ldw	r4,36(sp)
    16bc:	100d883a 	mov	r6,r2
    16c0:	180f883a 	mov	r7,r3
    16c4:	b80b883a 	mov	r5,r23
    16c8:	102d883a 	mov	r22,r2
    16cc:	182b883a 	mov	r21,r3
    16d0:	0004fbc0 	call	4fbc <__subdf3>
    16d4:	1019883a 	mov	r12,r2
    16d8:	1804d53a 	srli	r2,r3,20
    16dc:	da000a17 	ldw	r8,40(sp)
    16e0:	83000015 	stw	r12,0(r16)
    16e4:	1081ffcc 	andi	r2,r2,2047
    16e8:	4091c83a 	sub	r8,r8,r2
    16ec:	80c00115 	stw	r3,4(r16)
    16f0:	00800c44 	movi	r2,49
    16f4:	1813883a 	mov	r9,r3
    16f8:	1200730e 	bge	r2,r8,18c8 <__ieee754_rem_pio2+0x760>
    16fc:	01cee8f4 	movhi	r7,15267
    1700:	39c66284 	addi	r7,r7,6538
    1704:	018b8034 	movhi	r6,11776
    1708:	a009883a 	mov	r4,r20
    170c:	980b883a 	mov	r5,r19
    1710:	00047500 	call	4750 <__muldf3>
    1714:	d9000917 	ldw	r4,36(sp)
    1718:	100d883a 	mov	r6,r2
    171c:	180f883a 	mov	r7,r3
    1720:	b80b883a 	mov	r5,r23
    1724:	102d883a 	mov	r22,r2
    1728:	182b883a 	mov	r21,r3
    172c:	0004fbc0 	call	4fbc <__subdf3>
    1730:	d9000917 	ldw	r4,36(sp)
    1734:	100d883a 	mov	r6,r2
    1738:	180f883a 	mov	r7,r3
    173c:	b80b883a 	mov	r5,r23
    1740:	d8c00b15 	stw	r3,44(sp)
    1744:	d8800a15 	stw	r2,40(sp)
    1748:	0004fbc0 	call	4fbc <__subdf3>
    174c:	b00d883a 	mov	r6,r22
    1750:	a80f883a 	mov	r7,r21
    1754:	1009883a 	mov	r4,r2
    1758:	180b883a 	mov	r5,r3
    175c:	0004fbc0 	call	4fbc <__subdf3>
    1760:	01894834 	movhi	r6,9504
    1764:	01ce5f34 	movhi	r7,14716
    1768:	31927044 	addi	r6,r6,18881
    176c:	39e0e684 	addi	r7,r7,-31846
    1770:	a009883a 	mov	r4,r20
    1774:	980b883a 	mov	r5,r19
    1778:	102d883a 	mov	r22,r2
    177c:	182b883a 	mov	r21,r3
    1780:	00047500 	call	4750 <__muldf3>
    1784:	b00d883a 	mov	r6,r22
    1788:	a80f883a 	mov	r7,r21
    178c:	1009883a 	mov	r4,r2
    1790:	180b883a 	mov	r5,r3
    1794:	0004fbc0 	call	4fbc <__subdf3>
    1798:	dac00a17 	ldw	r11,40(sp)
    179c:	da800b17 	ldw	r10,44(sp)
    17a0:	102d883a 	mov	r22,r2
    17a4:	182b883a 	mov	r21,r3
    17a8:	100d883a 	mov	r6,r2
    17ac:	180f883a 	mov	r7,r3
    17b0:	5809883a 	mov	r4,r11
    17b4:	500b883a 	mov	r5,r10
    17b8:	003f6a06 	br	1564 <__alt_mem_VGA_Subsystem_Char_Buf_Subsystem_Onchip_SRAM+0xf7001564>
    17bc:	00033700 	call	3370 <__adddf3>
    17c0:	1025883a 	mov	r18,r2
    17c4:	008ffe74 	movhi	r2,16377
    17c8:	10887ec4 	addi	r2,r2,8699
    17cc:	1823883a 	mov	r17,r3
    17d0:	b8802226 	beq	r23,r2,185c <__ieee754_rem_pio2+0x6f4>
    17d4:	018698b4 	movhi	r6,6754
    17d8:	01cf7474 	movhi	r7,15825
    17dc:	3198cc44 	addi	r6,r6,25393
    17e0:	39ed1844 	addi	r7,r7,-19359
    17e4:	9009883a 	mov	r4,r18
    17e8:	180b883a 	mov	r5,r3
    17ec:	00033700 	call	3370 <__adddf3>
    17f0:	100d883a 	mov	r6,r2
    17f4:	180f883a 	mov	r7,r3
    17f8:	9009883a 	mov	r4,r18
    17fc:	880b883a 	mov	r5,r17
    1800:	80800015 	stw	r2,0(r16)
    1804:	80c00115 	stw	r3,4(r16)
    1808:	0004fbc0 	call	4fbc <__subdf3>
    180c:	018698b4 	movhi	r6,6754
    1810:	01cf7474 	movhi	r7,15825
    1814:	3198cc44 	addi	r6,r6,25393
    1818:	39ed1844 	addi	r7,r7,-19359
    181c:	1009883a 	mov	r4,r2
    1820:	180b883a 	mov	r5,r3
    1824:	00033700 	call	3370 <__adddf3>
    1828:	80800215 	stw	r2,8(r16)
    182c:	80c00315 	stw	r3,12(r16)
    1830:	00bfffc4 	movi	r2,-1
    1834:	003edc06 	br	13a8 <__alt_mem_VGA_Subsystem_Char_Buf_Subsystem_Onchip_SRAM+0xf70013a8>
    1838:	01c000c4 	movi	r7,3
    183c:	003ec306 	br	134c <__alt_mem_VGA_Subsystem_Char_Buf_Subsystem_Onchip_SRAM+0xf700134c>
    1840:	4a60003c 	xorhi	r9,r9,32768
    1844:	18e0003c 	xorhi	r3,r3,32768
    1848:	83000015 	stw	r12,0(r16)
    184c:	82400115 	stw	r9,4(r16)
    1850:	80c00315 	stw	r3,12(r16)
    1854:	0485c83a 	sub	r2,zero,r18
    1858:	003ed306 	br	13a8 <__alt_mem_VGA_Subsystem_Char_Buf_Subsystem_Onchip_SRAM+0xf70013a8>
    185c:	01cf7474 	movhi	r7,15825
    1860:	9009883a 	mov	r4,r18
    1864:	39ed1844 	addi	r7,r7,-19359
    1868:	01869834 	movhi	r6,6752
    186c:	180b883a 	mov	r5,r3
    1870:	00033700 	call	3370 <__adddf3>
    1874:	018b80f4 	movhi	r6,11779
    1878:	01cee8f4 	movhi	r7,15267
    187c:	319c1cc4 	addi	r6,r6,28787
    1880:	39c66284 	addi	r7,r7,6538
    1884:	1009883a 	mov	r4,r2
    1888:	180b883a 	mov	r5,r3
    188c:	1025883a 	mov	r18,r2
    1890:	1823883a 	mov	r17,r3
    1894:	00033700 	call	3370 <__adddf3>
    1898:	100d883a 	mov	r6,r2
    189c:	180f883a 	mov	r7,r3
    18a0:	9009883a 	mov	r4,r18
    18a4:	880b883a 	mov	r5,r17
    18a8:	80800015 	stw	r2,0(r16)
    18ac:	80c00115 	stw	r3,4(r16)
    18b0:	0004fbc0 	call	4fbc <__subdf3>
    18b4:	018b80f4 	movhi	r6,11779
    18b8:	01cee8f4 	movhi	r7,15267
    18bc:	319c1cc4 	addi	r6,r6,28787
    18c0:	39c66284 	addi	r7,r7,6538
    18c4:	003fd506 	br	181c <__alt_mem_VGA_Subsystem_Char_Buf_Subsystem_Onchip_SRAM+0xf700181c>
    18c8:	dac00917 	ldw	r11,36(sp)
    18cc:	b815883a 	mov	r10,r23
    18d0:	003f2b06 	br	1580 <__alt_mem_VGA_Subsystem_Char_Buf_Subsystem_Onchip_SRAM+0xf7001580>

000018d4 <__kernel_cos>:
    18d4:	defff304 	addi	sp,sp,-52
    18d8:	dc000315 	stw	r16,12(sp)
    18dc:	04200034 	movhi	r16,32768
    18e0:	843fffc4 	addi	r16,r16,-1
    18e4:	008f9034 	movhi	r2,15936
    18e8:	df000b15 	stw	fp,44(sp)
    18ec:	ddc00a15 	stw	r23,40(sp)
    18f0:	dd800915 	stw	r22,36(sp)
    18f4:	dcc00615 	stw	r19,24(sp)
    18f8:	dfc00c15 	stw	ra,48(sp)
    18fc:	dd400815 	stw	r21,32(sp)
    1900:	dd000715 	stw	r20,28(sp)
    1904:	dc800515 	stw	r18,20(sp)
    1908:	dc400415 	stw	r17,16(sp)
    190c:	2c20703a 	and	r16,r5,r16
    1910:	10bfffc4 	addi	r2,r2,-1
    1914:	2827883a 	mov	r19,r5
    1918:	202d883a 	mov	r22,r4
    191c:	302f883a 	mov	r23,r6
    1920:	3839883a 	mov	fp,r7
    1924:	14007516 	blt	r2,r16,1afc <__kernel_cos+0x228>
    1928:	00058b80 	call	58b8 <__fixdfsi>
    192c:	10010f26 	beq	r2,zero,1d6c <__kernel_cos+0x498>
    1930:	b00d883a 	mov	r6,r22
    1934:	980f883a 	mov	r7,r19
    1938:	b009883a 	mov	r4,r22
    193c:	980b883a 	mov	r5,r19
    1940:	00047500 	call	4750 <__muldf3>
    1944:	01afa234 	movhi	r6,48776
    1948:	01ef6a74 	movhi	r7,48553
    194c:	318e3504 	addi	r6,r6,14548
    1950:	39feba44 	addi	r7,r7,-1303
    1954:	1009883a 	mov	r4,r2
    1958:	180b883a 	mov	r5,r3
    195c:	102b883a 	mov	r21,r2
    1960:	1829883a 	mov	r20,r3
    1964:	00047500 	call	4750 <__muldf3>
    1968:	01af6d74 	movhi	r6,48565
    196c:	01cf88b4 	movhi	r7,15906
    1970:	31ac7104 	addi	r6,r6,-20028
    1974:	39fba784 	addi	r7,r7,-4450
    1978:	1009883a 	mov	r4,r2
    197c:	180b883a 	mov	r5,r3
    1980:	00033700 	call	3370 <__adddf3>
    1984:	a80d883a 	mov	r6,r21
    1988:	a00f883a 	mov	r7,r20
    198c:	1009883a 	mov	r4,r2
    1990:	180b883a 	mov	r5,r3
    1994:	00047500 	call	4750 <__muldf3>
    1998:	01a02734 	movhi	r6,32924
    199c:	01cfa4b4 	movhi	r7,16018
    19a0:	3194ab44 	addi	r6,r6,21165
    19a4:	39df93c4 	addi	r7,r7,32335
    19a8:	1009883a 	mov	r4,r2
    19ac:	180b883a 	mov	r5,r3
    19b0:	0004fbc0 	call	4fbc <__subdf3>
    19b4:	a80d883a 	mov	r6,r21
    19b8:	a00f883a 	mov	r7,r20
    19bc:	1009883a 	mov	r4,r2
    19c0:	180b883a 	mov	r5,r3
    19c4:	00047500 	call	4750 <__muldf3>
    19c8:	018672f4 	movhi	r6,6603
    19cc:	01cfbeb4 	movhi	r7,16122
    19d0:	31856404 	addi	r6,r6,5520
    19d4:	39c06804 	addi	r7,r7,416
    19d8:	1009883a 	mov	r4,r2
    19dc:	180b883a 	mov	r5,r3
    19e0:	00033700 	call	3370 <__adddf3>
    19e4:	a80d883a 	mov	r6,r21
    19e8:	a00f883a 	mov	r7,r20
    19ec:	1009883a 	mov	r4,r2
    19f0:	180b883a 	mov	r5,r3
    19f4:	00047500 	call	4750 <__muldf3>
    19f8:	0185b074 	movhi	r6,5825
    19fc:	01cfd5f4 	movhi	r7,16215
    1a00:	31945dc4 	addi	r6,r6,20855
    1a04:	39f05b04 	addi	r7,r7,-16020
    1a08:	1009883a 	mov	r4,r2
    1a0c:	180b883a 	mov	r5,r3
    1a10:	0004fbc0 	call	4fbc <__subdf3>
    1a14:	a80d883a 	mov	r6,r21
    1a18:	a00f883a 	mov	r7,r20
    1a1c:	1009883a 	mov	r4,r2
    1a20:	180b883a 	mov	r5,r3
    1a24:	00047500 	call	4750 <__muldf3>
    1a28:	01955574 	movhi	r6,21845
    1a2c:	01cfe974 	movhi	r7,16293
    1a30:	31955304 	addi	r6,r6,21836
    1a34:	39d55544 	addi	r7,r7,21845
    1a38:	1009883a 	mov	r4,r2
    1a3c:	180b883a 	mov	r5,r3
    1a40:	00033700 	call	3370 <__adddf3>
    1a44:	a80d883a 	mov	r6,r21
    1a48:	a00f883a 	mov	r7,r20
    1a4c:	1009883a 	mov	r4,r2
    1a50:	180b883a 	mov	r5,r3
    1a54:	00047500 	call	4750 <__muldf3>
    1a58:	1017883a 	mov	r11,r2
    1a5c:	1815883a 	mov	r10,r3
    1a60:	a809883a 	mov	r4,r21
    1a64:	a00b883a 	mov	r5,r20
    1a68:	000d883a 	mov	r6,zero
    1a6c:	01cff834 	movhi	r7,16352
    1a70:	da800215 	stw	r10,8(sp)
    1a74:	dac00115 	stw	r11,4(sp)
    1a78:	00047500 	call	4750 <__muldf3>
    1a7c:	dac00117 	ldw	r11,4(sp)
    1a80:	da800217 	ldw	r10,8(sp)
    1a84:	a809883a 	mov	r4,r21
    1a88:	580d883a 	mov	r6,r11
    1a8c:	500f883a 	mov	r7,r10
    1a90:	a00b883a 	mov	r5,r20
    1a94:	1023883a 	mov	r17,r2
    1a98:	1821883a 	mov	r16,r3
    1a9c:	00047500 	call	4750 <__muldf3>
    1aa0:	b80d883a 	mov	r6,r23
    1aa4:	e00f883a 	mov	r7,fp
    1aa8:	b009883a 	mov	r4,r22
    1aac:	980b883a 	mov	r5,r19
    1ab0:	1029883a 	mov	r20,r2
    1ab4:	1825883a 	mov	r18,r3
    1ab8:	00047500 	call	4750 <__muldf3>
    1abc:	a009883a 	mov	r4,r20
    1ac0:	900b883a 	mov	r5,r18
    1ac4:	100d883a 	mov	r6,r2
    1ac8:	180f883a 	mov	r7,r3
    1acc:	0004fbc0 	call	4fbc <__subdf3>
    1ad0:	8809883a 	mov	r4,r17
    1ad4:	800b883a 	mov	r5,r16
    1ad8:	100d883a 	mov	r6,r2
    1adc:	180f883a 	mov	r7,r3
    1ae0:	0004fbc0 	call	4fbc <__subdf3>
    1ae4:	100d883a 	mov	r6,r2
    1ae8:	180f883a 	mov	r7,r3
    1aec:	0009883a 	mov	r4,zero
    1af0:	014ffc34 	movhi	r5,16368
    1af4:	0004fbc0 	call	4fbc <__subdf3>
    1af8:	00008b06 	br	1d28 <__kernel_cos+0x454>
    1afc:	200d883a 	mov	r6,r4
    1b00:	280f883a 	mov	r7,r5
    1b04:	00047500 	call	4750 <__muldf3>
    1b08:	01afa234 	movhi	r6,48776
    1b0c:	01ef6a74 	movhi	r7,48553
    1b10:	318e3504 	addi	r6,r6,14548
    1b14:	39feba44 	addi	r7,r7,-1303
    1b18:	1009883a 	mov	r4,r2
    1b1c:	180b883a 	mov	r5,r3
    1b20:	1025883a 	mov	r18,r2
    1b24:	1823883a 	mov	r17,r3
    1b28:	00047500 	call	4750 <__muldf3>
    1b2c:	01af6d74 	movhi	r6,48565
    1b30:	01cf88b4 	movhi	r7,15906
    1b34:	31ac7104 	addi	r6,r6,-20028
    1b38:	39fba784 	addi	r7,r7,-4450
    1b3c:	1009883a 	mov	r4,r2
    1b40:	180b883a 	mov	r5,r3
    1b44:	00033700 	call	3370 <__adddf3>
    1b48:	900d883a 	mov	r6,r18
    1b4c:	880f883a 	mov	r7,r17
    1b50:	1009883a 	mov	r4,r2
    1b54:	180b883a 	mov	r5,r3
    1b58:	00047500 	call	4750 <__muldf3>
    1b5c:	01a02734 	movhi	r6,32924
    1b60:	01cfa4b4 	movhi	r7,16018
    1b64:	3194ab44 	addi	r6,r6,21165
    1b68:	39df93c4 	addi	r7,r7,32335
    1b6c:	1009883a 	mov	r4,r2
    1b70:	180b883a 	mov	r5,r3
    1b74:	0004fbc0 	call	4fbc <__subdf3>
    1b78:	900d883a 	mov	r6,r18
    1b7c:	880f883a 	mov	r7,r17
    1b80:	1009883a 	mov	r4,r2
    1b84:	180b883a 	mov	r5,r3
    1b88:	00047500 	call	4750 <__muldf3>
    1b8c:	018672f4 	movhi	r6,6603
    1b90:	01cfbeb4 	movhi	r7,16122
    1b94:	31856404 	addi	r6,r6,5520
    1b98:	39c06804 	addi	r7,r7,416
    1b9c:	1009883a 	mov	r4,r2
    1ba0:	180b883a 	mov	r5,r3
    1ba4:	00033700 	call	3370 <__adddf3>
    1ba8:	900d883a 	mov	r6,r18
    1bac:	880f883a 	mov	r7,r17
    1bb0:	1009883a 	mov	r4,r2
    1bb4:	180b883a 	mov	r5,r3
    1bb8:	00047500 	call	4750 <__muldf3>
    1bbc:	0185b074 	movhi	r6,5825
    1bc0:	01cfd5f4 	movhi	r7,16215
    1bc4:	31945dc4 	addi	r6,r6,20855
    1bc8:	39f05b04 	addi	r7,r7,-16020
    1bcc:	1009883a 	mov	r4,r2
    1bd0:	180b883a 	mov	r5,r3
    1bd4:	0004fbc0 	call	4fbc <__subdf3>
    1bd8:	900d883a 	mov	r6,r18
    1bdc:	880f883a 	mov	r7,r17
    1be0:	1009883a 	mov	r4,r2
    1be4:	180b883a 	mov	r5,r3
    1be8:	00047500 	call	4750 <__muldf3>
    1bec:	01955574 	movhi	r6,21845
    1bf0:	01cfe974 	movhi	r7,16293
    1bf4:	31955304 	addi	r6,r6,21836
    1bf8:	39d55544 	addi	r7,r7,21845
    1bfc:	1009883a 	mov	r4,r2
    1c00:	180b883a 	mov	r5,r3
    1c04:	00033700 	call	3370 <__adddf3>
    1c08:	900d883a 	mov	r6,r18
    1c0c:	880f883a 	mov	r7,r17
    1c10:	1009883a 	mov	r4,r2
    1c14:	180b883a 	mov	r5,r3
    1c18:	00047500 	call	4750 <__muldf3>
    1c1c:	1013883a 	mov	r9,r2
    1c20:	1017883a 	mov	r11,r2
    1c24:	008ff4f4 	movhi	r2,16339
    1c28:	108ccc84 	addi	r2,r2,13106
    1c2c:	1811883a 	mov	r8,r3
    1c30:	902b883a 	mov	r21,r18
    1c34:	8829883a 	mov	r20,r17
    1c38:	1815883a 	mov	r10,r3
    1c3c:	143f880e 	bge	r2,r16,1a60 <__alt_mem_VGA_Subsystem_Char_Buf_Subsystem_Onchip_SRAM+0xf7001a60>
    1c40:	008ffa74 	movhi	r2,16361
    1c44:	14004416 	blt	r2,r16,1d58 <__kernel_cos+0x484>
    1c48:	00bff834 	movhi	r2,65504
    1c4c:	80a1883a 	add	r16,r16,r2
    1c50:	000d883a 	mov	r6,zero
    1c54:	800f883a 	mov	r7,r16
    1c58:	0009883a 	mov	r4,zero
    1c5c:	014ffc34 	movhi	r5,16368
    1c60:	da400115 	stw	r9,4(sp)
    1c64:	d8c00215 	stw	r3,8(sp)
    1c68:	0004fbc0 	call	4fbc <__subdf3>
    1c6c:	da000217 	ldw	r8,8(sp)
    1c70:	da400117 	ldw	r9,4(sp)
    1c74:	102b883a 	mov	r21,r2
    1c78:	d8c00015 	stw	r3,0(sp)
    1c7c:	9009883a 	mov	r4,r18
    1c80:	880b883a 	mov	r5,r17
    1c84:	000d883a 	mov	r6,zero
    1c88:	01cff834 	movhi	r7,16352
    1c8c:	da000215 	stw	r8,8(sp)
    1c90:	da400115 	stw	r9,4(sp)
    1c94:	00047500 	call	4750 <__muldf3>
    1c98:	800f883a 	mov	r7,r16
    1c9c:	000d883a 	mov	r6,zero
    1ca0:	1009883a 	mov	r4,r2
    1ca4:	180b883a 	mov	r5,r3
    1ca8:	0004fbc0 	call	4fbc <__subdf3>
    1cac:	da400117 	ldw	r9,4(sp)
    1cb0:	da000217 	ldw	r8,8(sp)
    1cb4:	9009883a 	mov	r4,r18
    1cb8:	480d883a 	mov	r6,r9
    1cbc:	400f883a 	mov	r7,r8
    1cc0:	880b883a 	mov	r5,r17
    1cc4:	1029883a 	mov	r20,r2
    1cc8:	1821883a 	mov	r16,r3
    1ccc:	00047500 	call	4750 <__muldf3>
    1cd0:	b80d883a 	mov	r6,r23
    1cd4:	e00f883a 	mov	r7,fp
    1cd8:	b009883a 	mov	r4,r22
    1cdc:	980b883a 	mov	r5,r19
    1ce0:	1025883a 	mov	r18,r2
    1ce4:	1823883a 	mov	r17,r3
    1ce8:	00047500 	call	4750 <__muldf3>
    1cec:	100d883a 	mov	r6,r2
    1cf0:	180f883a 	mov	r7,r3
    1cf4:	9009883a 	mov	r4,r18
    1cf8:	880b883a 	mov	r5,r17
    1cfc:	0004fbc0 	call	4fbc <__subdf3>
    1d00:	100d883a 	mov	r6,r2
    1d04:	180f883a 	mov	r7,r3
    1d08:	a009883a 	mov	r4,r20
    1d0c:	800b883a 	mov	r5,r16
    1d10:	0004fbc0 	call	4fbc <__subdf3>
    1d14:	d9400017 	ldw	r5,0(sp)
    1d18:	100d883a 	mov	r6,r2
    1d1c:	180f883a 	mov	r7,r3
    1d20:	a809883a 	mov	r4,r21
    1d24:	0004fbc0 	call	4fbc <__subdf3>
    1d28:	dfc00c17 	ldw	ra,48(sp)
    1d2c:	df000b17 	ldw	fp,44(sp)
    1d30:	ddc00a17 	ldw	r23,40(sp)
    1d34:	dd800917 	ldw	r22,36(sp)
    1d38:	dd400817 	ldw	r21,32(sp)
    1d3c:	dd000717 	ldw	r20,28(sp)
    1d40:	dcc00617 	ldw	r19,24(sp)
    1d44:	dc800517 	ldw	r18,20(sp)
    1d48:	dc400417 	ldw	r17,16(sp)
    1d4c:	dc000317 	ldw	r16,12(sp)
    1d50:	dec00d04 	addi	sp,sp,52
    1d54:	f800283a 	ret
    1d58:	008ff9f4 	movhi	r2,16359
    1d5c:	002b883a 	mov	r21,zero
    1d60:	d8800015 	stw	r2,0(sp)
    1d64:	040ff4b4 	movhi	r16,16338
    1d68:	003fc406 	br	1c7c <__alt_mem_VGA_Subsystem_Char_Buf_Subsystem_Onchip_SRAM+0xf7001c7c>
    1d6c:	0005883a 	mov	r2,zero
    1d70:	00cffc34 	movhi	r3,16368
    1d74:	003fec06 	br	1d28 <__alt_mem_VGA_Subsystem_Char_Buf_Subsystem_Onchip_SRAM+0xf7001d28>

00001d78 <__kernel_rem_pio2>:
    1d78:	deff5a04 	addi	sp,sp,-664
    1d7c:	da00a617 	ldw	r8,664(sp)
    1d80:	00c00074 	movhi	r3,1
    1d84:	18cc4404 	addi	r3,r3,12560
    1d88:	4205883a 	add	r2,r8,r8
    1d8c:	1085883a 	add	r2,r2,r2
    1d90:	1885883a 	add	r2,r3,r2
    1d94:	d9008e15 	stw	r4,568(sp)
    1d98:	d9408f15 	stw	r5,572(sp)
    1d9c:	313fff44 	addi	r4,r6,-3
    1da0:	01400604 	movi	r5,24
    1da4:	dd80a215 	stw	r22,648(sp)
    1da8:	dc009c15 	stw	r16,624(sp)
    1dac:	dfc0a515 	stw	ra,660(sp)
    1db0:	df00a415 	stw	fp,656(sp)
    1db4:	ddc0a315 	stw	r23,652(sp)
    1db8:	dd40a115 	stw	r21,644(sp)
    1dbc:	dd00a015 	stw	r20,640(sp)
    1dc0:	dcc09f15 	stw	r19,636(sp)
    1dc4:	dc809e15 	stw	r18,632(sp)
    1dc8:	dc409d15 	stw	r17,628(sp)
    1dcc:	3021883a 	mov	r16,r6
    1dd0:	d9c09315 	stw	r7,588(sp)
    1dd4:	15800017 	ldw	r22,0(r2)
    1dd8:	00031940 	call	3194 <__divsi3>
    1ddc:	da009317 	ldw	r8,588(sp)
    1de0:	d8809215 	stw	r2,584(sp)
    1de4:	423fffc4 	addi	r8,r8,-1
    1de8:	da008d15 	stw	r8,564(sp)
    1dec:	10033d16 	blt	r2,zero,2ae4 <__kernel_rem_pio2+0xd6c>
    1df0:	da009217 	ldw	r8,584(sp)
    1df4:	017ffa04 	movi	r5,-24
    1df8:	42000044 	addi	r8,r8,1
    1dfc:	4009883a 	mov	r4,r8
    1e00:	da009515 	stw	r8,596(sp)
    1e04:	00033480 	call	3348 <__mulsi3>
    1e08:	da008d17 	ldw	r8,564(sp)
    1e0c:	1421883a 	add	r16,r2,r16
    1e10:	d8809217 	ldw	r2,584(sp)
    1e14:	b207883a 	add	r3,r22,r8
    1e18:	dc009015 	stw	r16,576(sp)
    1e1c:	1223c83a 	sub	r17,r2,r8
    1e20:	18001016 	blt	r3,zero,1e64 <__kernel_rem_pio2+0xec>
    1e24:	da00a717 	ldw	r8,668(sp)
    1e28:	8c65883a 	add	r18,r17,r17
    1e2c:	94a5883a 	add	r18,r18,r18
    1e30:	1c47883a 	add	r3,r3,r17
    1e34:	dcc05004 	addi	r19,sp,320
    1e38:	44a5883a 	add	r18,r8,r18
    1e3c:	1c000044 	addi	r16,r3,1
    1e40:	88015316 	blt	r17,zero,2390 <__kernel_rem_pio2+0x618>
    1e44:	91000017 	ldw	r4,0(r18)
    1e48:	00059380 	call	5938 <__floatsidf>
    1e4c:	98800015 	stw	r2,0(r19)
    1e50:	98c00115 	stw	r3,4(r19)
    1e54:	8c400044 	addi	r17,r17,1
    1e58:	9cc00204 	addi	r19,r19,8
    1e5c:	94800104 	addi	r18,r18,4
    1e60:	8c3ff71e 	bne	r17,r16,1e40 <__alt_mem_VGA_Subsystem_Char_Buf_Subsystem_Onchip_SRAM+0xf7001e40>
    1e64:	b0002816 	blt	r22,zero,1f08 <__kernel_rem_pio2+0x190>
    1e68:	da008d17 	ldw	r8,564(sp)
    1e6c:	b4c00044 	addi	r19,r22,1
    1e70:	982690fa 	slli	r19,r19,3
    1e74:	402490fa 	slli	r18,r8,3
    1e78:	da008e17 	ldw	r8,568(sp)
    1e7c:	d8805004 	addi	r2,sp,320
    1e80:	94000204 	addi	r16,r18,8
    1e84:	d823883a 	mov	r17,sp
    1e88:	14a5883a 	add	r18,r2,r18
    1e8c:	dcef883a 	add	r23,sp,r19
    1e90:	4421883a 	add	r16,r8,r16
    1e94:	dd809115 	stw	r22,580(sp)
    1e98:	4039883a 	mov	fp,r8
    1e9c:	da008d17 	ldw	r8,564(sp)
    1ea0:	40016016 	blt	r8,zero,2424 <__kernel_rem_pio2+0x6ac>
    1ea4:	e027883a 	mov	r19,fp
    1ea8:	9029883a 	mov	r20,r18
    1eac:	002d883a 	mov	r22,zero
    1eb0:	002b883a 	mov	r21,zero
    1eb4:	a1800017 	ldw	r6,0(r20)
    1eb8:	a1c00117 	ldw	r7,4(r20)
    1ebc:	99000017 	ldw	r4,0(r19)
    1ec0:	99400117 	ldw	r5,4(r19)
    1ec4:	9cc00204 	addi	r19,r19,8
    1ec8:	a53ffe04 	addi	r20,r20,-8
    1ecc:	00047500 	call	4750 <__muldf3>
    1ed0:	b009883a 	mov	r4,r22
    1ed4:	a80b883a 	mov	r5,r21
    1ed8:	100d883a 	mov	r6,r2
    1edc:	180f883a 	mov	r7,r3
    1ee0:	00033700 	call	3370 <__adddf3>
    1ee4:	102d883a 	mov	r22,r2
    1ee8:	182b883a 	mov	r21,r3
    1eec:	9c3ff11e 	bne	r19,r16,1eb4 <__alt_mem_VGA_Subsystem_Char_Buf_Subsystem_Onchip_SRAM+0xf7001eb4>
    1ef0:	8d800015 	stw	r22,0(r17)
    1ef4:	8d400115 	stw	r21,4(r17)
    1ef8:	8c400204 	addi	r17,r17,8
    1efc:	94800204 	addi	r18,r18,8
    1f00:	8dffe61e 	bne	r17,r23,1e9c <__alt_mem_VGA_Subsystem_Char_Buf_Subsystem_Onchip_SRAM+0xf7001e9c>
    1f04:	dd809117 	ldw	r22,580(sp)
    1f08:	00d00034 	movhi	r3,16384
    1f0c:	da009317 	ldw	r8,588(sp)
    1f10:	18ffff84 	addi	r3,r3,-2
    1f14:	b0c7883a 	add	r3,r22,r3
    1f18:	18c7883a 	add	r3,r3,r3
    1f1c:	402090fa 	slli	r16,r8,3
    1f20:	18c7883a 	add	r3,r3,r3
    1f24:	da007804 	addi	r8,sp,480
    1f28:	40d1883a 	add	r8,r8,r3
    1f2c:	b0bfffc4 	addi	r2,r22,-1
    1f30:	da009615 	stw	r8,600(sp)
    1f34:	da008e17 	ldw	r8,568(sp)
    1f38:	1085883a 	add	r2,r2,r2
    1f3c:	1085883a 	add	r2,r2,r2
    1f40:	19000104 	addi	r4,r3,4
    1f44:	d885883a 	add	r2,sp,r2
    1f48:	4421883a 	add	r16,r8,r16
    1f4c:	da007804 	addi	r8,sp,480
    1f50:	4111883a 	add	r8,r8,r4
    1f54:	10807804 	addi	r2,r2,480
    1f58:	da009715 	stw	r8,604(sp)
    1f5c:	b025883a 	mov	r18,r22
    1f60:	d8809815 	stw	r2,608(sp)
    1f64:	dd809415 	stw	r22,592(sp)
    1f68:	900490fa 	slli	r2,r18,3
    1f6c:	d885883a 	add	r2,sp,r2
    1f70:	17000017 	ldw	fp,0(r2)
    1f74:	15400117 	ldw	r21,4(r2)
    1f78:	04802b0e 	bge	zero,r18,2028 <__kernel_rem_pio2+0x2b0>
    1f7c:	00880034 	movhi	r2,8192
    1f80:	10bfffc4 	addi	r2,r2,-1
    1f84:	90a9883a 	add	r20,r18,r2
    1f88:	a02890fa 	slli	r20,r20,3
    1f8c:	dc407804 	addi	r17,sp,480
    1f90:	dcfffe04 	addi	r19,sp,-8
    1f94:	dd29883a 	add	r20,sp,r20
    1f98:	000d883a 	mov	r6,zero
    1f9c:	01cf9c34 	movhi	r7,15984
    1fa0:	e009883a 	mov	r4,fp
    1fa4:	a80b883a 	mov	r5,r21
    1fa8:	00047500 	call	4750 <__muldf3>
    1fac:	180b883a 	mov	r5,r3
    1fb0:	1009883a 	mov	r4,r2
    1fb4:	00058b80 	call	58b8 <__fixdfsi>
    1fb8:	1009883a 	mov	r4,r2
    1fbc:	00059380 	call	5938 <__floatsidf>
    1fc0:	000d883a 	mov	r6,zero
    1fc4:	01d05c34 	movhi	r7,16752
    1fc8:	1009883a 	mov	r4,r2
    1fcc:	180b883a 	mov	r5,r3
    1fd0:	102f883a 	mov	r23,r2
    1fd4:	182d883a 	mov	r22,r3
    1fd8:	00047500 	call	4750 <__muldf3>
    1fdc:	100d883a 	mov	r6,r2
    1fe0:	180f883a 	mov	r7,r3
    1fe4:	e009883a 	mov	r4,fp
    1fe8:	a80b883a 	mov	r5,r21
    1fec:	0004fbc0 	call	4fbc <__subdf3>
    1ff0:	180b883a 	mov	r5,r3
    1ff4:	1009883a 	mov	r4,r2
    1ff8:	00058b80 	call	58b8 <__fixdfsi>
    1ffc:	a1800017 	ldw	r6,0(r20)
    2000:	a1c00117 	ldw	r7,4(r20)
    2004:	88800015 	stw	r2,0(r17)
    2008:	b809883a 	mov	r4,r23
    200c:	b00b883a 	mov	r5,r22
    2010:	00033700 	call	3370 <__adddf3>
    2014:	a53ffe04 	addi	r20,r20,-8
    2018:	1039883a 	mov	fp,r2
    201c:	182b883a 	mov	r21,r3
    2020:	8c400104 	addi	r17,r17,4
    2024:	a4ffdc1e 	bne	r20,r19,1f98 <__alt_mem_VGA_Subsystem_Char_Buf_Subsystem_Onchip_SRAM+0xf7001f98>
    2028:	d9809017 	ldw	r6,576(sp)
    202c:	a80b883a 	mov	r5,r21
    2030:	e009883a 	mov	r4,fp
    2034:	0002fdc0 	call	2fdc <scalbn>
    2038:	000d883a 	mov	r6,zero
    203c:	01cff034 	movhi	r7,16320
    2040:	1009883a 	mov	r4,r2
    2044:	180b883a 	mov	r5,r3
    2048:	1027883a 	mov	r19,r2
    204c:	1823883a 	mov	r17,r3
    2050:	00047500 	call	4750 <__muldf3>
    2054:	1009883a 	mov	r4,r2
    2058:	180b883a 	mov	r5,r3
    205c:	0002df00 	call	2df0 <floor>
    2060:	000d883a 	mov	r6,zero
    2064:	01d00834 	movhi	r7,16416
    2068:	1009883a 	mov	r4,r2
    206c:	180b883a 	mov	r5,r3
    2070:	00047500 	call	4750 <__muldf3>
    2074:	100d883a 	mov	r6,r2
    2078:	180f883a 	mov	r7,r3
    207c:	9809883a 	mov	r4,r19
    2080:	880b883a 	mov	r5,r17
    2084:	0004fbc0 	call	4fbc <__subdf3>
    2088:	180b883a 	mov	r5,r3
    208c:	1009883a 	mov	r4,r2
    2090:	1827883a 	mov	r19,r3
    2094:	1029883a 	mov	r20,r2
    2098:	00058b80 	call	58b8 <__fixdfsi>
    209c:	1009883a 	mov	r4,r2
    20a0:	1023883a 	mov	r17,r2
    20a4:	00059380 	call	5938 <__floatsidf>
    20a8:	a009883a 	mov	r4,r20
    20ac:	100d883a 	mov	r6,r2
    20b0:	180f883a 	mov	r7,r3
    20b4:	980b883a 	mov	r5,r19
    20b8:	0004fbc0 	call	4fbc <__subdf3>
    20bc:	d9009017 	ldw	r4,576(sp)
    20c0:	1013883a 	mov	r9,r2
    20c4:	102b883a 	mov	r21,r2
    20c8:	1811883a 	mov	r8,r3
    20cc:	0100b30e 	bge	zero,r4,239c <__kernel_rem_pio2+0x624>
    20d0:	90bfffc4 	addi	r2,r18,-1
    20d4:	1085883a 	add	r2,r2,r2
    20d8:	1085883a 	add	r2,r2,r2
    20dc:	d885883a 	add	r2,sp,r2
    20e0:	10807804 	addi	r2,r2,480
    20e4:	d9809017 	ldw	r6,576(sp)
    20e8:	11400017 	ldw	r5,0(r2)
    20ec:	01000604 	movi	r4,24
    20f0:	2189c83a 	sub	r4,r4,r6
    20f4:	290dd83a 	sra	r6,r5,r4
    20f8:	d9c09017 	ldw	r7,576(sp)
    20fc:	04c005c4 	movi	r19,23
    2100:	3108983a 	sll	r4,r6,r4
    2104:	99e7c83a 	sub	r19,r19,r7
    2108:	89a3883a 	add	r17,r17,r6
    210c:	2909c83a 	sub	r4,r5,r4
    2110:	24e7d83a 	sra	r19,r4,r19
    2114:	11000015 	stw	r4,0(r2)
    2118:	04c02a0e 	bge	zero,r19,21c4 <__kernel_rem_pio2+0x44c>
    211c:	8c400044 	addi	r17,r17,1
    2120:	0481570e 	bge	zero,r18,2680 <__kernel_rem_pio2+0x908>
    2124:	02804034 	movhi	r10,256
    2128:	52bfffc4 	addi	r10,r10,-1
    212c:	d8807804 	addi	r2,sp,480
    2130:	000b883a 	mov	r5,zero
    2134:	0029883a 	mov	r20,zero
    2138:	01c04034 	movhi	r7,256
    213c:	00000706 	br	215c <__kernel_rem_pio2+0x3e4>
    2140:	390dc83a 	sub	r6,r7,r4
    2144:	20000226 	beq	r4,zero,2150 <__kernel_rem_pio2+0x3d8>
    2148:	11800015 	stw	r6,0(r2)
    214c:	05000044 	movi	r20,1
    2150:	29400044 	addi	r5,r5,1
    2154:	10800104 	addi	r2,r2,4
    2158:	2c80080e 	bge	r5,r18,217c <__kernel_rem_pio2+0x404>
    215c:	11000017 	ldw	r4,0(r2)
    2160:	a03ff726 	beq	r20,zero,2140 <__alt_mem_VGA_Subsystem_Char_Buf_Subsystem_Onchip_SRAM+0xf7002140>
    2164:	5109c83a 	sub	r4,r10,r4
    2168:	11000015 	stw	r4,0(r2)
    216c:	29400044 	addi	r5,r5,1
    2170:	05000044 	movi	r20,1
    2174:	10800104 	addi	r2,r2,4
    2178:	2cbff816 	blt	r5,r18,215c <__alt_mem_VGA_Subsystem_Char_Buf_Subsystem_Onchip_SRAM+0xf700215c>
    217c:	d9009017 	ldw	r4,576(sp)
    2180:	01000e0e 	bge	zero,r4,21bc <__kernel_rem_pio2+0x444>
    2184:	00800044 	movi	r2,1
    2188:	20808d26 	beq	r4,r2,23c0 <__kernel_rem_pio2+0x648>
    218c:	00800084 	movi	r2,2
    2190:	20800a1e 	bne	r4,r2,21bc <__kernel_rem_pio2+0x444>
    2194:	90bfffc4 	addi	r2,r18,-1
    2198:	1085883a 	add	r2,r2,r2
    219c:	1085883a 	add	r2,r2,r2
    21a0:	d885883a 	add	r2,sp,r2
    21a4:	10807804 	addi	r2,r2,480
    21a8:	11400017 	ldw	r5,0(r2)
    21ac:	01001034 	movhi	r4,64
    21b0:	213fffc4 	addi	r4,r4,-1
    21b4:	2908703a 	and	r4,r5,r4
    21b8:	11000015 	stw	r4,0(r2)
    21bc:	00800084 	movi	r2,2
    21c0:	98805d26 	beq	r19,r2,2338 <__kernel_rem_pio2+0x5c0>
    21c4:	400b883a 	mov	r5,r8
    21c8:	000d883a 	mov	r6,zero
    21cc:	000f883a 	mov	r7,zero
    21d0:	a809883a 	mov	r4,r21
    21d4:	da009b15 	stw	r8,620(sp)
    21d8:	00045ec0 	call	45ec <__eqdf2>
    21dc:	da009b17 	ldw	r8,620(sp)
    21e0:	10012b1e 	bne	r2,zero,2690 <__kernel_rem_pio2+0x918>
    21e4:	da009417 	ldw	r8,592(sp)
    21e8:	917fffc4 	addi	r5,r18,-1
    21ec:	2a000e16 	blt	r5,r8,2228 <__kernel_rem_pio2+0x4b0>
    21f0:	00900034 	movhi	r2,16384
    21f4:	10bfffc4 	addi	r2,r2,-1
    21f8:	9085883a 	add	r2,r18,r2
    21fc:	1085883a 	add	r2,r2,r2
    2200:	d9809717 	ldw	r6,604(sp)
    2204:	1085883a 	add	r2,r2,r2
    2208:	d9007804 	addi	r4,sp,480
    220c:	0007883a 	mov	r3,zero
    2210:	2085883a 	add	r2,r4,r2
    2214:	11000017 	ldw	r4,0(r2)
    2218:	10bfff04 	addi	r2,r2,-4
    221c:	1906b03a 	or	r3,r3,r4
    2220:	11bffc1e 	bne	r2,r6,2214 <__alt_mem_VGA_Subsystem_Char_Buf_Subsystem_Onchip_SRAM+0xf7002214>
    2224:	1800821e 	bne	r3,zero,2430 <__kernel_rem_pio2+0x6b8>
    2228:	da009817 	ldw	r8,608(sp)
    222c:	40800017 	ldw	r2,0(r8)
    2230:	1001151e 	bne	r2,zero,2688 <__kernel_rem_pio2+0x910>
    2234:	d8809617 	ldw	r2,600(sp)
    2238:	05000044 	movi	r20,1
    223c:	10bfff04 	addi	r2,r2,-4
    2240:	10c00117 	ldw	r3,4(r2)
    2244:	a5000044 	addi	r20,r20,1
    2248:	183ffc26 	beq	r3,zero,223c <__alt_mem_VGA_Subsystem_Char_Buf_Subsystem_Onchip_SRAM+0xf700223c>
    224c:	9529883a 	add	r20,r18,r20
    2250:	90800044 	addi	r2,r18,1
    2254:	dd009115 	stw	r20,580(sp)
    2258:	a0803216 	blt	r20,r2,2324 <__kernel_rem_pio2+0x5ac>
    225c:	da009317 	ldw	r8,588(sp)
    2260:	d8c09117 	ldw	r3,580(sp)
    2264:	44a3883a 	add	r17,r8,r18
    2268:	da009217 	ldw	r8,584(sp)
    226c:	882290fa 	slli	r17,r17,3
    2270:	40a5883a 	add	r18,r8,r2
    2274:	da009517 	ldw	r8,596(sp)
    2278:	100490fa 	slli	r2,r2,3
    227c:	94a5883a 	add	r18,r18,r18
    2280:	40eb883a 	add	r21,r8,r3
    2284:	da00a717 	ldw	r8,668(sp)
    2288:	ad6b883a 	add	r21,r21,r21
    228c:	94a5883a 	add	r18,r18,r18
    2290:	ad6b883a 	add	r21,r21,r21
    2294:	d8c05004 	addi	r3,sp,320
    2298:	44a5883a 	add	r18,r8,r18
    229c:	1c63883a 	add	r17,r3,r17
    22a0:	d8a7883a 	add	r19,sp,r2
    22a4:	456b883a 	add	r21,r8,r21
    22a8:	91000017 	ldw	r4,0(r18)
    22ac:	00059380 	call	5938 <__floatsidf>
    22b0:	da008d17 	ldw	r8,564(sp)
    22b4:	88800015 	stw	r2,0(r17)
    22b8:	88c00115 	stw	r3,4(r17)
    22bc:	40001b16 	blt	r8,zero,232c <__kernel_rem_pio2+0x5b4>
    22c0:	dd008e17 	ldw	r20,568(sp)
    22c4:	882d883a 	mov	r22,r17
    22c8:	002f883a 	mov	r23,zero
    22cc:	0039883a 	mov	fp,zero
    22d0:	b1800017 	ldw	r6,0(r22)
    22d4:	b1c00117 	ldw	r7,4(r22)
    22d8:	a1000017 	ldw	r4,0(r20)
    22dc:	a1400117 	ldw	r5,4(r20)
    22e0:	a5000204 	addi	r20,r20,8
    22e4:	b5bffe04 	addi	r22,r22,-8
    22e8:	00047500 	call	4750 <__muldf3>
    22ec:	b809883a 	mov	r4,r23
    22f0:	e00b883a 	mov	r5,fp
    22f4:	100d883a 	mov	r6,r2
    22f8:	180f883a 	mov	r7,r3
    22fc:	00033700 	call	3370 <__adddf3>
    2300:	102f883a 	mov	r23,r2
    2304:	1839883a 	mov	fp,r3
    2308:	a43ff11e 	bne	r20,r16,22d0 <__alt_mem_VGA_Subsystem_Char_Buf_Subsystem_Onchip_SRAM+0xf70022d0>
    230c:	9dc00015 	stw	r23,0(r19)
    2310:	9f000115 	stw	fp,4(r19)
    2314:	94800104 	addi	r18,r18,4
    2318:	8c400204 	addi	r17,r17,8
    231c:	9cc00204 	addi	r19,r19,8
    2320:	957fe11e 	bne	r18,r21,22a8 <__alt_mem_VGA_Subsystem_Char_Buf_Subsystem_Onchip_SRAM+0xf70022a8>
    2324:	dc809117 	ldw	r18,580(sp)
    2328:	003f0f06 	br	1f68 <__alt_mem_VGA_Subsystem_Char_Buf_Subsystem_Onchip_SRAM+0xf7001f68>
    232c:	002f883a 	mov	r23,zero
    2330:	0039883a 	mov	fp,zero
    2334:	003ff506 	br	230c <__alt_mem_VGA_Subsystem_Char_Buf_Subsystem_Onchip_SRAM+0xf700230c>
    2338:	480d883a 	mov	r6,r9
    233c:	180f883a 	mov	r7,r3
    2340:	0009883a 	mov	r4,zero
    2344:	014ffc34 	movhi	r5,16368
    2348:	0004fbc0 	call	4fbc <__subdf3>
    234c:	102b883a 	mov	r21,r2
    2350:	1811883a 	mov	r8,r3
    2354:	a03f9b26 	beq	r20,zero,21c4 <__alt_mem_VGA_Subsystem_Char_Buf_Subsystem_Onchip_SRAM+0xf70021c4>
    2358:	d9809017 	ldw	r6,576(sp)
    235c:	0009883a 	mov	r4,zero
    2360:	014ffc34 	movhi	r5,16368
    2364:	d8c09b15 	stw	r3,620(sp)
    2368:	0002fdc0 	call	2fdc <scalbn>
    236c:	da009b17 	ldw	r8,620(sp)
    2370:	a809883a 	mov	r4,r21
    2374:	100d883a 	mov	r6,r2
    2378:	400b883a 	mov	r5,r8
    237c:	180f883a 	mov	r7,r3
    2380:	0004fbc0 	call	4fbc <__subdf3>
    2384:	102b883a 	mov	r21,r2
    2388:	1811883a 	mov	r8,r3
    238c:	003f8d06 	br	21c4 <__alt_mem_VGA_Subsystem_Char_Buf_Subsystem_Onchip_SRAM+0xf70021c4>
    2390:	0005883a 	mov	r2,zero
    2394:	0007883a 	mov	r3,zero
    2398:	003eac06 	br	1e4c <__alt_mem_VGA_Subsystem_Char_Buf_Subsystem_Onchip_SRAM+0xf7001e4c>
    239c:	d8809017 	ldw	r2,576(sp)
    23a0:	1000121e 	bne	r2,zero,23ec <__kernel_rem_pio2+0x674>
    23a4:	90bfffc4 	addi	r2,r18,-1
    23a8:	1085883a 	add	r2,r2,r2
    23ac:	1085883a 	add	r2,r2,r2
    23b0:	d885883a 	add	r2,sp,r2
    23b4:	14c07817 	ldw	r19,480(r2)
    23b8:	9827d5fa 	srai	r19,r19,23
    23bc:	003f5606 	br	2118 <__alt_mem_VGA_Subsystem_Char_Buf_Subsystem_Onchip_SRAM+0xf7002118>
    23c0:	90bfffc4 	addi	r2,r18,-1
    23c4:	1085883a 	add	r2,r2,r2
    23c8:	1085883a 	add	r2,r2,r2
    23cc:	d885883a 	add	r2,sp,r2
    23d0:	10807804 	addi	r2,r2,480
    23d4:	11000017 	ldw	r4,0(r2)
    23d8:	01402034 	movhi	r5,128
    23dc:	297fffc4 	addi	r5,r5,-1
    23e0:	2148703a 	and	r4,r4,r5
    23e4:	11000015 	stw	r4,0(r2)
    23e8:	003f7406 	br	21bc <__alt_mem_VGA_Subsystem_Char_Buf_Subsystem_Onchip_SRAM+0xf70021bc>
    23ec:	4809883a 	mov	r4,r9
    23f0:	180b883a 	mov	r5,r3
    23f4:	000d883a 	mov	r6,zero
    23f8:	01cff834 	movhi	r7,16352
    23fc:	d8c09a15 	stw	r3,616(sp)
    2400:	d8c09b15 	stw	r3,620(sp)
    2404:	da409915 	stw	r9,612(sp)
    2408:	00046740 	call	4674 <__gedf2>
    240c:	d8c09a17 	ldw	r3,616(sp)
    2410:	da009b17 	ldw	r8,620(sp)
    2414:	da409917 	ldw	r9,612(sp)
    2418:	1000920e 	bge	r2,zero,2664 <__kernel_rem_pio2+0x8ec>
    241c:	0027883a 	mov	r19,zero
    2420:	003f6806 	br	21c4 <__alt_mem_VGA_Subsystem_Char_Buf_Subsystem_Onchip_SRAM+0xf70021c4>
    2424:	002d883a 	mov	r22,zero
    2428:	002b883a 	mov	r21,zero
    242c:	003eb006 	br	1ef0 <__alt_mem_VGA_Subsystem_Char_Buf_Subsystem_Onchip_SRAM+0xf7001ef0>
    2430:	2945883a 	add	r2,r5,r5
    2434:	da009017 	ldw	r8,576(sp)
    2438:	1085883a 	add	r2,r2,r2
    243c:	d885883a 	add	r2,sp,r2
    2440:	10807817 	ldw	r2,480(r2)
    2444:	423ffa04 	addi	r8,r8,-24
    2448:	dc409115 	stw	r17,580(sp)
    244c:	dcc08d15 	stw	r19,564(sp)
    2450:	da009015 	stw	r8,576(sp)
    2454:	dd809417 	ldw	r22,592(sp)
    2458:	2823883a 	mov	r17,r5
    245c:	10000e1e 	bne	r2,zero,2498 <__kernel_rem_pio2+0x720>
    2460:	00900034 	movhi	r2,16384
    2464:	10bfffc4 	addi	r2,r2,-1
    2468:	2885883a 	add	r2,r5,r2
    246c:	1085883a 	add	r2,r2,r2
    2470:	d8c07804 	addi	r3,sp,480
    2474:	1085883a 	add	r2,r2,r2
    2478:	1885883a 	add	r2,r3,r2
    247c:	4007883a 	mov	r3,r8
    2480:	10bfff04 	addi	r2,r2,-4
    2484:	11000117 	ldw	r4,4(r2)
    2488:	8c7fffc4 	addi	r17,r17,-1
    248c:	18fffa04 	addi	r3,r3,-24
    2490:	203ffb26 	beq	r4,zero,2480 <__alt_mem_VGA_Subsystem_Char_Buf_Subsystem_Onchip_SRAM+0xf7002480>
    2494:	d8c09015 	stw	r3,576(sp)
    2498:	d9809017 	ldw	r6,576(sp)
    249c:	0009883a 	mov	r4,zero
    24a0:	014ffc34 	movhi	r5,16368
    24a4:	0002fdc0 	call	2fdc <scalbn>
    24a8:	1029883a 	mov	r20,r2
    24ac:	182b883a 	mov	r21,r3
    24b0:	88018416 	blt	r17,zero,2ac4 <__kernel_rem_pio2+0xd4c>
    24b4:	881090fa 	slli	r8,r17,3
    24b8:	d8c07804 	addi	r3,sp,480
    24bc:	da008e15 	stw	r8,568(sp)
    24c0:	d8808e17 	ldw	r2,568(sp)
    24c4:	8c51883a 	add	r8,r17,r17
    24c8:	4211883a 	add	r8,r8,r8
    24cc:	d8a1883a 	add	r16,sp,r2
    24d0:	1a25883a 	add	r18,r3,r8
    24d4:	da3ffe04 	addi	r8,sp,-8
    24d8:	da008c15 	stw	r8,560(sp)
    24dc:	8039883a 	mov	fp,r16
    24e0:	91000017 	ldw	r4,0(r18)
    24e4:	e73ffe04 	addi	fp,fp,-8
    24e8:	94bfff04 	addi	r18,r18,-4
    24ec:	00059380 	call	5938 <__floatsidf>
    24f0:	a00d883a 	mov	r6,r20
    24f4:	a80f883a 	mov	r7,r21
    24f8:	1009883a 	mov	r4,r2
    24fc:	180b883a 	mov	r5,r3
    2500:	00047500 	call	4750 <__muldf3>
    2504:	a009883a 	mov	r4,r20
    2508:	a80b883a 	mov	r5,r21
    250c:	e0800215 	stw	r2,8(fp)
    2510:	e0c00315 	stw	r3,12(fp)
    2514:	000d883a 	mov	r6,zero
    2518:	01cf9c34 	movhi	r7,15984
    251c:	00047500 	call	4750 <__muldf3>
    2520:	da008c17 	ldw	r8,560(sp)
    2524:	1029883a 	mov	r20,r2
    2528:	182b883a 	mov	r21,r3
    252c:	e23fec1e 	bne	fp,r8,24e0 <__alt_mem_VGA_Subsystem_Char_Buf_Subsystem_Onchip_SRAM+0xf70024e0>
    2530:	0029883a 	mov	r20,zero
    2534:	b0004f16 	blt	r22,zero,2674 <__kernel_rem_pio2+0x8fc>
    2538:	05400074 	movhi	r21,1
    253c:	014ffe74 	movhi	r5,16377
    2540:	ad4c3604 	addi	r21,r21,12504
    2544:	8027883a 	mov	r19,r16
    2548:	01100034 	movhi	r4,16384
    254c:	29487ec4 	addi	r5,r5,8699
    2550:	0039883a 	mov	fp,zero
    2554:	002f883a 	mov	r23,zero
    2558:	0025883a 	mov	r18,zero
    255c:	00000506 	br	2574 <__kernel_rem_pio2+0x7fc>
    2560:	9cc00204 	addi	r19,r19,8
    2564:	a4800f16 	blt	r20,r18,25a4 <__kernel_rem_pio2+0x82c>
    2568:	a9000017 	ldw	r4,0(r21)
    256c:	a9400117 	ldw	r5,4(r21)
    2570:	ad400204 	addi	r21,r21,8
    2574:	99800017 	ldw	r6,0(r19)
    2578:	99c00117 	ldw	r7,4(r19)
    257c:	94800044 	addi	r18,r18,1
    2580:	00047500 	call	4750 <__muldf3>
    2584:	e009883a 	mov	r4,fp
    2588:	b80b883a 	mov	r5,r23
    258c:	100d883a 	mov	r6,r2
    2590:	180f883a 	mov	r7,r3
    2594:	00033700 	call	3370 <__adddf3>
    2598:	1039883a 	mov	fp,r2
    259c:	182f883a 	mov	r23,r3
    25a0:	b4bfef0e 	bge	r22,r18,2560 <__alt_mem_VGA_Subsystem_Char_Buf_Subsystem_Onchip_SRAM+0xf7002560>
    25a4:	a00490fa 	slli	r2,r20,3
    25a8:	da008c17 	ldw	r8,560(sp)
    25ac:	843ffe04 	addi	r16,r16,-8
    25b0:	d885883a 	add	r2,sp,r2
    25b4:	10802804 	addi	r2,r2,160
    25b8:	17000015 	stw	fp,0(r2)
    25bc:	15c00115 	stw	r23,4(r2)
    25c0:	a5000044 	addi	r20,r20,1
    25c4:	823fdb1e 	bne	r16,r8,2534 <__alt_mem_VGA_Subsystem_Char_Buf_Subsystem_Onchip_SRAM+0xf7002534>
    25c8:	da00a617 	ldw	r8,664(sp)
    25cc:	00800084 	movi	r2,2
    25d0:	12006616 	blt	r2,r8,276c <__kernel_rem_pio2+0x9f4>
    25d4:	0200de16 	blt	zero,r8,2950 <__kernel_rem_pio2+0xbd8>
    25d8:	4000141e 	bne	r8,zero,262c <__kernel_rem_pio2+0x8b4>
    25dc:	da008e17 	ldw	r8,568(sp)
    25e0:	d8802804 	addi	r2,sp,160
    25e4:	0007883a 	mov	r3,zero
    25e8:	1225883a 	add	r18,r2,r8
    25ec:	043fffc4 	movi	r16,-1
    25f0:	0005883a 	mov	r2,zero
    25f4:	91800017 	ldw	r6,0(r18)
    25f8:	91c00117 	ldw	r7,4(r18)
    25fc:	1009883a 	mov	r4,r2
    2600:	180b883a 	mov	r5,r3
    2604:	8c7fffc4 	addi	r17,r17,-1
    2608:	00033700 	call	3370 <__adddf3>
    260c:	94bffe04 	addi	r18,r18,-8
    2610:	8c3ff81e 	bne	r17,r16,25f4 <__alt_mem_VGA_Subsystem_Char_Buf_Subsystem_Onchip_SRAM+0xf70025f4>
    2614:	da008d17 	ldw	r8,564(sp)
    2618:	40000126 	beq	r8,zero,2620 <__kernel_rem_pio2+0x8a8>
    261c:	18e0003c 	xorhi	r3,r3,32768
    2620:	da008f17 	ldw	r8,572(sp)
    2624:	40800015 	stw	r2,0(r8)
    2628:	40c00115 	stw	r3,4(r8)
    262c:	da009117 	ldw	r8,580(sp)
    2630:	408001cc 	andi	r2,r8,7
    2634:	dfc0a517 	ldw	ra,660(sp)
    2638:	df00a417 	ldw	fp,656(sp)
    263c:	ddc0a317 	ldw	r23,652(sp)
    2640:	dd80a217 	ldw	r22,648(sp)
    2644:	dd40a117 	ldw	r21,644(sp)
    2648:	dd00a017 	ldw	r20,640(sp)
    264c:	dcc09f17 	ldw	r19,636(sp)
    2650:	dc809e17 	ldw	r18,632(sp)
    2654:	dc409d17 	ldw	r17,628(sp)
    2658:	dc009c17 	ldw	r16,624(sp)
    265c:	dec0a604 	addi	sp,sp,664
    2660:	f800283a 	ret
    2664:	8c400044 	addi	r17,r17,1
    2668:	04810d0e 	bge	zero,r18,2aa0 <__kernel_rem_pio2+0xd28>
    266c:	04c00084 	movi	r19,2
    2670:	003eac06 	br	2124 <__alt_mem_VGA_Subsystem_Char_Buf_Subsystem_Onchip_SRAM+0xf7002124>
    2674:	0039883a 	mov	fp,zero
    2678:	002f883a 	mov	r23,zero
    267c:	003fc906 	br	25a4 <__alt_mem_VGA_Subsystem_Char_Buf_Subsystem_Onchip_SRAM+0xf70025a4>
    2680:	0029883a 	mov	r20,zero
    2684:	003ebd06 	br	217c <__alt_mem_VGA_Subsystem_Char_Buf_Subsystem_Onchip_SRAM+0xf700217c>
    2688:	05000044 	movi	r20,1
    268c:	003eef06 	br	224c <__alt_mem_VGA_Subsystem_Char_Buf_Subsystem_Onchip_SRAM+0xf700224c>
    2690:	4029883a 	mov	r20,r8
    2694:	da009017 	ldw	r8,576(sp)
    2698:	a809883a 	mov	r4,r21
    269c:	a00b883a 	mov	r5,r20
    26a0:	020dc83a 	sub	r6,zero,r8
    26a4:	dc409115 	stw	r17,580(sp)
    26a8:	dd809417 	ldw	r22,592(sp)
    26ac:	dcc08d15 	stw	r19,564(sp)
    26b0:	0002fdc0 	call	2fdc <scalbn>
    26b4:	000d883a 	mov	r6,zero
    26b8:	01d05c34 	movhi	r7,16752
    26bc:	1009883a 	mov	r4,r2
    26c0:	180b883a 	mov	r5,r3
    26c4:	102b883a 	mov	r21,r2
    26c8:	1823883a 	mov	r17,r3
    26cc:	00046740 	call	4674 <__gedf2>
    26d0:	1000e916 	blt	r2,zero,2a78 <__kernel_rem_pio2+0xd00>
    26d4:	000d883a 	mov	r6,zero
    26d8:	01cf9c34 	movhi	r7,15984
    26dc:	880b883a 	mov	r5,r17
    26e0:	a809883a 	mov	r4,r21
    26e4:	00047500 	call	4750 <__muldf3>
    26e8:	180b883a 	mov	r5,r3
    26ec:	1009883a 	mov	r4,r2
    26f0:	00058b80 	call	58b8 <__fixdfsi>
    26f4:	1029883a 	mov	r20,r2
    26f8:	9485883a 	add	r2,r18,r18
    26fc:	1085883a 	add	r2,r2,r2
    2700:	a009883a 	mov	r4,r20
    2704:	d8a1883a 	add	r16,sp,r2
    2708:	00059380 	call	5938 <__floatsidf>
    270c:	000d883a 	mov	r6,zero
    2710:	01d05c34 	movhi	r7,16752
    2714:	1009883a 	mov	r4,r2
    2718:	180b883a 	mov	r5,r3
    271c:	00047500 	call	4750 <__muldf3>
    2720:	880b883a 	mov	r5,r17
    2724:	100d883a 	mov	r6,r2
    2728:	180f883a 	mov	r7,r3
    272c:	a809883a 	mov	r4,r21
    2730:	0004fbc0 	call	4fbc <__subdf3>
    2734:	180b883a 	mov	r5,r3
    2738:	1009883a 	mov	r4,r2
    273c:	00058b80 	call	58b8 <__fixdfsi>
    2740:	da009017 	ldw	r8,576(sp)
    2744:	94400044 	addi	r17,r18,1
    2748:	8c47883a 	add	r3,r17,r17
    274c:	84007804 	addi	r16,r16,480
    2750:	18c7883a 	add	r3,r3,r3
    2754:	80800015 	stw	r2,0(r16)
    2758:	d8c7883a 	add	r3,sp,r3
    275c:	42000604 	addi	r8,r8,24
    2760:	da009015 	stw	r8,576(sp)
    2764:	1d007815 	stw	r20,480(r3)
    2768:	003f4b06 	br	2498 <__alt_mem_VGA_Subsystem_Char_Buf_Subsystem_Onchip_SRAM+0xf7002498>
    276c:	da00a617 	ldw	r8,664(sp)
    2770:	008000c4 	movi	r2,3
    2774:	40bfad1e 	bne	r8,r2,262c <__alt_mem_VGA_Subsystem_Char_Buf_Subsystem_Onchip_SRAM+0xf700262c>
    2778:	0440bc0e 	bge	zero,r17,2a6c <__kernel_rem_pio2+0xcf4>
    277c:	da008e17 	ldw	r8,568(sp)
    2780:	882090fa 	slli	r16,r17,3
    2784:	dd402804 	addi	r21,sp,160
    2788:	da05883a 	add	r2,sp,r8
    278c:	10802804 	addi	r2,r2,160
    2790:	15c00017 	ldw	r23,0(r2)
    2794:	15800117 	ldw	r22,4(r2)
    2798:	8029883a 	mov	r20,r16
    279c:	843ffe04 	addi	r16,r16,-8
    27a0:	ac21883a 	add	r16,r21,r16
    27a4:	ad29883a 	add	r20,r21,r20
    27a8:	dac02604 	addi	r11,sp,152
    27ac:	8811883a 	mov	r8,r17
    27b0:	84400017 	ldw	r17,0(r16)
    27b4:	87000117 	ldw	fp,4(r16)
    27b8:	b80d883a 	mov	r6,r23
    27bc:	b00f883a 	mov	r7,r22
    27c0:	8809883a 	mov	r4,r17
    27c4:	e00b883a 	mov	r5,fp
    27c8:	da009b15 	stw	r8,620(sp)
    27cc:	dac09915 	stw	r11,612(sp)
    27d0:	00033700 	call	3370 <__adddf3>
    27d4:	100d883a 	mov	r6,r2
    27d8:	180f883a 	mov	r7,r3
    27dc:	8809883a 	mov	r4,r17
    27e0:	e00b883a 	mov	r5,fp
    27e4:	1027883a 	mov	r19,r2
    27e8:	1825883a 	mov	r18,r3
    27ec:	0004fbc0 	call	4fbc <__subdf3>
    27f0:	b80d883a 	mov	r6,r23
    27f4:	b00f883a 	mov	r7,r22
    27f8:	1009883a 	mov	r4,r2
    27fc:	180b883a 	mov	r5,r3
    2800:	00033700 	call	3370 <__adddf3>
    2804:	dac09917 	ldw	r11,612(sp)
    2808:	a0800015 	stw	r2,0(r20)
    280c:	a0c00115 	stw	r3,4(r20)
    2810:	84c00015 	stw	r19,0(r16)
    2814:	84800115 	stw	r18,4(r16)
    2818:	843ffe04 	addi	r16,r16,-8
    281c:	a53ffe04 	addi	r20,r20,-8
    2820:	982f883a 	mov	r23,r19
    2824:	902d883a 	mov	r22,r18
    2828:	da009b17 	ldw	r8,620(sp)
    282c:	5c3fe01e 	bne	r11,r16,27b0 <__alt_mem_VGA_Subsystem_Char_Buf_Subsystem_Onchip_SRAM+0xf70027b0>
    2830:	00800044 	movi	r2,1
    2834:	12008d0e 	bge	r2,r8,2a6c <__kernel_rem_pio2+0xcf4>
    2838:	402090fa 	slli	r16,r8,3
    283c:	da008e17 	ldw	r8,568(sp)
    2840:	8023883a 	mov	r17,r16
    2844:	da05883a 	add	r2,sp,r8
    2848:	10802804 	addi	r2,r2,160
    284c:	15800017 	ldw	r22,0(r2)
    2850:	15000117 	ldw	r20,4(r2)
    2854:	ac63883a 	add	r17,r21,r17
    2858:	843ffe04 	addi	r16,r16,-8
    285c:	ac21883a 	add	r16,r21,r16
    2860:	8825883a 	mov	r18,r17
    2864:	8811883a 	mov	r8,r17
    2868:	84400017 	ldw	r17,0(r16)
    286c:	87000117 	ldw	fp,4(r16)
    2870:	b009883a 	mov	r4,r22
    2874:	a00b883a 	mov	r5,r20
    2878:	880d883a 	mov	r6,r17
    287c:	e00f883a 	mov	r7,fp
    2880:	da009b15 	stw	r8,620(sp)
    2884:	00033700 	call	3370 <__adddf3>
    2888:	100d883a 	mov	r6,r2
    288c:	180f883a 	mov	r7,r3
    2890:	8809883a 	mov	r4,r17
    2894:	e00b883a 	mov	r5,fp
    2898:	102f883a 	mov	r23,r2
    289c:	1827883a 	mov	r19,r3
    28a0:	0004fbc0 	call	4fbc <__subdf3>
    28a4:	b00d883a 	mov	r6,r22
    28a8:	a00f883a 	mov	r7,r20
    28ac:	1009883a 	mov	r4,r2
    28b0:	180b883a 	mov	r5,r3
    28b4:	00033700 	call	3370 <__adddf3>
    28b8:	90800015 	stw	r2,0(r18)
    28bc:	90c00115 	stw	r3,4(r18)
    28c0:	85c00015 	stw	r23,0(r16)
    28c4:	84c00115 	stw	r19,4(r16)
    28c8:	843ffe04 	addi	r16,r16,-8
    28cc:	94bffe04 	addi	r18,r18,-8
    28d0:	b82d883a 	mov	r22,r23
    28d4:	9829883a 	mov	r20,r19
    28d8:	da009b17 	ldw	r8,620(sp)
    28dc:	ac3fe21e 	bne	r21,r16,2868 <__alt_mem_VGA_Subsystem_Char_Buf_Subsystem_Onchip_SRAM+0xf7002868>
    28e0:	4023883a 	mov	r17,r8
    28e4:	dc002a04 	addi	r16,sp,168
    28e8:	0005883a 	mov	r2,zero
    28ec:	0007883a 	mov	r3,zero
    28f0:	89800017 	ldw	r6,0(r17)
    28f4:	89c00117 	ldw	r7,4(r17)
    28f8:	1009883a 	mov	r4,r2
    28fc:	8c7ffe04 	addi	r17,r17,-8
    2900:	180b883a 	mov	r5,r3
    2904:	00033700 	call	3370 <__adddf3>
    2908:	847ff91e 	bne	r16,r17,28f0 <__alt_mem_VGA_Subsystem_Char_Buf_Subsystem_Onchip_SRAM+0xf70028f0>
    290c:	da008d17 	ldw	r8,564(sp)
    2910:	40004726 	beq	r8,zero,2a30 <__kernel_rem_pio2+0xcb8>
    2914:	d9002b17 	ldw	r4,172(sp)
    2918:	d9402917 	ldw	r5,164(sp)
    291c:	d9802a17 	ldw	r6,168(sp)
    2920:	da008f17 	ldw	r8,572(sp)
    2924:	d9c02817 	ldw	r7,160(sp)
    2928:	2960003c 	xorhi	r5,r5,32768
    292c:	2120003c 	xorhi	r4,r4,32768
    2930:	18e0003c 	xorhi	r3,r3,32768
    2934:	41c00015 	stw	r7,0(r8)
    2938:	41400115 	stw	r5,4(r8)
    293c:	41800215 	stw	r6,8(r8)
    2940:	41000315 	stw	r4,12(r8)
    2944:	40800415 	stw	r2,16(r8)
    2948:	40c00515 	stw	r3,20(r8)
    294c:	003f3706 	br	262c <__alt_mem_VGA_Subsystem_Char_Buf_Subsystem_Onchip_SRAM+0xf700262c>
    2950:	da008e17 	ldw	r8,568(sp)
    2954:	d8802804 	addi	r2,sp,160
    2958:	dc002604 	addi	r16,sp,152
    295c:	1225883a 	add	r18,r2,r8
    2960:	0007883a 	mov	r3,zero
    2964:	0005883a 	mov	r2,zero
    2968:	91800017 	ldw	r6,0(r18)
    296c:	91c00117 	ldw	r7,4(r18)
    2970:	1009883a 	mov	r4,r2
    2974:	94bffe04 	addi	r18,r18,-8
    2978:	180b883a 	mov	r5,r3
    297c:	00033700 	call	3370 <__adddf3>
    2980:	943ff91e 	bne	r18,r16,2968 <__alt_mem_VGA_Subsystem_Char_Buf_Subsystem_Onchip_SRAM+0xf7002968>
    2984:	da008d17 	ldw	r8,564(sp)
    2988:	d9002817 	ldw	r4,160(sp)
    298c:	d9402917 	ldw	r5,164(sp)
    2990:	40001a26 	beq	r8,zero,29fc <__kernel_rem_pio2+0xc84>
    2994:	da008f17 	ldw	r8,572(sp)
    2998:	19a0003c 	xorhi	r6,r3,32768
    299c:	180f883a 	mov	r7,r3
    29a0:	41800115 	stw	r6,4(r8)
    29a4:	40800015 	stw	r2,0(r8)
    29a8:	100d883a 	mov	r6,r2
    29ac:	0004fbc0 	call	4fbc <__subdf3>
    29b0:	04400c0e 	bge	zero,r17,29e4 <__kernel_rem_pio2+0xc6c>
    29b4:	dc002a04 	addi	r16,sp,168
    29b8:	04800044 	movi	r18,1
    29bc:	81800017 	ldw	r6,0(r16)
    29c0:	81c00117 	ldw	r7,4(r16)
    29c4:	1009883a 	mov	r4,r2
    29c8:	180b883a 	mov	r5,r3
    29cc:	94800044 	addi	r18,r18,1
    29d0:	00033700 	call	3370 <__adddf3>
    29d4:	84000204 	addi	r16,r16,8
    29d8:	8cbff80e 	bge	r17,r18,29bc <__alt_mem_VGA_Subsystem_Char_Buf_Subsystem_Onchip_SRAM+0xf70029bc>
    29dc:	da008d17 	ldw	r8,564(sp)
    29e0:	40004226 	beq	r8,zero,2aec <__kernel_rem_pio2+0xd74>
    29e4:	da008f17 	ldw	r8,572(sp)
    29e8:	1009883a 	mov	r4,r2
    29ec:	18a0003c 	xorhi	r2,r3,32768
    29f0:	41000215 	stw	r4,8(r8)
    29f4:	40800315 	stw	r2,12(r8)
    29f8:	003f0c06 	br	262c <__alt_mem_VGA_Subsystem_Char_Buf_Subsystem_Onchip_SRAM+0xf700262c>
    29fc:	da008f17 	ldw	r8,572(sp)
    2a00:	100d883a 	mov	r6,r2
    2a04:	180f883a 	mov	r7,r3
    2a08:	40800015 	stw	r2,0(r8)
    2a0c:	40c00115 	stw	r3,4(r8)
    2a10:	0004fbc0 	call	4fbc <__subdf3>
    2a14:	047fe716 	blt	zero,r17,29b4 <__alt_mem_VGA_Subsystem_Char_Buf_Subsystem_Onchip_SRAM+0xf70029b4>
    2a18:	da008f17 	ldw	r8,572(sp)
    2a1c:	1009883a 	mov	r4,r2
    2a20:	1805883a 	mov	r2,r3
    2a24:	41000215 	stw	r4,8(r8)
    2a28:	40800315 	stw	r2,12(r8)
    2a2c:	003eff06 	br	262c <__alt_mem_VGA_Subsystem_Char_Buf_Subsystem_Onchip_SRAM+0xf700262c>
    2a30:	da008f17 	ldw	r8,572(sp)
    2a34:	d9802817 	ldw	r6,160(sp)
    2a38:	d9402a17 	ldw	r5,168(sp)
    2a3c:	d9002b17 	ldw	r4,172(sp)
    2a40:	41800015 	stw	r6,0(r8)
    2a44:	d9802917 	ldw	r6,164(sp)
    2a48:	41400215 	stw	r5,8(r8)
    2a4c:	41000315 	stw	r4,12(r8)
    2a50:	41800115 	stw	r6,4(r8)
    2a54:	40800415 	stw	r2,16(r8)
    2a58:	40c00515 	stw	r3,20(r8)
    2a5c:	003ef306 	br	262c <__alt_mem_VGA_Subsystem_Char_Buf_Subsystem_Onchip_SRAM+0xf700262c>
    2a60:	da00a617 	ldw	r8,664(sp)
    2a64:	008000c4 	movi	r2,3
    2a68:	40bef01e 	bne	r8,r2,262c <__alt_mem_VGA_Subsystem_Char_Buf_Subsystem_Onchip_SRAM+0xf700262c>
    2a6c:	0005883a 	mov	r2,zero
    2a70:	0007883a 	mov	r3,zero
    2a74:	003fa506 	br	290c <__alt_mem_VGA_Subsystem_Char_Buf_Subsystem_Onchip_SRAM+0xf700290c>
    2a78:	9485883a 	add	r2,r18,r18
    2a7c:	1085883a 	add	r2,r2,r2
    2a80:	d8a1883a 	add	r16,sp,r2
    2a84:	880b883a 	mov	r5,r17
    2a88:	a809883a 	mov	r4,r21
    2a8c:	84007804 	addi	r16,r16,480
    2a90:	00058b80 	call	58b8 <__fixdfsi>
    2a94:	80800015 	stw	r2,0(r16)
    2a98:	9023883a 	mov	r17,r18
    2a9c:	003e7e06 	br	2498 <__alt_mem_VGA_Subsystem_Char_Buf_Subsystem_Onchip_SRAM+0xf7002498>
    2aa0:	a80d883a 	mov	r6,r21
    2aa4:	400f883a 	mov	r7,r8
    2aa8:	0009883a 	mov	r4,zero
    2aac:	014ffc34 	movhi	r5,16368
    2ab0:	0004fbc0 	call	4fbc <__subdf3>
    2ab4:	102b883a 	mov	r21,r2
    2ab8:	1811883a 	mov	r8,r3
    2abc:	04c00084 	movi	r19,2
    2ac0:	003dc006 	br	21c4 <__alt_mem_VGA_Subsystem_Char_Buf_Subsystem_Onchip_SRAM+0xf70021c4>
    2ac4:	da00a617 	ldw	r8,664(sp)
    2ac8:	00800084 	movi	r2,2
    2acc:	123fe416 	blt	r2,r8,2a60 <__alt_mem_VGA_Subsystem_Char_Buf_Subsystem_Onchip_SRAM+0xf7002a60>
    2ad0:	02000c16 	blt	zero,r8,2b04 <__kernel_rem_pio2+0xd8c>
    2ad4:	403ed51e 	bne	r8,zero,262c <__alt_mem_VGA_Subsystem_Char_Buf_Subsystem_Onchip_SRAM+0xf700262c>
    2ad8:	0005883a 	mov	r2,zero
    2adc:	0007883a 	mov	r3,zero
    2ae0:	003ecc06 	br	2614 <__alt_mem_VGA_Subsystem_Char_Buf_Subsystem_Onchip_SRAM+0xf7002614>
    2ae4:	d8009215 	stw	zero,584(sp)
    2ae8:	003cc106 	br	1df0 <__alt_mem_VGA_Subsystem_Char_Buf_Subsystem_Onchip_SRAM+0xf7001df0>
    2aec:	da008f17 	ldw	r8,572(sp)
    2af0:	1009883a 	mov	r4,r2
    2af4:	1805883a 	mov	r2,r3
    2af8:	41000215 	stw	r4,8(r8)
    2afc:	40800315 	stw	r2,12(r8)
    2b00:	003eca06 	br	262c <__alt_mem_VGA_Subsystem_Char_Buf_Subsystem_Onchip_SRAM+0xf700262c>
    2b04:	0005883a 	mov	r2,zero
    2b08:	0007883a 	mov	r3,zero
    2b0c:	003f9d06 	br	2984 <__alt_mem_VGA_Subsystem_Char_Buf_Subsystem_Onchip_SRAM+0xf7002984>

00002b10 <__kernel_sin>:
    2b10:	00a00034 	movhi	r2,32768
    2b14:	defff404 	addi	sp,sp,-48
    2b18:	10bfffc4 	addi	r2,r2,-1
    2b1c:	00cf9034 	movhi	r3,15936
    2b20:	ddc00915 	stw	r23,36(sp)
    2b24:	dd800815 	stw	r22,32(sp)
    2b28:	dc400315 	stw	r17,12(sp)
    2b2c:	dc000215 	stw	r16,8(sp)
    2b30:	dfc00b15 	stw	ra,44(sp)
    2b34:	df000a15 	stw	fp,40(sp)
    2b38:	dd400715 	stw	r21,28(sp)
    2b3c:	dd000615 	stw	r20,24(sp)
    2b40:	dcc00515 	stw	r19,20(sp)
    2b44:	dc800415 	stw	r18,16(sp)
    2b48:	2884703a 	and	r2,r5,r2
    2b4c:	18ffffc4 	addi	r3,r3,-1
    2b50:	2821883a 	mov	r16,r5
    2b54:	2023883a 	mov	r17,r4
    2b58:	302f883a 	mov	r23,r6
    2b5c:	382d883a 	mov	r22,r7
    2b60:	18800216 	blt	r3,r2,2b6c <__kernel_sin+0x5c>
    2b64:	00058b80 	call	58b8 <__fixdfsi>
    2b68:	10009926 	beq	r2,zero,2dd0 <__kernel_sin+0x2c0>
    2b6c:	880d883a 	mov	r6,r17
    2b70:	800f883a 	mov	r7,r16
    2b74:	8809883a 	mov	r4,r17
    2b78:	800b883a 	mov	r5,r16
    2b7c:	00047500 	call	4750 <__muldf3>
    2b80:	100d883a 	mov	r6,r2
    2b84:	180f883a 	mov	r7,r3
    2b88:	8809883a 	mov	r4,r17
    2b8c:	800b883a 	mov	r5,r16
    2b90:	1027883a 	mov	r19,r2
    2b94:	1825883a 	mov	r18,r3
    2b98:	00047500 	call	4750 <__muldf3>
    2b9c:	0196b434 	movhi	r6,23248
    2ba0:	01cf79b4 	movhi	r7,15846
    2ba4:	31b55f04 	addi	r6,r6,-10884
    2ba8:	39f64e84 	addi	r7,r7,-9926
    2bac:	9809883a 	mov	r4,r19
    2bb0:	900b883a 	mov	r5,r18
    2bb4:	102b883a 	mov	r21,r2
    2bb8:	1829883a 	mov	r20,r3
    2bbc:	00047500 	call	4750 <__muldf3>
    2bc0:	01a28b34 	movhi	r6,35372
    2bc4:	01cf96f4 	movhi	r7,15963
    2bc8:	31a73ac4 	addi	r6,r6,-25365
    2bcc:	39f97984 	addi	r7,r7,-6682
    2bd0:	1009883a 	mov	r4,r2
    2bd4:	180b883a 	mov	r5,r3
    2bd8:	0004fbc0 	call	4fbc <__subdf3>
    2bdc:	980d883a 	mov	r6,r19
    2be0:	900f883a 	mov	r7,r18
    2be4:	1009883a 	mov	r4,r2
    2be8:	180b883a 	mov	r5,r3
    2bec:	00047500 	call	4750 <__muldf3>
    2bf0:	0195ecb4 	movhi	r6,22450
    2bf4:	01cfb1f4 	movhi	r7,16071
    2bf8:	31bf9f44 	addi	r6,r6,-387
    2bfc:	39c778c4 	addi	r7,r7,7651
    2c00:	1009883a 	mov	r4,r2
    2c04:	180b883a 	mov	r5,r3
    2c08:	00033700 	call	3370 <__adddf3>
    2c0c:	980d883a 	mov	r6,r19
    2c10:	900f883a 	mov	r7,r18
    2c14:	1009883a 	mov	r4,r2
    2c18:	180b883a 	mov	r5,r3
    2c1c:	00047500 	call	4750 <__muldf3>
    2c20:	01867074 	movhi	r6,6593
    2c24:	01cfcab4 	movhi	r7,16170
    2c28:	31987544 	addi	r6,r6,25045
    2c2c:	39c06804 	addi	r7,r7,416
    2c30:	1009883a 	mov	r4,r2
    2c34:	180b883a 	mov	r5,r3
    2c38:	0004fbc0 	call	4fbc <__subdf3>
    2c3c:	980d883a 	mov	r6,r19
    2c40:	900f883a 	mov	r7,r18
    2c44:	1009883a 	mov	r4,r2
    2c48:	180b883a 	mov	r5,r3
    2c4c:	00047500 	call	4750 <__muldf3>
    2c50:	01844474 	movhi	r6,4369
    2c54:	01cfe074 	movhi	r7,16257
    2c58:	31be2984 	addi	r6,r6,-1882
    2c5c:	39c44444 	addi	r7,r7,4369
    2c60:	1009883a 	mov	r4,r2
    2c64:	180b883a 	mov	r5,r3
    2c68:	00033700 	call	3370 <__adddf3>
    2c6c:	1011883a 	mov	r8,r2
    2c70:	d8800c17 	ldw	r2,48(sp)
    2c74:	1839883a 	mov	fp,r3
    2c78:	10003e26 	beq	r2,zero,2d74 <__kernel_sin+0x264>
    2c7c:	000d883a 	mov	r6,zero
    2c80:	01cff834 	movhi	r7,16352
    2c84:	b809883a 	mov	r4,r23
    2c88:	b00b883a 	mov	r5,r22
    2c8c:	da000015 	stw	r8,0(sp)
    2c90:	00047500 	call	4750 <__muldf3>
    2c94:	da000017 	ldw	r8,0(sp)
    2c98:	e00f883a 	mov	r7,fp
    2c9c:	a809883a 	mov	r4,r21
    2ca0:	400d883a 	mov	r6,r8
    2ca4:	a00b883a 	mov	r5,r20
    2ca8:	d8c00115 	stw	r3,4(sp)
    2cac:	d8800015 	stw	r2,0(sp)
    2cb0:	00047500 	call	4750 <__muldf3>
    2cb4:	da800017 	ldw	r10,0(sp)
    2cb8:	da400117 	ldw	r9,4(sp)
    2cbc:	100d883a 	mov	r6,r2
    2cc0:	5009883a 	mov	r4,r10
    2cc4:	480b883a 	mov	r5,r9
    2cc8:	180f883a 	mov	r7,r3
    2ccc:	0004fbc0 	call	4fbc <__subdf3>
    2cd0:	980d883a 	mov	r6,r19
    2cd4:	900f883a 	mov	r7,r18
    2cd8:	1009883a 	mov	r4,r2
    2cdc:	180b883a 	mov	r5,r3
    2ce0:	00047500 	call	4750 <__muldf3>
    2ce4:	b80d883a 	mov	r6,r23
    2ce8:	b00f883a 	mov	r7,r22
    2cec:	1009883a 	mov	r4,r2
    2cf0:	180b883a 	mov	r5,r3
    2cf4:	0004fbc0 	call	4fbc <__subdf3>
    2cf8:	01955574 	movhi	r6,21845
    2cfc:	01cff174 	movhi	r7,16325
    2d00:	31955244 	addi	r6,r6,21833
    2d04:	39d55544 	addi	r7,r7,21845
    2d08:	a809883a 	mov	r4,r21
    2d0c:	a00b883a 	mov	r5,r20
    2d10:	1027883a 	mov	r19,r2
    2d14:	1825883a 	mov	r18,r3
    2d18:	00047500 	call	4750 <__muldf3>
    2d1c:	100d883a 	mov	r6,r2
    2d20:	180f883a 	mov	r7,r3
    2d24:	9809883a 	mov	r4,r19
    2d28:	900b883a 	mov	r5,r18
    2d2c:	00033700 	call	3370 <__adddf3>
    2d30:	100d883a 	mov	r6,r2
    2d34:	180f883a 	mov	r7,r3
    2d38:	8809883a 	mov	r4,r17
    2d3c:	800b883a 	mov	r5,r16
    2d40:	0004fbc0 	call	4fbc <__subdf3>
    2d44:	dfc00b17 	ldw	ra,44(sp)
    2d48:	df000a17 	ldw	fp,40(sp)
    2d4c:	ddc00917 	ldw	r23,36(sp)
    2d50:	dd800817 	ldw	r22,32(sp)
    2d54:	dd400717 	ldw	r21,28(sp)
    2d58:	dd000617 	ldw	r20,24(sp)
    2d5c:	dcc00517 	ldw	r19,20(sp)
    2d60:	dc800417 	ldw	r18,16(sp)
    2d64:	dc400317 	ldw	r17,12(sp)
    2d68:	dc000217 	ldw	r16,8(sp)
    2d6c:	dec00c04 	addi	sp,sp,48
    2d70:	f800283a 	ret
    2d74:	400d883a 	mov	r6,r8
    2d78:	9809883a 	mov	r4,r19
    2d7c:	900b883a 	mov	r5,r18
    2d80:	180f883a 	mov	r7,r3
    2d84:	00047500 	call	4750 <__muldf3>
    2d88:	01955574 	movhi	r6,21845
    2d8c:	01cff174 	movhi	r7,16325
    2d90:	31955244 	addi	r6,r6,21833
    2d94:	39d55544 	addi	r7,r7,21845
    2d98:	1009883a 	mov	r4,r2
    2d9c:	180b883a 	mov	r5,r3
    2da0:	0004fbc0 	call	4fbc <__subdf3>
    2da4:	a80d883a 	mov	r6,r21
    2da8:	a00f883a 	mov	r7,r20
    2dac:	1009883a 	mov	r4,r2
    2db0:	180b883a 	mov	r5,r3
    2db4:	00047500 	call	4750 <__muldf3>
    2db8:	880d883a 	mov	r6,r17
    2dbc:	800f883a 	mov	r7,r16
    2dc0:	1009883a 	mov	r4,r2
    2dc4:	180b883a 	mov	r5,r3
    2dc8:	00033700 	call	3370 <__adddf3>
    2dcc:	003fdd06 	br	2d44 <__alt_mem_VGA_Subsystem_Char_Buf_Subsystem_Onchip_SRAM+0xf7002d44>
    2dd0:	8805883a 	mov	r2,r17
    2dd4:	8007883a 	mov	r3,r16
    2dd8:	003fda06 	br	2d44 <__alt_mem_VGA_Subsystem_Char_Buf_Subsystem_Onchip_SRAM+0xf7002d44>

00002ddc <fabs>:
    2ddc:	00e00034 	movhi	r3,32768
    2de0:	18ffffc4 	addi	r3,r3,-1
    2de4:	2005883a 	mov	r2,r4
    2de8:	28c6703a 	and	r3,r5,r3
    2dec:	f800283a 	ret

00002df0 <floor>:
    2df0:	2811d53a 	srai	r8,r5,20
    2df4:	defffa04 	addi	sp,sp,-24
    2df8:	dcc00315 	stw	r19,12(sp)
    2dfc:	4201ffcc 	andi	r8,r8,2047
    2e00:	dc800215 	stw	r18,8(sp)
    2e04:	dc400115 	stw	r17,4(sp)
    2e08:	dc000015 	stw	r16,0(sp)
    2e0c:	dfc00515 	stw	ra,20(sp)
    2e10:	dd000415 	stw	r20,16(sp)
    2e14:	44bf0044 	addi	r18,r8,-1023
    2e18:	018004c4 	movi	r6,19
    2e1c:	2821883a 	mov	r16,r5
    2e20:	2005883a 	mov	r2,r4
    2e24:	280f883a 	mov	r7,r5
    2e28:	2827883a 	mov	r19,r5
    2e2c:	2023883a 	mov	r17,r4
    2e30:	34801916 	blt	r6,r18,2e98 <floor+0xa8>
    2e34:	90003c16 	blt	r18,zero,2f28 <floor+0x138>
    2e38:	05000434 	movhi	r20,16
    2e3c:	a53fffc4 	addi	r20,r20,-1
    2e40:	a4a9d83a 	sra	r20,r20,r18
    2e44:	2d0c703a 	and	r6,r5,r20
    2e48:	310cb03a 	or	r6,r6,r4
    2e4c:	30001626 	beq	r6,zero,2ea8 <floor+0xb8>
    2e50:	01a20034 	movhi	r6,34816
    2e54:	01df8e34 	movhi	r7,32312
    2e58:	319d6704 	addi	r6,r6,30108
    2e5c:	39f90f04 	addi	r7,r7,-7108
    2e60:	00033700 	call	3370 <__adddf3>
    2e64:	000d883a 	mov	r6,zero
    2e68:	000f883a 	mov	r7,zero
    2e6c:	1009883a 	mov	r4,r2
    2e70:	180b883a 	mov	r5,r3
    2e74:	00046740 	call	4674 <__gedf2>
    2e78:	0080040e 	bge	zero,r2,2e8c <floor+0x9c>
    2e7c:	80003c16 	blt	r16,zero,2f70 <floor+0x180>
    2e80:	0520303a 	nor	r16,zero,r20
    2e84:	84e0703a 	and	r16,r16,r19
    2e88:	0023883a 	mov	r17,zero
    2e8c:	8805883a 	mov	r2,r17
    2e90:	8007883a 	mov	r3,r16
    2e94:	00000506 	br	2eac <floor+0xbc>
    2e98:	01800cc4 	movi	r6,51
    2e9c:	34800b0e 	bge	r6,r18,2ecc <floor+0xdc>
    2ea0:	01810004 	movi	r6,1024
    2ea4:	91802f26 	beq	r18,r6,2f64 <floor+0x174>
    2ea8:	3807883a 	mov	r3,r7
    2eac:	dfc00517 	ldw	ra,20(sp)
    2eb0:	dd000417 	ldw	r20,16(sp)
    2eb4:	dcc00317 	ldw	r19,12(sp)
    2eb8:	dc800217 	ldw	r18,8(sp)
    2ebc:	dc400117 	ldw	r17,4(sp)
    2ec0:	dc000017 	ldw	r16,0(sp)
    2ec4:	dec00604 	addi	sp,sp,24
    2ec8:	f800283a 	ret
    2ecc:	423efb44 	addi	r8,r8,-1043
    2ed0:	053fffc4 	movi	r20,-1
    2ed4:	a228d83a 	srl	r20,r20,r8
    2ed8:	250c703a 	and	r6,r4,r20
    2edc:	303ff226 	beq	r6,zero,2ea8 <__alt_mem_VGA_Subsystem_Char_Buf_Subsystem_Onchip_SRAM+0xf7002ea8>
    2ee0:	01a20034 	movhi	r6,34816
    2ee4:	01df8e34 	movhi	r7,32312
    2ee8:	319d6704 	addi	r6,r6,30108
    2eec:	39f90f04 	addi	r7,r7,-7108
    2ef0:	00033700 	call	3370 <__adddf3>
    2ef4:	000d883a 	mov	r6,zero
    2ef8:	000f883a 	mov	r7,zero
    2efc:	1009883a 	mov	r4,r2
    2f00:	180b883a 	mov	r5,r3
    2f04:	00046740 	call	4674 <__gedf2>
    2f08:	00bfe00e 	bge	zero,r2,2e8c <__alt_mem_VGA_Subsystem_Char_Buf_Subsystem_Onchip_SRAM+0xf7002e8c>
    2f0c:	80001c16 	blt	r16,zero,2f80 <floor+0x190>
    2f10:	0510303a 	nor	r8,zero,r20
    2f14:	9821883a 	mov	r16,r19
    2f18:	8a22703a 	and	r17,r17,r8
    2f1c:	8805883a 	mov	r2,r17
    2f20:	8007883a 	mov	r3,r16
    2f24:	003fe106 	br	2eac <__alt_mem_VGA_Subsystem_Char_Buf_Subsystem_Onchip_SRAM+0xf7002eac>
    2f28:	01a20034 	movhi	r6,34816
    2f2c:	01df8e34 	movhi	r7,32312
    2f30:	319d6704 	addi	r6,r6,30108
    2f34:	39f90f04 	addi	r7,r7,-7108
    2f38:	00033700 	call	3370 <__adddf3>
    2f3c:	000d883a 	mov	r6,zero
    2f40:	000f883a 	mov	r7,zero
    2f44:	1009883a 	mov	r4,r2
    2f48:	180b883a 	mov	r5,r3
    2f4c:	00046740 	call	4674 <__gedf2>
    2f50:	00bfce0e 	bge	zero,r2,2e8c <__alt_mem_VGA_Subsystem_Char_Buf_Subsystem_Onchip_SRAM+0xf7002e8c>
    2f54:	80001516 	blt	r16,zero,2fac <floor+0x1bc>
    2f58:	0023883a 	mov	r17,zero
    2f5c:	0021883a 	mov	r16,zero
    2f60:	003fca06 	br	2e8c <__alt_mem_VGA_Subsystem_Char_Buf_Subsystem_Onchip_SRAM+0xf7002e8c>
    2f64:	200d883a 	mov	r6,r4
    2f68:	00033700 	call	3370 <__adddf3>
    2f6c:	003fcf06 	br	2eac <__alt_mem_VGA_Subsystem_Char_Buf_Subsystem_Onchip_SRAM+0xf7002eac>
    2f70:	00800434 	movhi	r2,16
    2f74:	14a5d83a 	sra	r18,r2,r18
    2f78:	84a7883a 	add	r19,r16,r18
    2f7c:	003fc006 	br	2e80 <__alt_mem_VGA_Subsystem_Char_Buf_Subsystem_Onchip_SRAM+0xf7002e80>
    2f80:	00800504 	movi	r2,20
    2f84:	90801326 	beq	r18,r2,2fd4 <floor+0x1e4>
    2f88:	00800d04 	movi	r2,52
    2f8c:	14a5c83a 	sub	r18,r2,r18
    2f90:	00800044 	movi	r2,1
    2f94:	1484983a 	sll	r2,r2,r18
    2f98:	1445883a 	add	r2,r2,r17
    2f9c:	14400b2e 	bgeu	r2,r17,2fcc <floor+0x1dc>
    2fa0:	84c00044 	addi	r19,r16,1
    2fa4:	1023883a 	mov	r17,r2
    2fa8:	003fd906 	br	2f10 <__alt_mem_VGA_Subsystem_Char_Buf_Subsystem_Onchip_SRAM+0xf7002f10>
    2fac:	00a00034 	movhi	r2,32768
    2fb0:	10bfffc4 	addi	r2,r2,-1
    2fb4:	8084703a 	and	r2,r16,r2
    2fb8:	1462b03a 	or	r17,r2,r17
    2fbc:	883fb326 	beq	r17,zero,2e8c <__alt_mem_VGA_Subsystem_Char_Buf_Subsystem_Onchip_SRAM+0xf7002e8c>
    2fc0:	0023883a 	mov	r17,zero
    2fc4:	042ffc34 	movhi	r16,49136
    2fc8:	003fb006 	br	2e8c <__alt_mem_VGA_Subsystem_Char_Buf_Subsystem_Onchip_SRAM+0xf7002e8c>
    2fcc:	1023883a 	mov	r17,r2
    2fd0:	003fcf06 	br	2f10 <__alt_mem_VGA_Subsystem_Char_Buf_Subsystem_Onchip_SRAM+0xf7002f10>
    2fd4:	84c00044 	addi	r19,r16,1
    2fd8:	003fcd06 	br	2f10 <__alt_mem_VGA_Subsystem_Char_Buf_Subsystem_Onchip_SRAM+0xf7002f10>

00002fdc <scalbn>:
    2fdc:	2a1ffc2c 	andhi	r8,r5,32752
    2fe0:	4011d53a 	srai	r8,r8,20
    2fe4:	defffe04 	addi	sp,sp,-8
    2fe8:	dc000015 	stw	r16,0(sp)
    2fec:	dfc00115 	stw	ra,4(sp)
    2ff0:	280f883a 	mov	r7,r5
    2ff4:	2015883a 	mov	r10,r4
    2ff8:	3021883a 	mov	r16,r6
    2ffc:	40001e1e 	bne	r8,zero,3078 <scalbn+0x9c>
    3000:	00a00034 	movhi	r2,32768
    3004:	10bfffc4 	addi	r2,r2,-1
    3008:	2884703a 	and	r2,r5,r2
    300c:	1104b03a 	or	r2,r2,r4
    3010:	10002226 	beq	r2,zero,309c <scalbn+0xc0>
    3014:	01d0d434 	movhi	r7,17232
    3018:	000d883a 	mov	r6,zero
    301c:	00047500 	call	4750 <__muldf3>
    3020:	013ffff4 	movhi	r4,65535
    3024:	210f2c04 	addi	r4,r4,15536
    3028:	1015883a 	mov	r10,r2
    302c:	180f883a 	mov	r7,r3
    3030:	81002a16 	blt	r16,r4,30dc <scalbn+0x100>
    3034:	191ffc2c 	andhi	r4,r3,32752
    3038:	2009d53a 	srai	r4,r4,20
    303c:	223ff284 	addi	r8,r4,-54
    3040:	8211883a 	add	r8,r16,r8
    3044:	0081ff84 	movi	r2,2046
    3048:	12002f16 	blt	r2,r8,3108 <scalbn+0x12c>
    304c:	0200190e 	bge	zero,r8,30b4 <scalbn+0xd8>
    3050:	4010953a 	slli	r8,r8,20
    3054:	01600434 	movhi	r5,32784
    3058:	297fffc4 	addi	r5,r5,-1
    305c:	194e703a 	and	r7,r3,r5
    3060:	5005883a 	mov	r2,r10
    3064:	3a06b03a 	or	r3,r7,r8
    3068:	dfc00117 	ldw	ra,4(sp)
    306c:	dc000017 	ldw	r16,0(sp)
    3070:	dec00204 	addi	sp,sp,8
    3074:	f800283a 	ret
    3078:	0081ffc4 	movi	r2,2047
    307c:	2807883a 	mov	r3,r5
    3080:	40bfef1e 	bne	r8,r2,3040 <__alt_mem_VGA_Subsystem_Char_Buf_Subsystem_Onchip_SRAM+0xf7003040>
    3084:	200d883a 	mov	r6,r4
    3088:	00033700 	call	3370 <__adddf3>
    308c:	dfc00117 	ldw	ra,4(sp)
    3090:	dc000017 	ldw	r16,0(sp)
    3094:	dec00204 	addi	sp,sp,8
    3098:	f800283a 	ret
    309c:	2005883a 	mov	r2,r4
    30a0:	2807883a 	mov	r3,r5
    30a4:	dfc00117 	ldw	ra,4(sp)
    30a8:	dc000017 	ldw	r16,0(sp)
    30ac:	dec00204 	addi	sp,sp,8
    30b0:	f800283a 	ret
    30b4:	00bff2c4 	movi	r2,-53
    30b8:	4080240e 	bge	r8,r2,314c <scalbn+0x170>
    30bc:	00b0d414 	movui	r2,50000
    30c0:	14001116 	blt	r2,r16,3108 <scalbn+0x12c>
    30c4:	0130be74 	movhi	r4,49913
    30c8:	01406974 	movhi	r5,421
    30cc:	213cd644 	addi	r4,r4,-3239
    30d0:	295b87c4 	addi	r5,r5,28191
    30d4:	500d883a 	mov	r6,r10
    30d8:	00031780 	call	3178 <copysign>
    30dc:	01b0be74 	movhi	r6,49913
    30e0:	01c06974 	movhi	r7,421
    30e4:	31bcd644 	addi	r6,r6,-3239
    30e8:	39db87c4 	addi	r7,r7,28191
    30ec:	1009883a 	mov	r4,r2
    30f0:	180b883a 	mov	r5,r3
    30f4:	00047500 	call	4750 <__muldf3>
    30f8:	dfc00117 	ldw	ra,4(sp)
    30fc:	dc000017 	ldw	r16,0(sp)
    3100:	dec00204 	addi	sp,sp,8
    3104:	f800283a 	ret
    3108:	01220034 	movhi	r4,34816
    310c:	015f8e34 	movhi	r5,32312
    3110:	500d883a 	mov	r6,r10
    3114:	211d6704 	addi	r4,r4,30108
    3118:	29790f04 	addi	r5,r5,-7108
    311c:	00031780 	call	3178 <copysign>
    3120:	01a20034 	movhi	r6,34816
    3124:	01df8e34 	movhi	r7,32312
    3128:	319d6704 	addi	r6,r6,30108
    312c:	39f90f04 	addi	r7,r7,-7108
    3130:	1009883a 	mov	r4,r2
    3134:	180b883a 	mov	r5,r3
    3138:	00047500 	call	4750 <__muldf3>
    313c:	dfc00117 	ldw	ra,4(sp)
    3140:	dc000017 	ldw	r16,0(sp)
    3144:	dec00204 	addi	sp,sp,8
    3148:	f800283a 	ret
    314c:	42000d84 	addi	r8,r8,54
    3150:	4012953a 	slli	r9,r8,20
    3154:	01e00434 	movhi	r7,32784
    3158:	39ffffc4 	addi	r7,r7,-1
    315c:	19ca703a 	and	r5,r3,r7
    3160:	000d883a 	mov	r6,zero
    3164:	01cf2434 	movhi	r7,15504
    3168:	5009883a 	mov	r4,r10
    316c:	494ab03a 	or	r5,r9,r5
    3170:	00047500 	call	4750 <__muldf3>
    3174:	003fbc06 	br	3068 <__alt_mem_VGA_Subsystem_Char_Buf_Subsystem_Onchip_SRAM+0xf7003068>

00003178 <copysign>:
    3178:	2005883a 	mov	r2,r4
    317c:	01200034 	movhi	r4,32768
    3180:	213fffc4 	addi	r4,r4,-1
    3184:	38e0002c 	andhi	r3,r7,32768
    3188:	290a703a 	and	r5,r5,r4
    318c:	28c6b03a 	or	r3,r5,r3
    3190:	f800283a 	ret

00003194 <__divsi3>:
    3194:	20001b16 	blt	r4,zero,3204 <__divsi3+0x70>
    3198:	000f883a 	mov	r7,zero
    319c:	28001616 	blt	r5,zero,31f8 <__divsi3+0x64>
    31a0:	200d883a 	mov	r6,r4
    31a4:	29001a2e 	bgeu	r5,r4,3210 <__divsi3+0x7c>
    31a8:	00800804 	movi	r2,32
    31ac:	00c00044 	movi	r3,1
    31b0:	00000106 	br	31b8 <__divsi3+0x24>
    31b4:	10000d26 	beq	r2,zero,31ec <__divsi3+0x58>
    31b8:	294b883a 	add	r5,r5,r5
    31bc:	10bfffc4 	addi	r2,r2,-1
    31c0:	18c7883a 	add	r3,r3,r3
    31c4:	293ffb36 	bltu	r5,r4,31b4 <__alt_mem_VGA_Subsystem_Char_Buf_Subsystem_Onchip_SRAM+0xf70031b4>
    31c8:	0005883a 	mov	r2,zero
    31cc:	18000726 	beq	r3,zero,31ec <__divsi3+0x58>
    31d0:	0005883a 	mov	r2,zero
    31d4:	31400236 	bltu	r6,r5,31e0 <__divsi3+0x4c>
    31d8:	314dc83a 	sub	r6,r6,r5
    31dc:	10c4b03a 	or	r2,r2,r3
    31e0:	1806d07a 	srli	r3,r3,1
    31e4:	280ad07a 	srli	r5,r5,1
    31e8:	183ffa1e 	bne	r3,zero,31d4 <__alt_mem_VGA_Subsystem_Char_Buf_Subsystem_Onchip_SRAM+0xf70031d4>
    31ec:	38000126 	beq	r7,zero,31f4 <__divsi3+0x60>
    31f0:	0085c83a 	sub	r2,zero,r2
    31f4:	f800283a 	ret
    31f8:	014bc83a 	sub	r5,zero,r5
    31fc:	39c0005c 	xori	r7,r7,1
    3200:	003fe706 	br	31a0 <__alt_mem_VGA_Subsystem_Char_Buf_Subsystem_Onchip_SRAM+0xf70031a0>
    3204:	0109c83a 	sub	r4,zero,r4
    3208:	01c00044 	movi	r7,1
    320c:	003fe306 	br	319c <__alt_mem_VGA_Subsystem_Char_Buf_Subsystem_Onchip_SRAM+0xf700319c>
    3210:	00c00044 	movi	r3,1
    3214:	003fee06 	br	31d0 <__alt_mem_VGA_Subsystem_Char_Buf_Subsystem_Onchip_SRAM+0xf70031d0>

00003218 <__modsi3>:
    3218:	20001716 	blt	r4,zero,3278 <__modsi3+0x60>
    321c:	000f883a 	mov	r7,zero
    3220:	2005883a 	mov	r2,r4
    3224:	28001216 	blt	r5,zero,3270 <__modsi3+0x58>
    3228:	2900162e 	bgeu	r5,r4,3284 <__modsi3+0x6c>
    322c:	01800804 	movi	r6,32
    3230:	00c00044 	movi	r3,1
    3234:	00000106 	br	323c <__modsi3+0x24>
    3238:	30000a26 	beq	r6,zero,3264 <__modsi3+0x4c>
    323c:	294b883a 	add	r5,r5,r5
    3240:	31bfffc4 	addi	r6,r6,-1
    3244:	18c7883a 	add	r3,r3,r3
    3248:	293ffb36 	bltu	r5,r4,3238 <__alt_mem_VGA_Subsystem_Char_Buf_Subsystem_Onchip_SRAM+0xf7003238>
    324c:	18000526 	beq	r3,zero,3264 <__modsi3+0x4c>
    3250:	1806d07a 	srli	r3,r3,1
    3254:	11400136 	bltu	r2,r5,325c <__modsi3+0x44>
    3258:	1145c83a 	sub	r2,r2,r5
    325c:	280ad07a 	srli	r5,r5,1
    3260:	183ffb1e 	bne	r3,zero,3250 <__alt_mem_VGA_Subsystem_Char_Buf_Subsystem_Onchip_SRAM+0xf7003250>
    3264:	38000126 	beq	r7,zero,326c <__modsi3+0x54>
    3268:	0085c83a 	sub	r2,zero,r2
    326c:	f800283a 	ret
    3270:	014bc83a 	sub	r5,zero,r5
    3274:	003fec06 	br	3228 <__alt_mem_VGA_Subsystem_Char_Buf_Subsystem_Onchip_SRAM+0xf7003228>
    3278:	0109c83a 	sub	r4,zero,r4
    327c:	01c00044 	movi	r7,1
    3280:	003fe706 	br	3220 <__alt_mem_VGA_Subsystem_Char_Buf_Subsystem_Onchip_SRAM+0xf7003220>
    3284:	00c00044 	movi	r3,1
    3288:	003ff106 	br	3250 <__alt_mem_VGA_Subsystem_Char_Buf_Subsystem_Onchip_SRAM+0xf7003250>

0000328c <__udivsi3>:
    328c:	200d883a 	mov	r6,r4
    3290:	2900152e 	bgeu	r5,r4,32e8 <__udivsi3+0x5c>
    3294:	28001416 	blt	r5,zero,32e8 <__udivsi3+0x5c>
    3298:	00800804 	movi	r2,32
    329c:	00c00044 	movi	r3,1
    32a0:	00000206 	br	32ac <__udivsi3+0x20>
    32a4:	10000e26 	beq	r2,zero,32e0 <__udivsi3+0x54>
    32a8:	28000516 	blt	r5,zero,32c0 <__udivsi3+0x34>
    32ac:	294b883a 	add	r5,r5,r5
    32b0:	10bfffc4 	addi	r2,r2,-1
    32b4:	18c7883a 	add	r3,r3,r3
    32b8:	293ffa36 	bltu	r5,r4,32a4 <__alt_mem_VGA_Subsystem_Char_Buf_Subsystem_Onchip_SRAM+0xf70032a4>
    32bc:	18000826 	beq	r3,zero,32e0 <__udivsi3+0x54>
    32c0:	0005883a 	mov	r2,zero
    32c4:	31400236 	bltu	r6,r5,32d0 <__udivsi3+0x44>
    32c8:	314dc83a 	sub	r6,r6,r5
    32cc:	10c4b03a 	or	r2,r2,r3
    32d0:	1806d07a 	srli	r3,r3,1
    32d4:	280ad07a 	srli	r5,r5,1
    32d8:	183ffa1e 	bne	r3,zero,32c4 <__alt_mem_VGA_Subsystem_Char_Buf_Subsystem_Onchip_SRAM+0xf70032c4>
    32dc:	f800283a 	ret
    32e0:	0005883a 	mov	r2,zero
    32e4:	f800283a 	ret
    32e8:	00c00044 	movi	r3,1
    32ec:	003ff406 	br	32c0 <__alt_mem_VGA_Subsystem_Char_Buf_Subsystem_Onchip_SRAM+0xf70032c0>

000032f0 <__umodsi3>:
    32f0:	2005883a 	mov	r2,r4
    32f4:	2900122e 	bgeu	r5,r4,3340 <__umodsi3+0x50>
    32f8:	28001116 	blt	r5,zero,3340 <__umodsi3+0x50>
    32fc:	01800804 	movi	r6,32
    3300:	00c00044 	movi	r3,1
    3304:	00000206 	br	3310 <__umodsi3+0x20>
    3308:	30000c26 	beq	r6,zero,333c <__umodsi3+0x4c>
    330c:	28000516 	blt	r5,zero,3324 <__umodsi3+0x34>
    3310:	294b883a 	add	r5,r5,r5
    3314:	31bfffc4 	addi	r6,r6,-1
    3318:	18c7883a 	add	r3,r3,r3
    331c:	293ffa36 	bltu	r5,r4,3308 <__alt_mem_VGA_Subsystem_Char_Buf_Subsystem_Onchip_SRAM+0xf7003308>
    3320:	18000626 	beq	r3,zero,333c <__umodsi3+0x4c>
    3324:	1806d07a 	srli	r3,r3,1
    3328:	11400136 	bltu	r2,r5,3330 <__umodsi3+0x40>
    332c:	1145c83a 	sub	r2,r2,r5
    3330:	280ad07a 	srli	r5,r5,1
    3334:	183ffb1e 	bne	r3,zero,3324 <__alt_mem_VGA_Subsystem_Char_Buf_Subsystem_Onchip_SRAM+0xf7003324>
    3338:	f800283a 	ret
    333c:	f800283a 	ret
    3340:	00c00044 	movi	r3,1
    3344:	003ff706 	br	3324 <__alt_mem_VGA_Subsystem_Char_Buf_Subsystem_Onchip_SRAM+0xf7003324>

00003348 <__mulsi3>:
    3348:	0005883a 	mov	r2,zero
    334c:	20000726 	beq	r4,zero,336c <__mulsi3+0x24>
    3350:	20c0004c 	andi	r3,r4,1
    3354:	2008d07a 	srli	r4,r4,1
    3358:	18000126 	beq	r3,zero,3360 <__mulsi3+0x18>
    335c:	1145883a 	add	r2,r2,r5
    3360:	294b883a 	add	r5,r5,r5
    3364:	203ffa1e 	bne	r4,zero,3350 <__alt_mem_VGA_Subsystem_Char_Buf_Subsystem_Onchip_SRAM+0xf7003350>
    3368:	f800283a 	ret
    336c:	f800283a 	ret

00003370 <__adddf3>:
    3370:	02c00434 	movhi	r11,16
    3374:	5affffc4 	addi	r11,r11,-1
    3378:	2806d7fa 	srli	r3,r5,31
    337c:	2ad4703a 	and	r10,r5,r11
    3380:	3ad2703a 	and	r9,r7,r11
    3384:	3804d53a 	srli	r2,r7,20
    3388:	3018d77a 	srli	r12,r6,29
    338c:	280ad53a 	srli	r5,r5,20
    3390:	501490fa 	slli	r10,r10,3
    3394:	2010d77a 	srli	r8,r4,29
    3398:	481290fa 	slli	r9,r9,3
    339c:	380ed7fa 	srli	r7,r7,31
    33a0:	defffb04 	addi	sp,sp,-20
    33a4:	dc800215 	stw	r18,8(sp)
    33a8:	dc400115 	stw	r17,4(sp)
    33ac:	dc000015 	stw	r16,0(sp)
    33b0:	dfc00415 	stw	ra,16(sp)
    33b4:	dcc00315 	stw	r19,12(sp)
    33b8:	1c803fcc 	andi	r18,r3,255
    33bc:	2c01ffcc 	andi	r16,r5,2047
    33c0:	5210b03a 	or	r8,r10,r8
    33c4:	202290fa 	slli	r17,r4,3
    33c8:	1081ffcc 	andi	r2,r2,2047
    33cc:	4b12b03a 	or	r9,r9,r12
    33d0:	300c90fa 	slli	r6,r6,3
    33d4:	91c07526 	beq	r18,r7,35ac <__adddf3+0x23c>
    33d8:	8087c83a 	sub	r3,r16,r2
    33dc:	00c0ab0e 	bge	zero,r3,368c <__adddf3+0x31c>
    33e0:	10002a1e 	bne	r2,zero,348c <__adddf3+0x11c>
    33e4:	4984b03a 	or	r2,r9,r6
    33e8:	1000961e 	bne	r2,zero,3644 <__adddf3+0x2d4>
    33ec:	888001cc 	andi	r2,r17,7
    33f0:	10000726 	beq	r2,zero,3410 <__adddf3+0xa0>
    33f4:	888003cc 	andi	r2,r17,15
    33f8:	00c00104 	movi	r3,4
    33fc:	10c00426 	beq	r2,r3,3410 <__adddf3+0xa0>
    3400:	88c7883a 	add	r3,r17,r3
    3404:	1c63803a 	cmpltu	r17,r3,r17
    3408:	4451883a 	add	r8,r8,r17
    340c:	1823883a 	mov	r17,r3
    3410:	4080202c 	andhi	r2,r8,128
    3414:	10005926 	beq	r2,zero,357c <__adddf3+0x20c>
    3418:	84000044 	addi	r16,r16,1
    341c:	0081ffc4 	movi	r2,2047
    3420:	8080ba26 	beq	r16,r2,370c <__adddf3+0x39c>
    3424:	00bfe034 	movhi	r2,65408
    3428:	10bfffc4 	addi	r2,r2,-1
    342c:	4090703a 	and	r8,r8,r2
    3430:	4004977a 	slli	r2,r8,29
    3434:	4010927a 	slli	r8,r8,9
    3438:	8822d0fa 	srli	r17,r17,3
    343c:	8401ffcc 	andi	r16,r16,2047
    3440:	4010d33a 	srli	r8,r8,12
    3444:	9007883a 	mov	r3,r18
    3448:	1444b03a 	or	r2,r2,r17
    344c:	8401ffcc 	andi	r16,r16,2047
    3450:	8020953a 	slli	r16,r16,20
    3454:	18c03fcc 	andi	r3,r3,255
    3458:	01000434 	movhi	r4,16
    345c:	213fffc4 	addi	r4,r4,-1
    3460:	180697fa 	slli	r3,r3,31
    3464:	4110703a 	and	r8,r8,r4
    3468:	4410b03a 	or	r8,r8,r16
    346c:	40c6b03a 	or	r3,r8,r3
    3470:	dfc00417 	ldw	ra,16(sp)
    3474:	dcc00317 	ldw	r19,12(sp)
    3478:	dc800217 	ldw	r18,8(sp)
    347c:	dc400117 	ldw	r17,4(sp)
    3480:	dc000017 	ldw	r16,0(sp)
    3484:	dec00504 	addi	sp,sp,20
    3488:	f800283a 	ret
    348c:	0081ffc4 	movi	r2,2047
    3490:	80bfd626 	beq	r16,r2,33ec <__alt_mem_VGA_Subsystem_Char_Buf_Subsystem_Onchip_SRAM+0xf70033ec>
    3494:	4a402034 	orhi	r9,r9,128
    3498:	00800e04 	movi	r2,56
    349c:	10c09f16 	blt	r2,r3,371c <__adddf3+0x3ac>
    34a0:	008007c4 	movi	r2,31
    34a4:	10c0c216 	blt	r2,r3,37b0 <__adddf3+0x440>
    34a8:	00800804 	movi	r2,32
    34ac:	10c5c83a 	sub	r2,r2,r3
    34b0:	488a983a 	sll	r5,r9,r2
    34b4:	30c8d83a 	srl	r4,r6,r3
    34b8:	3084983a 	sll	r2,r6,r2
    34bc:	48c6d83a 	srl	r3,r9,r3
    34c0:	290cb03a 	or	r6,r5,r4
    34c4:	1004c03a 	cmpne	r2,r2,zero
    34c8:	308cb03a 	or	r6,r6,r2
    34cc:	898dc83a 	sub	r6,r17,r6
    34d0:	89a3803a 	cmpltu	r17,r17,r6
    34d4:	40d1c83a 	sub	r8,r8,r3
    34d8:	4451c83a 	sub	r8,r8,r17
    34dc:	3023883a 	mov	r17,r6
    34e0:	4080202c 	andhi	r2,r8,128
    34e4:	10002326 	beq	r2,zero,3574 <__adddf3+0x204>
    34e8:	04c02034 	movhi	r19,128
    34ec:	9cffffc4 	addi	r19,r19,-1
    34f0:	44e6703a 	and	r19,r8,r19
    34f4:	98007626 	beq	r19,zero,36d0 <__adddf3+0x360>
    34f8:	9809883a 	mov	r4,r19
    34fc:	0005abc0 	call	5abc <__clzsi2>
    3500:	10fffe04 	addi	r3,r2,-8
    3504:	010007c4 	movi	r4,31
    3508:	20c07716 	blt	r4,r3,36e8 <__adddf3+0x378>
    350c:	00800804 	movi	r2,32
    3510:	10c5c83a 	sub	r2,r2,r3
    3514:	8884d83a 	srl	r2,r17,r2
    3518:	98d0983a 	sll	r8,r19,r3
    351c:	88e2983a 	sll	r17,r17,r3
    3520:	1204b03a 	or	r2,r2,r8
    3524:	1c007416 	blt	r3,r16,36f8 <__adddf3+0x388>
    3528:	1c21c83a 	sub	r16,r3,r16
    352c:	82000044 	addi	r8,r16,1
    3530:	00c007c4 	movi	r3,31
    3534:	1a009116 	blt	r3,r8,377c <__adddf3+0x40c>
    3538:	00c00804 	movi	r3,32
    353c:	1a07c83a 	sub	r3,r3,r8
    3540:	8a08d83a 	srl	r4,r17,r8
    3544:	88e2983a 	sll	r17,r17,r3
    3548:	10c6983a 	sll	r3,r2,r3
    354c:	1210d83a 	srl	r8,r2,r8
    3550:	8804c03a 	cmpne	r2,r17,zero
    3554:	1906b03a 	or	r3,r3,r4
    3558:	18a2b03a 	or	r17,r3,r2
    355c:	0021883a 	mov	r16,zero
    3560:	003fa206 	br	33ec <__alt_mem_VGA_Subsystem_Char_Buf_Subsystem_Onchip_SRAM+0xf70033ec>
    3564:	1890b03a 	or	r8,r3,r2
    3568:	40017d26 	beq	r8,zero,3b60 <__adddf3+0x7f0>
    356c:	1011883a 	mov	r8,r2
    3570:	1823883a 	mov	r17,r3
    3574:	888001cc 	andi	r2,r17,7
    3578:	103f9e1e 	bne	r2,zero,33f4 <__alt_mem_VGA_Subsystem_Char_Buf_Subsystem_Onchip_SRAM+0xf70033f4>
    357c:	4004977a 	slli	r2,r8,29
    3580:	8822d0fa 	srli	r17,r17,3
    3584:	4010d0fa 	srli	r8,r8,3
    3588:	9007883a 	mov	r3,r18
    358c:	1444b03a 	or	r2,r2,r17
    3590:	0101ffc4 	movi	r4,2047
    3594:	81002426 	beq	r16,r4,3628 <__adddf3+0x2b8>
    3598:	8120703a 	and	r16,r16,r4
    359c:	01000434 	movhi	r4,16
    35a0:	213fffc4 	addi	r4,r4,-1
    35a4:	4110703a 	and	r8,r8,r4
    35a8:	003fa806 	br	344c <__alt_mem_VGA_Subsystem_Char_Buf_Subsystem_Onchip_SRAM+0xf700344c>
    35ac:	8089c83a 	sub	r4,r16,r2
    35b0:	01005e0e 	bge	zero,r4,372c <__adddf3+0x3bc>
    35b4:	10002b26 	beq	r2,zero,3664 <__adddf3+0x2f4>
    35b8:	0081ffc4 	movi	r2,2047
    35bc:	80bf8b26 	beq	r16,r2,33ec <__alt_mem_VGA_Subsystem_Char_Buf_Subsystem_Onchip_SRAM+0xf70033ec>
    35c0:	4a402034 	orhi	r9,r9,128
    35c4:	00800e04 	movi	r2,56
    35c8:	1100a40e 	bge	r2,r4,385c <__adddf3+0x4ec>
    35cc:	498cb03a 	or	r6,r9,r6
    35d0:	300ac03a 	cmpne	r5,r6,zero
    35d4:	0013883a 	mov	r9,zero
    35d8:	2c4b883a 	add	r5,r5,r17
    35dc:	2c63803a 	cmpltu	r17,r5,r17
    35e0:	4a11883a 	add	r8,r9,r8
    35e4:	8a11883a 	add	r8,r17,r8
    35e8:	2823883a 	mov	r17,r5
    35ec:	4080202c 	andhi	r2,r8,128
    35f0:	103fe026 	beq	r2,zero,3574 <__alt_mem_VGA_Subsystem_Char_Buf_Subsystem_Onchip_SRAM+0xf7003574>
    35f4:	84000044 	addi	r16,r16,1
    35f8:	0081ffc4 	movi	r2,2047
    35fc:	8080d226 	beq	r16,r2,3948 <__adddf3+0x5d8>
    3600:	00bfe034 	movhi	r2,65408
    3604:	10bfffc4 	addi	r2,r2,-1
    3608:	4090703a 	and	r8,r8,r2
    360c:	880ad07a 	srli	r5,r17,1
    3610:	400897fa 	slli	r4,r8,31
    3614:	88c0004c 	andi	r3,r17,1
    3618:	28e2b03a 	or	r17,r5,r3
    361c:	4010d07a 	srli	r8,r8,1
    3620:	2462b03a 	or	r17,r4,r17
    3624:	003f7106 	br	33ec <__alt_mem_VGA_Subsystem_Char_Buf_Subsystem_Onchip_SRAM+0xf70033ec>
    3628:	4088b03a 	or	r4,r8,r2
    362c:	20014526 	beq	r4,zero,3b44 <__adddf3+0x7d4>
    3630:	01000434 	movhi	r4,16
    3634:	42000234 	orhi	r8,r8,8
    3638:	213fffc4 	addi	r4,r4,-1
    363c:	4110703a 	and	r8,r8,r4
    3640:	003f8206 	br	344c <__alt_mem_VGA_Subsystem_Char_Buf_Subsystem_Onchip_SRAM+0xf700344c>
    3644:	18ffffc4 	addi	r3,r3,-1
    3648:	1800491e 	bne	r3,zero,3770 <__adddf3+0x400>
    364c:	898bc83a 	sub	r5,r17,r6
    3650:	8963803a 	cmpltu	r17,r17,r5
    3654:	4251c83a 	sub	r8,r8,r9
    3658:	4451c83a 	sub	r8,r8,r17
    365c:	2823883a 	mov	r17,r5
    3660:	003f9f06 	br	34e0 <__alt_mem_VGA_Subsystem_Char_Buf_Subsystem_Onchip_SRAM+0xf70034e0>
    3664:	4984b03a 	or	r2,r9,r6
    3668:	103f6026 	beq	r2,zero,33ec <__alt_mem_VGA_Subsystem_Char_Buf_Subsystem_Onchip_SRAM+0xf70033ec>
    366c:	213fffc4 	addi	r4,r4,-1
    3670:	2000931e 	bne	r4,zero,38c0 <__adddf3+0x550>
    3674:	898d883a 	add	r6,r17,r6
    3678:	3463803a 	cmpltu	r17,r6,r17
    367c:	4251883a 	add	r8,r8,r9
    3680:	8a11883a 	add	r8,r17,r8
    3684:	3023883a 	mov	r17,r6
    3688:	003fd806 	br	35ec <__alt_mem_VGA_Subsystem_Char_Buf_Subsystem_Onchip_SRAM+0xf70035ec>
    368c:	1800541e 	bne	r3,zero,37e0 <__adddf3+0x470>
    3690:	80800044 	addi	r2,r16,1
    3694:	1081ffcc 	andi	r2,r2,2047
    3698:	00c00044 	movi	r3,1
    369c:	1880a00e 	bge	r3,r2,3920 <__adddf3+0x5b0>
    36a0:	8989c83a 	sub	r4,r17,r6
    36a4:	8905803a 	cmpltu	r2,r17,r4
    36a8:	4267c83a 	sub	r19,r8,r9
    36ac:	98a7c83a 	sub	r19,r19,r2
    36b0:	9880202c 	andhi	r2,r19,128
    36b4:	10006326 	beq	r2,zero,3844 <__adddf3+0x4d4>
    36b8:	3463c83a 	sub	r17,r6,r17
    36bc:	4a07c83a 	sub	r3,r9,r8
    36c0:	344d803a 	cmpltu	r6,r6,r17
    36c4:	19a7c83a 	sub	r19,r3,r6
    36c8:	3825883a 	mov	r18,r7
    36cc:	983f8a1e 	bne	r19,zero,34f8 <__alt_mem_VGA_Subsystem_Char_Buf_Subsystem_Onchip_SRAM+0xf70034f8>
    36d0:	8809883a 	mov	r4,r17
    36d4:	0005abc0 	call	5abc <__clzsi2>
    36d8:	10800804 	addi	r2,r2,32
    36dc:	10fffe04 	addi	r3,r2,-8
    36e0:	010007c4 	movi	r4,31
    36e4:	20ff890e 	bge	r4,r3,350c <__alt_mem_VGA_Subsystem_Char_Buf_Subsystem_Onchip_SRAM+0xf700350c>
    36e8:	10bff604 	addi	r2,r2,-40
    36ec:	8884983a 	sll	r2,r17,r2
    36f0:	0023883a 	mov	r17,zero
    36f4:	1c3f8c0e 	bge	r3,r16,3528 <__alt_mem_VGA_Subsystem_Char_Buf_Subsystem_Onchip_SRAM+0xf7003528>
    36f8:	023fe034 	movhi	r8,65408
    36fc:	423fffc4 	addi	r8,r8,-1
    3700:	80e1c83a 	sub	r16,r16,r3
    3704:	1210703a 	and	r8,r2,r8
    3708:	003f3806 	br	33ec <__alt_mem_VGA_Subsystem_Char_Buf_Subsystem_Onchip_SRAM+0xf70033ec>
    370c:	9007883a 	mov	r3,r18
    3710:	0011883a 	mov	r8,zero
    3714:	0005883a 	mov	r2,zero
    3718:	003f4c06 	br	344c <__alt_mem_VGA_Subsystem_Char_Buf_Subsystem_Onchip_SRAM+0xf700344c>
    371c:	498cb03a 	or	r6,r9,r6
    3720:	300cc03a 	cmpne	r6,r6,zero
    3724:	0007883a 	mov	r3,zero
    3728:	003f6806 	br	34cc <__alt_mem_VGA_Subsystem_Char_Buf_Subsystem_Onchip_SRAM+0xf70034cc>
    372c:	20009c1e 	bne	r4,zero,39a0 <__adddf3+0x630>
    3730:	80800044 	addi	r2,r16,1
    3734:	1141ffcc 	andi	r5,r2,2047
    3738:	01000044 	movi	r4,1
    373c:	2140670e 	bge	r4,r5,38dc <__adddf3+0x56c>
    3740:	0101ffc4 	movi	r4,2047
    3744:	11007f26 	beq	r2,r4,3944 <__adddf3+0x5d4>
    3748:	898d883a 	add	r6,r17,r6
    374c:	4247883a 	add	r3,r8,r9
    3750:	3451803a 	cmpltu	r8,r6,r17
    3754:	40d1883a 	add	r8,r8,r3
    3758:	402297fa 	slli	r17,r8,31
    375c:	300cd07a 	srli	r6,r6,1
    3760:	4010d07a 	srli	r8,r8,1
    3764:	1021883a 	mov	r16,r2
    3768:	89a2b03a 	or	r17,r17,r6
    376c:	003f1f06 	br	33ec <__alt_mem_VGA_Subsystem_Char_Buf_Subsystem_Onchip_SRAM+0xf70033ec>
    3770:	0081ffc4 	movi	r2,2047
    3774:	80bf481e 	bne	r16,r2,3498 <__alt_mem_VGA_Subsystem_Char_Buf_Subsystem_Onchip_SRAM+0xf7003498>
    3778:	003f1c06 	br	33ec <__alt_mem_VGA_Subsystem_Char_Buf_Subsystem_Onchip_SRAM+0xf70033ec>
    377c:	843ff844 	addi	r16,r16,-31
    3780:	01000804 	movi	r4,32
    3784:	1406d83a 	srl	r3,r2,r16
    3788:	41005026 	beq	r8,r4,38cc <__adddf3+0x55c>
    378c:	01001004 	movi	r4,64
    3790:	2211c83a 	sub	r8,r4,r8
    3794:	1204983a 	sll	r2,r2,r8
    3798:	88a2b03a 	or	r17,r17,r2
    379c:	8822c03a 	cmpne	r17,r17,zero
    37a0:	1c62b03a 	or	r17,r3,r17
    37a4:	0011883a 	mov	r8,zero
    37a8:	0021883a 	mov	r16,zero
    37ac:	003f7106 	br	3574 <__alt_mem_VGA_Subsystem_Char_Buf_Subsystem_Onchip_SRAM+0xf7003574>
    37b0:	193ff804 	addi	r4,r3,-32
    37b4:	00800804 	movi	r2,32
    37b8:	4908d83a 	srl	r4,r9,r4
    37bc:	18804526 	beq	r3,r2,38d4 <__adddf3+0x564>
    37c0:	00801004 	movi	r2,64
    37c4:	10c5c83a 	sub	r2,r2,r3
    37c8:	4886983a 	sll	r3,r9,r2
    37cc:	198cb03a 	or	r6,r3,r6
    37d0:	300cc03a 	cmpne	r6,r6,zero
    37d4:	218cb03a 	or	r6,r4,r6
    37d8:	0007883a 	mov	r3,zero
    37dc:	003f3b06 	br	34cc <__alt_mem_VGA_Subsystem_Char_Buf_Subsystem_Onchip_SRAM+0xf70034cc>
    37e0:	80002a26 	beq	r16,zero,388c <__adddf3+0x51c>
    37e4:	0101ffc4 	movi	r4,2047
    37e8:	11006826 	beq	r2,r4,398c <__adddf3+0x61c>
    37ec:	00c7c83a 	sub	r3,zero,r3
    37f0:	42002034 	orhi	r8,r8,128
    37f4:	01000e04 	movi	r4,56
    37f8:	20c07c16 	blt	r4,r3,39ec <__adddf3+0x67c>
    37fc:	010007c4 	movi	r4,31
    3800:	20c0da16 	blt	r4,r3,3b6c <__adddf3+0x7fc>
    3804:	01000804 	movi	r4,32
    3808:	20c9c83a 	sub	r4,r4,r3
    380c:	4114983a 	sll	r10,r8,r4
    3810:	88cad83a 	srl	r5,r17,r3
    3814:	8908983a 	sll	r4,r17,r4
    3818:	40c6d83a 	srl	r3,r8,r3
    381c:	5162b03a 	or	r17,r10,r5
    3820:	2008c03a 	cmpne	r4,r4,zero
    3824:	8922b03a 	or	r17,r17,r4
    3828:	3463c83a 	sub	r17,r6,r17
    382c:	48c7c83a 	sub	r3,r9,r3
    3830:	344d803a 	cmpltu	r6,r6,r17
    3834:	1991c83a 	sub	r8,r3,r6
    3838:	1021883a 	mov	r16,r2
    383c:	3825883a 	mov	r18,r7
    3840:	003f2706 	br	34e0 <__alt_mem_VGA_Subsystem_Char_Buf_Subsystem_Onchip_SRAM+0xf70034e0>
    3844:	24d0b03a 	or	r8,r4,r19
    3848:	40001b1e 	bne	r8,zero,38b8 <__adddf3+0x548>
    384c:	0005883a 	mov	r2,zero
    3850:	0007883a 	mov	r3,zero
    3854:	0021883a 	mov	r16,zero
    3858:	003f4d06 	br	3590 <__alt_mem_VGA_Subsystem_Char_Buf_Subsystem_Onchip_SRAM+0xf7003590>
    385c:	008007c4 	movi	r2,31
    3860:	11003c16 	blt	r2,r4,3954 <__adddf3+0x5e4>
    3864:	00800804 	movi	r2,32
    3868:	1105c83a 	sub	r2,r2,r4
    386c:	488e983a 	sll	r7,r9,r2
    3870:	310ad83a 	srl	r5,r6,r4
    3874:	3084983a 	sll	r2,r6,r2
    3878:	4912d83a 	srl	r9,r9,r4
    387c:	394ab03a 	or	r5,r7,r5
    3880:	1004c03a 	cmpne	r2,r2,zero
    3884:	288ab03a 	or	r5,r5,r2
    3888:	003f5306 	br	35d8 <__alt_mem_VGA_Subsystem_Char_Buf_Subsystem_Onchip_SRAM+0xf70035d8>
    388c:	4448b03a 	or	r4,r8,r17
    3890:	20003e26 	beq	r4,zero,398c <__adddf3+0x61c>
    3894:	00c6303a 	nor	r3,zero,r3
    3898:	18003a1e 	bne	r3,zero,3984 <__adddf3+0x614>
    389c:	3463c83a 	sub	r17,r6,r17
    38a0:	4a07c83a 	sub	r3,r9,r8
    38a4:	344d803a 	cmpltu	r6,r6,r17
    38a8:	1991c83a 	sub	r8,r3,r6
    38ac:	1021883a 	mov	r16,r2
    38b0:	3825883a 	mov	r18,r7
    38b4:	003f0a06 	br	34e0 <__alt_mem_VGA_Subsystem_Char_Buf_Subsystem_Onchip_SRAM+0xf70034e0>
    38b8:	2023883a 	mov	r17,r4
    38bc:	003f0d06 	br	34f4 <__alt_mem_VGA_Subsystem_Char_Buf_Subsystem_Onchip_SRAM+0xf70034f4>
    38c0:	0081ffc4 	movi	r2,2047
    38c4:	80bf3f1e 	bne	r16,r2,35c4 <__alt_mem_VGA_Subsystem_Char_Buf_Subsystem_Onchip_SRAM+0xf70035c4>
    38c8:	003ec806 	br	33ec <__alt_mem_VGA_Subsystem_Char_Buf_Subsystem_Onchip_SRAM+0xf70033ec>
    38cc:	0005883a 	mov	r2,zero
    38d0:	003fb106 	br	3798 <__alt_mem_VGA_Subsystem_Char_Buf_Subsystem_Onchip_SRAM+0xf7003798>
    38d4:	0007883a 	mov	r3,zero
    38d8:	003fbc06 	br	37cc <__alt_mem_VGA_Subsystem_Char_Buf_Subsystem_Onchip_SRAM+0xf70037cc>
    38dc:	4444b03a 	or	r2,r8,r17
    38e0:	8000871e 	bne	r16,zero,3b00 <__adddf3+0x790>
    38e4:	1000ba26 	beq	r2,zero,3bd0 <__adddf3+0x860>
    38e8:	4984b03a 	or	r2,r9,r6
    38ec:	103ebf26 	beq	r2,zero,33ec <__alt_mem_VGA_Subsystem_Char_Buf_Subsystem_Onchip_SRAM+0xf70033ec>
    38f0:	8985883a 	add	r2,r17,r6
    38f4:	4247883a 	add	r3,r8,r9
    38f8:	1451803a 	cmpltu	r8,r2,r17
    38fc:	40d1883a 	add	r8,r8,r3
    3900:	40c0202c 	andhi	r3,r8,128
    3904:	1023883a 	mov	r17,r2
    3908:	183f1a26 	beq	r3,zero,3574 <__alt_mem_VGA_Subsystem_Char_Buf_Subsystem_Onchip_SRAM+0xf7003574>
    390c:	00bfe034 	movhi	r2,65408
    3910:	10bfffc4 	addi	r2,r2,-1
    3914:	2021883a 	mov	r16,r4
    3918:	4090703a 	and	r8,r8,r2
    391c:	003eb306 	br	33ec <__alt_mem_VGA_Subsystem_Char_Buf_Subsystem_Onchip_SRAM+0xf70033ec>
    3920:	4444b03a 	or	r2,r8,r17
    3924:	8000291e 	bne	r16,zero,39cc <__adddf3+0x65c>
    3928:	10004b1e 	bne	r2,zero,3a58 <__adddf3+0x6e8>
    392c:	4990b03a 	or	r8,r9,r6
    3930:	40008b26 	beq	r8,zero,3b60 <__adddf3+0x7f0>
    3934:	4811883a 	mov	r8,r9
    3938:	3023883a 	mov	r17,r6
    393c:	3825883a 	mov	r18,r7
    3940:	003eaa06 	br	33ec <__alt_mem_VGA_Subsystem_Char_Buf_Subsystem_Onchip_SRAM+0xf70033ec>
    3944:	1021883a 	mov	r16,r2
    3948:	0011883a 	mov	r8,zero
    394c:	0005883a 	mov	r2,zero
    3950:	003f0f06 	br	3590 <__alt_mem_VGA_Subsystem_Char_Buf_Subsystem_Onchip_SRAM+0xf7003590>
    3954:	217ff804 	addi	r5,r4,-32
    3958:	00800804 	movi	r2,32
    395c:	494ad83a 	srl	r5,r9,r5
    3960:	20807d26 	beq	r4,r2,3b58 <__adddf3+0x7e8>
    3964:	00801004 	movi	r2,64
    3968:	1109c83a 	sub	r4,r2,r4
    396c:	4912983a 	sll	r9,r9,r4
    3970:	498cb03a 	or	r6,r9,r6
    3974:	300cc03a 	cmpne	r6,r6,zero
    3978:	298ab03a 	or	r5,r5,r6
    397c:	0013883a 	mov	r9,zero
    3980:	003f1506 	br	35d8 <__alt_mem_VGA_Subsystem_Char_Buf_Subsystem_Onchip_SRAM+0xf70035d8>
    3984:	0101ffc4 	movi	r4,2047
    3988:	113f9a1e 	bne	r2,r4,37f4 <__alt_mem_VGA_Subsystem_Char_Buf_Subsystem_Onchip_SRAM+0xf70037f4>
    398c:	4811883a 	mov	r8,r9
    3990:	3023883a 	mov	r17,r6
    3994:	1021883a 	mov	r16,r2
    3998:	3825883a 	mov	r18,r7
    399c:	003e9306 	br	33ec <__alt_mem_VGA_Subsystem_Char_Buf_Subsystem_Onchip_SRAM+0xf70033ec>
    39a0:	8000161e 	bne	r16,zero,39fc <__adddf3+0x68c>
    39a4:	444ab03a 	or	r5,r8,r17
    39a8:	28005126 	beq	r5,zero,3af0 <__adddf3+0x780>
    39ac:	0108303a 	nor	r4,zero,r4
    39b0:	20004d1e 	bne	r4,zero,3ae8 <__adddf3+0x778>
    39b4:	89a3883a 	add	r17,r17,r6
    39b8:	4253883a 	add	r9,r8,r9
    39bc:	898d803a 	cmpltu	r6,r17,r6
    39c0:	3251883a 	add	r8,r6,r9
    39c4:	1021883a 	mov	r16,r2
    39c8:	003f0806 	br	35ec <__alt_mem_VGA_Subsystem_Char_Buf_Subsystem_Onchip_SRAM+0xf70035ec>
    39cc:	1000301e 	bne	r2,zero,3a90 <__adddf3+0x720>
    39d0:	4984b03a 	or	r2,r9,r6
    39d4:	10007126 	beq	r2,zero,3b9c <__adddf3+0x82c>
    39d8:	4811883a 	mov	r8,r9
    39dc:	3023883a 	mov	r17,r6
    39e0:	3825883a 	mov	r18,r7
    39e4:	0401ffc4 	movi	r16,2047
    39e8:	003e8006 	br	33ec <__alt_mem_VGA_Subsystem_Char_Buf_Subsystem_Onchip_SRAM+0xf70033ec>
    39ec:	4462b03a 	or	r17,r8,r17
    39f0:	8822c03a 	cmpne	r17,r17,zero
    39f4:	0007883a 	mov	r3,zero
    39f8:	003f8b06 	br	3828 <__alt_mem_VGA_Subsystem_Char_Buf_Subsystem_Onchip_SRAM+0xf7003828>
    39fc:	0141ffc4 	movi	r5,2047
    3a00:	11403b26 	beq	r2,r5,3af0 <__adddf3+0x780>
    3a04:	0109c83a 	sub	r4,zero,r4
    3a08:	42002034 	orhi	r8,r8,128
    3a0c:	01400e04 	movi	r5,56
    3a10:	29006716 	blt	r5,r4,3bb0 <__adddf3+0x840>
    3a14:	014007c4 	movi	r5,31
    3a18:	29007016 	blt	r5,r4,3bdc <__adddf3+0x86c>
    3a1c:	01400804 	movi	r5,32
    3a20:	290bc83a 	sub	r5,r5,r4
    3a24:	4154983a 	sll	r10,r8,r5
    3a28:	890ed83a 	srl	r7,r17,r4
    3a2c:	894a983a 	sll	r5,r17,r5
    3a30:	4108d83a 	srl	r4,r8,r4
    3a34:	51e2b03a 	or	r17,r10,r7
    3a38:	280ac03a 	cmpne	r5,r5,zero
    3a3c:	8962b03a 	or	r17,r17,r5
    3a40:	89a3883a 	add	r17,r17,r6
    3a44:	2253883a 	add	r9,r4,r9
    3a48:	898d803a 	cmpltu	r6,r17,r6
    3a4c:	3251883a 	add	r8,r6,r9
    3a50:	1021883a 	mov	r16,r2
    3a54:	003ee506 	br	35ec <__alt_mem_VGA_Subsystem_Char_Buf_Subsystem_Onchip_SRAM+0xf70035ec>
    3a58:	4984b03a 	or	r2,r9,r6
    3a5c:	103e6326 	beq	r2,zero,33ec <__alt_mem_VGA_Subsystem_Char_Buf_Subsystem_Onchip_SRAM+0xf70033ec>
    3a60:	8987c83a 	sub	r3,r17,r6
    3a64:	88c9803a 	cmpltu	r4,r17,r3
    3a68:	4245c83a 	sub	r2,r8,r9
    3a6c:	1105c83a 	sub	r2,r2,r4
    3a70:	1100202c 	andhi	r4,r2,128
    3a74:	203ebb26 	beq	r4,zero,3564 <__alt_mem_VGA_Subsystem_Char_Buf_Subsystem_Onchip_SRAM+0xf7003564>
    3a78:	3463c83a 	sub	r17,r6,r17
    3a7c:	4a07c83a 	sub	r3,r9,r8
    3a80:	344d803a 	cmpltu	r6,r6,r17
    3a84:	1991c83a 	sub	r8,r3,r6
    3a88:	3825883a 	mov	r18,r7
    3a8c:	003e5706 	br	33ec <__alt_mem_VGA_Subsystem_Char_Buf_Subsystem_Onchip_SRAM+0xf70033ec>
    3a90:	4984b03a 	or	r2,r9,r6
    3a94:	10002e26 	beq	r2,zero,3b50 <__adddf3+0x7e0>
    3a98:	4004d0fa 	srli	r2,r8,3
    3a9c:	8822d0fa 	srli	r17,r17,3
    3aa0:	4010977a 	slli	r8,r8,29
    3aa4:	10c0022c 	andhi	r3,r2,8
    3aa8:	4462b03a 	or	r17,r8,r17
    3aac:	18000826 	beq	r3,zero,3ad0 <__adddf3+0x760>
    3ab0:	4808d0fa 	srli	r4,r9,3
    3ab4:	20c0022c 	andhi	r3,r4,8
    3ab8:	1800051e 	bne	r3,zero,3ad0 <__adddf3+0x760>
    3abc:	300cd0fa 	srli	r6,r6,3
    3ac0:	4806977a 	slli	r3,r9,29
    3ac4:	2005883a 	mov	r2,r4
    3ac8:	3825883a 	mov	r18,r7
    3acc:	19a2b03a 	or	r17,r3,r6
    3ad0:	8810d77a 	srli	r8,r17,29
    3ad4:	100490fa 	slli	r2,r2,3
    3ad8:	882290fa 	slli	r17,r17,3
    3adc:	0401ffc4 	movi	r16,2047
    3ae0:	4090b03a 	or	r8,r8,r2
    3ae4:	003e4106 	br	33ec <__alt_mem_VGA_Subsystem_Char_Buf_Subsystem_Onchip_SRAM+0xf70033ec>
    3ae8:	0141ffc4 	movi	r5,2047
    3aec:	117fc71e 	bne	r2,r5,3a0c <__alt_mem_VGA_Subsystem_Char_Buf_Subsystem_Onchip_SRAM+0xf7003a0c>
    3af0:	4811883a 	mov	r8,r9
    3af4:	3023883a 	mov	r17,r6
    3af8:	1021883a 	mov	r16,r2
    3afc:	003e3b06 	br	33ec <__alt_mem_VGA_Subsystem_Char_Buf_Subsystem_Onchip_SRAM+0xf70033ec>
    3b00:	10002f26 	beq	r2,zero,3bc0 <__adddf3+0x850>
    3b04:	4984b03a 	or	r2,r9,r6
    3b08:	10001126 	beq	r2,zero,3b50 <__adddf3+0x7e0>
    3b0c:	4004d0fa 	srli	r2,r8,3
    3b10:	8822d0fa 	srli	r17,r17,3
    3b14:	4010977a 	slli	r8,r8,29
    3b18:	10c0022c 	andhi	r3,r2,8
    3b1c:	4462b03a 	or	r17,r8,r17
    3b20:	183feb26 	beq	r3,zero,3ad0 <__alt_mem_VGA_Subsystem_Char_Buf_Subsystem_Onchip_SRAM+0xf7003ad0>
    3b24:	4808d0fa 	srli	r4,r9,3
    3b28:	20c0022c 	andhi	r3,r4,8
    3b2c:	183fe81e 	bne	r3,zero,3ad0 <__alt_mem_VGA_Subsystem_Char_Buf_Subsystem_Onchip_SRAM+0xf7003ad0>
    3b30:	300cd0fa 	srli	r6,r6,3
    3b34:	4806977a 	slli	r3,r9,29
    3b38:	2005883a 	mov	r2,r4
    3b3c:	19a2b03a 	or	r17,r3,r6
    3b40:	003fe306 	br	3ad0 <__alt_mem_VGA_Subsystem_Char_Buf_Subsystem_Onchip_SRAM+0xf7003ad0>
    3b44:	0011883a 	mov	r8,zero
    3b48:	0005883a 	mov	r2,zero
    3b4c:	003e3f06 	br	344c <__alt_mem_VGA_Subsystem_Char_Buf_Subsystem_Onchip_SRAM+0xf700344c>
    3b50:	0401ffc4 	movi	r16,2047
    3b54:	003e2506 	br	33ec <__alt_mem_VGA_Subsystem_Char_Buf_Subsystem_Onchip_SRAM+0xf70033ec>
    3b58:	0013883a 	mov	r9,zero
    3b5c:	003f8406 	br	3970 <__alt_mem_VGA_Subsystem_Char_Buf_Subsystem_Onchip_SRAM+0xf7003970>
    3b60:	0005883a 	mov	r2,zero
    3b64:	0007883a 	mov	r3,zero
    3b68:	003e8906 	br	3590 <__alt_mem_VGA_Subsystem_Char_Buf_Subsystem_Onchip_SRAM+0xf7003590>
    3b6c:	197ff804 	addi	r5,r3,-32
    3b70:	01000804 	movi	r4,32
    3b74:	414ad83a 	srl	r5,r8,r5
    3b78:	19002426 	beq	r3,r4,3c0c <__adddf3+0x89c>
    3b7c:	01001004 	movi	r4,64
    3b80:	20c7c83a 	sub	r3,r4,r3
    3b84:	40c6983a 	sll	r3,r8,r3
    3b88:	1c46b03a 	or	r3,r3,r17
    3b8c:	1806c03a 	cmpne	r3,r3,zero
    3b90:	28e2b03a 	or	r17,r5,r3
    3b94:	0007883a 	mov	r3,zero
    3b98:	003f2306 	br	3828 <__alt_mem_VGA_Subsystem_Char_Buf_Subsystem_Onchip_SRAM+0xf7003828>
    3b9c:	0007883a 	mov	r3,zero
    3ba0:	5811883a 	mov	r8,r11
    3ba4:	00bfffc4 	movi	r2,-1
    3ba8:	0401ffc4 	movi	r16,2047
    3bac:	003e7806 	br	3590 <__alt_mem_VGA_Subsystem_Char_Buf_Subsystem_Onchip_SRAM+0xf7003590>
    3bb0:	4462b03a 	or	r17,r8,r17
    3bb4:	8822c03a 	cmpne	r17,r17,zero
    3bb8:	0009883a 	mov	r4,zero
    3bbc:	003fa006 	br	3a40 <__alt_mem_VGA_Subsystem_Char_Buf_Subsystem_Onchip_SRAM+0xf7003a40>
    3bc0:	4811883a 	mov	r8,r9
    3bc4:	3023883a 	mov	r17,r6
    3bc8:	0401ffc4 	movi	r16,2047
    3bcc:	003e0706 	br	33ec <__alt_mem_VGA_Subsystem_Char_Buf_Subsystem_Onchip_SRAM+0xf70033ec>
    3bd0:	4811883a 	mov	r8,r9
    3bd4:	3023883a 	mov	r17,r6
    3bd8:	003e0406 	br	33ec <__alt_mem_VGA_Subsystem_Char_Buf_Subsystem_Onchip_SRAM+0xf70033ec>
    3bdc:	21fff804 	addi	r7,r4,-32
    3be0:	01400804 	movi	r5,32
    3be4:	41ced83a 	srl	r7,r8,r7
    3be8:	21400a26 	beq	r4,r5,3c14 <__adddf3+0x8a4>
    3bec:	01401004 	movi	r5,64
    3bf0:	2909c83a 	sub	r4,r5,r4
    3bf4:	4108983a 	sll	r4,r8,r4
    3bf8:	2448b03a 	or	r4,r4,r17
    3bfc:	2008c03a 	cmpne	r4,r4,zero
    3c00:	3922b03a 	or	r17,r7,r4
    3c04:	0009883a 	mov	r4,zero
    3c08:	003f8d06 	br	3a40 <__alt_mem_VGA_Subsystem_Char_Buf_Subsystem_Onchip_SRAM+0xf7003a40>
    3c0c:	0007883a 	mov	r3,zero
    3c10:	003fdd06 	br	3b88 <__alt_mem_VGA_Subsystem_Char_Buf_Subsystem_Onchip_SRAM+0xf7003b88>
    3c14:	0009883a 	mov	r4,zero
    3c18:	003ff706 	br	3bf8 <__alt_mem_VGA_Subsystem_Char_Buf_Subsystem_Onchip_SRAM+0xf7003bf8>

00003c1c <__divdf3>:
    3c1c:	defff004 	addi	sp,sp,-64
    3c20:	dc800815 	stw	r18,32(sp)
    3c24:	2824d53a 	srli	r18,r5,20
    3c28:	dd800c15 	stw	r22,48(sp)
    3c2c:	282cd7fa 	srli	r22,r5,31
    3c30:	dc000615 	stw	r16,24(sp)
    3c34:	04000434 	movhi	r16,16
    3c38:	843fffc4 	addi	r16,r16,-1
    3c3c:	dfc00f15 	stw	ra,60(sp)
    3c40:	df000e15 	stw	fp,56(sp)
    3c44:	ddc00d15 	stw	r23,52(sp)
    3c48:	dd400b15 	stw	r21,44(sp)
    3c4c:	dd000a15 	stw	r20,40(sp)
    3c50:	dcc00915 	stw	r19,36(sp)
    3c54:	dc400715 	stw	r17,28(sp)
    3c58:	9481ffcc 	andi	r18,r18,2047
    3c5c:	2c20703a 	and	r16,r5,r16
    3c60:	b2003fcc 	andi	r8,r22,255
    3c64:	90006126 	beq	r18,zero,3dec <__divdf3+0x1d0>
    3c68:	0081ffc4 	movi	r2,2047
    3c6c:	202b883a 	mov	r21,r4
    3c70:	90803726 	beq	r18,r2,3d50 <__divdf3+0x134>
    3c74:	80800434 	orhi	r2,r16,16
    3c78:	100490fa 	slli	r2,r2,3
    3c7c:	2020d77a 	srli	r16,r4,29
    3c80:	202a90fa 	slli	r21,r4,3
    3c84:	94bf0044 	addi	r18,r18,-1023
    3c88:	80a0b03a 	or	r16,r16,r2
    3c8c:	0013883a 	mov	r9,zero
    3c90:	000b883a 	mov	r5,zero
    3c94:	3806d53a 	srli	r3,r7,20
    3c98:	382ed7fa 	srli	r23,r7,31
    3c9c:	04400434 	movhi	r17,16
    3ca0:	8c7fffc4 	addi	r17,r17,-1
    3ca4:	18c1ffcc 	andi	r3,r3,2047
    3ca8:	3029883a 	mov	r20,r6
    3cac:	3c62703a 	and	r17,r7,r17
    3cb0:	bf003fcc 	andi	fp,r23,255
    3cb4:	18006e26 	beq	r3,zero,3e70 <__divdf3+0x254>
    3cb8:	0081ffc4 	movi	r2,2047
    3cbc:	18806626 	beq	r3,r2,3e58 <__divdf3+0x23c>
    3cc0:	88800434 	orhi	r2,r17,16
    3cc4:	100490fa 	slli	r2,r2,3
    3cc8:	3022d77a 	srli	r17,r6,29
    3ccc:	302890fa 	slli	r20,r6,3
    3cd0:	18ff0044 	addi	r3,r3,-1023
    3cd4:	88a2b03a 	or	r17,r17,r2
    3cd8:	000f883a 	mov	r7,zero
    3cdc:	b5e6f03a 	xor	r19,r22,r23
    3ce0:	3a4cb03a 	or	r6,r7,r9
    3ce4:	008003c4 	movi	r2,15
    3ce8:	9809883a 	mov	r4,r19
    3cec:	90c7c83a 	sub	r3,r18,r3
    3cf0:	9cc03fcc 	andi	r19,r19,255
    3cf4:	11809636 	bltu	r2,r6,3f50 <__divdf3+0x334>
    3cf8:	300c90ba 	slli	r6,r6,2
    3cfc:	00800034 	movhi	r2,0
    3d00:	108f4404 	addi	r2,r2,15632
    3d04:	308d883a 	add	r6,r6,r2
    3d08:	30800017 	ldw	r2,0(r6)
    3d0c:	1000683a 	jmp	r2
    3d10:	00003f50 	cmplti	zero,zero,253
    3d14:	00003d88 	cmpgei	zero,zero,246
    3d18:	00003f40 	call	3f4 <cm_to_px+0x30>
    3d1c:	00003d7c 	xorhi	zero,zero,245
    3d20:	00003f40 	call	3f4 <cm_to_px+0x30>
    3d24:	00003f14 	movui	zero,252
    3d28:	00003f40 	call	3f4 <cm_to_px+0x30>
    3d2c:	00003d7c 	xorhi	zero,zero,245
    3d30:	00003d88 	cmpgei	zero,zero,246
    3d34:	00003d88 	cmpgei	zero,zero,246
    3d38:	00003f14 	movui	zero,252
    3d3c:	00003d7c 	xorhi	zero,zero,245
    3d40:	00003d6c 	andhi	zero,zero,245
    3d44:	00003d6c 	andhi	zero,zero,245
    3d48:	00003d6c 	andhi	zero,zero,245
    3d4c:	000042d8 	cmpnei	zero,zero,267
    3d50:	2404b03a 	or	r2,r4,r16
    3d54:	10006c1e 	bne	r2,zero,3f08 <__divdf3+0x2ec>
    3d58:	02400204 	movi	r9,8
    3d5c:	0021883a 	mov	r16,zero
    3d60:	002b883a 	mov	r21,zero
    3d64:	01400084 	movi	r5,2
    3d68:	003fca06 	br	3c94 <__alt_mem_VGA_Subsystem_Char_Buf_Subsystem_Onchip_SRAM+0xf7003c94>
    3d6c:	8023883a 	mov	r17,r16
    3d70:	a829883a 	mov	r20,r21
    3d74:	4039883a 	mov	fp,r8
    3d78:	280f883a 	mov	r7,r5
    3d7c:	00800084 	movi	r2,2
    3d80:	3881601e 	bne	r7,r2,4304 <__divdf3+0x6e8>
    3d84:	e027883a 	mov	r19,fp
    3d88:	9900004c 	andi	r4,r19,1
    3d8c:	0081ffc4 	movi	r2,2047
    3d90:	0021883a 	mov	r16,zero
    3d94:	002b883a 	mov	r21,zero
    3d98:	1004953a 	slli	r2,r2,20
    3d9c:	20c03fcc 	andi	r3,r4,255
    3da0:	01400434 	movhi	r5,16
    3da4:	297fffc4 	addi	r5,r5,-1
    3da8:	180697fa 	slli	r3,r3,31
    3dac:	8160703a 	and	r16,r16,r5
    3db0:	80a0b03a 	or	r16,r16,r2
    3db4:	80c6b03a 	or	r3,r16,r3
    3db8:	a805883a 	mov	r2,r21
    3dbc:	dfc00f17 	ldw	ra,60(sp)
    3dc0:	df000e17 	ldw	fp,56(sp)
    3dc4:	ddc00d17 	ldw	r23,52(sp)
    3dc8:	dd800c17 	ldw	r22,48(sp)
    3dcc:	dd400b17 	ldw	r21,44(sp)
    3dd0:	dd000a17 	ldw	r20,40(sp)
    3dd4:	dcc00917 	ldw	r19,36(sp)
    3dd8:	dc800817 	ldw	r18,32(sp)
    3ddc:	dc400717 	ldw	r17,28(sp)
    3de0:	dc000617 	ldw	r16,24(sp)
    3de4:	dec01004 	addi	sp,sp,64
    3de8:	f800283a 	ret
    3dec:	2404b03a 	or	r2,r4,r16
    3df0:	2023883a 	mov	r17,r4
    3df4:	10003f26 	beq	r2,zero,3ef4 <__divdf3+0x2d8>
    3df8:	80015e26 	beq	r16,zero,4374 <__divdf3+0x758>
    3dfc:	8009883a 	mov	r4,r16
    3e00:	d9800215 	stw	r6,8(sp)
    3e04:	d9c00515 	stw	r7,20(sp)
    3e08:	da000415 	stw	r8,16(sp)
    3e0c:	0005abc0 	call	5abc <__clzsi2>
    3e10:	d9800217 	ldw	r6,8(sp)
    3e14:	d9c00517 	ldw	r7,20(sp)
    3e18:	da000417 	ldw	r8,16(sp)
    3e1c:	113ffd44 	addi	r4,r2,-11
    3e20:	00c00704 	movi	r3,28
    3e24:	19014f16 	blt	r3,r4,4364 <__divdf3+0x748>
    3e28:	00c00744 	movi	r3,29
    3e2c:	157ffe04 	addi	r21,r2,-8
    3e30:	1907c83a 	sub	r3,r3,r4
    3e34:	8560983a 	sll	r16,r16,r21
    3e38:	88c6d83a 	srl	r3,r17,r3
    3e3c:	8d6a983a 	sll	r21,r17,r21
    3e40:	1c20b03a 	or	r16,r3,r16
    3e44:	1080fcc4 	addi	r2,r2,1011
    3e48:	00a5c83a 	sub	r18,zero,r2
    3e4c:	0013883a 	mov	r9,zero
    3e50:	000b883a 	mov	r5,zero
    3e54:	003f8f06 	br	3c94 <__alt_mem_VGA_Subsystem_Char_Buf_Subsystem_Onchip_SRAM+0xf7003c94>
    3e58:	3444b03a 	or	r2,r6,r17
    3e5c:	1000231e 	bne	r2,zero,3eec <__divdf3+0x2d0>
    3e60:	0023883a 	mov	r17,zero
    3e64:	0029883a 	mov	r20,zero
    3e68:	01c00084 	movi	r7,2
    3e6c:	003f9b06 	br	3cdc <__alt_mem_VGA_Subsystem_Char_Buf_Subsystem_Onchip_SRAM+0xf7003cdc>
    3e70:	3444b03a 	or	r2,r6,r17
    3e74:	10001926 	beq	r2,zero,3edc <__divdf3+0x2c0>
    3e78:	88014b26 	beq	r17,zero,43a8 <__divdf3+0x78c>
    3e7c:	8809883a 	mov	r4,r17
    3e80:	d9400115 	stw	r5,4(sp)
    3e84:	d9800215 	stw	r6,8(sp)
    3e88:	da000415 	stw	r8,16(sp)
    3e8c:	da400315 	stw	r9,12(sp)
    3e90:	0005abc0 	call	5abc <__clzsi2>
    3e94:	d9400117 	ldw	r5,4(sp)
    3e98:	d9800217 	ldw	r6,8(sp)
    3e9c:	da000417 	ldw	r8,16(sp)
    3ea0:	da400317 	ldw	r9,12(sp)
    3ea4:	113ffd44 	addi	r4,r2,-11
    3ea8:	00c00704 	movi	r3,28
    3eac:	19013a16 	blt	r3,r4,4398 <__divdf3+0x77c>
    3eb0:	00c00744 	movi	r3,29
    3eb4:	153ffe04 	addi	r20,r2,-8
    3eb8:	1907c83a 	sub	r3,r3,r4
    3ebc:	8d22983a 	sll	r17,r17,r20
    3ec0:	30c6d83a 	srl	r3,r6,r3
    3ec4:	3528983a 	sll	r20,r6,r20
    3ec8:	1c62b03a 	or	r17,r3,r17
    3ecc:	1080fcc4 	addi	r2,r2,1011
    3ed0:	0087c83a 	sub	r3,zero,r2
    3ed4:	000f883a 	mov	r7,zero
    3ed8:	003f8006 	br	3cdc <__alt_mem_VGA_Subsystem_Char_Buf_Subsystem_Onchip_SRAM+0xf7003cdc>
    3edc:	0023883a 	mov	r17,zero
    3ee0:	0029883a 	mov	r20,zero
    3ee4:	01c00044 	movi	r7,1
    3ee8:	003f7c06 	br	3cdc <__alt_mem_VGA_Subsystem_Char_Buf_Subsystem_Onchip_SRAM+0xf7003cdc>
    3eec:	01c000c4 	movi	r7,3
    3ef0:	003f7a06 	br	3cdc <__alt_mem_VGA_Subsystem_Char_Buf_Subsystem_Onchip_SRAM+0xf7003cdc>
    3ef4:	02400104 	movi	r9,4
    3ef8:	0021883a 	mov	r16,zero
    3efc:	002b883a 	mov	r21,zero
    3f00:	01400044 	movi	r5,1
    3f04:	003f6306 	br	3c94 <__alt_mem_VGA_Subsystem_Char_Buf_Subsystem_Onchip_SRAM+0xf7003c94>
    3f08:	02400304 	movi	r9,12
    3f0c:	014000c4 	movi	r5,3
    3f10:	003f6006 	br	3c94 <__alt_mem_VGA_Subsystem_Char_Buf_Subsystem_Onchip_SRAM+0xf7003c94>
    3f14:	04000434 	movhi	r16,16
    3f18:	0009883a 	mov	r4,zero
    3f1c:	843fffc4 	addi	r16,r16,-1
    3f20:	057fffc4 	movi	r21,-1
    3f24:	0081ffc4 	movi	r2,2047
    3f28:	003f9b06 	br	3d98 <__alt_mem_VGA_Subsystem_Char_Buf_Subsystem_Onchip_SRAM+0xf7003d98>
    3f2c:	00c00044 	movi	r3,1
    3f30:	1887c83a 	sub	r3,r3,r2
    3f34:	01000e04 	movi	r4,56
    3f38:	20c1530e 	bge	r4,r3,4488 <__divdf3+0x86c>
    3f3c:	9900004c 	andi	r4,r19,1
    3f40:	0005883a 	mov	r2,zero
    3f44:	0021883a 	mov	r16,zero
    3f48:	002b883a 	mov	r21,zero
    3f4c:	003f9206 	br	3d98 <__alt_mem_VGA_Subsystem_Char_Buf_Subsystem_Onchip_SRAM+0xf7003d98>
    3f50:	8c012e36 	bltu	r17,r16,440c <__divdf3+0x7f0>
    3f54:	84412c26 	beq	r16,r17,4408 <__divdf3+0x7ec>
    3f58:	a82f883a 	mov	r23,r21
    3f5c:	18ffffc4 	addi	r3,r3,-1
    3f60:	002b883a 	mov	r21,zero
    3f64:	a004d63a 	srli	r2,r20,24
    3f68:	8822923a 	slli	r17,r17,8
    3f6c:	a028923a 	slli	r20,r20,8
    3f70:	8009883a 	mov	r4,r16
    3f74:	88acb03a 	or	r22,r17,r2
    3f78:	dd000015 	stw	r20,0(sp)
    3f7c:	b028d43a 	srli	r20,r22,16
    3f80:	d8c00215 	stw	r3,8(sp)
    3f84:	b4bfffcc 	andi	r18,r22,65535
    3f88:	a00b883a 	mov	r5,r20
    3f8c:	000328c0 	call	328c <__udivsi3>
    3f90:	100b883a 	mov	r5,r2
    3f94:	9009883a 	mov	r4,r18
    3f98:	1023883a 	mov	r17,r2
    3f9c:	00033480 	call	3348 <__mulsi3>
    3fa0:	8009883a 	mov	r4,r16
    3fa4:	a00b883a 	mov	r5,r20
    3fa8:	1039883a 	mov	fp,r2
    3fac:	00032f00 	call	32f0 <__umodsi3>
    3fb0:	1004943a 	slli	r2,r2,16
    3fb4:	b808d43a 	srli	r4,r23,16
    3fb8:	d8c00217 	ldw	r3,8(sp)
    3fbc:	2084b03a 	or	r2,r4,r2
    3fc0:	1700062e 	bgeu	r2,fp,3fdc <__divdf3+0x3c0>
    3fc4:	1585883a 	add	r2,r2,r22
    3fc8:	893fffc4 	addi	r4,r17,-1
    3fcc:	15811d36 	bltu	r2,r22,4444 <__divdf3+0x828>
    3fd0:	17011c2e 	bgeu	r2,fp,4444 <__divdf3+0x828>
    3fd4:	8c7fff84 	addi	r17,r17,-2
    3fd8:	1585883a 	add	r2,r2,r22
    3fdc:	1739c83a 	sub	fp,r2,fp
    3fe0:	a00b883a 	mov	r5,r20
    3fe4:	e009883a 	mov	r4,fp
    3fe8:	d8c00215 	stw	r3,8(sp)
    3fec:	000328c0 	call	328c <__udivsi3>
    3ff0:	100b883a 	mov	r5,r2
    3ff4:	9009883a 	mov	r4,r18
    3ff8:	1021883a 	mov	r16,r2
    3ffc:	00033480 	call	3348 <__mulsi3>
    4000:	a00b883a 	mov	r5,r20
    4004:	e009883a 	mov	r4,fp
    4008:	d8800415 	stw	r2,16(sp)
    400c:	00032f00 	call	32f0 <__umodsi3>
    4010:	1004943a 	slli	r2,r2,16
    4014:	da000417 	ldw	r8,16(sp)
    4018:	bdffffcc 	andi	r23,r23,65535
    401c:	b884b03a 	or	r2,r23,r2
    4020:	d8c00217 	ldw	r3,8(sp)
    4024:	1200062e 	bgeu	r2,r8,4040 <__divdf3+0x424>
    4028:	1585883a 	add	r2,r2,r22
    402c:	813fffc4 	addi	r4,r16,-1
    4030:	15810236 	bltu	r2,r22,443c <__divdf3+0x820>
    4034:	1201012e 	bgeu	r2,r8,443c <__divdf3+0x820>
    4038:	843fff84 	addi	r16,r16,-2
    403c:	1585883a 	add	r2,r2,r22
    4040:	8822943a 	slli	r17,r17,16
    4044:	d9800017 	ldw	r6,0(sp)
    4048:	1211c83a 	sub	r8,r2,r8
    404c:	8c22b03a 	or	r17,r17,r16
    4050:	373fffcc 	andi	fp,r6,65535
    4054:	8abfffcc 	andi	r10,r17,65535
    4058:	8820d43a 	srli	r16,r17,16
    405c:	5009883a 	mov	r4,r10
    4060:	e00b883a 	mov	r5,fp
    4064:	302ed43a 	srli	r23,r6,16
    4068:	d8c00215 	stw	r3,8(sp)
    406c:	da000415 	stw	r8,16(sp)
    4070:	da800115 	stw	r10,4(sp)
    4074:	00033480 	call	3348 <__mulsi3>
    4078:	800b883a 	mov	r5,r16
    407c:	e009883a 	mov	r4,fp
    4080:	d8800515 	stw	r2,20(sp)
    4084:	00033480 	call	3348 <__mulsi3>
    4088:	8009883a 	mov	r4,r16
    408c:	b80b883a 	mov	r5,r23
    4090:	d8800315 	stw	r2,12(sp)
    4094:	00033480 	call	3348 <__mulsi3>
    4098:	da800117 	ldw	r10,4(sp)
    409c:	b80b883a 	mov	r5,r23
    40a0:	1021883a 	mov	r16,r2
    40a4:	5009883a 	mov	r4,r10
    40a8:	00033480 	call	3348 <__mulsi3>
    40ac:	d9c00517 	ldw	r7,20(sp)
    40b0:	da400317 	ldw	r9,12(sp)
    40b4:	d8c00217 	ldw	r3,8(sp)
    40b8:	3808d43a 	srli	r4,r7,16
    40bc:	1245883a 	add	r2,r2,r9
    40c0:	da000417 	ldw	r8,16(sp)
    40c4:	2085883a 	add	r2,r4,r2
    40c8:	1240022e 	bgeu	r2,r9,40d4 <__divdf3+0x4b8>
    40cc:	01000074 	movhi	r4,1
    40d0:	8121883a 	add	r16,r16,r4
    40d4:	1008d43a 	srli	r4,r2,16
    40d8:	1004943a 	slli	r2,r2,16
    40dc:	39ffffcc 	andi	r7,r7,65535
    40e0:	2409883a 	add	r4,r4,r16
    40e4:	11c5883a 	add	r2,r2,r7
    40e8:	4100bb36 	bltu	r8,r4,43d8 <__divdf3+0x7bc>
    40ec:	4100d726 	beq	r8,r4,444c <__divdf3+0x830>
    40f0:	4109c83a 	sub	r4,r8,r4
    40f4:	a8a1c83a 	sub	r16,r21,r2
    40f8:	ac2b803a 	cmpltu	r21,r21,r16
    40fc:	256bc83a 	sub	r21,r4,r21
    4100:	b540d926 	beq	r22,r21,4468 <__divdf3+0x84c>
    4104:	a00b883a 	mov	r5,r20
    4108:	a809883a 	mov	r4,r21
    410c:	d8c00215 	stw	r3,8(sp)
    4110:	000328c0 	call	328c <__udivsi3>
    4114:	100b883a 	mov	r5,r2
    4118:	9009883a 	mov	r4,r18
    411c:	d8800515 	stw	r2,20(sp)
    4120:	00033480 	call	3348 <__mulsi3>
    4124:	a809883a 	mov	r4,r21
    4128:	a00b883a 	mov	r5,r20
    412c:	d8800415 	stw	r2,16(sp)
    4130:	00032f00 	call	32f0 <__umodsi3>
    4134:	1004943a 	slli	r2,r2,16
    4138:	8008d43a 	srli	r4,r16,16
    413c:	da000417 	ldw	r8,16(sp)
    4140:	d8c00217 	ldw	r3,8(sp)
    4144:	2084b03a 	or	r2,r4,r2
    4148:	d9c00517 	ldw	r7,20(sp)
    414c:	1200062e 	bgeu	r2,r8,4168 <__divdf3+0x54c>
    4150:	1585883a 	add	r2,r2,r22
    4154:	393fffc4 	addi	r4,r7,-1
    4158:	1580c536 	bltu	r2,r22,4470 <__divdf3+0x854>
    415c:	1200c42e 	bgeu	r2,r8,4470 <__divdf3+0x854>
    4160:	39ffff84 	addi	r7,r7,-2
    4164:	1585883a 	add	r2,r2,r22
    4168:	122bc83a 	sub	r21,r2,r8
    416c:	a00b883a 	mov	r5,r20
    4170:	a809883a 	mov	r4,r21
    4174:	d8c00215 	stw	r3,8(sp)
    4178:	d9c00515 	stw	r7,20(sp)
    417c:	000328c0 	call	328c <__udivsi3>
    4180:	9009883a 	mov	r4,r18
    4184:	100b883a 	mov	r5,r2
    4188:	d8800415 	stw	r2,16(sp)
    418c:	00033480 	call	3348 <__mulsi3>
    4190:	a809883a 	mov	r4,r21
    4194:	a00b883a 	mov	r5,r20
    4198:	1025883a 	mov	r18,r2
    419c:	00032f00 	call	32f0 <__umodsi3>
    41a0:	1004943a 	slli	r2,r2,16
    41a4:	813fffcc 	andi	r4,r16,65535
    41a8:	d8c00217 	ldw	r3,8(sp)
    41ac:	20a0b03a 	or	r16,r4,r2
    41b0:	d9c00517 	ldw	r7,20(sp)
    41b4:	da000417 	ldw	r8,16(sp)
    41b8:	8480062e 	bgeu	r16,r18,41d4 <__divdf3+0x5b8>
    41bc:	85a1883a 	add	r16,r16,r22
    41c0:	40bfffc4 	addi	r2,r8,-1
    41c4:	8580ac36 	bltu	r16,r22,4478 <__divdf3+0x85c>
    41c8:	8480ab2e 	bgeu	r16,r18,4478 <__divdf3+0x85c>
    41cc:	423fff84 	addi	r8,r8,-2
    41d0:	85a1883a 	add	r16,r16,r22
    41d4:	3804943a 	slli	r2,r7,16
    41d8:	84a1c83a 	sub	r16,r16,r18
    41dc:	e009883a 	mov	r4,fp
    41e0:	1228b03a 	or	r20,r2,r8
    41e4:	a1ffffcc 	andi	r7,r20,65535
    41e8:	a024d43a 	srli	r18,r20,16
    41ec:	380b883a 	mov	r5,r7
    41f0:	d8c00215 	stw	r3,8(sp)
    41f4:	d9c00515 	stw	r7,20(sp)
    41f8:	00033480 	call	3348 <__mulsi3>
    41fc:	900b883a 	mov	r5,r18
    4200:	e009883a 	mov	r4,fp
    4204:	102b883a 	mov	r21,r2
    4208:	00033480 	call	3348 <__mulsi3>
    420c:	900b883a 	mov	r5,r18
    4210:	b809883a 	mov	r4,r23
    4214:	1039883a 	mov	fp,r2
    4218:	00033480 	call	3348 <__mulsi3>
    421c:	d9c00517 	ldw	r7,20(sp)
    4220:	b80b883a 	mov	r5,r23
    4224:	1025883a 	mov	r18,r2
    4228:	3809883a 	mov	r4,r7
    422c:	00033480 	call	3348 <__mulsi3>
    4230:	a808d43a 	srli	r4,r21,16
    4234:	1705883a 	add	r2,r2,fp
    4238:	d8c00217 	ldw	r3,8(sp)
    423c:	2085883a 	add	r2,r4,r2
    4240:	1700022e 	bgeu	r2,fp,424c <__divdf3+0x630>
    4244:	01000074 	movhi	r4,1
    4248:	9125883a 	add	r18,r18,r4
    424c:	1008d43a 	srli	r4,r2,16
    4250:	1004943a 	slli	r2,r2,16
    4254:	ad7fffcc 	andi	r21,r21,65535
    4258:	2489883a 	add	r4,r4,r18
    425c:	1545883a 	add	r2,r2,r21
    4260:	81003836 	bltu	r16,r4,4344 <__divdf3+0x728>
    4264:	81003626 	beq	r16,r4,4340 <__divdf3+0x724>
    4268:	a5000054 	ori	r20,r20,1
    426c:	1880ffc4 	addi	r2,r3,1023
    4270:	00bf2e0e 	bge	zero,r2,3f2c <__alt_mem_VGA_Subsystem_Char_Buf_Subsystem_Onchip_SRAM+0xf7003f2c>
    4274:	a10001cc 	andi	r4,r20,7
    4278:	20000726 	beq	r4,zero,4298 <__divdf3+0x67c>
    427c:	a10003cc 	andi	r4,r20,15
    4280:	01400104 	movi	r5,4
    4284:	21400426 	beq	r4,r5,4298 <__divdf3+0x67c>
    4288:	a149883a 	add	r4,r20,r5
    428c:	2529803a 	cmpltu	r20,r4,r20
    4290:	8d23883a 	add	r17,r17,r20
    4294:	2029883a 	mov	r20,r4
    4298:	8900402c 	andhi	r4,r17,256
    429c:	20000426 	beq	r4,zero,42b0 <__divdf3+0x694>
    42a0:	18810004 	addi	r2,r3,1024
    42a4:	00ffc034 	movhi	r3,65280
    42a8:	18ffffc4 	addi	r3,r3,-1
    42ac:	88e2703a 	and	r17,r17,r3
    42b0:	00c1ff84 	movi	r3,2046
    42b4:	18beb416 	blt	r3,r2,3d88 <__alt_mem_VGA_Subsystem_Char_Buf_Subsystem_Onchip_SRAM+0xf7003d88>
    42b8:	a028d0fa 	srli	r20,r20,3
    42bc:	882a977a 	slli	r21,r17,29
    42c0:	8820927a 	slli	r16,r17,9
    42c4:	1081ffcc 	andi	r2,r2,2047
    42c8:	ad2ab03a 	or	r21,r21,r20
    42cc:	8020d33a 	srli	r16,r16,12
    42d0:	9900004c 	andi	r4,r19,1
    42d4:	003eb006 	br	3d98 <__alt_mem_VGA_Subsystem_Char_Buf_Subsystem_Onchip_SRAM+0xf7003d98>
    42d8:	8080022c 	andhi	r2,r16,8
    42dc:	10001226 	beq	r2,zero,4328 <__divdf3+0x70c>
    42e0:	8880022c 	andhi	r2,r17,8
    42e4:	1000101e 	bne	r2,zero,4328 <__divdf3+0x70c>
    42e8:	00800434 	movhi	r2,16
    42ec:	8c000234 	orhi	r16,r17,8
    42f0:	10bfffc4 	addi	r2,r2,-1
    42f4:	b809883a 	mov	r4,r23
    42f8:	80a0703a 	and	r16,r16,r2
    42fc:	a02b883a 	mov	r21,r20
    4300:	003f0806 	br	3f24 <__alt_mem_VGA_Subsystem_Char_Buf_Subsystem_Onchip_SRAM+0xf7003f24>
    4304:	008000c4 	movi	r2,3
    4308:	3880b126 	beq	r7,r2,45d0 <__divdf3+0x9b4>
    430c:	00800044 	movi	r2,1
    4310:	38805b1e 	bne	r7,r2,4480 <__divdf3+0x864>
    4314:	e009883a 	mov	r4,fp
    4318:	0005883a 	mov	r2,zero
    431c:	0021883a 	mov	r16,zero
    4320:	002b883a 	mov	r21,zero
    4324:	003e9c06 	br	3d98 <__alt_mem_VGA_Subsystem_Char_Buf_Subsystem_Onchip_SRAM+0xf7003d98>
    4328:	00800434 	movhi	r2,16
    432c:	84000234 	orhi	r16,r16,8
    4330:	10bfffc4 	addi	r2,r2,-1
    4334:	b009883a 	mov	r4,r22
    4338:	80a0703a 	and	r16,r16,r2
    433c:	003ef906 	br	3f24 <__alt_mem_VGA_Subsystem_Char_Buf_Subsystem_Onchip_SRAM+0xf7003f24>
    4340:	103fca26 	beq	r2,zero,426c <__alt_mem_VGA_Subsystem_Char_Buf_Subsystem_Onchip_SRAM+0xf700426c>
    4344:	b421883a 	add	r16,r22,r16
    4348:	a17fffc4 	addi	r5,r20,-1
    434c:	8580422e 	bgeu	r16,r22,4458 <__divdf3+0x83c>
    4350:	2829883a 	mov	r20,r5
    4354:	813fc41e 	bne	r16,r4,4268 <__alt_mem_VGA_Subsystem_Char_Buf_Subsystem_Onchip_SRAM+0xf7004268>
    4358:	d9800017 	ldw	r6,0(sp)
    435c:	30bfc21e 	bne	r6,r2,4268 <__alt_mem_VGA_Subsystem_Char_Buf_Subsystem_Onchip_SRAM+0xf7004268>
    4360:	003fc206 	br	426c <__alt_mem_VGA_Subsystem_Char_Buf_Subsystem_Onchip_SRAM+0xf700426c>
    4364:	143ff604 	addi	r16,r2,-40
    4368:	8c20983a 	sll	r16,r17,r16
    436c:	002b883a 	mov	r21,zero
    4370:	003eb406 	br	3e44 <__alt_mem_VGA_Subsystem_Char_Buf_Subsystem_Onchip_SRAM+0xf7003e44>
    4374:	d9800215 	stw	r6,8(sp)
    4378:	d9c00515 	stw	r7,20(sp)
    437c:	da000415 	stw	r8,16(sp)
    4380:	0005abc0 	call	5abc <__clzsi2>
    4384:	10800804 	addi	r2,r2,32
    4388:	da000417 	ldw	r8,16(sp)
    438c:	d9c00517 	ldw	r7,20(sp)
    4390:	d9800217 	ldw	r6,8(sp)
    4394:	003ea106 	br	3e1c <__alt_mem_VGA_Subsystem_Char_Buf_Subsystem_Onchip_SRAM+0xf7003e1c>
    4398:	147ff604 	addi	r17,r2,-40
    439c:	3462983a 	sll	r17,r6,r17
    43a0:	0029883a 	mov	r20,zero
    43a4:	003ec906 	br	3ecc <__alt_mem_VGA_Subsystem_Char_Buf_Subsystem_Onchip_SRAM+0xf7003ecc>
    43a8:	3009883a 	mov	r4,r6
    43ac:	d9400115 	stw	r5,4(sp)
    43b0:	d9800215 	stw	r6,8(sp)
    43b4:	da000415 	stw	r8,16(sp)
    43b8:	da400315 	stw	r9,12(sp)
    43bc:	0005abc0 	call	5abc <__clzsi2>
    43c0:	10800804 	addi	r2,r2,32
    43c4:	da400317 	ldw	r9,12(sp)
    43c8:	da000417 	ldw	r8,16(sp)
    43cc:	d9800217 	ldw	r6,8(sp)
    43d0:	d9400117 	ldw	r5,4(sp)
    43d4:	003eb306 	br	3ea4 <__alt_mem_VGA_Subsystem_Char_Buf_Subsystem_Onchip_SRAM+0xf7003ea4>
    43d8:	d9800017 	ldw	r6,0(sp)
    43dc:	a9ab883a 	add	r21,r21,r6
    43e0:	a98b803a 	cmpltu	r5,r21,r6
    43e4:	2d8b883a 	add	r5,r5,r22
    43e8:	2a11883a 	add	r8,r5,r8
    43ec:	897fffc4 	addi	r5,r17,-1
    43f0:	b2000c2e 	bgeu	r22,r8,4424 <__divdf3+0x808>
    43f4:	41003f36 	bltu	r8,r4,44f4 <__divdf3+0x8d8>
    43f8:	22006c26 	beq	r4,r8,45ac <__divdf3+0x990>
    43fc:	4109c83a 	sub	r4,r8,r4
    4400:	2823883a 	mov	r17,r5
    4404:	003f3b06 	br	40f4 <__alt_mem_VGA_Subsystem_Char_Buf_Subsystem_Onchip_SRAM+0xf70040f4>
    4408:	ad3ed336 	bltu	r21,r20,3f58 <__alt_mem_VGA_Subsystem_Char_Buf_Subsystem_Onchip_SRAM+0xf7003f58>
    440c:	a804d07a 	srli	r2,r21,1
    4410:	802e97fa 	slli	r23,r16,31
    4414:	a82a97fa 	slli	r21,r21,31
    4418:	8020d07a 	srli	r16,r16,1
    441c:	b8aeb03a 	or	r23,r23,r2
    4420:	003ed006 	br	3f64 <__alt_mem_VGA_Subsystem_Char_Buf_Subsystem_Onchip_SRAM+0xf7003f64>
    4424:	b23ff51e 	bne	r22,r8,43fc <__alt_mem_VGA_Subsystem_Char_Buf_Subsystem_Onchip_SRAM+0xf70043fc>
    4428:	d9800017 	ldw	r6,0(sp)
    442c:	a9bff12e 	bgeu	r21,r6,43f4 <__alt_mem_VGA_Subsystem_Char_Buf_Subsystem_Onchip_SRAM+0xf70043f4>
    4430:	b109c83a 	sub	r4,r22,r4
    4434:	2823883a 	mov	r17,r5
    4438:	003f2e06 	br	40f4 <__alt_mem_VGA_Subsystem_Char_Buf_Subsystem_Onchip_SRAM+0xf70040f4>
    443c:	2021883a 	mov	r16,r4
    4440:	003eff06 	br	4040 <__alt_mem_VGA_Subsystem_Char_Buf_Subsystem_Onchip_SRAM+0xf7004040>
    4444:	2023883a 	mov	r17,r4
    4448:	003ee406 	br	3fdc <__alt_mem_VGA_Subsystem_Char_Buf_Subsystem_Onchip_SRAM+0xf7003fdc>
    444c:	a8bfe236 	bltu	r21,r2,43d8 <__alt_mem_VGA_Subsystem_Char_Buf_Subsystem_Onchip_SRAM+0xf70043d8>
    4450:	0009883a 	mov	r4,zero
    4454:	003f2706 	br	40f4 <__alt_mem_VGA_Subsystem_Char_Buf_Subsystem_Onchip_SRAM+0xf70040f4>
    4458:	81002d36 	bltu	r16,r4,4510 <__divdf3+0x8f4>
    445c:	24005626 	beq	r4,r16,45b8 <__divdf3+0x99c>
    4460:	2829883a 	mov	r20,r5
    4464:	003f8006 	br	4268 <__alt_mem_VGA_Subsystem_Char_Buf_Subsystem_Onchip_SRAM+0xf7004268>
    4468:	053fffc4 	movi	r20,-1
    446c:	003f7f06 	br	426c <__alt_mem_VGA_Subsystem_Char_Buf_Subsystem_Onchip_SRAM+0xf700426c>
    4470:	200f883a 	mov	r7,r4
    4474:	003f3c06 	br	4168 <__alt_mem_VGA_Subsystem_Char_Buf_Subsystem_Onchip_SRAM+0xf7004168>
    4478:	1011883a 	mov	r8,r2
    447c:	003f5506 	br	41d4 <__alt_mem_VGA_Subsystem_Char_Buf_Subsystem_Onchip_SRAM+0xf70041d4>
    4480:	e027883a 	mov	r19,fp
    4484:	003f7906 	br	426c <__alt_mem_VGA_Subsystem_Char_Buf_Subsystem_Onchip_SRAM+0xf700426c>
    4488:	010007c4 	movi	r4,31
    448c:	20c02816 	blt	r4,r3,4530 <__divdf3+0x914>
    4490:	00800804 	movi	r2,32
    4494:	10c5c83a 	sub	r2,r2,r3
    4498:	888a983a 	sll	r5,r17,r2
    449c:	a0c8d83a 	srl	r4,r20,r3
    44a0:	a084983a 	sll	r2,r20,r2
    44a4:	88e2d83a 	srl	r17,r17,r3
    44a8:	2906b03a 	or	r3,r5,r4
    44ac:	1004c03a 	cmpne	r2,r2,zero
    44b0:	1886b03a 	or	r3,r3,r2
    44b4:	188001cc 	andi	r2,r3,7
    44b8:	10000726 	beq	r2,zero,44d8 <__divdf3+0x8bc>
    44bc:	188003cc 	andi	r2,r3,15
    44c0:	01000104 	movi	r4,4
    44c4:	11000426 	beq	r2,r4,44d8 <__divdf3+0x8bc>
    44c8:	1805883a 	mov	r2,r3
    44cc:	10c00104 	addi	r3,r2,4
    44d0:	1885803a 	cmpltu	r2,r3,r2
    44d4:	88a3883a 	add	r17,r17,r2
    44d8:	8880202c 	andhi	r2,r17,128
    44dc:	10002926 	beq	r2,zero,4584 <__divdf3+0x968>
    44e0:	9900004c 	andi	r4,r19,1
    44e4:	00800044 	movi	r2,1
    44e8:	0021883a 	mov	r16,zero
    44ec:	002b883a 	mov	r21,zero
    44f0:	003e2906 	br	3d98 <__alt_mem_VGA_Subsystem_Char_Buf_Subsystem_Onchip_SRAM+0xf7003d98>
    44f4:	d9800017 	ldw	r6,0(sp)
    44f8:	8c7fff84 	addi	r17,r17,-2
    44fc:	a9ab883a 	add	r21,r21,r6
    4500:	a98b803a 	cmpltu	r5,r21,r6
    4504:	2d8b883a 	add	r5,r5,r22
    4508:	2a11883a 	add	r8,r5,r8
    450c:	003ef806 	br	40f0 <__alt_mem_VGA_Subsystem_Char_Buf_Subsystem_Onchip_SRAM+0xf70040f0>
    4510:	d9800017 	ldw	r6,0(sp)
    4514:	318f883a 	add	r7,r6,r6
    4518:	398b803a 	cmpltu	r5,r7,r6
    451c:	2d8d883a 	add	r6,r5,r22
    4520:	81a1883a 	add	r16,r16,r6
    4524:	a17fff84 	addi	r5,r20,-2
    4528:	d9c00015 	stw	r7,0(sp)
    452c:	003f8806 	br	4350 <__alt_mem_VGA_Subsystem_Char_Buf_Subsystem_Onchip_SRAM+0xf7004350>
    4530:	013ff844 	movi	r4,-31
    4534:	2085c83a 	sub	r2,r4,r2
    4538:	8888d83a 	srl	r4,r17,r2
    453c:	00800804 	movi	r2,32
    4540:	18802126 	beq	r3,r2,45c8 <__divdf3+0x9ac>
    4544:	04001004 	movi	r16,64
    4548:	80c7c83a 	sub	r3,r16,r3
    454c:	88e0983a 	sll	r16,r17,r3
    4550:	8504b03a 	or	r2,r16,r20
    4554:	1004c03a 	cmpne	r2,r2,zero
    4558:	2084b03a 	or	r2,r4,r2
    455c:	144001cc 	andi	r17,r2,7
    4560:	88000d1e 	bne	r17,zero,4598 <__divdf3+0x97c>
    4564:	0021883a 	mov	r16,zero
    4568:	102ad0fa 	srli	r21,r2,3
    456c:	9900004c 	andi	r4,r19,1
    4570:	0005883a 	mov	r2,zero
    4574:	ac6ab03a 	or	r21,r21,r17
    4578:	003e0706 	br	3d98 <__alt_mem_VGA_Subsystem_Char_Buf_Subsystem_Onchip_SRAM+0xf7003d98>
    457c:	1007883a 	mov	r3,r2
    4580:	0023883a 	mov	r17,zero
    4584:	8820927a 	slli	r16,r17,9
    4588:	1805883a 	mov	r2,r3
    458c:	8822977a 	slli	r17,r17,29
    4590:	8020d33a 	srli	r16,r16,12
    4594:	003ff406 	br	4568 <__alt_mem_VGA_Subsystem_Char_Buf_Subsystem_Onchip_SRAM+0xf7004568>
    4598:	10c003cc 	andi	r3,r2,15
    459c:	01000104 	movi	r4,4
    45a0:	193ff626 	beq	r3,r4,457c <__alt_mem_VGA_Subsystem_Char_Buf_Subsystem_Onchip_SRAM+0xf700457c>
    45a4:	0023883a 	mov	r17,zero
    45a8:	003fc806 	br	44cc <__alt_mem_VGA_Subsystem_Char_Buf_Subsystem_Onchip_SRAM+0xf70044cc>
    45ac:	a8bfd136 	bltu	r21,r2,44f4 <__alt_mem_VGA_Subsystem_Char_Buf_Subsystem_Onchip_SRAM+0xf70044f4>
    45b0:	2823883a 	mov	r17,r5
    45b4:	003fa606 	br	4450 <__alt_mem_VGA_Subsystem_Char_Buf_Subsystem_Onchip_SRAM+0xf7004450>
    45b8:	d9800017 	ldw	r6,0(sp)
    45bc:	30bfd436 	bltu	r6,r2,4510 <__alt_mem_VGA_Subsystem_Char_Buf_Subsystem_Onchip_SRAM+0xf7004510>
    45c0:	2829883a 	mov	r20,r5
    45c4:	003f6406 	br	4358 <__alt_mem_VGA_Subsystem_Char_Buf_Subsystem_Onchip_SRAM+0xf7004358>
    45c8:	0021883a 	mov	r16,zero
    45cc:	003fe006 	br	4550 <__alt_mem_VGA_Subsystem_Char_Buf_Subsystem_Onchip_SRAM+0xf7004550>
    45d0:	00800434 	movhi	r2,16
    45d4:	8c000234 	orhi	r16,r17,8
    45d8:	10bfffc4 	addi	r2,r2,-1
    45dc:	e009883a 	mov	r4,fp
    45e0:	80a0703a 	and	r16,r16,r2
    45e4:	a02b883a 	mov	r21,r20
    45e8:	003e4e06 	br	3f24 <__alt_mem_VGA_Subsystem_Char_Buf_Subsystem_Onchip_SRAM+0xf7003f24>

000045ec <__eqdf2>:
    45ec:	2804d53a 	srli	r2,r5,20
    45f0:	3806d53a 	srli	r3,r7,20
    45f4:	02000434 	movhi	r8,16
    45f8:	423fffc4 	addi	r8,r8,-1
    45fc:	1081ffcc 	andi	r2,r2,2047
    4600:	0281ffc4 	movi	r10,2047
    4604:	2a12703a 	and	r9,r5,r8
    4608:	18c1ffcc 	andi	r3,r3,2047
    460c:	3a10703a 	and	r8,r7,r8
    4610:	280ad7fa 	srli	r5,r5,31
    4614:	380ed7fa 	srli	r7,r7,31
    4618:	12801026 	beq	r2,r10,465c <__eqdf2+0x70>
    461c:	0281ffc4 	movi	r10,2047
    4620:	1a800a26 	beq	r3,r10,464c <__eqdf2+0x60>
    4624:	10c00226 	beq	r2,r3,4630 <__eqdf2+0x44>
    4628:	00800044 	movi	r2,1
    462c:	f800283a 	ret
    4630:	4a3ffd1e 	bne	r9,r8,4628 <__alt_mem_VGA_Subsystem_Char_Buf_Subsystem_Onchip_SRAM+0xf7004628>
    4634:	21bffc1e 	bne	r4,r6,4628 <__alt_mem_VGA_Subsystem_Char_Buf_Subsystem_Onchip_SRAM+0xf7004628>
    4638:	29c00c26 	beq	r5,r7,466c <__eqdf2+0x80>
    463c:	103ffa1e 	bne	r2,zero,4628 <__alt_mem_VGA_Subsystem_Char_Buf_Subsystem_Onchip_SRAM+0xf7004628>
    4640:	2244b03a 	or	r2,r4,r9
    4644:	1004c03a 	cmpne	r2,r2,zero
    4648:	f800283a 	ret
    464c:	3214b03a 	or	r10,r6,r8
    4650:	503ff426 	beq	r10,zero,4624 <__alt_mem_VGA_Subsystem_Char_Buf_Subsystem_Onchip_SRAM+0xf7004624>
    4654:	00800044 	movi	r2,1
    4658:	f800283a 	ret
    465c:	2254b03a 	or	r10,r4,r9
    4660:	503fee26 	beq	r10,zero,461c <__alt_mem_VGA_Subsystem_Char_Buf_Subsystem_Onchip_SRAM+0xf700461c>
    4664:	00800044 	movi	r2,1
    4668:	f800283a 	ret
    466c:	0005883a 	mov	r2,zero
    4670:	f800283a 	ret

00004674 <__gedf2>:
    4674:	2804d53a 	srli	r2,r5,20
    4678:	3806d53a 	srli	r3,r7,20
    467c:	02000434 	movhi	r8,16
    4680:	423fffc4 	addi	r8,r8,-1
    4684:	1081ffcc 	andi	r2,r2,2047
    4688:	0241ffc4 	movi	r9,2047
    468c:	2a14703a 	and	r10,r5,r8
    4690:	18c1ffcc 	andi	r3,r3,2047
    4694:	3a10703a 	and	r8,r7,r8
    4698:	280ad7fa 	srli	r5,r5,31
    469c:	380ed7fa 	srli	r7,r7,31
    46a0:	12401d26 	beq	r2,r9,4718 <__gedf2+0xa4>
    46a4:	0241ffc4 	movi	r9,2047
    46a8:	1a401226 	beq	r3,r9,46f4 <__gedf2+0x80>
    46ac:	1000081e 	bne	r2,zero,46d0 <__gedf2+0x5c>
    46b0:	2296b03a 	or	r11,r4,r10
    46b4:	5813003a 	cmpeq	r9,r11,zero
    46b8:	1800091e 	bne	r3,zero,46e0 <__gedf2+0x6c>
    46bc:	3218b03a 	or	r12,r6,r8
    46c0:	6000071e 	bne	r12,zero,46e0 <__gedf2+0x6c>
    46c4:	0005883a 	mov	r2,zero
    46c8:	5800101e 	bne	r11,zero,470c <__gedf2+0x98>
    46cc:	f800283a 	ret
    46d0:	18000c1e 	bne	r3,zero,4704 <__gedf2+0x90>
    46d4:	3212b03a 	or	r9,r6,r8
    46d8:	48000c26 	beq	r9,zero,470c <__gedf2+0x98>
    46dc:	0013883a 	mov	r9,zero
    46e0:	39c03fcc 	andi	r7,r7,255
    46e4:	48000826 	beq	r9,zero,4708 <__gedf2+0x94>
    46e8:	38000926 	beq	r7,zero,4710 <__gedf2+0x9c>
    46ec:	00800044 	movi	r2,1
    46f0:	f800283a 	ret
    46f4:	3212b03a 	or	r9,r6,r8
    46f8:	483fec26 	beq	r9,zero,46ac <__alt_mem_VGA_Subsystem_Char_Buf_Subsystem_Onchip_SRAM+0xf70046ac>
    46fc:	00bfff84 	movi	r2,-2
    4700:	f800283a 	ret
    4704:	39c03fcc 	andi	r7,r7,255
    4708:	29c00626 	beq	r5,r7,4724 <__gedf2+0xb0>
    470c:	283ff726 	beq	r5,zero,46ec <__alt_mem_VGA_Subsystem_Char_Buf_Subsystem_Onchip_SRAM+0xf70046ec>
    4710:	00bfffc4 	movi	r2,-1
    4714:	f800283a 	ret
    4718:	2292b03a 	or	r9,r4,r10
    471c:	483fe126 	beq	r9,zero,46a4 <__alt_mem_VGA_Subsystem_Char_Buf_Subsystem_Onchip_SRAM+0xf70046a4>
    4720:	003ff606 	br	46fc <__alt_mem_VGA_Subsystem_Char_Buf_Subsystem_Onchip_SRAM+0xf70046fc>
    4724:	18bff916 	blt	r3,r2,470c <__alt_mem_VGA_Subsystem_Char_Buf_Subsystem_Onchip_SRAM+0xf700470c>
    4728:	10c00316 	blt	r2,r3,4738 <__gedf2+0xc4>
    472c:	42bff736 	bltu	r8,r10,470c <__alt_mem_VGA_Subsystem_Char_Buf_Subsystem_Onchip_SRAM+0xf700470c>
    4730:	52000326 	beq	r10,r8,4740 <__gedf2+0xcc>
    4734:	5200042e 	bgeu	r10,r8,4748 <__gedf2+0xd4>
    4738:	283fec1e 	bne	r5,zero,46ec <__alt_mem_VGA_Subsystem_Char_Buf_Subsystem_Onchip_SRAM+0xf70046ec>
    473c:	003ff406 	br	4710 <__alt_mem_VGA_Subsystem_Char_Buf_Subsystem_Onchip_SRAM+0xf7004710>
    4740:	313ff236 	bltu	r6,r4,470c <__alt_mem_VGA_Subsystem_Char_Buf_Subsystem_Onchip_SRAM+0xf700470c>
    4744:	21bffc36 	bltu	r4,r6,4738 <__alt_mem_VGA_Subsystem_Char_Buf_Subsystem_Onchip_SRAM+0xf7004738>
    4748:	0005883a 	mov	r2,zero
    474c:	f800283a 	ret

00004750 <__muldf3>:
    4750:	deffee04 	addi	sp,sp,-72
    4754:	dd000c15 	stw	r20,48(sp)
    4758:	2828d53a 	srli	r20,r5,20
    475c:	ddc00f15 	stw	r23,60(sp)
    4760:	282ed7fa 	srli	r23,r5,31
    4764:	dc000815 	stw	r16,32(sp)
    4768:	04000434 	movhi	r16,16
    476c:	dcc00b15 	stw	r19,44(sp)
    4770:	843fffc4 	addi	r16,r16,-1
    4774:	dfc01115 	stw	ra,68(sp)
    4778:	df001015 	stw	fp,64(sp)
    477c:	dd800e15 	stw	r22,56(sp)
    4780:	dd400d15 	stw	r21,52(sp)
    4784:	dc800a15 	stw	r18,40(sp)
    4788:	dc400915 	stw	r17,36(sp)
    478c:	a501ffcc 	andi	r20,r20,2047
    4790:	2c20703a 	and	r16,r5,r16
    4794:	b827883a 	mov	r19,r23
    4798:	ba403fcc 	andi	r9,r23,255
    479c:	a0006026 	beq	r20,zero,4920 <__muldf3+0x1d0>
    47a0:	0081ffc4 	movi	r2,2047
    47a4:	202d883a 	mov	r22,r4
    47a8:	a0803626 	beq	r20,r2,4884 <__muldf3+0x134>
    47ac:	84000434 	orhi	r16,r16,16
    47b0:	200ad77a 	srli	r5,r4,29
    47b4:	800490fa 	slli	r2,r16,3
    47b8:	202c90fa 	slli	r22,r4,3
    47bc:	a53f0044 	addi	r20,r20,-1023
    47c0:	28a0b03a 	or	r16,r5,r2
    47c4:	002b883a 	mov	r21,zero
    47c8:	000b883a 	mov	r5,zero
    47cc:	3804d53a 	srli	r2,r7,20
    47d0:	3838d7fa 	srli	fp,r7,31
    47d4:	04400434 	movhi	r17,16
    47d8:	8c7fffc4 	addi	r17,r17,-1
    47dc:	1081ffcc 	andi	r2,r2,2047
    47e0:	3025883a 	mov	r18,r6
    47e4:	3c62703a 	and	r17,r7,r17
    47e8:	e2803fcc 	andi	r10,fp,255
    47ec:	10006d26 	beq	r2,zero,49a4 <__muldf3+0x254>
    47f0:	00c1ffc4 	movi	r3,2047
    47f4:	10c06526 	beq	r2,r3,498c <__muldf3+0x23c>
    47f8:	8c400434 	orhi	r17,r17,16
    47fc:	300ed77a 	srli	r7,r6,29
    4800:	880690fa 	slli	r3,r17,3
    4804:	302490fa 	slli	r18,r6,3
    4808:	10bf0044 	addi	r2,r2,-1023
    480c:	38e2b03a 	or	r17,r7,r3
    4810:	000f883a 	mov	r7,zero
    4814:	a087883a 	add	r3,r20,r2
    4818:	010003c4 	movi	r4,15
    481c:	3d44b03a 	or	r2,r7,r21
    4820:	e5ccf03a 	xor	r6,fp,r23
    4824:	1a000044 	addi	r8,r3,1
    4828:	20809b36 	bltu	r4,r2,4a98 <__muldf3+0x348>
    482c:	100490ba 	slli	r2,r2,2
    4830:	01000034 	movhi	r4,0
    4834:	21121104 	addi	r4,r4,18500
    4838:	1105883a 	add	r2,r2,r4
    483c:	10800017 	ldw	r2,0(r2)
    4840:	1000683a 	jmp	r2
    4844:	00004a98 	cmpnei	zero,zero,298
    4848:	000048a4 	muli	zero,zero,290
    484c:	000048a4 	muli	zero,zero,290
    4850:	000048a0 	cmpeqi	zero,zero,290
    4854:	00004a74 	movhi	zero,297
    4858:	00004a74 	movhi	zero,297
    485c:	00004a5c 	xori	zero,zero,297
    4860:	000048a0 	cmpeqi	zero,zero,290
    4864:	00004a74 	movhi	zero,297
    4868:	00004a5c 	xori	zero,zero,297
    486c:	00004a74 	movhi	zero,297
    4870:	000048a0 	cmpeqi	zero,zero,290
    4874:	00004a84 	movi	zero,298
    4878:	00004a84 	movi	zero,298
    487c:	00004a84 	movi	zero,298
    4880:	00004de4 	muli	zero,zero,311
    4884:	2404b03a 	or	r2,r4,r16
    4888:	1000711e 	bne	r2,zero,4a50 <__muldf3+0x300>
    488c:	05400204 	movi	r21,8
    4890:	0021883a 	mov	r16,zero
    4894:	002d883a 	mov	r22,zero
    4898:	01400084 	movi	r5,2
    489c:	003fcb06 	br	47cc <__alt_mem_VGA_Subsystem_Char_Buf_Subsystem_Onchip_SRAM+0xf70047cc>
    48a0:	500d883a 	mov	r6,r10
    48a4:	00800084 	movi	r2,2
    48a8:	38805926 	beq	r7,r2,4a10 <__muldf3+0x2c0>
    48ac:	008000c4 	movi	r2,3
    48b0:	3881bb26 	beq	r7,r2,4fa0 <__muldf3+0x850>
    48b4:	00800044 	movi	r2,1
    48b8:	3881961e 	bne	r7,r2,4f14 <__muldf3+0x7c4>
    48bc:	3027883a 	mov	r19,r6
    48c0:	0005883a 	mov	r2,zero
    48c4:	0021883a 	mov	r16,zero
    48c8:	002d883a 	mov	r22,zero
    48cc:	1004953a 	slli	r2,r2,20
    48d0:	98c03fcc 	andi	r3,r19,255
    48d4:	04400434 	movhi	r17,16
    48d8:	8c7fffc4 	addi	r17,r17,-1
    48dc:	180697fa 	slli	r3,r3,31
    48e0:	8460703a 	and	r16,r16,r17
    48e4:	80a0b03a 	or	r16,r16,r2
    48e8:	80c6b03a 	or	r3,r16,r3
    48ec:	b005883a 	mov	r2,r22
    48f0:	dfc01117 	ldw	ra,68(sp)
    48f4:	df001017 	ldw	fp,64(sp)
    48f8:	ddc00f17 	ldw	r23,60(sp)
    48fc:	dd800e17 	ldw	r22,56(sp)
    4900:	dd400d17 	ldw	r21,52(sp)
    4904:	dd000c17 	ldw	r20,48(sp)
    4908:	dcc00b17 	ldw	r19,44(sp)
    490c:	dc800a17 	ldw	r18,40(sp)
    4910:	dc400917 	ldw	r17,36(sp)
    4914:	dc000817 	ldw	r16,32(sp)
    4918:	dec01204 	addi	sp,sp,72
    491c:	f800283a 	ret
    4920:	2404b03a 	or	r2,r4,r16
    4924:	202b883a 	mov	r21,r4
    4928:	10004426 	beq	r2,zero,4a3c <__muldf3+0x2ec>
    492c:	80015126 	beq	r16,zero,4e74 <__muldf3+0x724>
    4930:	8009883a 	mov	r4,r16
    4934:	d9800715 	stw	r6,28(sp)
    4938:	d9c00215 	stw	r7,8(sp)
    493c:	da400415 	stw	r9,16(sp)
    4940:	0005abc0 	call	5abc <__clzsi2>
    4944:	d9800717 	ldw	r6,28(sp)
    4948:	d9c00217 	ldw	r7,8(sp)
    494c:	da400417 	ldw	r9,16(sp)
    4950:	113ffd44 	addi	r4,r2,-11
    4954:	00c00704 	movi	r3,28
    4958:	19014216 	blt	r3,r4,4e64 <__muldf3+0x714>
    495c:	00c00744 	movi	r3,29
    4960:	15bffe04 	addi	r22,r2,-8
    4964:	1907c83a 	sub	r3,r3,r4
    4968:	85a0983a 	sll	r16,r16,r22
    496c:	a8c6d83a 	srl	r3,r21,r3
    4970:	adac983a 	sll	r22,r21,r22
    4974:	1c20b03a 	or	r16,r3,r16
    4978:	1080fcc4 	addi	r2,r2,1011
    497c:	00a9c83a 	sub	r20,zero,r2
    4980:	002b883a 	mov	r21,zero
    4984:	000b883a 	mov	r5,zero
    4988:	003f9006 	br	47cc <__alt_mem_VGA_Subsystem_Char_Buf_Subsystem_Onchip_SRAM+0xf70047cc>
    498c:	3446b03a 	or	r3,r6,r17
    4990:	1800281e 	bne	r3,zero,4a34 <__muldf3+0x2e4>
    4994:	0023883a 	mov	r17,zero
    4998:	0025883a 	mov	r18,zero
    499c:	01c00084 	movi	r7,2
    49a0:	003f9c06 	br	4814 <__alt_mem_VGA_Subsystem_Char_Buf_Subsystem_Onchip_SRAM+0xf7004814>
    49a4:	3446b03a 	or	r3,r6,r17
    49a8:	18001e26 	beq	r3,zero,4a24 <__muldf3+0x2d4>
    49ac:	88012126 	beq	r17,zero,4e34 <__muldf3+0x6e4>
    49b0:	8809883a 	mov	r4,r17
    49b4:	d9400215 	stw	r5,8(sp)
    49b8:	d9800715 	stw	r6,28(sp)
    49bc:	da400415 	stw	r9,16(sp)
    49c0:	da800315 	stw	r10,12(sp)
    49c4:	0005abc0 	call	5abc <__clzsi2>
    49c8:	d9400217 	ldw	r5,8(sp)
    49cc:	d9800717 	ldw	r6,28(sp)
    49d0:	da400417 	ldw	r9,16(sp)
    49d4:	da800317 	ldw	r10,12(sp)
    49d8:	113ffd44 	addi	r4,r2,-11
    49dc:	00c00704 	movi	r3,28
    49e0:	19011016 	blt	r3,r4,4e24 <__muldf3+0x6d4>
    49e4:	00c00744 	movi	r3,29
    49e8:	14bffe04 	addi	r18,r2,-8
    49ec:	1907c83a 	sub	r3,r3,r4
    49f0:	8ca2983a 	sll	r17,r17,r18
    49f4:	30c6d83a 	srl	r3,r6,r3
    49f8:	34a4983a 	sll	r18,r6,r18
    49fc:	1c62b03a 	or	r17,r3,r17
    4a00:	1080fcc4 	addi	r2,r2,1011
    4a04:	0085c83a 	sub	r2,zero,r2
    4a08:	000f883a 	mov	r7,zero
    4a0c:	003f8106 	br	4814 <__alt_mem_VGA_Subsystem_Char_Buf_Subsystem_Onchip_SRAM+0xf7004814>
    4a10:	3027883a 	mov	r19,r6
    4a14:	0081ffc4 	movi	r2,2047
    4a18:	0021883a 	mov	r16,zero
    4a1c:	002d883a 	mov	r22,zero
    4a20:	003faa06 	br	48cc <__alt_mem_VGA_Subsystem_Char_Buf_Subsystem_Onchip_SRAM+0xf70048cc>
    4a24:	0023883a 	mov	r17,zero
    4a28:	0025883a 	mov	r18,zero
    4a2c:	01c00044 	movi	r7,1
    4a30:	003f7806 	br	4814 <__alt_mem_VGA_Subsystem_Char_Buf_Subsystem_Onchip_SRAM+0xf7004814>
    4a34:	01c000c4 	movi	r7,3
    4a38:	003f7606 	br	4814 <__alt_mem_VGA_Subsystem_Char_Buf_Subsystem_Onchip_SRAM+0xf7004814>
    4a3c:	05400104 	movi	r21,4
    4a40:	0021883a 	mov	r16,zero
    4a44:	002d883a 	mov	r22,zero
    4a48:	01400044 	movi	r5,1
    4a4c:	003f5f06 	br	47cc <__alt_mem_VGA_Subsystem_Char_Buf_Subsystem_Onchip_SRAM+0xf70047cc>
    4a50:	05400304 	movi	r21,12
    4a54:	014000c4 	movi	r5,3
    4a58:	003f5c06 	br	47cc <__alt_mem_VGA_Subsystem_Char_Buf_Subsystem_Onchip_SRAM+0xf70047cc>
    4a5c:	04000434 	movhi	r16,16
    4a60:	0027883a 	mov	r19,zero
    4a64:	843fffc4 	addi	r16,r16,-1
    4a68:	05bfffc4 	movi	r22,-1
    4a6c:	0081ffc4 	movi	r2,2047
    4a70:	003f9606 	br	48cc <__alt_mem_VGA_Subsystem_Char_Buf_Subsystem_Onchip_SRAM+0xf70048cc>
    4a74:	8023883a 	mov	r17,r16
    4a78:	b025883a 	mov	r18,r22
    4a7c:	280f883a 	mov	r7,r5
    4a80:	003f8806 	br	48a4 <__alt_mem_VGA_Subsystem_Char_Buf_Subsystem_Onchip_SRAM+0xf70048a4>
    4a84:	8023883a 	mov	r17,r16
    4a88:	b025883a 	mov	r18,r22
    4a8c:	480d883a 	mov	r6,r9
    4a90:	280f883a 	mov	r7,r5
    4a94:	003f8306 	br	48a4 <__alt_mem_VGA_Subsystem_Char_Buf_Subsystem_Onchip_SRAM+0xf70048a4>
    4a98:	b026d43a 	srli	r19,r22,16
    4a9c:	902ed43a 	srli	r23,r18,16
    4aa0:	b5bfffcc 	andi	r22,r22,65535
    4aa4:	94bfffcc 	andi	r18,r18,65535
    4aa8:	b00b883a 	mov	r5,r22
    4aac:	9009883a 	mov	r4,r18
    4ab0:	d8c00515 	stw	r3,20(sp)
    4ab4:	d9800715 	stw	r6,28(sp)
    4ab8:	da000615 	stw	r8,24(sp)
    4abc:	00033480 	call	3348 <__mulsi3>
    4ac0:	980b883a 	mov	r5,r19
    4ac4:	9009883a 	mov	r4,r18
    4ac8:	1029883a 	mov	r20,r2
    4acc:	00033480 	call	3348 <__mulsi3>
    4ad0:	b80b883a 	mov	r5,r23
    4ad4:	9809883a 	mov	r4,r19
    4ad8:	102b883a 	mov	r21,r2
    4adc:	00033480 	call	3348 <__mulsi3>
    4ae0:	b809883a 	mov	r4,r23
    4ae4:	b00b883a 	mov	r5,r22
    4ae8:	1039883a 	mov	fp,r2
    4aec:	00033480 	call	3348 <__mulsi3>
    4af0:	a008d43a 	srli	r4,r20,16
    4af4:	1545883a 	add	r2,r2,r21
    4af8:	d8c00517 	ldw	r3,20(sp)
    4afc:	2085883a 	add	r2,r4,r2
    4b00:	d9800717 	ldw	r6,28(sp)
    4b04:	da000617 	ldw	r8,24(sp)
    4b08:	1540022e 	bgeu	r2,r21,4b14 <__muldf3+0x3c4>
    4b0c:	01000074 	movhi	r4,1
    4b10:	e139883a 	add	fp,fp,r4
    4b14:	100e943a 	slli	r7,r2,16
    4b18:	1004d43a 	srli	r2,r2,16
    4b1c:	882ad43a 	srli	r21,r17,16
    4b20:	a53fffcc 	andi	r20,r20,65535
    4b24:	8c7fffcc 	andi	r17,r17,65535
    4b28:	3d29883a 	add	r20,r7,r20
    4b2c:	b00b883a 	mov	r5,r22
    4b30:	8809883a 	mov	r4,r17
    4b34:	d8c00515 	stw	r3,20(sp)
    4b38:	d9800715 	stw	r6,28(sp)
    4b3c:	da000615 	stw	r8,24(sp)
    4b40:	dd000115 	stw	r20,4(sp)
    4b44:	d8800015 	stw	r2,0(sp)
    4b48:	00033480 	call	3348 <__mulsi3>
    4b4c:	980b883a 	mov	r5,r19
    4b50:	8809883a 	mov	r4,r17
    4b54:	d8800215 	stw	r2,8(sp)
    4b58:	00033480 	call	3348 <__mulsi3>
    4b5c:	9809883a 	mov	r4,r19
    4b60:	a80b883a 	mov	r5,r21
    4b64:	1029883a 	mov	r20,r2
    4b68:	00033480 	call	3348 <__mulsi3>
    4b6c:	b00b883a 	mov	r5,r22
    4b70:	a809883a 	mov	r4,r21
    4b74:	d8800415 	stw	r2,16(sp)
    4b78:	00033480 	call	3348 <__mulsi3>
    4b7c:	d9c00217 	ldw	r7,8(sp)
    4b80:	1505883a 	add	r2,r2,r20
    4b84:	d8c00517 	ldw	r3,20(sp)
    4b88:	3826d43a 	srli	r19,r7,16
    4b8c:	d9800717 	ldw	r6,28(sp)
    4b90:	da000617 	ldw	r8,24(sp)
    4b94:	9885883a 	add	r2,r19,r2
    4b98:	da400417 	ldw	r9,16(sp)
    4b9c:	1500022e 	bgeu	r2,r20,4ba8 <__muldf3+0x458>
    4ba0:	01000074 	movhi	r4,1
    4ba4:	4913883a 	add	r9,r9,r4
    4ba8:	1028d43a 	srli	r20,r2,16
    4bac:	1004943a 	slli	r2,r2,16
    4bb0:	802cd43a 	srli	r22,r16,16
    4bb4:	843fffcc 	andi	r16,r16,65535
    4bb8:	3cffffcc 	andi	r19,r7,65535
    4bbc:	9009883a 	mov	r4,r18
    4bc0:	800b883a 	mov	r5,r16
    4bc4:	a269883a 	add	r20,r20,r9
    4bc8:	d8c00515 	stw	r3,20(sp)
    4bcc:	d9800715 	stw	r6,28(sp)
    4bd0:	da000615 	stw	r8,24(sp)
    4bd4:	14e7883a 	add	r19,r2,r19
    4bd8:	00033480 	call	3348 <__mulsi3>
    4bdc:	9009883a 	mov	r4,r18
    4be0:	b00b883a 	mov	r5,r22
    4be4:	d8800315 	stw	r2,12(sp)
    4be8:	00033480 	call	3348 <__mulsi3>
    4bec:	b809883a 	mov	r4,r23
    4bf0:	b00b883a 	mov	r5,r22
    4bf4:	d8800215 	stw	r2,8(sp)
    4bf8:	00033480 	call	3348 <__mulsi3>
    4bfc:	b80b883a 	mov	r5,r23
    4c00:	8009883a 	mov	r4,r16
    4c04:	d8800415 	stw	r2,16(sp)
    4c08:	00033480 	call	3348 <__mulsi3>
    4c0c:	da800317 	ldw	r10,12(sp)
    4c10:	d9c00217 	ldw	r7,8(sp)
    4c14:	d9000017 	ldw	r4,0(sp)
    4c18:	502ed43a 	srli	r23,r10,16
    4c1c:	11c5883a 	add	r2,r2,r7
    4c20:	24e5883a 	add	r18,r4,r19
    4c24:	b885883a 	add	r2,r23,r2
    4c28:	d8c00517 	ldw	r3,20(sp)
    4c2c:	d9800717 	ldw	r6,28(sp)
    4c30:	da000617 	ldw	r8,24(sp)
    4c34:	da400417 	ldw	r9,16(sp)
    4c38:	11c0022e 	bgeu	r2,r7,4c44 <__muldf3+0x4f4>
    4c3c:	01000074 	movhi	r4,1
    4c40:	4913883a 	add	r9,r9,r4
    4c44:	100ed43a 	srli	r7,r2,16
    4c48:	1004943a 	slli	r2,r2,16
    4c4c:	55ffffcc 	andi	r23,r10,65535
    4c50:	3a53883a 	add	r9,r7,r9
    4c54:	8809883a 	mov	r4,r17
    4c58:	800b883a 	mov	r5,r16
    4c5c:	d8c00515 	stw	r3,20(sp)
    4c60:	d9800715 	stw	r6,28(sp)
    4c64:	da000615 	stw	r8,24(sp)
    4c68:	da400415 	stw	r9,16(sp)
    4c6c:	15ef883a 	add	r23,r2,r23
    4c70:	00033480 	call	3348 <__mulsi3>
    4c74:	8809883a 	mov	r4,r17
    4c78:	b00b883a 	mov	r5,r22
    4c7c:	d8800215 	stw	r2,8(sp)
    4c80:	00033480 	call	3348 <__mulsi3>
    4c84:	b00b883a 	mov	r5,r22
    4c88:	a809883a 	mov	r4,r21
    4c8c:	d8800315 	stw	r2,12(sp)
    4c90:	00033480 	call	3348 <__mulsi3>
    4c94:	8009883a 	mov	r4,r16
    4c98:	a80b883a 	mov	r5,r21
    4c9c:	1023883a 	mov	r17,r2
    4ca0:	00033480 	call	3348 <__mulsi3>
    4ca4:	d9c00217 	ldw	r7,8(sp)
    4ca8:	da800317 	ldw	r10,12(sp)
    4cac:	d8c00517 	ldw	r3,20(sp)
    4cb0:	3808d43a 	srli	r4,r7,16
    4cb4:	1285883a 	add	r2,r2,r10
    4cb8:	d9800717 	ldw	r6,28(sp)
    4cbc:	2085883a 	add	r2,r4,r2
    4cc0:	da000617 	ldw	r8,24(sp)
    4cc4:	da400417 	ldw	r9,16(sp)
    4cc8:	1280022e 	bgeu	r2,r10,4cd4 <__muldf3+0x584>
    4ccc:	01000074 	movhi	r4,1
    4cd0:	8923883a 	add	r17,r17,r4
    4cd4:	1008943a 	slli	r4,r2,16
    4cd8:	39ffffcc 	andi	r7,r7,65535
    4cdc:	e4b9883a 	add	fp,fp,r18
    4ce0:	21cf883a 	add	r7,r4,r7
    4ce4:	e4e7803a 	cmpltu	r19,fp,r19
    4ce8:	3d0f883a 	add	r7,r7,r20
    4cec:	bf39883a 	add	fp,r23,fp
    4cf0:	99c9883a 	add	r4,r19,r7
    4cf4:	e5ef803a 	cmpltu	r23,fp,r23
    4cf8:	490b883a 	add	r5,r9,r4
    4cfc:	1004d43a 	srli	r2,r2,16
    4d00:	b965883a 	add	r18,r23,r5
    4d04:	24c9803a 	cmpltu	r4,r4,r19
    4d08:	3d29803a 	cmpltu	r20,r7,r20
    4d0c:	a128b03a 	or	r20,r20,r4
    4d10:	95ef803a 	cmpltu	r23,r18,r23
    4d14:	2a53803a 	cmpltu	r9,r5,r9
    4d18:	a0a9883a 	add	r20,r20,r2
    4d1c:	4deeb03a 	or	r23,r9,r23
    4d20:	a5ef883a 	add	r23,r20,r23
    4d24:	bc63883a 	add	r17,r23,r17
    4d28:	e004927a 	slli	r2,fp,9
    4d2c:	d9000117 	ldw	r4,4(sp)
    4d30:	882e927a 	slli	r23,r17,9
    4d34:	9022d5fa 	srli	r17,r18,23
    4d38:	e038d5fa 	srli	fp,fp,23
    4d3c:	1104b03a 	or	r2,r2,r4
    4d40:	9024927a 	slli	r18,r18,9
    4d44:	1004c03a 	cmpne	r2,r2,zero
    4d48:	bc62b03a 	or	r17,r23,r17
    4d4c:	1738b03a 	or	fp,r2,fp
    4d50:	8880402c 	andhi	r2,r17,256
    4d54:	e4a4b03a 	or	r18,fp,r18
    4d58:	10000726 	beq	r2,zero,4d78 <__muldf3+0x628>
    4d5c:	9006d07a 	srli	r3,r18,1
    4d60:	880497fa 	slli	r2,r17,31
    4d64:	9480004c 	andi	r18,r18,1
    4d68:	8822d07a 	srli	r17,r17,1
    4d6c:	1ca4b03a 	or	r18,r3,r18
    4d70:	14a4b03a 	or	r18,r2,r18
    4d74:	4007883a 	mov	r3,r8
    4d78:	1880ffc4 	addi	r2,r3,1023
    4d7c:	0080460e 	bge	zero,r2,4e98 <__muldf3+0x748>
    4d80:	910001cc 	andi	r4,r18,7
    4d84:	20000726 	beq	r4,zero,4da4 <__muldf3+0x654>
    4d88:	910003cc 	andi	r4,r18,15
    4d8c:	01400104 	movi	r5,4
    4d90:	21400426 	beq	r4,r5,4da4 <__muldf3+0x654>
    4d94:	9149883a 	add	r4,r18,r5
    4d98:	24a5803a 	cmpltu	r18,r4,r18
    4d9c:	8ca3883a 	add	r17,r17,r18
    4da0:	2025883a 	mov	r18,r4
    4da4:	8900402c 	andhi	r4,r17,256
    4da8:	20000426 	beq	r4,zero,4dbc <__muldf3+0x66c>
    4dac:	18810004 	addi	r2,r3,1024
    4db0:	00ffc034 	movhi	r3,65280
    4db4:	18ffffc4 	addi	r3,r3,-1
    4db8:	88e2703a 	and	r17,r17,r3
    4dbc:	00c1ff84 	movi	r3,2046
    4dc0:	18bf1316 	blt	r3,r2,4a10 <__alt_mem_VGA_Subsystem_Char_Buf_Subsystem_Onchip_SRAM+0xf7004a10>
    4dc4:	882c977a 	slli	r22,r17,29
    4dc8:	9024d0fa 	srli	r18,r18,3
    4dcc:	8822927a 	slli	r17,r17,9
    4dd0:	1081ffcc 	andi	r2,r2,2047
    4dd4:	b4acb03a 	or	r22,r22,r18
    4dd8:	8820d33a 	srli	r16,r17,12
    4ddc:	3027883a 	mov	r19,r6
    4de0:	003eba06 	br	48cc <__alt_mem_VGA_Subsystem_Char_Buf_Subsystem_Onchip_SRAM+0xf70048cc>
    4de4:	8080022c 	andhi	r2,r16,8
    4de8:	10000926 	beq	r2,zero,4e10 <__muldf3+0x6c0>
    4dec:	8880022c 	andhi	r2,r17,8
    4df0:	1000071e 	bne	r2,zero,4e10 <__muldf3+0x6c0>
    4df4:	00800434 	movhi	r2,16
    4df8:	8c000234 	orhi	r16,r17,8
    4dfc:	10bfffc4 	addi	r2,r2,-1
    4e00:	e027883a 	mov	r19,fp
    4e04:	80a0703a 	and	r16,r16,r2
    4e08:	902d883a 	mov	r22,r18
    4e0c:	003f1706 	br	4a6c <__alt_mem_VGA_Subsystem_Char_Buf_Subsystem_Onchip_SRAM+0xf7004a6c>
    4e10:	00800434 	movhi	r2,16
    4e14:	84000234 	orhi	r16,r16,8
    4e18:	10bfffc4 	addi	r2,r2,-1
    4e1c:	80a0703a 	and	r16,r16,r2
    4e20:	003f1206 	br	4a6c <__alt_mem_VGA_Subsystem_Char_Buf_Subsystem_Onchip_SRAM+0xf7004a6c>
    4e24:	147ff604 	addi	r17,r2,-40
    4e28:	3462983a 	sll	r17,r6,r17
    4e2c:	0025883a 	mov	r18,zero
    4e30:	003ef306 	br	4a00 <__alt_mem_VGA_Subsystem_Char_Buf_Subsystem_Onchip_SRAM+0xf7004a00>
    4e34:	3009883a 	mov	r4,r6
    4e38:	d9400215 	stw	r5,8(sp)
    4e3c:	d9800715 	stw	r6,28(sp)
    4e40:	da400415 	stw	r9,16(sp)
    4e44:	da800315 	stw	r10,12(sp)
    4e48:	0005abc0 	call	5abc <__clzsi2>
    4e4c:	10800804 	addi	r2,r2,32
    4e50:	da800317 	ldw	r10,12(sp)
    4e54:	da400417 	ldw	r9,16(sp)
    4e58:	d9800717 	ldw	r6,28(sp)
    4e5c:	d9400217 	ldw	r5,8(sp)
    4e60:	003edd06 	br	49d8 <__alt_mem_VGA_Subsystem_Char_Buf_Subsystem_Onchip_SRAM+0xf70049d8>
    4e64:	143ff604 	addi	r16,r2,-40
    4e68:	ac20983a 	sll	r16,r21,r16
    4e6c:	002d883a 	mov	r22,zero
    4e70:	003ec106 	br	4978 <__alt_mem_VGA_Subsystem_Char_Buf_Subsystem_Onchip_SRAM+0xf7004978>
    4e74:	d9800715 	stw	r6,28(sp)
    4e78:	d9c00215 	stw	r7,8(sp)
    4e7c:	da400415 	stw	r9,16(sp)
    4e80:	0005abc0 	call	5abc <__clzsi2>
    4e84:	10800804 	addi	r2,r2,32
    4e88:	da400417 	ldw	r9,16(sp)
    4e8c:	d9c00217 	ldw	r7,8(sp)
    4e90:	d9800717 	ldw	r6,28(sp)
    4e94:	003eae06 	br	4950 <__alt_mem_VGA_Subsystem_Char_Buf_Subsystem_Onchip_SRAM+0xf7004950>
    4e98:	00c00044 	movi	r3,1
    4e9c:	1887c83a 	sub	r3,r3,r2
    4ea0:	01000e04 	movi	r4,56
    4ea4:	20fe8516 	blt	r4,r3,48bc <__alt_mem_VGA_Subsystem_Char_Buf_Subsystem_Onchip_SRAM+0xf70048bc>
    4ea8:	010007c4 	movi	r4,31
    4eac:	20c01b16 	blt	r4,r3,4f1c <__muldf3+0x7cc>
    4eb0:	00800804 	movi	r2,32
    4eb4:	10c5c83a 	sub	r2,r2,r3
    4eb8:	888a983a 	sll	r5,r17,r2
    4ebc:	90c8d83a 	srl	r4,r18,r3
    4ec0:	9084983a 	sll	r2,r18,r2
    4ec4:	88e2d83a 	srl	r17,r17,r3
    4ec8:	2906b03a 	or	r3,r5,r4
    4ecc:	1004c03a 	cmpne	r2,r2,zero
    4ed0:	1886b03a 	or	r3,r3,r2
    4ed4:	188001cc 	andi	r2,r3,7
    4ed8:	10000726 	beq	r2,zero,4ef8 <__muldf3+0x7a8>
    4edc:	188003cc 	andi	r2,r3,15
    4ee0:	01000104 	movi	r4,4
    4ee4:	11000426 	beq	r2,r4,4ef8 <__muldf3+0x7a8>
    4ee8:	1805883a 	mov	r2,r3
    4eec:	10c00104 	addi	r3,r2,4
    4ef0:	1885803a 	cmpltu	r2,r3,r2
    4ef4:	88a3883a 	add	r17,r17,r2
    4ef8:	8880202c 	andhi	r2,r17,128
    4efc:	10001c26 	beq	r2,zero,4f70 <__muldf3+0x820>
    4f00:	3027883a 	mov	r19,r6
    4f04:	00800044 	movi	r2,1
    4f08:	0021883a 	mov	r16,zero
    4f0c:	002d883a 	mov	r22,zero
    4f10:	003e6e06 	br	48cc <__alt_mem_VGA_Subsystem_Char_Buf_Subsystem_Onchip_SRAM+0xf70048cc>
    4f14:	4007883a 	mov	r3,r8
    4f18:	003f9706 	br	4d78 <__alt_mem_VGA_Subsystem_Char_Buf_Subsystem_Onchip_SRAM+0xf7004d78>
    4f1c:	017ff844 	movi	r5,-31
    4f20:	2885c83a 	sub	r2,r5,r2
    4f24:	888ad83a 	srl	r5,r17,r2
    4f28:	00800804 	movi	r2,32
    4f2c:	18801a26 	beq	r3,r2,4f98 <__muldf3+0x848>
    4f30:	01001004 	movi	r4,64
    4f34:	20c7c83a 	sub	r3,r4,r3
    4f38:	88e2983a 	sll	r17,r17,r3
    4f3c:	8ca4b03a 	or	r18,r17,r18
    4f40:	9004c03a 	cmpne	r2,r18,zero
    4f44:	2884b03a 	or	r2,r5,r2
    4f48:	144001cc 	andi	r17,r2,7
    4f4c:	88000d1e 	bne	r17,zero,4f84 <__muldf3+0x834>
    4f50:	0021883a 	mov	r16,zero
    4f54:	102cd0fa 	srli	r22,r2,3
    4f58:	3027883a 	mov	r19,r6
    4f5c:	0005883a 	mov	r2,zero
    4f60:	b46cb03a 	or	r22,r22,r17
    4f64:	003e5906 	br	48cc <__alt_mem_VGA_Subsystem_Char_Buf_Subsystem_Onchip_SRAM+0xf70048cc>
    4f68:	1007883a 	mov	r3,r2
    4f6c:	0023883a 	mov	r17,zero
    4f70:	8820927a 	slli	r16,r17,9
    4f74:	1805883a 	mov	r2,r3
    4f78:	8822977a 	slli	r17,r17,29
    4f7c:	8020d33a 	srli	r16,r16,12
    4f80:	003ff406 	br	4f54 <__alt_mem_VGA_Subsystem_Char_Buf_Subsystem_Onchip_SRAM+0xf7004f54>
    4f84:	10c003cc 	andi	r3,r2,15
    4f88:	01000104 	movi	r4,4
    4f8c:	193ff626 	beq	r3,r4,4f68 <__alt_mem_VGA_Subsystem_Char_Buf_Subsystem_Onchip_SRAM+0xf7004f68>
    4f90:	0023883a 	mov	r17,zero
    4f94:	003fd506 	br	4eec <__alt_mem_VGA_Subsystem_Char_Buf_Subsystem_Onchip_SRAM+0xf7004eec>
    4f98:	0023883a 	mov	r17,zero
    4f9c:	003fe706 	br	4f3c <__alt_mem_VGA_Subsystem_Char_Buf_Subsystem_Onchip_SRAM+0xf7004f3c>
    4fa0:	00800434 	movhi	r2,16
    4fa4:	8c000234 	orhi	r16,r17,8
    4fa8:	10bfffc4 	addi	r2,r2,-1
    4fac:	3027883a 	mov	r19,r6
    4fb0:	80a0703a 	and	r16,r16,r2
    4fb4:	902d883a 	mov	r22,r18
    4fb8:	003eac06 	br	4a6c <__alt_mem_VGA_Subsystem_Char_Buf_Subsystem_Onchip_SRAM+0xf7004a6c>

00004fbc <__subdf3>:
    4fbc:	02000434 	movhi	r8,16
    4fc0:	423fffc4 	addi	r8,r8,-1
    4fc4:	defffb04 	addi	sp,sp,-20
    4fc8:	2a14703a 	and	r10,r5,r8
    4fcc:	3812d53a 	srli	r9,r7,20
    4fd0:	3a10703a 	and	r8,r7,r8
    4fd4:	2006d77a 	srli	r3,r4,29
    4fd8:	3004d77a 	srli	r2,r6,29
    4fdc:	dc000015 	stw	r16,0(sp)
    4fe0:	501490fa 	slli	r10,r10,3
    4fe4:	2820d53a 	srli	r16,r5,20
    4fe8:	401090fa 	slli	r8,r8,3
    4fec:	dc800215 	stw	r18,8(sp)
    4ff0:	dc400115 	stw	r17,4(sp)
    4ff4:	dfc00415 	stw	ra,16(sp)
    4ff8:	202290fa 	slli	r17,r4,3
    4ffc:	dcc00315 	stw	r19,12(sp)
    5000:	4a41ffcc 	andi	r9,r9,2047
    5004:	0101ffc4 	movi	r4,2047
    5008:	2824d7fa 	srli	r18,r5,31
    500c:	8401ffcc 	andi	r16,r16,2047
    5010:	50c6b03a 	or	r3,r10,r3
    5014:	380ed7fa 	srli	r7,r7,31
    5018:	408ab03a 	or	r5,r8,r2
    501c:	300c90fa 	slli	r6,r6,3
    5020:	49009626 	beq	r9,r4,527c <__subdf3+0x2c0>
    5024:	39c0005c 	xori	r7,r7,1
    5028:	8245c83a 	sub	r2,r16,r9
    502c:	3c807426 	beq	r7,r18,5200 <__subdf3+0x244>
    5030:	0080af0e 	bge	zero,r2,52f0 <__subdf3+0x334>
    5034:	48002a1e 	bne	r9,zero,50e0 <__subdf3+0x124>
    5038:	2988b03a 	or	r4,r5,r6
    503c:	20009a1e 	bne	r4,zero,52a8 <__subdf3+0x2ec>
    5040:	888001cc 	andi	r2,r17,7
    5044:	10000726 	beq	r2,zero,5064 <__subdf3+0xa8>
    5048:	888003cc 	andi	r2,r17,15
    504c:	01000104 	movi	r4,4
    5050:	11000426 	beq	r2,r4,5064 <__subdf3+0xa8>
    5054:	890b883a 	add	r5,r17,r4
    5058:	2c63803a 	cmpltu	r17,r5,r17
    505c:	1c47883a 	add	r3,r3,r17
    5060:	2823883a 	mov	r17,r5
    5064:	1880202c 	andhi	r2,r3,128
    5068:	10005926 	beq	r2,zero,51d0 <__subdf3+0x214>
    506c:	84000044 	addi	r16,r16,1
    5070:	0081ffc4 	movi	r2,2047
    5074:	8080be26 	beq	r16,r2,5370 <__subdf3+0x3b4>
    5078:	017fe034 	movhi	r5,65408
    507c:	297fffc4 	addi	r5,r5,-1
    5080:	1946703a 	and	r3,r3,r5
    5084:	1804977a 	slli	r2,r3,29
    5088:	1806927a 	slli	r3,r3,9
    508c:	8822d0fa 	srli	r17,r17,3
    5090:	8401ffcc 	andi	r16,r16,2047
    5094:	180ad33a 	srli	r5,r3,12
    5098:	9100004c 	andi	r4,r18,1
    509c:	1444b03a 	or	r2,r2,r17
    50a0:	80c1ffcc 	andi	r3,r16,2047
    50a4:	1820953a 	slli	r16,r3,20
    50a8:	20c03fcc 	andi	r3,r4,255
    50ac:	180897fa 	slli	r4,r3,31
    50b0:	00c00434 	movhi	r3,16
    50b4:	18ffffc4 	addi	r3,r3,-1
    50b8:	28c6703a 	and	r3,r5,r3
    50bc:	1c06b03a 	or	r3,r3,r16
    50c0:	1906b03a 	or	r3,r3,r4
    50c4:	dfc00417 	ldw	ra,16(sp)
    50c8:	dcc00317 	ldw	r19,12(sp)
    50cc:	dc800217 	ldw	r18,8(sp)
    50d0:	dc400117 	ldw	r17,4(sp)
    50d4:	dc000017 	ldw	r16,0(sp)
    50d8:	dec00504 	addi	sp,sp,20
    50dc:	f800283a 	ret
    50e0:	0101ffc4 	movi	r4,2047
    50e4:	813fd626 	beq	r16,r4,5040 <__alt_mem_VGA_Subsystem_Char_Buf_Subsystem_Onchip_SRAM+0xf7005040>
    50e8:	29402034 	orhi	r5,r5,128
    50ec:	01000e04 	movi	r4,56
    50f0:	2080a316 	blt	r4,r2,5380 <__subdf3+0x3c4>
    50f4:	010007c4 	movi	r4,31
    50f8:	2080c616 	blt	r4,r2,5414 <__subdf3+0x458>
    50fc:	01000804 	movi	r4,32
    5100:	2089c83a 	sub	r4,r4,r2
    5104:	2910983a 	sll	r8,r5,r4
    5108:	308ed83a 	srl	r7,r6,r2
    510c:	3108983a 	sll	r4,r6,r4
    5110:	2884d83a 	srl	r2,r5,r2
    5114:	41ccb03a 	or	r6,r8,r7
    5118:	2008c03a 	cmpne	r4,r4,zero
    511c:	310cb03a 	or	r6,r6,r4
    5120:	898dc83a 	sub	r6,r17,r6
    5124:	89a3803a 	cmpltu	r17,r17,r6
    5128:	1887c83a 	sub	r3,r3,r2
    512c:	1c47c83a 	sub	r3,r3,r17
    5130:	3023883a 	mov	r17,r6
    5134:	1880202c 	andhi	r2,r3,128
    5138:	10002326 	beq	r2,zero,51c8 <__subdf3+0x20c>
    513c:	04c02034 	movhi	r19,128
    5140:	9cffffc4 	addi	r19,r19,-1
    5144:	1ce6703a 	and	r19,r3,r19
    5148:	98007a26 	beq	r19,zero,5334 <__subdf3+0x378>
    514c:	9809883a 	mov	r4,r19
    5150:	0005abc0 	call	5abc <__clzsi2>
    5154:	113ffe04 	addi	r4,r2,-8
    5158:	00c007c4 	movi	r3,31
    515c:	19007b16 	blt	r3,r4,534c <__subdf3+0x390>
    5160:	00800804 	movi	r2,32
    5164:	1105c83a 	sub	r2,r2,r4
    5168:	8884d83a 	srl	r2,r17,r2
    516c:	9906983a 	sll	r3,r19,r4
    5170:	8922983a 	sll	r17,r17,r4
    5174:	10c4b03a 	or	r2,r2,r3
    5178:	24007816 	blt	r4,r16,535c <__subdf3+0x3a0>
    517c:	2421c83a 	sub	r16,r4,r16
    5180:	80c00044 	addi	r3,r16,1
    5184:	010007c4 	movi	r4,31
    5188:	20c09516 	blt	r4,r3,53e0 <__subdf3+0x424>
    518c:	01400804 	movi	r5,32
    5190:	28cbc83a 	sub	r5,r5,r3
    5194:	88c8d83a 	srl	r4,r17,r3
    5198:	8962983a 	sll	r17,r17,r5
    519c:	114a983a 	sll	r5,r2,r5
    51a0:	10c6d83a 	srl	r3,r2,r3
    51a4:	8804c03a 	cmpne	r2,r17,zero
    51a8:	290ab03a 	or	r5,r5,r4
    51ac:	28a2b03a 	or	r17,r5,r2
    51b0:	0021883a 	mov	r16,zero
    51b4:	003fa206 	br	5040 <__alt_mem_VGA_Subsystem_Char_Buf_Subsystem_Onchip_SRAM+0xf7005040>
    51b8:	2090b03a 	or	r8,r4,r2
    51bc:	40018e26 	beq	r8,zero,57f8 <__subdf3+0x83c>
    51c0:	1007883a 	mov	r3,r2
    51c4:	2023883a 	mov	r17,r4
    51c8:	888001cc 	andi	r2,r17,7
    51cc:	103f9e1e 	bne	r2,zero,5048 <__alt_mem_VGA_Subsystem_Char_Buf_Subsystem_Onchip_SRAM+0xf7005048>
    51d0:	1804977a 	slli	r2,r3,29
    51d4:	8822d0fa 	srli	r17,r17,3
    51d8:	1810d0fa 	srli	r8,r3,3
    51dc:	9100004c 	andi	r4,r18,1
    51e0:	1444b03a 	or	r2,r2,r17
    51e4:	00c1ffc4 	movi	r3,2047
    51e8:	80c02826 	beq	r16,r3,528c <__subdf3+0x2d0>
    51ec:	01400434 	movhi	r5,16
    51f0:	297fffc4 	addi	r5,r5,-1
    51f4:	80e0703a 	and	r16,r16,r3
    51f8:	414a703a 	and	r5,r8,r5
    51fc:	003fa806 	br	50a0 <__alt_mem_VGA_Subsystem_Char_Buf_Subsystem_Onchip_SRAM+0xf70050a0>
    5200:	0080630e 	bge	zero,r2,5390 <__subdf3+0x3d4>
    5204:	48003026 	beq	r9,zero,52c8 <__subdf3+0x30c>
    5208:	0101ffc4 	movi	r4,2047
    520c:	813f8c26 	beq	r16,r4,5040 <__alt_mem_VGA_Subsystem_Char_Buf_Subsystem_Onchip_SRAM+0xf7005040>
    5210:	29402034 	orhi	r5,r5,128
    5214:	01000e04 	movi	r4,56
    5218:	2080a90e 	bge	r4,r2,54c0 <__subdf3+0x504>
    521c:	298cb03a 	or	r6,r5,r6
    5220:	3012c03a 	cmpne	r9,r6,zero
    5224:	0005883a 	mov	r2,zero
    5228:	4c53883a 	add	r9,r9,r17
    522c:	4c63803a 	cmpltu	r17,r9,r17
    5230:	10c7883a 	add	r3,r2,r3
    5234:	88c7883a 	add	r3,r17,r3
    5238:	4823883a 	mov	r17,r9
    523c:	1880202c 	andhi	r2,r3,128
    5240:	1000d026 	beq	r2,zero,5584 <__subdf3+0x5c8>
    5244:	84000044 	addi	r16,r16,1
    5248:	0081ffc4 	movi	r2,2047
    524c:	8080fe26 	beq	r16,r2,5648 <__subdf3+0x68c>
    5250:	00bfe034 	movhi	r2,65408
    5254:	10bfffc4 	addi	r2,r2,-1
    5258:	1886703a 	and	r3,r3,r2
    525c:	880ad07a 	srli	r5,r17,1
    5260:	180497fa 	slli	r2,r3,31
    5264:	8900004c 	andi	r4,r17,1
    5268:	2922b03a 	or	r17,r5,r4
    526c:	1806d07a 	srli	r3,r3,1
    5270:	1462b03a 	or	r17,r2,r17
    5274:	3825883a 	mov	r18,r7
    5278:	003f7106 	br	5040 <__alt_mem_VGA_Subsystem_Char_Buf_Subsystem_Onchip_SRAM+0xf7005040>
    527c:	2984b03a 	or	r2,r5,r6
    5280:	103f6826 	beq	r2,zero,5024 <__alt_mem_VGA_Subsystem_Char_Buf_Subsystem_Onchip_SRAM+0xf7005024>
    5284:	39c03fcc 	andi	r7,r7,255
    5288:	003f6706 	br	5028 <__alt_mem_VGA_Subsystem_Char_Buf_Subsystem_Onchip_SRAM+0xf7005028>
    528c:	4086b03a 	or	r3,r8,r2
    5290:	18015226 	beq	r3,zero,57dc <__subdf3+0x820>
    5294:	00c00434 	movhi	r3,16
    5298:	41400234 	orhi	r5,r8,8
    529c:	18ffffc4 	addi	r3,r3,-1
    52a0:	28ca703a 	and	r5,r5,r3
    52a4:	003f7e06 	br	50a0 <__alt_mem_VGA_Subsystem_Char_Buf_Subsystem_Onchip_SRAM+0xf70050a0>
    52a8:	10bfffc4 	addi	r2,r2,-1
    52ac:	1000491e 	bne	r2,zero,53d4 <__subdf3+0x418>
    52b0:	898fc83a 	sub	r7,r17,r6
    52b4:	89e3803a 	cmpltu	r17,r17,r7
    52b8:	1947c83a 	sub	r3,r3,r5
    52bc:	1c47c83a 	sub	r3,r3,r17
    52c0:	3823883a 	mov	r17,r7
    52c4:	003f9b06 	br	5134 <__alt_mem_VGA_Subsystem_Char_Buf_Subsystem_Onchip_SRAM+0xf7005134>
    52c8:	2988b03a 	or	r4,r5,r6
    52cc:	203f5c26 	beq	r4,zero,5040 <__alt_mem_VGA_Subsystem_Char_Buf_Subsystem_Onchip_SRAM+0xf7005040>
    52d0:	10bfffc4 	addi	r2,r2,-1
    52d4:	1000931e 	bne	r2,zero,5524 <__subdf3+0x568>
    52d8:	898d883a 	add	r6,r17,r6
    52dc:	3463803a 	cmpltu	r17,r6,r17
    52e0:	1947883a 	add	r3,r3,r5
    52e4:	88c7883a 	add	r3,r17,r3
    52e8:	3023883a 	mov	r17,r6
    52ec:	003fd306 	br	523c <__alt_mem_VGA_Subsystem_Char_Buf_Subsystem_Onchip_SRAM+0xf700523c>
    52f0:	1000541e 	bne	r2,zero,5444 <__subdf3+0x488>
    52f4:	80800044 	addi	r2,r16,1
    52f8:	1081ffcc 	andi	r2,r2,2047
    52fc:	01000044 	movi	r4,1
    5300:	2080a20e 	bge	r4,r2,558c <__subdf3+0x5d0>
    5304:	8989c83a 	sub	r4,r17,r6
    5308:	8905803a 	cmpltu	r2,r17,r4
    530c:	1967c83a 	sub	r19,r3,r5
    5310:	98a7c83a 	sub	r19,r19,r2
    5314:	9880202c 	andhi	r2,r19,128
    5318:	10006326 	beq	r2,zero,54a8 <__subdf3+0x4ec>
    531c:	3463c83a 	sub	r17,r6,r17
    5320:	28c7c83a 	sub	r3,r5,r3
    5324:	344d803a 	cmpltu	r6,r6,r17
    5328:	19a7c83a 	sub	r19,r3,r6
    532c:	3825883a 	mov	r18,r7
    5330:	983f861e 	bne	r19,zero,514c <__alt_mem_VGA_Subsystem_Char_Buf_Subsystem_Onchip_SRAM+0xf700514c>
    5334:	8809883a 	mov	r4,r17
    5338:	0005abc0 	call	5abc <__clzsi2>
    533c:	10800804 	addi	r2,r2,32
    5340:	113ffe04 	addi	r4,r2,-8
    5344:	00c007c4 	movi	r3,31
    5348:	193f850e 	bge	r3,r4,5160 <__alt_mem_VGA_Subsystem_Char_Buf_Subsystem_Onchip_SRAM+0xf7005160>
    534c:	10bff604 	addi	r2,r2,-40
    5350:	8884983a 	sll	r2,r17,r2
    5354:	0023883a 	mov	r17,zero
    5358:	243f880e 	bge	r4,r16,517c <__alt_mem_VGA_Subsystem_Char_Buf_Subsystem_Onchip_SRAM+0xf700517c>
    535c:	00ffe034 	movhi	r3,65408
    5360:	18ffffc4 	addi	r3,r3,-1
    5364:	8121c83a 	sub	r16,r16,r4
    5368:	10c6703a 	and	r3,r2,r3
    536c:	003f3406 	br	5040 <__alt_mem_VGA_Subsystem_Char_Buf_Subsystem_Onchip_SRAM+0xf7005040>
    5370:	9100004c 	andi	r4,r18,1
    5374:	000b883a 	mov	r5,zero
    5378:	0005883a 	mov	r2,zero
    537c:	003f4806 	br	50a0 <__alt_mem_VGA_Subsystem_Char_Buf_Subsystem_Onchip_SRAM+0xf70050a0>
    5380:	298cb03a 	or	r6,r5,r6
    5384:	300cc03a 	cmpne	r6,r6,zero
    5388:	0005883a 	mov	r2,zero
    538c:	003f6406 	br	5120 <__alt_mem_VGA_Subsystem_Char_Buf_Subsystem_Onchip_SRAM+0xf7005120>
    5390:	10009a1e 	bne	r2,zero,55fc <__subdf3+0x640>
    5394:	82400044 	addi	r9,r16,1
    5398:	4881ffcc 	andi	r2,r9,2047
    539c:	02800044 	movi	r10,1
    53a0:	5080670e 	bge	r10,r2,5540 <__subdf3+0x584>
    53a4:	0081ffc4 	movi	r2,2047
    53a8:	4880af26 	beq	r9,r2,5668 <__subdf3+0x6ac>
    53ac:	898d883a 	add	r6,r17,r6
    53b0:	1945883a 	add	r2,r3,r5
    53b4:	3447803a 	cmpltu	r3,r6,r17
    53b8:	1887883a 	add	r3,r3,r2
    53bc:	182297fa 	slli	r17,r3,31
    53c0:	300cd07a 	srli	r6,r6,1
    53c4:	1806d07a 	srli	r3,r3,1
    53c8:	4821883a 	mov	r16,r9
    53cc:	89a2b03a 	or	r17,r17,r6
    53d0:	003f1b06 	br	5040 <__alt_mem_VGA_Subsystem_Char_Buf_Subsystem_Onchip_SRAM+0xf7005040>
    53d4:	0101ffc4 	movi	r4,2047
    53d8:	813f441e 	bne	r16,r4,50ec <__alt_mem_VGA_Subsystem_Char_Buf_Subsystem_Onchip_SRAM+0xf70050ec>
    53dc:	003f1806 	br	5040 <__alt_mem_VGA_Subsystem_Char_Buf_Subsystem_Onchip_SRAM+0xf7005040>
    53e0:	843ff844 	addi	r16,r16,-31
    53e4:	01400804 	movi	r5,32
    53e8:	1408d83a 	srl	r4,r2,r16
    53ec:	19405026 	beq	r3,r5,5530 <__subdf3+0x574>
    53f0:	01401004 	movi	r5,64
    53f4:	28c7c83a 	sub	r3,r5,r3
    53f8:	10c4983a 	sll	r2,r2,r3
    53fc:	88a2b03a 	or	r17,r17,r2
    5400:	8822c03a 	cmpne	r17,r17,zero
    5404:	2462b03a 	or	r17,r4,r17
    5408:	0007883a 	mov	r3,zero
    540c:	0021883a 	mov	r16,zero
    5410:	003f6d06 	br	51c8 <__alt_mem_VGA_Subsystem_Char_Buf_Subsystem_Onchip_SRAM+0xf70051c8>
    5414:	11fff804 	addi	r7,r2,-32
    5418:	01000804 	movi	r4,32
    541c:	29ced83a 	srl	r7,r5,r7
    5420:	11004526 	beq	r2,r4,5538 <__subdf3+0x57c>
    5424:	01001004 	movi	r4,64
    5428:	2089c83a 	sub	r4,r4,r2
    542c:	2904983a 	sll	r2,r5,r4
    5430:	118cb03a 	or	r6,r2,r6
    5434:	300cc03a 	cmpne	r6,r6,zero
    5438:	398cb03a 	or	r6,r7,r6
    543c:	0005883a 	mov	r2,zero
    5440:	003f3706 	br	5120 <__alt_mem_VGA_Subsystem_Char_Buf_Subsystem_Onchip_SRAM+0xf7005120>
    5444:	80002a26 	beq	r16,zero,54f0 <__subdf3+0x534>
    5448:	0101ffc4 	movi	r4,2047
    544c:	49006626 	beq	r9,r4,55e8 <__subdf3+0x62c>
    5450:	0085c83a 	sub	r2,zero,r2
    5454:	18c02034 	orhi	r3,r3,128
    5458:	01000e04 	movi	r4,56
    545c:	20807e16 	blt	r4,r2,5658 <__subdf3+0x69c>
    5460:	010007c4 	movi	r4,31
    5464:	2080e716 	blt	r4,r2,5804 <__subdf3+0x848>
    5468:	01000804 	movi	r4,32
    546c:	2089c83a 	sub	r4,r4,r2
    5470:	1914983a 	sll	r10,r3,r4
    5474:	8890d83a 	srl	r8,r17,r2
    5478:	8908983a 	sll	r4,r17,r4
    547c:	1884d83a 	srl	r2,r3,r2
    5480:	5222b03a 	or	r17,r10,r8
    5484:	2006c03a 	cmpne	r3,r4,zero
    5488:	88e2b03a 	or	r17,r17,r3
    548c:	3463c83a 	sub	r17,r6,r17
    5490:	2885c83a 	sub	r2,r5,r2
    5494:	344d803a 	cmpltu	r6,r6,r17
    5498:	1187c83a 	sub	r3,r2,r6
    549c:	4821883a 	mov	r16,r9
    54a0:	3825883a 	mov	r18,r7
    54a4:	003f2306 	br	5134 <__alt_mem_VGA_Subsystem_Char_Buf_Subsystem_Onchip_SRAM+0xf7005134>
    54a8:	24d0b03a 	or	r8,r4,r19
    54ac:	40001b1e 	bne	r8,zero,551c <__subdf3+0x560>
    54b0:	0005883a 	mov	r2,zero
    54b4:	0009883a 	mov	r4,zero
    54b8:	0021883a 	mov	r16,zero
    54bc:	003f4906 	br	51e4 <__alt_mem_VGA_Subsystem_Char_Buf_Subsystem_Onchip_SRAM+0xf70051e4>
    54c0:	010007c4 	movi	r4,31
    54c4:	20803a16 	blt	r4,r2,55b0 <__subdf3+0x5f4>
    54c8:	01000804 	movi	r4,32
    54cc:	2089c83a 	sub	r4,r4,r2
    54d0:	2912983a 	sll	r9,r5,r4
    54d4:	3090d83a 	srl	r8,r6,r2
    54d8:	3108983a 	sll	r4,r6,r4
    54dc:	2884d83a 	srl	r2,r5,r2
    54e0:	4a12b03a 	or	r9,r9,r8
    54e4:	2008c03a 	cmpne	r4,r4,zero
    54e8:	4912b03a 	or	r9,r9,r4
    54ec:	003f4e06 	br	5228 <__alt_mem_VGA_Subsystem_Char_Buf_Subsystem_Onchip_SRAM+0xf7005228>
    54f0:	1c48b03a 	or	r4,r3,r17
    54f4:	20003c26 	beq	r4,zero,55e8 <__subdf3+0x62c>
    54f8:	0084303a 	nor	r2,zero,r2
    54fc:	1000381e 	bne	r2,zero,55e0 <__subdf3+0x624>
    5500:	3463c83a 	sub	r17,r6,r17
    5504:	28c5c83a 	sub	r2,r5,r3
    5508:	344d803a 	cmpltu	r6,r6,r17
    550c:	1187c83a 	sub	r3,r2,r6
    5510:	4821883a 	mov	r16,r9
    5514:	3825883a 	mov	r18,r7
    5518:	003f0606 	br	5134 <__alt_mem_VGA_Subsystem_Char_Buf_Subsystem_Onchip_SRAM+0xf7005134>
    551c:	2023883a 	mov	r17,r4
    5520:	003f0906 	br	5148 <__alt_mem_VGA_Subsystem_Char_Buf_Subsystem_Onchip_SRAM+0xf7005148>
    5524:	0101ffc4 	movi	r4,2047
    5528:	813f3a1e 	bne	r16,r4,5214 <__alt_mem_VGA_Subsystem_Char_Buf_Subsystem_Onchip_SRAM+0xf7005214>
    552c:	003ec406 	br	5040 <__alt_mem_VGA_Subsystem_Char_Buf_Subsystem_Onchip_SRAM+0xf7005040>
    5530:	0005883a 	mov	r2,zero
    5534:	003fb106 	br	53fc <__alt_mem_VGA_Subsystem_Char_Buf_Subsystem_Onchip_SRAM+0xf70053fc>
    5538:	0005883a 	mov	r2,zero
    553c:	003fbc06 	br	5430 <__alt_mem_VGA_Subsystem_Char_Buf_Subsystem_Onchip_SRAM+0xf7005430>
    5540:	1c44b03a 	or	r2,r3,r17
    5544:	80008e1e 	bne	r16,zero,5780 <__subdf3+0x7c4>
    5548:	1000c826 	beq	r2,zero,586c <__subdf3+0x8b0>
    554c:	2984b03a 	or	r2,r5,r6
    5550:	103ebb26 	beq	r2,zero,5040 <__alt_mem_VGA_Subsystem_Char_Buf_Subsystem_Onchip_SRAM+0xf7005040>
    5554:	8989883a 	add	r4,r17,r6
    5558:	1945883a 	add	r2,r3,r5
    555c:	2447803a 	cmpltu	r3,r4,r17
    5560:	1887883a 	add	r3,r3,r2
    5564:	1880202c 	andhi	r2,r3,128
    5568:	2023883a 	mov	r17,r4
    556c:	103f1626 	beq	r2,zero,51c8 <__alt_mem_VGA_Subsystem_Char_Buf_Subsystem_Onchip_SRAM+0xf70051c8>
    5570:	00bfe034 	movhi	r2,65408
    5574:	10bfffc4 	addi	r2,r2,-1
    5578:	5021883a 	mov	r16,r10
    557c:	1886703a 	and	r3,r3,r2
    5580:	003eaf06 	br	5040 <__alt_mem_VGA_Subsystem_Char_Buf_Subsystem_Onchip_SRAM+0xf7005040>
    5584:	3825883a 	mov	r18,r7
    5588:	003f0f06 	br	51c8 <__alt_mem_VGA_Subsystem_Char_Buf_Subsystem_Onchip_SRAM+0xf70051c8>
    558c:	1c44b03a 	or	r2,r3,r17
    5590:	8000251e 	bne	r16,zero,5628 <__subdf3+0x66c>
    5594:	1000661e 	bne	r2,zero,5730 <__subdf3+0x774>
    5598:	2990b03a 	or	r8,r5,r6
    559c:	40009626 	beq	r8,zero,57f8 <__subdf3+0x83c>
    55a0:	2807883a 	mov	r3,r5
    55a4:	3023883a 	mov	r17,r6
    55a8:	3825883a 	mov	r18,r7
    55ac:	003ea406 	br	5040 <__alt_mem_VGA_Subsystem_Char_Buf_Subsystem_Onchip_SRAM+0xf7005040>
    55b0:	127ff804 	addi	r9,r2,-32
    55b4:	01000804 	movi	r4,32
    55b8:	2a52d83a 	srl	r9,r5,r9
    55bc:	11008c26 	beq	r2,r4,57f0 <__subdf3+0x834>
    55c0:	01001004 	movi	r4,64
    55c4:	2085c83a 	sub	r2,r4,r2
    55c8:	2884983a 	sll	r2,r5,r2
    55cc:	118cb03a 	or	r6,r2,r6
    55d0:	300cc03a 	cmpne	r6,r6,zero
    55d4:	4992b03a 	or	r9,r9,r6
    55d8:	0005883a 	mov	r2,zero
    55dc:	003f1206 	br	5228 <__alt_mem_VGA_Subsystem_Char_Buf_Subsystem_Onchip_SRAM+0xf7005228>
    55e0:	0101ffc4 	movi	r4,2047
    55e4:	493f9c1e 	bne	r9,r4,5458 <__alt_mem_VGA_Subsystem_Char_Buf_Subsystem_Onchip_SRAM+0xf7005458>
    55e8:	2807883a 	mov	r3,r5
    55ec:	3023883a 	mov	r17,r6
    55f0:	4821883a 	mov	r16,r9
    55f4:	3825883a 	mov	r18,r7
    55f8:	003e9106 	br	5040 <__alt_mem_VGA_Subsystem_Char_Buf_Subsystem_Onchip_SRAM+0xf7005040>
    55fc:	80001f1e 	bne	r16,zero,567c <__subdf3+0x6c0>
    5600:	1c48b03a 	or	r4,r3,r17
    5604:	20005a26 	beq	r4,zero,5770 <__subdf3+0x7b4>
    5608:	0084303a 	nor	r2,zero,r2
    560c:	1000561e 	bne	r2,zero,5768 <__subdf3+0x7ac>
    5610:	89a3883a 	add	r17,r17,r6
    5614:	1945883a 	add	r2,r3,r5
    5618:	898d803a 	cmpltu	r6,r17,r6
    561c:	3087883a 	add	r3,r6,r2
    5620:	4821883a 	mov	r16,r9
    5624:	003f0506 	br	523c <__alt_mem_VGA_Subsystem_Char_Buf_Subsystem_Onchip_SRAM+0xf700523c>
    5628:	10002b1e 	bne	r2,zero,56d8 <__subdf3+0x71c>
    562c:	2984b03a 	or	r2,r5,r6
    5630:	10008026 	beq	r2,zero,5834 <__subdf3+0x878>
    5634:	2807883a 	mov	r3,r5
    5638:	3023883a 	mov	r17,r6
    563c:	3825883a 	mov	r18,r7
    5640:	0401ffc4 	movi	r16,2047
    5644:	003e7e06 	br	5040 <__alt_mem_VGA_Subsystem_Char_Buf_Subsystem_Onchip_SRAM+0xf7005040>
    5648:	3809883a 	mov	r4,r7
    564c:	0011883a 	mov	r8,zero
    5650:	0005883a 	mov	r2,zero
    5654:	003ee306 	br	51e4 <__alt_mem_VGA_Subsystem_Char_Buf_Subsystem_Onchip_SRAM+0xf70051e4>
    5658:	1c62b03a 	or	r17,r3,r17
    565c:	8822c03a 	cmpne	r17,r17,zero
    5660:	0005883a 	mov	r2,zero
    5664:	003f8906 	br	548c <__alt_mem_VGA_Subsystem_Char_Buf_Subsystem_Onchip_SRAM+0xf700548c>
    5668:	3809883a 	mov	r4,r7
    566c:	4821883a 	mov	r16,r9
    5670:	0011883a 	mov	r8,zero
    5674:	0005883a 	mov	r2,zero
    5678:	003eda06 	br	51e4 <__alt_mem_VGA_Subsystem_Char_Buf_Subsystem_Onchip_SRAM+0xf70051e4>
    567c:	0101ffc4 	movi	r4,2047
    5680:	49003b26 	beq	r9,r4,5770 <__subdf3+0x7b4>
    5684:	0085c83a 	sub	r2,zero,r2
    5688:	18c02034 	orhi	r3,r3,128
    568c:	01000e04 	movi	r4,56
    5690:	20806e16 	blt	r4,r2,584c <__subdf3+0x890>
    5694:	010007c4 	movi	r4,31
    5698:	20807716 	blt	r4,r2,5878 <__subdf3+0x8bc>
    569c:	01000804 	movi	r4,32
    56a0:	2089c83a 	sub	r4,r4,r2
    56a4:	1914983a 	sll	r10,r3,r4
    56a8:	8890d83a 	srl	r8,r17,r2
    56ac:	8908983a 	sll	r4,r17,r4
    56b0:	1884d83a 	srl	r2,r3,r2
    56b4:	5222b03a 	or	r17,r10,r8
    56b8:	2006c03a 	cmpne	r3,r4,zero
    56bc:	88e2b03a 	or	r17,r17,r3
    56c0:	89a3883a 	add	r17,r17,r6
    56c4:	1145883a 	add	r2,r2,r5
    56c8:	898d803a 	cmpltu	r6,r17,r6
    56cc:	3087883a 	add	r3,r6,r2
    56d0:	4821883a 	mov	r16,r9
    56d4:	003ed906 	br	523c <__alt_mem_VGA_Subsystem_Char_Buf_Subsystem_Onchip_SRAM+0xf700523c>
    56d8:	2984b03a 	or	r2,r5,r6
    56dc:	10004226 	beq	r2,zero,57e8 <__subdf3+0x82c>
    56e0:	1808d0fa 	srli	r4,r3,3
    56e4:	8822d0fa 	srli	r17,r17,3
    56e8:	1806977a 	slli	r3,r3,29
    56ec:	2080022c 	andhi	r2,r4,8
    56f0:	1c62b03a 	or	r17,r3,r17
    56f4:	10000826 	beq	r2,zero,5718 <__subdf3+0x75c>
    56f8:	2812d0fa 	srli	r9,r5,3
    56fc:	4880022c 	andhi	r2,r9,8
    5700:	1000051e 	bne	r2,zero,5718 <__subdf3+0x75c>
    5704:	300cd0fa 	srli	r6,r6,3
    5708:	2804977a 	slli	r2,r5,29
    570c:	4809883a 	mov	r4,r9
    5710:	3825883a 	mov	r18,r7
    5714:	11a2b03a 	or	r17,r2,r6
    5718:	8806d77a 	srli	r3,r17,29
    571c:	200890fa 	slli	r4,r4,3
    5720:	882290fa 	slli	r17,r17,3
    5724:	0401ffc4 	movi	r16,2047
    5728:	1906b03a 	or	r3,r3,r4
    572c:	003e4406 	br	5040 <__alt_mem_VGA_Subsystem_Char_Buf_Subsystem_Onchip_SRAM+0xf7005040>
    5730:	2984b03a 	or	r2,r5,r6
    5734:	103e4226 	beq	r2,zero,5040 <__alt_mem_VGA_Subsystem_Char_Buf_Subsystem_Onchip_SRAM+0xf7005040>
    5738:	8989c83a 	sub	r4,r17,r6
    573c:	8911803a 	cmpltu	r8,r17,r4
    5740:	1945c83a 	sub	r2,r3,r5
    5744:	1205c83a 	sub	r2,r2,r8
    5748:	1200202c 	andhi	r8,r2,128
    574c:	403e9a26 	beq	r8,zero,51b8 <__alt_mem_VGA_Subsystem_Char_Buf_Subsystem_Onchip_SRAM+0xf70051b8>
    5750:	3463c83a 	sub	r17,r6,r17
    5754:	28c5c83a 	sub	r2,r5,r3
    5758:	344d803a 	cmpltu	r6,r6,r17
    575c:	1187c83a 	sub	r3,r2,r6
    5760:	3825883a 	mov	r18,r7
    5764:	003e3606 	br	5040 <__alt_mem_VGA_Subsystem_Char_Buf_Subsystem_Onchip_SRAM+0xf7005040>
    5768:	0101ffc4 	movi	r4,2047
    576c:	493fc71e 	bne	r9,r4,568c <__alt_mem_VGA_Subsystem_Char_Buf_Subsystem_Onchip_SRAM+0xf700568c>
    5770:	2807883a 	mov	r3,r5
    5774:	3023883a 	mov	r17,r6
    5778:	4821883a 	mov	r16,r9
    577c:	003e3006 	br	5040 <__alt_mem_VGA_Subsystem_Char_Buf_Subsystem_Onchip_SRAM+0xf7005040>
    5780:	10003626 	beq	r2,zero,585c <__subdf3+0x8a0>
    5784:	2984b03a 	or	r2,r5,r6
    5788:	10001726 	beq	r2,zero,57e8 <__subdf3+0x82c>
    578c:	1808d0fa 	srli	r4,r3,3
    5790:	8822d0fa 	srli	r17,r17,3
    5794:	1806977a 	slli	r3,r3,29
    5798:	2080022c 	andhi	r2,r4,8
    579c:	1c62b03a 	or	r17,r3,r17
    57a0:	10000726 	beq	r2,zero,57c0 <__subdf3+0x804>
    57a4:	2812d0fa 	srli	r9,r5,3
    57a8:	4880022c 	andhi	r2,r9,8
    57ac:	1000041e 	bne	r2,zero,57c0 <__subdf3+0x804>
    57b0:	300cd0fa 	srli	r6,r6,3
    57b4:	2804977a 	slli	r2,r5,29
    57b8:	4809883a 	mov	r4,r9
    57bc:	11a2b03a 	or	r17,r2,r6
    57c0:	8806d77a 	srli	r3,r17,29
    57c4:	200890fa 	slli	r4,r4,3
    57c8:	882290fa 	slli	r17,r17,3
    57cc:	3825883a 	mov	r18,r7
    57d0:	1906b03a 	or	r3,r3,r4
    57d4:	0401ffc4 	movi	r16,2047
    57d8:	003e1906 	br	5040 <__alt_mem_VGA_Subsystem_Char_Buf_Subsystem_Onchip_SRAM+0xf7005040>
    57dc:	000b883a 	mov	r5,zero
    57e0:	0005883a 	mov	r2,zero
    57e4:	003e2e06 	br	50a0 <__alt_mem_VGA_Subsystem_Char_Buf_Subsystem_Onchip_SRAM+0xf70050a0>
    57e8:	0401ffc4 	movi	r16,2047
    57ec:	003e1406 	br	5040 <__alt_mem_VGA_Subsystem_Char_Buf_Subsystem_Onchip_SRAM+0xf7005040>
    57f0:	0005883a 	mov	r2,zero
    57f4:	003f7506 	br	55cc <__alt_mem_VGA_Subsystem_Char_Buf_Subsystem_Onchip_SRAM+0xf70055cc>
    57f8:	0005883a 	mov	r2,zero
    57fc:	0009883a 	mov	r4,zero
    5800:	003e7806 	br	51e4 <__alt_mem_VGA_Subsystem_Char_Buf_Subsystem_Onchip_SRAM+0xf70051e4>
    5804:	123ff804 	addi	r8,r2,-32
    5808:	01000804 	movi	r4,32
    580c:	1a10d83a 	srl	r8,r3,r8
    5810:	11002526 	beq	r2,r4,58a8 <__subdf3+0x8ec>
    5814:	01001004 	movi	r4,64
    5818:	2085c83a 	sub	r2,r4,r2
    581c:	1884983a 	sll	r2,r3,r2
    5820:	1444b03a 	or	r2,r2,r17
    5824:	1004c03a 	cmpne	r2,r2,zero
    5828:	40a2b03a 	or	r17,r8,r2
    582c:	0005883a 	mov	r2,zero
    5830:	003f1606 	br	548c <__alt_mem_VGA_Subsystem_Char_Buf_Subsystem_Onchip_SRAM+0xf700548c>
    5834:	02000434 	movhi	r8,16
    5838:	0009883a 	mov	r4,zero
    583c:	423fffc4 	addi	r8,r8,-1
    5840:	00bfffc4 	movi	r2,-1
    5844:	0401ffc4 	movi	r16,2047
    5848:	003e6606 	br	51e4 <__alt_mem_VGA_Subsystem_Char_Buf_Subsystem_Onchip_SRAM+0xf70051e4>
    584c:	1c62b03a 	or	r17,r3,r17
    5850:	8822c03a 	cmpne	r17,r17,zero
    5854:	0005883a 	mov	r2,zero
    5858:	003f9906 	br	56c0 <__alt_mem_VGA_Subsystem_Char_Buf_Subsystem_Onchip_SRAM+0xf70056c0>
    585c:	2807883a 	mov	r3,r5
    5860:	3023883a 	mov	r17,r6
    5864:	0401ffc4 	movi	r16,2047
    5868:	003df506 	br	5040 <__alt_mem_VGA_Subsystem_Char_Buf_Subsystem_Onchip_SRAM+0xf7005040>
    586c:	2807883a 	mov	r3,r5
    5870:	3023883a 	mov	r17,r6
    5874:	003df206 	br	5040 <__alt_mem_VGA_Subsystem_Char_Buf_Subsystem_Onchip_SRAM+0xf7005040>
    5878:	123ff804 	addi	r8,r2,-32
    587c:	01000804 	movi	r4,32
    5880:	1a10d83a 	srl	r8,r3,r8
    5884:	11000a26 	beq	r2,r4,58b0 <__subdf3+0x8f4>
    5888:	01001004 	movi	r4,64
    588c:	2085c83a 	sub	r2,r4,r2
    5890:	1884983a 	sll	r2,r3,r2
    5894:	1444b03a 	or	r2,r2,r17
    5898:	1004c03a 	cmpne	r2,r2,zero
    589c:	40a2b03a 	or	r17,r8,r2
    58a0:	0005883a 	mov	r2,zero
    58a4:	003f8606 	br	56c0 <__alt_mem_VGA_Subsystem_Char_Buf_Subsystem_Onchip_SRAM+0xf70056c0>
    58a8:	0005883a 	mov	r2,zero
    58ac:	003fdc06 	br	5820 <__alt_mem_VGA_Subsystem_Char_Buf_Subsystem_Onchip_SRAM+0xf7005820>
    58b0:	0005883a 	mov	r2,zero
    58b4:	003ff706 	br	5894 <__alt_mem_VGA_Subsystem_Char_Buf_Subsystem_Onchip_SRAM+0xf7005894>

000058b8 <__fixdfsi>:
    58b8:	280cd53a 	srli	r6,r5,20
    58bc:	00c00434 	movhi	r3,16
    58c0:	18ffffc4 	addi	r3,r3,-1
    58c4:	3181ffcc 	andi	r6,r6,2047
    58c8:	01c0ff84 	movi	r7,1022
    58cc:	28c6703a 	and	r3,r5,r3
    58d0:	280ad7fa 	srli	r5,r5,31
    58d4:	3980120e 	bge	r7,r6,5920 <__fixdfsi+0x68>
    58d8:	00810744 	movi	r2,1053
    58dc:	11800c16 	blt	r2,r6,5910 <__fixdfsi+0x58>
    58e0:	00810cc4 	movi	r2,1075
    58e4:	1185c83a 	sub	r2,r2,r6
    58e8:	01c007c4 	movi	r7,31
    58ec:	18c00434 	orhi	r3,r3,16
    58f0:	38800d16 	blt	r7,r2,5928 <__fixdfsi+0x70>
    58f4:	31befb44 	addi	r6,r6,-1043
    58f8:	2084d83a 	srl	r2,r4,r2
    58fc:	1986983a 	sll	r3,r3,r6
    5900:	1884b03a 	or	r2,r3,r2
    5904:	28000726 	beq	r5,zero,5924 <__fixdfsi+0x6c>
    5908:	0085c83a 	sub	r2,zero,r2
    590c:	f800283a 	ret
    5910:	00a00034 	movhi	r2,32768
    5914:	10bfffc4 	addi	r2,r2,-1
    5918:	2885883a 	add	r2,r5,r2
    591c:	f800283a 	ret
    5920:	0005883a 	mov	r2,zero
    5924:	f800283a 	ret
    5928:	008104c4 	movi	r2,1043
    592c:	1185c83a 	sub	r2,r2,r6
    5930:	1884d83a 	srl	r2,r3,r2
    5934:	003ff306 	br	5904 <__alt_mem_VGA_Subsystem_Char_Buf_Subsystem_Onchip_SRAM+0xf7005904>

00005938 <__floatsidf>:
    5938:	defffd04 	addi	sp,sp,-12
    593c:	dfc00215 	stw	ra,8(sp)
    5940:	dc400115 	stw	r17,4(sp)
    5944:	dc000015 	stw	r16,0(sp)
    5948:	20002b26 	beq	r4,zero,59f8 <__floatsidf+0xc0>
    594c:	2023883a 	mov	r17,r4
    5950:	2020d7fa 	srli	r16,r4,31
    5954:	20002d16 	blt	r4,zero,5a0c <__floatsidf+0xd4>
    5958:	8809883a 	mov	r4,r17
    595c:	0005abc0 	call	5abc <__clzsi2>
    5960:	01410784 	movi	r5,1054
    5964:	288bc83a 	sub	r5,r5,r2
    5968:	01010cc4 	movi	r4,1075
    596c:	2149c83a 	sub	r4,r4,r5
    5970:	00c007c4 	movi	r3,31
    5974:	1900160e 	bge	r3,r4,59d0 <__floatsidf+0x98>
    5978:	00c104c4 	movi	r3,1043
    597c:	1947c83a 	sub	r3,r3,r5
    5980:	88c6983a 	sll	r3,r17,r3
    5984:	00800434 	movhi	r2,16
    5988:	10bfffc4 	addi	r2,r2,-1
    598c:	1886703a 	and	r3,r3,r2
    5990:	2941ffcc 	andi	r5,r5,2047
    5994:	800d883a 	mov	r6,r16
    5998:	0005883a 	mov	r2,zero
    599c:	280a953a 	slli	r5,r5,20
    59a0:	31803fcc 	andi	r6,r6,255
    59a4:	01000434 	movhi	r4,16
    59a8:	300c97fa 	slli	r6,r6,31
    59ac:	213fffc4 	addi	r4,r4,-1
    59b0:	1906703a 	and	r3,r3,r4
    59b4:	1946b03a 	or	r3,r3,r5
    59b8:	1986b03a 	or	r3,r3,r6
    59bc:	dfc00217 	ldw	ra,8(sp)
    59c0:	dc400117 	ldw	r17,4(sp)
    59c4:	dc000017 	ldw	r16,0(sp)
    59c8:	dec00304 	addi	sp,sp,12
    59cc:	f800283a 	ret
    59d0:	00c002c4 	movi	r3,11
    59d4:	1887c83a 	sub	r3,r3,r2
    59d8:	88c6d83a 	srl	r3,r17,r3
    59dc:	8904983a 	sll	r2,r17,r4
    59e0:	01000434 	movhi	r4,16
    59e4:	213fffc4 	addi	r4,r4,-1
    59e8:	2941ffcc 	andi	r5,r5,2047
    59ec:	1906703a 	and	r3,r3,r4
    59f0:	800d883a 	mov	r6,r16
    59f4:	003fe906 	br	599c <__alt_mem_VGA_Subsystem_Char_Buf_Subsystem_Onchip_SRAM+0xf700599c>
    59f8:	000d883a 	mov	r6,zero
    59fc:	000b883a 	mov	r5,zero
    5a00:	0007883a 	mov	r3,zero
    5a04:	0005883a 	mov	r2,zero
    5a08:	003fe406 	br	599c <__alt_mem_VGA_Subsystem_Char_Buf_Subsystem_Onchip_SRAM+0xf700599c>
    5a0c:	0123c83a 	sub	r17,zero,r4
    5a10:	003fd106 	br	5958 <__alt_mem_VGA_Subsystem_Char_Buf_Subsystem_Onchip_SRAM+0xf7005958>

00005a14 <__floatunsidf>:
    5a14:	defffe04 	addi	sp,sp,-8
    5a18:	dc000015 	stw	r16,0(sp)
    5a1c:	dfc00115 	stw	ra,4(sp)
    5a20:	2021883a 	mov	r16,r4
    5a24:	20002226 	beq	r4,zero,5ab0 <__floatunsidf+0x9c>
    5a28:	0005abc0 	call	5abc <__clzsi2>
    5a2c:	01010784 	movi	r4,1054
    5a30:	2089c83a 	sub	r4,r4,r2
    5a34:	01810cc4 	movi	r6,1075
    5a38:	310dc83a 	sub	r6,r6,r4
    5a3c:	00c007c4 	movi	r3,31
    5a40:	1980120e 	bge	r3,r6,5a8c <__floatunsidf+0x78>
    5a44:	00c104c4 	movi	r3,1043
    5a48:	1907c83a 	sub	r3,r3,r4
    5a4c:	80ca983a 	sll	r5,r16,r3
    5a50:	00800434 	movhi	r2,16
    5a54:	10bfffc4 	addi	r2,r2,-1
    5a58:	2101ffcc 	andi	r4,r4,2047
    5a5c:	0021883a 	mov	r16,zero
    5a60:	288a703a 	and	r5,r5,r2
    5a64:	2008953a 	slli	r4,r4,20
    5a68:	00c00434 	movhi	r3,16
    5a6c:	18ffffc4 	addi	r3,r3,-1
    5a70:	28c6703a 	and	r3,r5,r3
    5a74:	8005883a 	mov	r2,r16
    5a78:	1906b03a 	or	r3,r3,r4
    5a7c:	dfc00117 	ldw	ra,4(sp)
    5a80:	dc000017 	ldw	r16,0(sp)
    5a84:	dec00204 	addi	sp,sp,8
    5a88:	f800283a 	ret
    5a8c:	00c002c4 	movi	r3,11
    5a90:	188bc83a 	sub	r5,r3,r2
    5a94:	814ad83a 	srl	r5,r16,r5
    5a98:	00c00434 	movhi	r3,16
    5a9c:	18ffffc4 	addi	r3,r3,-1
    5aa0:	81a0983a 	sll	r16,r16,r6
    5aa4:	2101ffcc 	andi	r4,r4,2047
    5aa8:	28ca703a 	and	r5,r5,r3
    5aac:	003fed06 	br	5a64 <__alt_mem_VGA_Subsystem_Char_Buf_Subsystem_Onchip_SRAM+0xf7005a64>
    5ab0:	0009883a 	mov	r4,zero
    5ab4:	000b883a 	mov	r5,zero
    5ab8:	003fea06 	br	5a64 <__alt_mem_VGA_Subsystem_Char_Buf_Subsystem_Onchip_SRAM+0xf7005a64>

00005abc <__clzsi2>:
    5abc:	00bfffd4 	movui	r2,65535
    5ac0:	11000536 	bltu	r2,r4,5ad8 <__clzsi2+0x1c>
    5ac4:	00803fc4 	movi	r2,255
    5ac8:	11000f36 	bltu	r2,r4,5b08 <__clzsi2+0x4c>
    5acc:	00800804 	movi	r2,32
    5ad0:	0007883a 	mov	r3,zero
    5ad4:	00000506 	br	5aec <__clzsi2+0x30>
    5ad8:	00804034 	movhi	r2,256
    5adc:	10bfffc4 	addi	r2,r2,-1
    5ae0:	11000c2e 	bgeu	r2,r4,5b14 <__clzsi2+0x58>
    5ae4:	00800204 	movi	r2,8
    5ae8:	00c00604 	movi	r3,24
    5aec:	20c8d83a 	srl	r4,r4,r3
    5af0:	00c00074 	movhi	r3,1
    5af4:	18cc4804 	addi	r3,r3,12576
    5af8:	1909883a 	add	r4,r3,r4
    5afc:	20c00003 	ldbu	r3,0(r4)
    5b00:	10c5c83a 	sub	r2,r2,r3
    5b04:	f800283a 	ret
    5b08:	00800604 	movi	r2,24
    5b0c:	00c00204 	movi	r3,8
    5b10:	003ff606 	br	5aec <__alt_mem_VGA_Subsystem_Char_Buf_Subsystem_Onchip_SRAM+0xf7005aec>
    5b14:	00800404 	movi	r2,16
    5b18:	1007883a 	mov	r3,r2
    5b1c:	003ff306 	br	5aec <__alt_mem_VGA_Subsystem_Char_Buf_Subsystem_Onchip_SRAM+0xf7005aec>

00005b20 <_printf_r>:
    5b20:	defffd04 	addi	sp,sp,-12
    5b24:	2805883a 	mov	r2,r5
    5b28:	dfc00015 	stw	ra,0(sp)
    5b2c:	d9800115 	stw	r6,4(sp)
    5b30:	d9c00215 	stw	r7,8(sp)
    5b34:	21400217 	ldw	r5,8(r4)
    5b38:	d9c00104 	addi	r7,sp,4
    5b3c:	100d883a 	mov	r6,r2
    5b40:	0005b8c0 	call	5b8c <___vfprintf_internal_r>
    5b44:	dfc00017 	ldw	ra,0(sp)
    5b48:	dec00304 	addi	sp,sp,12
    5b4c:	f800283a 	ret

00005b50 <printf>:
    5b50:	defffc04 	addi	sp,sp,-16
    5b54:	dfc00015 	stw	ra,0(sp)
    5b58:	d9400115 	stw	r5,4(sp)
    5b5c:	d9800215 	stw	r6,8(sp)
    5b60:	d9c00315 	stw	r7,12(sp)
    5b64:	00800074 	movhi	r2,1
    5b68:	10941104 	addi	r2,r2,20548
    5b6c:	10800017 	ldw	r2,0(r2)
    5b70:	200b883a 	mov	r5,r4
    5b74:	d9800104 	addi	r6,sp,4
    5b78:	11000217 	ldw	r4,8(r2)
    5b7c:	0007e680 	call	7e68 <__vfprintf_internal>
    5b80:	dfc00017 	ldw	ra,0(sp)
    5b84:	dec00404 	addi	sp,sp,16
    5b88:	f800283a 	ret

00005b8c <___vfprintf_internal_r>:
    5b8c:	deffb804 	addi	sp,sp,-288
    5b90:	dfc04715 	stw	ra,284(sp)
    5b94:	ddc04515 	stw	r23,276(sp)
    5b98:	dd404315 	stw	r21,268(sp)
    5b9c:	d9002d15 	stw	r4,180(sp)
    5ba0:	282f883a 	mov	r23,r5
    5ba4:	302b883a 	mov	r21,r6
    5ba8:	d9c02e15 	stw	r7,184(sp)
    5bac:	df004615 	stw	fp,280(sp)
    5bb0:	dd804415 	stw	r22,272(sp)
    5bb4:	dd004215 	stw	r20,264(sp)
    5bb8:	dcc04115 	stw	r19,260(sp)
    5bbc:	dc804015 	stw	r18,256(sp)
    5bc0:	dc403f15 	stw	r17,252(sp)
    5bc4:	dc003e15 	stw	r16,248(sp)
    5bc8:	000a6040 	call	a604 <_localeconv_r>
    5bcc:	10800017 	ldw	r2,0(r2)
    5bd0:	1009883a 	mov	r4,r2
    5bd4:	d8803415 	stw	r2,208(sp)
    5bd8:	000c6e80 	call	c6e8 <strlen>
    5bdc:	d8803715 	stw	r2,220(sp)
    5be0:	d8802d17 	ldw	r2,180(sp)
    5be4:	10000226 	beq	r2,zero,5bf0 <___vfprintf_internal_r+0x64>
    5be8:	10800e17 	ldw	r2,56(r2)
    5bec:	1000fb26 	beq	r2,zero,5fdc <___vfprintf_internal_r+0x450>
    5bf0:	b880030b 	ldhu	r2,12(r23)
    5bf4:	10c8000c 	andi	r3,r2,8192
    5bf8:	1800061e 	bne	r3,zero,5c14 <___vfprintf_internal_r+0x88>
    5bfc:	b9001917 	ldw	r4,100(r23)
    5c00:	00f7ffc4 	movi	r3,-8193
    5c04:	10880014 	ori	r2,r2,8192
    5c08:	20c6703a 	and	r3,r4,r3
    5c0c:	b880030d 	sth	r2,12(r23)
    5c10:	b8c01915 	stw	r3,100(r23)
    5c14:	10c0020c 	andi	r3,r2,8
    5c18:	1800c326 	beq	r3,zero,5f28 <___vfprintf_internal_r+0x39c>
    5c1c:	b8c00417 	ldw	r3,16(r23)
    5c20:	1800c126 	beq	r3,zero,5f28 <___vfprintf_internal_r+0x39c>
    5c24:	1080068c 	andi	r2,r2,26
    5c28:	00c00284 	movi	r3,10
    5c2c:	10c0c626 	beq	r2,r3,5f48 <___vfprintf_internal_r+0x3bc>
    5c30:	d8c00404 	addi	r3,sp,16
    5c34:	05000074 	movhi	r20,1
    5c38:	d9001e04 	addi	r4,sp,120
    5c3c:	a50c9884 	addi	r20,r20,12898
    5c40:	d8c01e15 	stw	r3,120(sp)
    5c44:	d8002015 	stw	zero,128(sp)
    5c48:	d8001f15 	stw	zero,124(sp)
    5c4c:	d8003315 	stw	zero,204(sp)
    5c50:	d8003615 	stw	zero,216(sp)
    5c54:	d8003815 	stw	zero,224(sp)
    5c58:	1811883a 	mov	r8,r3
    5c5c:	d8003915 	stw	zero,228(sp)
    5c60:	d8003a15 	stw	zero,232(sp)
    5c64:	d8002f15 	stw	zero,188(sp)
    5c68:	d9002815 	stw	r4,160(sp)
    5c6c:	a8800007 	ldb	r2,0(r21)
    5c70:	10028b26 	beq	r2,zero,66a0 <___vfprintf_internal_r+0xb14>
    5c74:	00c00944 	movi	r3,37
    5c78:	a823883a 	mov	r17,r21
    5c7c:	10c0021e 	bne	r2,r3,5c88 <___vfprintf_internal_r+0xfc>
    5c80:	00001406 	br	5cd4 <___vfprintf_internal_r+0x148>
    5c84:	10c00326 	beq	r2,r3,5c94 <___vfprintf_internal_r+0x108>
    5c88:	8c400044 	addi	r17,r17,1
    5c8c:	88800007 	ldb	r2,0(r17)
    5c90:	103ffc1e 	bne	r2,zero,5c84 <__alt_mem_VGA_Subsystem_Char_Buf_Subsystem_Onchip_SRAM+0xf7005c84>
    5c94:	8d61c83a 	sub	r16,r17,r21
    5c98:	80000e26 	beq	r16,zero,5cd4 <___vfprintf_internal_r+0x148>
    5c9c:	d8c02017 	ldw	r3,128(sp)
    5ca0:	d8801f17 	ldw	r2,124(sp)
    5ca4:	45400015 	stw	r21,0(r8)
    5ca8:	1c07883a 	add	r3,r3,r16
    5cac:	10800044 	addi	r2,r2,1
    5cb0:	d8c02015 	stw	r3,128(sp)
    5cb4:	44000115 	stw	r16,4(r8)
    5cb8:	d8801f15 	stw	r2,124(sp)
    5cbc:	00c001c4 	movi	r3,7
    5cc0:	1880a916 	blt	r3,r2,5f68 <___vfprintf_internal_r+0x3dc>
    5cc4:	42000204 	addi	r8,r8,8
    5cc8:	d9402f17 	ldw	r5,188(sp)
    5ccc:	2c0b883a 	add	r5,r5,r16
    5cd0:	d9402f15 	stw	r5,188(sp)
    5cd4:	88800007 	ldb	r2,0(r17)
    5cd8:	1000aa26 	beq	r2,zero,5f84 <___vfprintf_internal_r+0x3f8>
    5cdc:	8d400044 	addi	r21,r17,1
    5ce0:	8c400047 	ldb	r17,1(r17)
    5ce4:	0021883a 	mov	r16,zero
    5ce8:	00bfffc4 	movi	r2,-1
    5cec:	0025883a 	mov	r18,zero
    5cf0:	dc002905 	stb	r16,164(sp)
    5cf4:	d8002785 	stb	zero,158(sp)
    5cf8:	d8002b05 	stb	zero,172(sp)
    5cfc:	d8802a15 	stw	r2,168(sp)
    5d00:	d8003115 	stw	zero,196(sp)
    5d04:	04c01604 	movi	r19,88
    5d08:	05800244 	movi	r22,9
    5d0c:	9021883a 	mov	r16,r18
    5d10:	4039883a 	mov	fp,r8
    5d14:	ad400044 	addi	r21,r21,1
    5d18:	88bff804 	addi	r2,r17,-32
    5d1c:	98833236 	bltu	r19,r2,69e8 <___vfprintf_internal_r+0xe5c>
    5d20:	100490ba 	slli	r2,r2,2
    5d24:	00c00034 	movhi	r3,0
    5d28:	18d74e04 	addi	r3,r3,23864
    5d2c:	10c5883a 	add	r2,r2,r3
    5d30:	10800017 	ldw	r2,0(r2)
    5d34:	1000683a 	jmp	r2
    5d38:	000068e0 	cmpeqi	zero,zero,419
    5d3c:	000069e8 	cmpgeui	zero,zero,423
    5d40:	000069e8 	cmpgeui	zero,zero,423
    5d44:	00006900 	call	690 <plot+0x94>
    5d48:	000069e8 	cmpgeui	zero,zero,423
    5d4c:	000069e8 	cmpgeui	zero,zero,423
    5d50:	000069e8 	cmpgeui	zero,zero,423
    5d54:	000069e8 	cmpgeui	zero,zero,423
    5d58:	000069e8 	cmpgeui	zero,zero,423
    5d5c:	000069e8 	cmpgeui	zero,zero,423
    5d60:	00005fe8 	cmpgeui	zero,zero,383
    5d64:	000067f0 	cmpltui	zero,zero,415
    5d68:	000069e8 	cmpgeui	zero,zero,423
    5d6c:	00005eac 	andhi	zero,zero,378
    5d70:	0000600c 	andi	zero,zero,384
    5d74:	000069e8 	cmpgeui	zero,zero,423
    5d78:	0000605c 	xori	zero,zero,385
    5d7c:	00006068 	cmpgeui	zero,zero,385
    5d80:	00006068 	cmpgeui	zero,zero,385
    5d84:	00006068 	cmpgeui	zero,zero,385
    5d88:	00006068 	cmpgeui	zero,zero,385
    5d8c:	00006068 	cmpgeui	zero,zero,385
    5d90:	00006068 	cmpgeui	zero,zero,385
    5d94:	00006068 	cmpgeui	zero,zero,385
    5d98:	00006068 	cmpgeui	zero,zero,385
    5d9c:	00006068 	cmpgeui	zero,zero,385
    5da0:	000069e8 	cmpgeui	zero,zero,423
    5da4:	000069e8 	cmpgeui	zero,zero,423
    5da8:	000069e8 	cmpgeui	zero,zero,423
    5dac:	000069e8 	cmpgeui	zero,zero,423
    5db0:	000069e8 	cmpgeui	zero,zero,423
    5db4:	000069e8 	cmpgeui	zero,zero,423
    5db8:	000069e8 	cmpgeui	zero,zero,423
    5dbc:	000069e8 	cmpgeui	zero,zero,423
    5dc0:	000069e8 	cmpgeui	zero,zero,423
    5dc4:	000069e8 	cmpgeui	zero,zero,423
    5dc8:	000060a4 	muli	zero,zero,386
    5dcc:	0000616c 	andhi	zero,zero,389
    5dd0:	000069e8 	cmpgeui	zero,zero,423
    5dd4:	0000616c 	andhi	zero,zero,389
    5dd8:	000069e8 	cmpgeui	zero,zero,423
    5ddc:	000069e8 	cmpgeui	zero,zero,423
    5de0:	000069e8 	cmpgeui	zero,zero,423
    5de4:	000069e8 	cmpgeui	zero,zero,423
    5de8:	00006218 	cmpnei	zero,zero,392
    5dec:	000069e8 	cmpgeui	zero,zero,423
    5df0:	000069e8 	cmpgeui	zero,zero,423
    5df4:	00006224 	muli	zero,zero,392
    5df8:	000069e8 	cmpgeui	zero,zero,423
    5dfc:	000069e8 	cmpgeui	zero,zero,423
    5e00:	000069e8 	cmpgeui	zero,zero,423
    5e04:	000069e8 	cmpgeui	zero,zero,423
    5e08:	000069e8 	cmpgeui	zero,zero,423
    5e0c:	000066a8 	cmpgeui	zero,zero,410
    5e10:	000069e8 	cmpgeui	zero,zero,423
    5e14:	000069e8 	cmpgeui	zero,zero,423
    5e18:	00006714 	movui	zero,412
    5e1c:	000069e8 	cmpgeui	zero,zero,423
    5e20:	000069e8 	cmpgeui	zero,zero,423
    5e24:	000069e8 	cmpgeui	zero,zero,423
    5e28:	000069e8 	cmpgeui	zero,zero,423
    5e2c:	000069e8 	cmpgeui	zero,zero,423
    5e30:	000069e8 	cmpgeui	zero,zero,423
    5e34:	000069e8 	cmpgeui	zero,zero,423
    5e38:	000069e8 	cmpgeui	zero,zero,423
    5e3c:	000069e8 	cmpgeui	zero,zero,423
    5e40:	000069e8 	cmpgeui	zero,zero,423
    5e44:	0000698c 	andi	zero,zero,422
    5e48:	0000690c 	andi	zero,zero,420
    5e4c:	0000616c 	andhi	zero,zero,389
    5e50:	0000616c 	andhi	zero,zero,389
    5e54:	0000616c 	andhi	zero,zero,389
    5e58:	0000692c 	andhi	zero,zero,420
    5e5c:	0000690c 	andi	zero,zero,420
    5e60:	000069e8 	cmpgeui	zero,zero,423
    5e64:	000069e8 	cmpgeui	zero,zero,423
    5e68:	00006938 	rdprs	zero,zero,420
    5e6c:	000069e8 	cmpgeui	zero,zero,423
    5e70:	0000694c 	andi	zero,zero,421
    5e74:	000067d0 	cmplti	zero,zero,415
    5e78:	00005eb8 	rdprs	zero,zero,378
    5e7c:	00006808 	cmpgei	zero,zero,416
    5e80:	000069e8 	cmpgeui	zero,zero,423
    5e84:	00006814 	movui	zero,416
    5e88:	000069e8 	cmpgeui	zero,zero,423
    5e8c:	00006878 	rdprs	zero,zero,417
    5e90:	000069e8 	cmpgeui	zero,zero,423
    5e94:	000069e8 	cmpgeui	zero,zero,423
    5e98:	00006898 	cmpnei	zero,zero,418
    5e9c:	d8c03117 	ldw	r3,196(sp)
    5ea0:	d8802e15 	stw	r2,184(sp)
    5ea4:	00c7c83a 	sub	r3,zero,r3
    5ea8:	d8c03115 	stw	r3,196(sp)
    5eac:	84000114 	ori	r16,r16,4
    5eb0:	ac400007 	ldb	r17,0(r21)
    5eb4:	003f9706 	br	5d14 <__alt_mem_VGA_Subsystem_Char_Buf_Subsystem_Onchip_SRAM+0xf7005d14>
    5eb8:	00800c04 	movi	r2,48
    5ebc:	d8802705 	stb	r2,156(sp)
    5ec0:	00801e04 	movi	r2,120
    5ec4:	d8802745 	stb	r2,157(sp)
    5ec8:	d9002a17 	ldw	r4,168(sp)
    5ecc:	d8802e17 	ldw	r2,184(sp)
    5ed0:	d8002785 	stb	zero,158(sp)
    5ed4:	e011883a 	mov	r8,fp
    5ed8:	10c00104 	addi	r3,r2,4
    5edc:	14c00017 	ldw	r19,0(r2)
    5ee0:	002d883a 	mov	r22,zero
    5ee4:	80800094 	ori	r2,r16,2
    5ee8:	2002ca16 	blt	r4,zero,6a14 <___vfprintf_internal_r+0xe88>
    5eec:	00bfdfc4 	movi	r2,-129
    5ef0:	80a4703a 	and	r18,r16,r2
    5ef4:	d8c02e15 	stw	r3,184(sp)
    5ef8:	94800094 	ori	r18,r18,2
    5efc:	9802b41e 	bne	r19,zero,69d0 <___vfprintf_internal_r+0xe44>
    5f00:	01400074 	movhi	r5,1
    5f04:	294c9104 	addi	r5,r5,12868
    5f08:	d9403915 	stw	r5,228(sp)
    5f0c:	04401e04 	movi	r17,120
    5f10:	d8802a17 	ldw	r2,168(sp)
    5f14:	0039883a 	mov	fp,zero
    5f18:	1001fa26 	beq	r2,zero,6704 <___vfprintf_internal_r+0xb78>
    5f1c:	0027883a 	mov	r19,zero
    5f20:	002d883a 	mov	r22,zero
    5f24:	00021906 	br	678c <___vfprintf_internal_r+0xc00>
    5f28:	d9002d17 	ldw	r4,180(sp)
    5f2c:	b80b883a 	mov	r5,r23
    5f30:	0007f400 	call	7f40 <__swsetup_r>
    5f34:	1005dc1e 	bne	r2,zero,76a8 <___vfprintf_internal_r+0x1b1c>
    5f38:	b880030b 	ldhu	r2,12(r23)
    5f3c:	00c00284 	movi	r3,10
    5f40:	1080068c 	andi	r2,r2,26
    5f44:	10ff3a1e 	bne	r2,r3,5c30 <__alt_mem_VGA_Subsystem_Char_Buf_Subsystem_Onchip_SRAM+0xf7005c30>
    5f48:	b880038f 	ldh	r2,14(r23)
    5f4c:	103f3816 	blt	r2,zero,5c30 <__alt_mem_VGA_Subsystem_Char_Buf_Subsystem_Onchip_SRAM+0xf7005c30>
    5f50:	d9c02e17 	ldw	r7,184(sp)
    5f54:	d9002d17 	ldw	r4,180(sp)
    5f58:	a80d883a 	mov	r6,r21
    5f5c:	b80b883a 	mov	r5,r23
    5f60:	0007e840 	call	7e84 <__sbprintf>
    5f64:	00001106 	br	5fac <___vfprintf_internal_r+0x420>
    5f68:	d9002d17 	ldw	r4,180(sp)
    5f6c:	d9801e04 	addi	r6,sp,120
    5f70:	b80b883a 	mov	r5,r23
    5f74:	000c87c0 	call	c87c <__sprint_r>
    5f78:	1000081e 	bne	r2,zero,5f9c <___vfprintf_internal_r+0x410>
    5f7c:	da000404 	addi	r8,sp,16
    5f80:	003f5106 	br	5cc8 <__alt_mem_VGA_Subsystem_Char_Buf_Subsystem_Onchip_SRAM+0xf7005cc8>
    5f84:	d8802017 	ldw	r2,128(sp)
    5f88:	10000426 	beq	r2,zero,5f9c <___vfprintf_internal_r+0x410>
    5f8c:	d9002d17 	ldw	r4,180(sp)
    5f90:	d9801e04 	addi	r6,sp,120
    5f94:	b80b883a 	mov	r5,r23
    5f98:	000c87c0 	call	c87c <__sprint_r>
    5f9c:	b880030b 	ldhu	r2,12(r23)
    5fa0:	1080100c 	andi	r2,r2,64
    5fa4:	1005c01e 	bne	r2,zero,76a8 <___vfprintf_internal_r+0x1b1c>
    5fa8:	d8802f17 	ldw	r2,188(sp)
    5fac:	dfc04717 	ldw	ra,284(sp)
    5fb0:	df004617 	ldw	fp,280(sp)
    5fb4:	ddc04517 	ldw	r23,276(sp)
    5fb8:	dd804417 	ldw	r22,272(sp)
    5fbc:	dd404317 	ldw	r21,268(sp)
    5fc0:	dd004217 	ldw	r20,264(sp)
    5fc4:	dcc04117 	ldw	r19,260(sp)
    5fc8:	dc804017 	ldw	r18,256(sp)
    5fcc:	dc403f17 	ldw	r17,252(sp)
    5fd0:	dc003e17 	ldw	r16,248(sp)
    5fd4:	dec04804 	addi	sp,sp,288
    5fd8:	f800283a 	ret
    5fdc:	d9002d17 	ldw	r4,180(sp)
    5fe0:	0009f4c0 	call	9f4c <__sinit>
    5fe4:	003f0206 	br	5bf0 <__alt_mem_VGA_Subsystem_Char_Buf_Subsystem_Onchip_SRAM+0xf7005bf0>
    5fe8:	d9002e17 	ldw	r4,184(sp)
    5fec:	d9402e17 	ldw	r5,184(sp)
    5ff0:	21000017 	ldw	r4,0(r4)
    5ff4:	28800104 	addi	r2,r5,4
    5ff8:	d9003115 	stw	r4,196(sp)
    5ffc:	203fa716 	blt	r4,zero,5e9c <__alt_mem_VGA_Subsystem_Char_Buf_Subsystem_Onchip_SRAM+0xf7005e9c>
    6000:	d8802e15 	stw	r2,184(sp)
    6004:	ac400007 	ldb	r17,0(r21)
    6008:	003f4206 	br	5d14 <__alt_mem_VGA_Subsystem_Char_Buf_Subsystem_Onchip_SRAM+0xf7005d14>
    600c:	ac400007 	ldb	r17,0(r21)
    6010:	01000a84 	movi	r4,42
    6014:	a8c00044 	addi	r3,r21,1
    6018:	89075826 	beq	r17,r4,7d7c <___vfprintf_internal_r+0x21f0>
    601c:	8cbff404 	addi	r18,r17,-48
    6020:	b486ae36 	bltu	r22,r18,7adc <___vfprintf_internal_r+0x1f50>
    6024:	0009883a 	mov	r4,zero
    6028:	1823883a 	mov	r17,r3
    602c:	01400284 	movi	r5,10
    6030:	00033480 	call	3348 <__mulsi3>
    6034:	88c00007 	ldb	r3,0(r17)
    6038:	1489883a 	add	r4,r2,r18
    603c:	8d400044 	addi	r21,r17,1
    6040:	1cbff404 	addi	r18,r3,-48
    6044:	a823883a 	mov	r17,r21
    6048:	b4bff82e 	bgeu	r22,r18,602c <__alt_mem_VGA_Subsystem_Char_Buf_Subsystem_Onchip_SRAM+0xf700602c>
    604c:	1823883a 	mov	r17,r3
    6050:	2005f616 	blt	r4,zero,782c <___vfprintf_internal_r+0x1ca0>
    6054:	d9002a15 	stw	r4,168(sp)
    6058:	003f2f06 	br	5d18 <__alt_mem_VGA_Subsystem_Char_Buf_Subsystem_Onchip_SRAM+0xf7005d18>
    605c:	84002014 	ori	r16,r16,128
    6060:	ac400007 	ldb	r17,0(r21)
    6064:	003f2b06 	br	5d14 <__alt_mem_VGA_Subsystem_Char_Buf_Subsystem_Onchip_SRAM+0xf7005d14>
    6068:	8cbff404 	addi	r18,r17,-48
    606c:	d8003115 	stw	zero,196(sp)
    6070:	0009883a 	mov	r4,zero
    6074:	a823883a 	mov	r17,r21
    6078:	01400284 	movi	r5,10
    607c:	00033480 	call	3348 <__mulsi3>
    6080:	88c00007 	ldb	r3,0(r17)
    6084:	9089883a 	add	r4,r18,r2
    6088:	ad400044 	addi	r21,r21,1
    608c:	1cbff404 	addi	r18,r3,-48
    6090:	a823883a 	mov	r17,r21
    6094:	b4bff82e 	bgeu	r22,r18,6078 <__alt_mem_VGA_Subsystem_Char_Buf_Subsystem_Onchip_SRAM+0xf7006078>
    6098:	1823883a 	mov	r17,r3
    609c:	d9003115 	stw	r4,196(sp)
    60a0:	003f1d06 	br	5d18 <__alt_mem_VGA_Subsystem_Char_Buf_Subsystem_Onchip_SRAM+0xf7005d18>
    60a4:	8025883a 	mov	r18,r16
    60a8:	dc002903 	ldbu	r16,164(sp)
    60ac:	e011883a 	mov	r8,fp
    60b0:	84003fcc 	andi	r16,r16,255
    60b4:	8007531e 	bne	r16,zero,7e04 <___vfprintf_internal_r+0x2278>
    60b8:	94800414 	ori	r18,r18,16
    60bc:	9080080c 	andi	r2,r18,32
    60c0:	1003a326 	beq	r2,zero,6f50 <___vfprintf_internal_r+0x13c4>
    60c4:	d9002e17 	ldw	r4,184(sp)
    60c8:	20800117 	ldw	r2,4(r4)
    60cc:	24c00017 	ldw	r19,0(r4)
    60d0:	21000204 	addi	r4,r4,8
    60d4:	d9002e15 	stw	r4,184(sp)
    60d8:	102d883a 	mov	r22,r2
    60dc:	10047316 	blt	r2,zero,72ac <___vfprintf_internal_r+0x1720>
    60e0:	d9002a17 	ldw	r4,168(sp)
    60e4:	df002783 	ldbu	fp,158(sp)
    60e8:	2003e416 	blt	r4,zero,707c <___vfprintf_internal_r+0x14f0>
    60ec:	00ffdfc4 	movi	r3,-129
    60f0:	9d84b03a 	or	r2,r19,r22
    60f4:	90e4703a 	and	r18,r18,r3
    60f8:	10018026 	beq	r2,zero,66fc <___vfprintf_internal_r+0xb70>
    60fc:	b003ab26 	beq	r22,zero,6fac <___vfprintf_internal_r+0x1420>
    6100:	dc402915 	stw	r17,164(sp)
    6104:	dc001e04 	addi	r16,sp,120
    6108:	b023883a 	mov	r17,r22
    610c:	402d883a 	mov	r22,r8
    6110:	9809883a 	mov	r4,r19
    6114:	880b883a 	mov	r5,r17
    6118:	01800284 	movi	r6,10
    611c:	000f883a 	mov	r7,zero
    6120:	000f9480 	call	f948 <__umoddi3>
    6124:	10800c04 	addi	r2,r2,48
    6128:	843fffc4 	addi	r16,r16,-1
    612c:	9809883a 	mov	r4,r19
    6130:	880b883a 	mov	r5,r17
    6134:	80800005 	stb	r2,0(r16)
    6138:	01800284 	movi	r6,10
    613c:	000f883a 	mov	r7,zero
    6140:	000f34c0 	call	f34c <__udivdi3>
    6144:	1027883a 	mov	r19,r2
    6148:	10c4b03a 	or	r2,r2,r3
    614c:	1823883a 	mov	r17,r3
    6150:	103fef1e 	bne	r2,zero,6110 <__alt_mem_VGA_Subsystem_Char_Buf_Subsystem_Onchip_SRAM+0xf7006110>
    6154:	d8c02817 	ldw	r3,160(sp)
    6158:	dc402917 	ldw	r17,164(sp)
    615c:	b011883a 	mov	r8,r22
    6160:	1c07c83a 	sub	r3,r3,r16
    6164:	d8c02b15 	stw	r3,172(sp)
    6168:	00005f06 	br	62e8 <___vfprintf_internal_r+0x75c>
    616c:	8025883a 	mov	r18,r16
    6170:	dc002903 	ldbu	r16,164(sp)
    6174:	e011883a 	mov	r8,fp
    6178:	84003fcc 	andi	r16,r16,255
    617c:	80071e1e 	bne	r16,zero,7df8 <___vfprintf_internal_r+0x226c>
    6180:	9080020c 	andi	r2,r18,8
    6184:	1004af26 	beq	r2,zero,7444 <___vfprintf_internal_r+0x18b8>
    6188:	d9002e17 	ldw	r4,184(sp)
    618c:	d9402e17 	ldw	r5,184(sp)
    6190:	d8802e17 	ldw	r2,184(sp)
    6194:	21000017 	ldw	r4,0(r4)
    6198:	29400117 	ldw	r5,4(r5)
    619c:	10800204 	addi	r2,r2,8
    61a0:	d9003615 	stw	r4,216(sp)
    61a4:	d9403815 	stw	r5,224(sp)
    61a8:	d8802e15 	stw	r2,184(sp)
    61ac:	d9003617 	ldw	r4,216(sp)
    61b0:	d9403817 	ldw	r5,224(sp)
    61b4:	da003d15 	stw	r8,244(sp)
    61b8:	04000044 	movi	r16,1
    61bc:	000c4080 	call	c408 <__fpclassifyd>
    61c0:	da003d17 	ldw	r8,244(sp)
    61c4:	1404441e 	bne	r2,r16,72d8 <___vfprintf_internal_r+0x174c>
    61c8:	d9003617 	ldw	r4,216(sp)
    61cc:	d9403817 	ldw	r5,224(sp)
    61d0:	000d883a 	mov	r6,zero
    61d4:	000f883a 	mov	r7,zero
    61d8:	000ff0c0 	call	ff0c <__ledf2>
    61dc:	da003d17 	ldw	r8,244(sp)
    61e0:	1005e316 	blt	r2,zero,7970 <___vfprintf_internal_r+0x1de4>
    61e4:	df002783 	ldbu	fp,158(sp)
    61e8:	008011c4 	movi	r2,71
    61ec:	1445580e 	bge	r2,r17,7750 <___vfprintf_internal_r+0x1bc4>
    61f0:	04000074 	movhi	r16,1
    61f4:	840c8904 	addi	r16,r16,12836
    61f8:	00c000c4 	movi	r3,3
    61fc:	00bfdfc4 	movi	r2,-129
    6200:	d8c02915 	stw	r3,164(sp)
    6204:	90a4703a 	and	r18,r18,r2
    6208:	d8c02b15 	stw	r3,172(sp)
    620c:	d8002a15 	stw	zero,168(sp)
    6210:	d8003215 	stw	zero,200(sp)
    6214:	00003a06 	br	6300 <___vfprintf_internal_r+0x774>
    6218:	84000214 	ori	r16,r16,8
    621c:	ac400007 	ldb	r17,0(r21)
    6220:	003ebc06 	br	5d14 <__alt_mem_VGA_Subsystem_Char_Buf_Subsystem_Onchip_SRAM+0xf7005d14>
    6224:	8025883a 	mov	r18,r16
    6228:	dc002903 	ldbu	r16,164(sp)
    622c:	e011883a 	mov	r8,fp
    6230:	84003fcc 	andi	r16,r16,255
    6234:	8007001e 	bne	r16,zero,7e38 <___vfprintf_internal_r+0x22ac>
    6238:	94800414 	ori	r18,r18,16
    623c:	9080080c 	andi	r2,r18,32
    6240:	1002fa26 	beq	r2,zero,6e2c <___vfprintf_internal_r+0x12a0>
    6244:	d9002e17 	ldw	r4,184(sp)
    6248:	d9402a17 	ldw	r5,168(sp)
    624c:	d8002785 	stb	zero,158(sp)
    6250:	20800204 	addi	r2,r4,8
    6254:	24c00017 	ldw	r19,0(r4)
    6258:	25800117 	ldw	r22,4(r4)
    625c:	2804b116 	blt	r5,zero,7524 <___vfprintf_internal_r+0x1998>
    6260:	013fdfc4 	movi	r4,-129
    6264:	9d86b03a 	or	r3,r19,r22
    6268:	d8802e15 	stw	r2,184(sp)
    626c:	9124703a 	and	r18,r18,r4
    6270:	1802fb1e 	bne	r3,zero,6e60 <___vfprintf_internal_r+0x12d4>
    6274:	d8c02a17 	ldw	r3,168(sp)
    6278:	0039883a 	mov	fp,zero
    627c:	1805e526 	beq	r3,zero,7a14 <___vfprintf_internal_r+0x1e88>
    6280:	0027883a 	mov	r19,zero
    6284:	002d883a 	mov	r22,zero
    6288:	dc001e04 	addi	r16,sp,120
    628c:	9806d0fa 	srli	r3,r19,3
    6290:	b008977a 	slli	r4,r22,29
    6294:	b02cd0fa 	srli	r22,r22,3
    6298:	9cc001cc 	andi	r19,r19,7
    629c:	98800c04 	addi	r2,r19,48
    62a0:	843fffc4 	addi	r16,r16,-1
    62a4:	20e6b03a 	or	r19,r4,r3
    62a8:	80800005 	stb	r2,0(r16)
    62ac:	9d86b03a 	or	r3,r19,r22
    62b0:	183ff61e 	bne	r3,zero,628c <__alt_mem_VGA_Subsystem_Char_Buf_Subsystem_Onchip_SRAM+0xf700628c>
    62b4:	90c0004c 	andi	r3,r18,1
    62b8:	18014126 	beq	r3,zero,67c0 <___vfprintf_internal_r+0xc34>
    62bc:	10803fcc 	andi	r2,r2,255
    62c0:	1080201c 	xori	r2,r2,128
    62c4:	10bfe004 	addi	r2,r2,-128
    62c8:	00c00c04 	movi	r3,48
    62cc:	10c13c26 	beq	r2,r3,67c0 <___vfprintf_internal_r+0xc34>
    62d0:	80ffffc5 	stb	r3,-1(r16)
    62d4:	d8c02817 	ldw	r3,160(sp)
    62d8:	80bfffc4 	addi	r2,r16,-1
    62dc:	1021883a 	mov	r16,r2
    62e0:	1887c83a 	sub	r3,r3,r2
    62e4:	d8c02b15 	stw	r3,172(sp)
    62e8:	d8802b17 	ldw	r2,172(sp)
    62ec:	d9002a17 	ldw	r4,168(sp)
    62f0:	1100010e 	bge	r2,r4,62f8 <___vfprintf_internal_r+0x76c>
    62f4:	2005883a 	mov	r2,r4
    62f8:	d8802915 	stw	r2,164(sp)
    62fc:	d8003215 	stw	zero,200(sp)
    6300:	e7003fcc 	andi	fp,fp,255
    6304:	e700201c 	xori	fp,fp,128
    6308:	e73fe004 	addi	fp,fp,-128
    630c:	e0000326 	beq	fp,zero,631c <___vfprintf_internal_r+0x790>
    6310:	d8c02917 	ldw	r3,164(sp)
    6314:	18c00044 	addi	r3,r3,1
    6318:	d8c02915 	stw	r3,164(sp)
    631c:	90c0008c 	andi	r3,r18,2
    6320:	d8c02c15 	stw	r3,176(sp)
    6324:	18000326 	beq	r3,zero,6334 <___vfprintf_internal_r+0x7a8>
    6328:	d8c02917 	ldw	r3,164(sp)
    632c:	18c00084 	addi	r3,r3,2
    6330:	d8c02915 	stw	r3,164(sp)
    6334:	90c0210c 	andi	r3,r18,132
    6338:	d8c03015 	stw	r3,192(sp)
    633c:	1801c51e 	bne	r3,zero,6a54 <___vfprintf_internal_r+0xec8>
    6340:	d9003117 	ldw	r4,196(sp)
    6344:	d8c02917 	ldw	r3,164(sp)
    6348:	20e7c83a 	sub	r19,r4,r3
    634c:	04c1c10e 	bge	zero,r19,6a54 <___vfprintf_internal_r+0xec8>
    6350:	02400404 	movi	r9,16
    6354:	d8c02017 	ldw	r3,128(sp)
    6358:	d8801f17 	ldw	r2,124(sp)
    635c:	4cc52f0e 	bge	r9,r19,781c <___vfprintf_internal_r+0x1c90>
    6360:	01400074 	movhi	r5,1
    6364:	294c9c84 	addi	r5,r5,12914
    6368:	dc403b15 	stw	r17,236(sp)
    636c:	d9403515 	stw	r5,212(sp)
    6370:	9823883a 	mov	r17,r19
    6374:	482d883a 	mov	r22,r9
    6378:	9027883a 	mov	r19,r18
    637c:	070001c4 	movi	fp,7
    6380:	8025883a 	mov	r18,r16
    6384:	dc002d17 	ldw	r16,180(sp)
    6388:	00000306 	br	6398 <___vfprintf_internal_r+0x80c>
    638c:	8c7ffc04 	addi	r17,r17,-16
    6390:	42000204 	addi	r8,r8,8
    6394:	b440130e 	bge	r22,r17,63e4 <___vfprintf_internal_r+0x858>
    6398:	01000074 	movhi	r4,1
    639c:	18c00404 	addi	r3,r3,16
    63a0:	10800044 	addi	r2,r2,1
    63a4:	210c9c84 	addi	r4,r4,12914
    63a8:	41000015 	stw	r4,0(r8)
    63ac:	45800115 	stw	r22,4(r8)
    63b0:	d8c02015 	stw	r3,128(sp)
    63b4:	d8801f15 	stw	r2,124(sp)
    63b8:	e0bff40e 	bge	fp,r2,638c <__alt_mem_VGA_Subsystem_Char_Buf_Subsystem_Onchip_SRAM+0xf700638c>
    63bc:	d9801e04 	addi	r6,sp,120
    63c0:	b80b883a 	mov	r5,r23
    63c4:	8009883a 	mov	r4,r16
    63c8:	000c87c0 	call	c87c <__sprint_r>
    63cc:	103ef31e 	bne	r2,zero,5f9c <__alt_mem_VGA_Subsystem_Char_Buf_Subsystem_Onchip_SRAM+0xf7005f9c>
    63d0:	8c7ffc04 	addi	r17,r17,-16
    63d4:	d8c02017 	ldw	r3,128(sp)
    63d8:	d8801f17 	ldw	r2,124(sp)
    63dc:	da000404 	addi	r8,sp,16
    63e0:	b47fed16 	blt	r22,r17,6398 <__alt_mem_VGA_Subsystem_Char_Buf_Subsystem_Onchip_SRAM+0xf7006398>
    63e4:	9021883a 	mov	r16,r18
    63e8:	9825883a 	mov	r18,r19
    63ec:	8827883a 	mov	r19,r17
    63f0:	dc403b17 	ldw	r17,236(sp)
    63f4:	d9403517 	ldw	r5,212(sp)
    63f8:	98c7883a 	add	r3,r19,r3
    63fc:	10800044 	addi	r2,r2,1
    6400:	41400015 	stw	r5,0(r8)
    6404:	44c00115 	stw	r19,4(r8)
    6408:	d8c02015 	stw	r3,128(sp)
    640c:	d8801f15 	stw	r2,124(sp)
    6410:	010001c4 	movi	r4,7
    6414:	2082c516 	blt	r4,r2,6f2c <___vfprintf_internal_r+0x13a0>
    6418:	df002787 	ldb	fp,158(sp)
    641c:	42000204 	addi	r8,r8,8
    6420:	e0000c26 	beq	fp,zero,6454 <___vfprintf_internal_r+0x8c8>
    6424:	d8801f17 	ldw	r2,124(sp)
    6428:	d9002784 	addi	r4,sp,158
    642c:	18c00044 	addi	r3,r3,1
    6430:	10800044 	addi	r2,r2,1
    6434:	41000015 	stw	r4,0(r8)
    6438:	01000044 	movi	r4,1
    643c:	41000115 	stw	r4,4(r8)
    6440:	d8c02015 	stw	r3,128(sp)
    6444:	d8801f15 	stw	r2,124(sp)
    6448:	010001c4 	movi	r4,7
    644c:	20825e16 	blt	r4,r2,6dc8 <___vfprintf_internal_r+0x123c>
    6450:	42000204 	addi	r8,r8,8
    6454:	d8802c17 	ldw	r2,176(sp)
    6458:	10000c26 	beq	r2,zero,648c <___vfprintf_internal_r+0x900>
    645c:	d8801f17 	ldw	r2,124(sp)
    6460:	d9002704 	addi	r4,sp,156
    6464:	18c00084 	addi	r3,r3,2
    6468:	10800044 	addi	r2,r2,1
    646c:	41000015 	stw	r4,0(r8)
    6470:	01000084 	movi	r4,2
    6474:	41000115 	stw	r4,4(r8)
    6478:	d8c02015 	stw	r3,128(sp)
    647c:	d8801f15 	stw	r2,124(sp)
    6480:	010001c4 	movi	r4,7
    6484:	20825816 	blt	r4,r2,6de8 <___vfprintf_internal_r+0x125c>
    6488:	42000204 	addi	r8,r8,8
    648c:	d9003017 	ldw	r4,192(sp)
    6490:	00802004 	movi	r2,128
    6494:	2081bb26 	beq	r4,r2,6b84 <___vfprintf_internal_r+0xff8>
    6498:	d9402a17 	ldw	r5,168(sp)
    649c:	d8802b17 	ldw	r2,172(sp)
    64a0:	28adc83a 	sub	r22,r5,r2
    64a4:	0580310e 	bge	zero,r22,656c <___vfprintf_internal_r+0x9e0>
    64a8:	07000404 	movi	fp,16
    64ac:	d8801f17 	ldw	r2,124(sp)
    64b0:	e584360e 	bge	fp,r22,758c <___vfprintf_internal_r+0x1a00>
    64b4:	01400074 	movhi	r5,1
    64b8:	294c9884 	addi	r5,r5,12898
    64bc:	dc402a15 	stw	r17,168(sp)
    64c0:	d9402c15 	stw	r5,176(sp)
    64c4:	b023883a 	mov	r17,r22
    64c8:	04c001c4 	movi	r19,7
    64cc:	a82d883a 	mov	r22,r21
    64d0:	902b883a 	mov	r21,r18
    64d4:	8025883a 	mov	r18,r16
    64d8:	dc002d17 	ldw	r16,180(sp)
    64dc:	00000306 	br	64ec <___vfprintf_internal_r+0x960>
    64e0:	8c7ffc04 	addi	r17,r17,-16
    64e4:	42000204 	addi	r8,r8,8
    64e8:	e440110e 	bge	fp,r17,6530 <___vfprintf_internal_r+0x9a4>
    64ec:	18c00404 	addi	r3,r3,16
    64f0:	10800044 	addi	r2,r2,1
    64f4:	45000015 	stw	r20,0(r8)
    64f8:	47000115 	stw	fp,4(r8)
    64fc:	d8c02015 	stw	r3,128(sp)
    6500:	d8801f15 	stw	r2,124(sp)
    6504:	98bff60e 	bge	r19,r2,64e0 <__alt_mem_VGA_Subsystem_Char_Buf_Subsystem_Onchip_SRAM+0xf70064e0>
    6508:	d9801e04 	addi	r6,sp,120
    650c:	b80b883a 	mov	r5,r23
    6510:	8009883a 	mov	r4,r16
    6514:	000c87c0 	call	c87c <__sprint_r>
    6518:	103ea01e 	bne	r2,zero,5f9c <__alt_mem_VGA_Subsystem_Char_Buf_Subsystem_Onchip_SRAM+0xf7005f9c>
    651c:	8c7ffc04 	addi	r17,r17,-16
    6520:	d8c02017 	ldw	r3,128(sp)
    6524:	d8801f17 	ldw	r2,124(sp)
    6528:	da000404 	addi	r8,sp,16
    652c:	e47fef16 	blt	fp,r17,64ec <__alt_mem_VGA_Subsystem_Char_Buf_Subsystem_Onchip_SRAM+0xf70064ec>
    6530:	9021883a 	mov	r16,r18
    6534:	a825883a 	mov	r18,r21
    6538:	b02b883a 	mov	r21,r22
    653c:	882d883a 	mov	r22,r17
    6540:	dc402a17 	ldw	r17,168(sp)
    6544:	d9002c17 	ldw	r4,176(sp)
    6548:	1d87883a 	add	r3,r3,r22
    654c:	10800044 	addi	r2,r2,1
    6550:	41000015 	stw	r4,0(r8)
    6554:	45800115 	stw	r22,4(r8)
    6558:	d8c02015 	stw	r3,128(sp)
    655c:	d8801f15 	stw	r2,124(sp)
    6560:	010001c4 	movi	r4,7
    6564:	20821016 	blt	r4,r2,6da8 <___vfprintf_internal_r+0x121c>
    6568:	42000204 	addi	r8,r8,8
    656c:	9080400c 	andi	r2,r18,256
    6570:	10013a1e 	bne	r2,zero,6a5c <___vfprintf_internal_r+0xed0>
    6574:	d9402b17 	ldw	r5,172(sp)
    6578:	d8801f17 	ldw	r2,124(sp)
    657c:	44000015 	stw	r16,0(r8)
    6580:	1947883a 	add	r3,r3,r5
    6584:	10800044 	addi	r2,r2,1
    6588:	41400115 	stw	r5,4(r8)
    658c:	d8c02015 	stw	r3,128(sp)
    6590:	d8801f15 	stw	r2,124(sp)
    6594:	010001c4 	movi	r4,7
    6598:	2081f516 	blt	r4,r2,6d70 <___vfprintf_internal_r+0x11e4>
    659c:	42000204 	addi	r8,r8,8
    65a0:	9480010c 	andi	r18,r18,4
    65a4:	90003226 	beq	r18,zero,6670 <___vfprintf_internal_r+0xae4>
    65a8:	d9403117 	ldw	r5,196(sp)
    65ac:	d8802917 	ldw	r2,164(sp)
    65b0:	28a1c83a 	sub	r16,r5,r2
    65b4:	04002e0e 	bge	zero,r16,6670 <___vfprintf_internal_r+0xae4>
    65b8:	04400404 	movi	r17,16
    65bc:	d8801f17 	ldw	r2,124(sp)
    65c0:	8c04c40e 	bge	r17,r16,78d4 <___vfprintf_internal_r+0x1d48>
    65c4:	01400074 	movhi	r5,1
    65c8:	294c9c84 	addi	r5,r5,12914
    65cc:	d9403515 	stw	r5,212(sp)
    65d0:	048001c4 	movi	r18,7
    65d4:	dcc02d17 	ldw	r19,180(sp)
    65d8:	00000306 	br	65e8 <___vfprintf_internal_r+0xa5c>
    65dc:	843ffc04 	addi	r16,r16,-16
    65e0:	42000204 	addi	r8,r8,8
    65e4:	8c00130e 	bge	r17,r16,6634 <___vfprintf_internal_r+0xaa8>
    65e8:	01000074 	movhi	r4,1
    65ec:	18c00404 	addi	r3,r3,16
    65f0:	10800044 	addi	r2,r2,1
    65f4:	210c9c84 	addi	r4,r4,12914
    65f8:	41000015 	stw	r4,0(r8)
    65fc:	44400115 	stw	r17,4(r8)
    6600:	d8c02015 	stw	r3,128(sp)
    6604:	d8801f15 	stw	r2,124(sp)
    6608:	90bff40e 	bge	r18,r2,65dc <__alt_mem_VGA_Subsystem_Char_Buf_Subsystem_Onchip_SRAM+0xf70065dc>
    660c:	d9801e04 	addi	r6,sp,120
    6610:	b80b883a 	mov	r5,r23
    6614:	9809883a 	mov	r4,r19
    6618:	000c87c0 	call	c87c <__sprint_r>
    661c:	103e5f1e 	bne	r2,zero,5f9c <__alt_mem_VGA_Subsystem_Char_Buf_Subsystem_Onchip_SRAM+0xf7005f9c>
    6620:	843ffc04 	addi	r16,r16,-16
    6624:	d8c02017 	ldw	r3,128(sp)
    6628:	d8801f17 	ldw	r2,124(sp)
    662c:	da000404 	addi	r8,sp,16
    6630:	8c3fed16 	blt	r17,r16,65e8 <__alt_mem_VGA_Subsystem_Char_Buf_Subsystem_Onchip_SRAM+0xf70065e8>
    6634:	d9403517 	ldw	r5,212(sp)
    6638:	1c07883a 	add	r3,r3,r16
    663c:	10800044 	addi	r2,r2,1
    6640:	41400015 	stw	r5,0(r8)
    6644:	44000115 	stw	r16,4(r8)
    6648:	d8c02015 	stw	r3,128(sp)
    664c:	d8801f15 	stw	r2,124(sp)
    6650:	010001c4 	movi	r4,7
    6654:	2080060e 	bge	r4,r2,6670 <___vfprintf_internal_r+0xae4>
    6658:	d9002d17 	ldw	r4,180(sp)
    665c:	d9801e04 	addi	r6,sp,120
    6660:	b80b883a 	mov	r5,r23
    6664:	000c87c0 	call	c87c <__sprint_r>
    6668:	103e4c1e 	bne	r2,zero,5f9c <__alt_mem_VGA_Subsystem_Char_Buf_Subsystem_Onchip_SRAM+0xf7005f9c>
    666c:	d8c02017 	ldw	r3,128(sp)
    6670:	d8803117 	ldw	r2,196(sp)
    6674:	d9002917 	ldw	r4,164(sp)
    6678:	1100010e 	bge	r2,r4,6680 <___vfprintf_internal_r+0xaf4>
    667c:	2005883a 	mov	r2,r4
    6680:	d9402f17 	ldw	r5,188(sp)
    6684:	288b883a 	add	r5,r5,r2
    6688:	d9402f15 	stw	r5,188(sp)
    668c:	1801c01e 	bne	r3,zero,6d90 <___vfprintf_internal_r+0x1204>
    6690:	a8800007 	ldb	r2,0(r21)
    6694:	d8001f15 	stw	zero,124(sp)
    6698:	da000404 	addi	r8,sp,16
    669c:	103d751e 	bne	r2,zero,5c74 <__alt_mem_VGA_Subsystem_Char_Buf_Subsystem_Onchip_SRAM+0xf7005c74>
    66a0:	a823883a 	mov	r17,r21
    66a4:	003d8b06 	br	5cd4 <__alt_mem_VGA_Subsystem_Char_Buf_Subsystem_Onchip_SRAM+0xf7005cd4>
    66a8:	8025883a 	mov	r18,r16
    66ac:	dc002903 	ldbu	r16,164(sp)
    66b0:	e011883a 	mov	r8,fp
    66b4:	84003fcc 	andi	r16,r16,255
    66b8:	8005e51e 	bne	r16,zero,7e50 <___vfprintf_internal_r+0x22c4>
    66bc:	94800414 	ori	r18,r18,16
    66c0:	9080080c 	andi	r2,r18,32
    66c4:	10022b26 	beq	r2,zero,6f74 <___vfprintf_internal_r+0x13e8>
    66c8:	d9002e17 	ldw	r4,184(sp)
    66cc:	d9402a17 	ldw	r5,168(sp)
    66d0:	d8002785 	stb	zero,158(sp)
    66d4:	20c00204 	addi	r3,r4,8
    66d8:	24c00017 	ldw	r19,0(r4)
    66dc:	25800117 	ldw	r22,4(r4)
    66e0:	28042e16 	blt	r5,zero,779c <___vfprintf_internal_r+0x1c10>
    66e4:	013fdfc4 	movi	r4,-129
    66e8:	9d84b03a 	or	r2,r19,r22
    66ec:	d8c02e15 	stw	r3,184(sp)
    66f0:	9124703a 	and	r18,r18,r4
    66f4:	0039883a 	mov	fp,zero
    66f8:	103e801e 	bne	r2,zero,60fc <__alt_mem_VGA_Subsystem_Char_Buf_Subsystem_Onchip_SRAM+0xf70060fc>
    66fc:	d9002a17 	ldw	r4,168(sp)
    6700:	2002e01e 	bne	r4,zero,7284 <___vfprintf_internal_r+0x16f8>
    6704:	d8002a15 	stw	zero,168(sp)
    6708:	d8002b15 	stw	zero,172(sp)
    670c:	dc001e04 	addi	r16,sp,120
    6710:	003ef506 	br	62e8 <__alt_mem_VGA_Subsystem_Char_Buf_Subsystem_Onchip_SRAM+0xf70062e8>
    6714:	8025883a 	mov	r18,r16
    6718:	dc002903 	ldbu	r16,164(sp)
    671c:	e011883a 	mov	r8,fp
    6720:	84003fcc 	andi	r16,r16,255
    6724:	8005ba1e 	bne	r16,zero,7e10 <___vfprintf_internal_r+0x2284>
    6728:	01000074 	movhi	r4,1
    672c:	210c8c04 	addi	r4,r4,12848
    6730:	d9003915 	stw	r4,228(sp)
    6734:	9080080c 	andi	r2,r18,32
    6738:	10006126 	beq	r2,zero,68c0 <___vfprintf_internal_r+0xd34>
    673c:	d9402e17 	ldw	r5,184(sp)
    6740:	2cc00017 	ldw	r19,0(r5)
    6744:	2d800117 	ldw	r22,4(r5)
    6748:	29400204 	addi	r5,r5,8
    674c:	d9402e15 	stw	r5,184(sp)
    6750:	9080004c 	andi	r2,r18,1
    6754:	1001ac26 	beq	r2,zero,6e08 <___vfprintf_internal_r+0x127c>
    6758:	9d84b03a 	or	r2,r19,r22
    675c:	10038526 	beq	r2,zero,7574 <___vfprintf_internal_r+0x19e8>
    6760:	d8c02a17 	ldw	r3,168(sp)
    6764:	00800c04 	movi	r2,48
    6768:	d8802705 	stb	r2,156(sp)
    676c:	dc402745 	stb	r17,157(sp)
    6770:	d8002785 	stb	zero,158(sp)
    6774:	90800094 	ori	r2,r18,2
    6778:	18047916 	blt	r3,zero,7960 <___vfprintf_internal_r+0x1dd4>
    677c:	00bfdfc4 	movi	r2,-129
    6780:	90a4703a 	and	r18,r18,r2
    6784:	94800094 	ori	r18,r18,2
    6788:	0039883a 	mov	fp,zero
    678c:	d9003917 	ldw	r4,228(sp)
    6790:	dc001e04 	addi	r16,sp,120
    6794:	988003cc 	andi	r2,r19,15
    6798:	b006973a 	slli	r3,r22,28
    679c:	2085883a 	add	r2,r4,r2
    67a0:	9826d13a 	srli	r19,r19,4
    67a4:	10800003 	ldbu	r2,0(r2)
    67a8:	b02cd13a 	srli	r22,r22,4
    67ac:	843fffc4 	addi	r16,r16,-1
    67b0:	1ce6b03a 	or	r19,r3,r19
    67b4:	80800005 	stb	r2,0(r16)
    67b8:	9d84b03a 	or	r2,r19,r22
    67bc:	103ff51e 	bne	r2,zero,6794 <__alt_mem_VGA_Subsystem_Char_Buf_Subsystem_Onchip_SRAM+0xf7006794>
    67c0:	d8c02817 	ldw	r3,160(sp)
    67c4:	1c07c83a 	sub	r3,r3,r16
    67c8:	d8c02b15 	stw	r3,172(sp)
    67cc:	003ec606 	br	62e8 <__alt_mem_VGA_Subsystem_Char_Buf_Subsystem_Onchip_SRAM+0xf70062e8>
    67d0:	8025883a 	mov	r18,r16
    67d4:	dc002903 	ldbu	r16,164(sp)
    67d8:	e011883a 	mov	r8,fp
    67dc:	84003fcc 	andi	r16,r16,255
    67e0:	803e9626 	beq	r16,zero,623c <__alt_mem_VGA_Subsystem_Char_Buf_Subsystem_Onchip_SRAM+0xf700623c>
    67e4:	d8c02b03 	ldbu	r3,172(sp)
    67e8:	d8c02785 	stb	r3,158(sp)
    67ec:	003e9306 	br	623c <__alt_mem_VGA_Subsystem_Char_Buf_Subsystem_Onchip_SRAM+0xf700623c>
    67f0:	00c00044 	movi	r3,1
    67f4:	d8c02905 	stb	r3,164(sp)
    67f8:	00c00ac4 	movi	r3,43
    67fc:	d8c02b05 	stb	r3,172(sp)
    6800:	ac400007 	ldb	r17,0(r21)
    6804:	003d4306 	br	5d14 <__alt_mem_VGA_Subsystem_Char_Buf_Subsystem_Onchip_SRAM+0xf7005d14>
    6808:	84000814 	ori	r16,r16,32
    680c:	ac400007 	ldb	r17,0(r21)
    6810:	003d4006 	br	5d14 <__alt_mem_VGA_Subsystem_Char_Buf_Subsystem_Onchip_SRAM+0xf7005d14>
    6814:	d8802e17 	ldw	r2,184(sp)
    6818:	8025883a 	mov	r18,r16
    681c:	d8002785 	stb	zero,158(sp)
    6820:	14000017 	ldw	r16,0(r2)
    6824:	e011883a 	mov	r8,fp
    6828:	14c00104 	addi	r19,r2,4
    682c:	80042d26 	beq	r16,zero,78e4 <___vfprintf_internal_r+0x1d58>
    6830:	d8c02a17 	ldw	r3,168(sp)
    6834:	1803e416 	blt	r3,zero,77c8 <___vfprintf_internal_r+0x1c3c>
    6838:	180d883a 	mov	r6,r3
    683c:	000b883a 	mov	r5,zero
    6840:	8009883a 	mov	r4,r16
    6844:	df003d15 	stw	fp,244(sp)
    6848:	000affc0 	call	affc <memchr>
    684c:	da003d17 	ldw	r8,244(sp)
    6850:	10046826 	beq	r2,zero,79f4 <___vfprintf_internal_r+0x1e68>
    6854:	1405c83a 	sub	r2,r2,r16
    6858:	d8802b15 	stw	r2,172(sp)
    685c:	1003e016 	blt	r2,zero,77e0 <___vfprintf_internal_r+0x1c54>
    6860:	df002783 	ldbu	fp,158(sp)
    6864:	d8802915 	stw	r2,164(sp)
    6868:	dcc02e15 	stw	r19,184(sp)
    686c:	d8002a15 	stw	zero,168(sp)
    6870:	d8003215 	stw	zero,200(sp)
    6874:	003ea206 	br	6300 <__alt_mem_VGA_Subsystem_Char_Buf_Subsystem_Onchip_SRAM+0xf7006300>
    6878:	8025883a 	mov	r18,r16
    687c:	dc002903 	ldbu	r16,164(sp)
    6880:	e011883a 	mov	r8,fp
    6884:	84003fcc 	andi	r16,r16,255
    6888:	803f8d26 	beq	r16,zero,66c0 <__alt_mem_VGA_Subsystem_Char_Buf_Subsystem_Onchip_SRAM+0xf70066c0>
    688c:	d8c02b03 	ldbu	r3,172(sp)
    6890:	d8c02785 	stb	r3,158(sp)
    6894:	003f8a06 	br	66c0 <__alt_mem_VGA_Subsystem_Char_Buf_Subsystem_Onchip_SRAM+0xf70066c0>
    6898:	8025883a 	mov	r18,r16
    689c:	dc002903 	ldbu	r16,164(sp)
    68a0:	e011883a 	mov	r8,fp
    68a4:	84003fcc 	andi	r16,r16,255
    68a8:	8005661e 	bne	r16,zero,7e44 <___vfprintf_internal_r+0x22b8>
    68ac:	01000074 	movhi	r4,1
    68b0:	210c9104 	addi	r4,r4,12868
    68b4:	d9003915 	stw	r4,228(sp)
    68b8:	9080080c 	andi	r2,r18,32
    68bc:	103f9f1e 	bne	r2,zero,673c <__alt_mem_VGA_Subsystem_Char_Buf_Subsystem_Onchip_SRAM+0xf700673c>
    68c0:	9080040c 	andi	r2,r18,16
    68c4:	1002eb26 	beq	r2,zero,7474 <___vfprintf_internal_r+0x18e8>
    68c8:	d8802e17 	ldw	r2,184(sp)
    68cc:	002d883a 	mov	r22,zero
    68d0:	14c00017 	ldw	r19,0(r2)
    68d4:	10800104 	addi	r2,r2,4
    68d8:	d8802e15 	stw	r2,184(sp)
    68dc:	003f9c06 	br	6750 <__alt_mem_VGA_Subsystem_Char_Buf_Subsystem_Onchip_SRAM+0xf7006750>
    68e0:	d8802b07 	ldb	r2,172(sp)
    68e4:	1002e11e 	bne	r2,zero,746c <___vfprintf_internal_r+0x18e0>
    68e8:	00c00044 	movi	r3,1
    68ec:	d8c02905 	stb	r3,164(sp)
    68f0:	00c00804 	movi	r3,32
    68f4:	d8c02b05 	stb	r3,172(sp)
    68f8:	ac400007 	ldb	r17,0(r21)
    68fc:	003d0506 	br	5d14 <__alt_mem_VGA_Subsystem_Char_Buf_Subsystem_Onchip_SRAM+0xf7005d14>
    6900:	84000054 	ori	r16,r16,1
    6904:	ac400007 	ldb	r17,0(r21)
    6908:	003d0206 	br	5d14 <__alt_mem_VGA_Subsystem_Char_Buf_Subsystem_Onchip_SRAM+0xf7005d14>
    690c:	8025883a 	mov	r18,r16
    6910:	dc002903 	ldbu	r16,164(sp)
    6914:	e011883a 	mov	r8,fp
    6918:	84003fcc 	andi	r16,r16,255
    691c:	803de726 	beq	r16,zero,60bc <__alt_mem_VGA_Subsystem_Char_Buf_Subsystem_Onchip_SRAM+0xf70060bc>
    6920:	d8c02b03 	ldbu	r3,172(sp)
    6924:	d8c02785 	stb	r3,158(sp)
    6928:	003de406 	br	60bc <__alt_mem_VGA_Subsystem_Char_Buf_Subsystem_Onchip_SRAM+0xf70060bc>
    692c:	84001014 	ori	r16,r16,64
    6930:	ac400007 	ldb	r17,0(r21)
    6934:	003cf706 	br	5d14 <__alt_mem_VGA_Subsystem_Char_Buf_Subsystem_Onchip_SRAM+0xf7005d14>
    6938:	ac400007 	ldb	r17,0(r21)
    693c:	00801b04 	movi	r2,108
    6940:	88838f26 	beq	r17,r2,7780 <___vfprintf_internal_r+0x1bf4>
    6944:	84000414 	ori	r16,r16,16
    6948:	003cf206 	br	5d14 <__alt_mem_VGA_Subsystem_Char_Buf_Subsystem_Onchip_SRAM+0xf7005d14>
    694c:	8025883a 	mov	r18,r16
    6950:	dc002903 	ldbu	r16,164(sp)
    6954:	e011883a 	mov	r8,fp
    6958:	84003fcc 	andi	r16,r16,255
    695c:	80053f1e 	bne	r16,zero,7e5c <___vfprintf_internal_r+0x22d0>
    6960:	9080080c 	andi	r2,r18,32
    6964:	1002d226 	beq	r2,zero,74b0 <___vfprintf_internal_r+0x1924>
    6968:	d9002e17 	ldw	r4,184(sp)
    696c:	d9402f17 	ldw	r5,188(sp)
    6970:	20800017 	ldw	r2,0(r4)
    6974:	2807d7fa 	srai	r3,r5,31
    6978:	21000104 	addi	r4,r4,4
    697c:	d9002e15 	stw	r4,184(sp)
    6980:	11400015 	stw	r5,0(r2)
    6984:	10c00115 	stw	r3,4(r2)
    6988:	003cb806 	br	5c6c <__alt_mem_VGA_Subsystem_Char_Buf_Subsystem_Onchip_SRAM+0xf7005c6c>
    698c:	d8c02e17 	ldw	r3,184(sp)
    6990:	d9002e17 	ldw	r4,184(sp)
    6994:	8025883a 	mov	r18,r16
    6998:	18800017 	ldw	r2,0(r3)
    699c:	21000104 	addi	r4,r4,4
    69a0:	00c00044 	movi	r3,1
    69a4:	e011883a 	mov	r8,fp
    69a8:	d8c02915 	stw	r3,164(sp)
    69ac:	d8002785 	stb	zero,158(sp)
    69b0:	d8801405 	stb	r2,80(sp)
    69b4:	d9002e15 	stw	r4,184(sp)
    69b8:	d8c02b15 	stw	r3,172(sp)
    69bc:	d8002a15 	stw	zero,168(sp)
    69c0:	d8003215 	stw	zero,200(sp)
    69c4:	dc001404 	addi	r16,sp,80
    69c8:	0039883a 	mov	fp,zero
    69cc:	003e5306 	br	631c <__alt_mem_VGA_Subsystem_Char_Buf_Subsystem_Onchip_SRAM+0xf700631c>
    69d0:	01000074 	movhi	r4,1
    69d4:	210c9104 	addi	r4,r4,12868
    69d8:	0039883a 	mov	fp,zero
    69dc:	d9003915 	stw	r4,228(sp)
    69e0:	04401e04 	movi	r17,120
    69e4:	003f6906 	br	678c <__alt_mem_VGA_Subsystem_Char_Buf_Subsystem_Onchip_SRAM+0xf700678c>
    69e8:	8025883a 	mov	r18,r16
    69ec:	dc002903 	ldbu	r16,164(sp)
    69f0:	e011883a 	mov	r8,fp
    69f4:	84003fcc 	andi	r16,r16,255
    69f8:	8005081e 	bne	r16,zero,7e1c <___vfprintf_internal_r+0x2290>
    69fc:	883d6126 	beq	r17,zero,5f84 <__alt_mem_VGA_Subsystem_Char_Buf_Subsystem_Onchip_SRAM+0xf7005f84>
    6a00:	00c00044 	movi	r3,1
    6a04:	d8c02915 	stw	r3,164(sp)
    6a08:	dc401405 	stb	r17,80(sp)
    6a0c:	d8002785 	stb	zero,158(sp)
    6a10:	003fe906 	br	69b8 <__alt_mem_VGA_Subsystem_Char_Buf_Subsystem_Onchip_SRAM+0xf70069b8>
    6a14:	01400074 	movhi	r5,1
    6a18:	294c9104 	addi	r5,r5,12868
    6a1c:	d9403915 	stw	r5,228(sp)
    6a20:	d8c02e15 	stw	r3,184(sp)
    6a24:	1025883a 	mov	r18,r2
    6a28:	04401e04 	movi	r17,120
    6a2c:	9d84b03a 	or	r2,r19,r22
    6a30:	1000fc1e 	bne	r2,zero,6e24 <___vfprintf_internal_r+0x1298>
    6a34:	0039883a 	mov	fp,zero
    6a38:	00800084 	movi	r2,2
    6a3c:	10803fcc 	andi	r2,r2,255
    6a40:	00c00044 	movi	r3,1
    6a44:	10c20f26 	beq	r2,r3,7284 <___vfprintf_internal_r+0x16f8>
    6a48:	00c00084 	movi	r3,2
    6a4c:	10fd3326 	beq	r2,r3,5f1c <__alt_mem_VGA_Subsystem_Char_Buf_Subsystem_Onchip_SRAM+0xf7005f1c>
    6a50:	003e0b06 	br	6280 <__alt_mem_VGA_Subsystem_Char_Buf_Subsystem_Onchip_SRAM+0xf7006280>
    6a54:	d8c02017 	ldw	r3,128(sp)
    6a58:	003e7106 	br	6420 <__alt_mem_VGA_Subsystem_Char_Buf_Subsystem_Onchip_SRAM+0xf7006420>
    6a5c:	00801944 	movi	r2,101
    6a60:	14407e0e 	bge	r2,r17,6c5c <___vfprintf_internal_r+0x10d0>
    6a64:	d9003617 	ldw	r4,216(sp)
    6a68:	d9403817 	ldw	r5,224(sp)
    6a6c:	000d883a 	mov	r6,zero
    6a70:	000f883a 	mov	r7,zero
    6a74:	d8c03c15 	stw	r3,240(sp)
    6a78:	da003d15 	stw	r8,244(sp)
    6a7c:	00045ec0 	call	45ec <__eqdf2>
    6a80:	d8c03c17 	ldw	r3,240(sp)
    6a84:	da003d17 	ldw	r8,244(sp)
    6a88:	1000f71e 	bne	r2,zero,6e68 <___vfprintf_internal_r+0x12dc>
    6a8c:	d8801f17 	ldw	r2,124(sp)
    6a90:	01000074 	movhi	r4,1
    6a94:	210c9804 	addi	r4,r4,12896
    6a98:	18c00044 	addi	r3,r3,1
    6a9c:	10800044 	addi	r2,r2,1
    6aa0:	41000015 	stw	r4,0(r8)
    6aa4:	01000044 	movi	r4,1
    6aa8:	41000115 	stw	r4,4(r8)
    6aac:	d8c02015 	stw	r3,128(sp)
    6ab0:	d8801f15 	stw	r2,124(sp)
    6ab4:	010001c4 	movi	r4,7
    6ab8:	2082b816 	blt	r4,r2,759c <___vfprintf_internal_r+0x1a10>
    6abc:	42000204 	addi	r8,r8,8
    6ac0:	d8802617 	ldw	r2,152(sp)
    6ac4:	d9403317 	ldw	r5,204(sp)
    6ac8:	11400216 	blt	r2,r5,6ad4 <___vfprintf_internal_r+0xf48>
    6acc:	9080004c 	andi	r2,r18,1
    6ad0:	103eb326 	beq	r2,zero,65a0 <__alt_mem_VGA_Subsystem_Char_Buf_Subsystem_Onchip_SRAM+0xf70065a0>
    6ad4:	d8803717 	ldw	r2,220(sp)
    6ad8:	d9003417 	ldw	r4,208(sp)
    6adc:	d9403717 	ldw	r5,220(sp)
    6ae0:	1887883a 	add	r3,r3,r2
    6ae4:	d8801f17 	ldw	r2,124(sp)
    6ae8:	41000015 	stw	r4,0(r8)
    6aec:	41400115 	stw	r5,4(r8)
    6af0:	10800044 	addi	r2,r2,1
    6af4:	d8c02015 	stw	r3,128(sp)
    6af8:	d8801f15 	stw	r2,124(sp)
    6afc:	010001c4 	movi	r4,7
    6b00:	20832916 	blt	r4,r2,77a8 <___vfprintf_internal_r+0x1c1c>
    6b04:	42000204 	addi	r8,r8,8
    6b08:	d8803317 	ldw	r2,204(sp)
    6b0c:	143fffc4 	addi	r16,r2,-1
    6b10:	043ea30e 	bge	zero,r16,65a0 <__alt_mem_VGA_Subsystem_Char_Buf_Subsystem_Onchip_SRAM+0xf70065a0>
    6b14:	04400404 	movi	r17,16
    6b18:	d8801f17 	ldw	r2,124(sp)
    6b1c:	8c00880e 	bge	r17,r16,6d40 <___vfprintf_internal_r+0x11b4>
    6b20:	01400074 	movhi	r5,1
    6b24:	294c9884 	addi	r5,r5,12898
    6b28:	d9402c15 	stw	r5,176(sp)
    6b2c:	058001c4 	movi	r22,7
    6b30:	dcc02d17 	ldw	r19,180(sp)
    6b34:	00000306 	br	6b44 <___vfprintf_internal_r+0xfb8>
    6b38:	42000204 	addi	r8,r8,8
    6b3c:	843ffc04 	addi	r16,r16,-16
    6b40:	8c00820e 	bge	r17,r16,6d4c <___vfprintf_internal_r+0x11c0>
    6b44:	18c00404 	addi	r3,r3,16
    6b48:	10800044 	addi	r2,r2,1
    6b4c:	45000015 	stw	r20,0(r8)
    6b50:	44400115 	stw	r17,4(r8)
    6b54:	d8c02015 	stw	r3,128(sp)
    6b58:	d8801f15 	stw	r2,124(sp)
    6b5c:	b0bff60e 	bge	r22,r2,6b38 <__alt_mem_VGA_Subsystem_Char_Buf_Subsystem_Onchip_SRAM+0xf7006b38>
    6b60:	d9801e04 	addi	r6,sp,120
    6b64:	b80b883a 	mov	r5,r23
    6b68:	9809883a 	mov	r4,r19
    6b6c:	000c87c0 	call	c87c <__sprint_r>
    6b70:	103d0a1e 	bne	r2,zero,5f9c <__alt_mem_VGA_Subsystem_Char_Buf_Subsystem_Onchip_SRAM+0xf7005f9c>
    6b74:	d8c02017 	ldw	r3,128(sp)
    6b78:	d8801f17 	ldw	r2,124(sp)
    6b7c:	da000404 	addi	r8,sp,16
    6b80:	003fee06 	br	6b3c <__alt_mem_VGA_Subsystem_Char_Buf_Subsystem_Onchip_SRAM+0xf7006b3c>
    6b84:	d9403117 	ldw	r5,196(sp)
    6b88:	d8802917 	ldw	r2,164(sp)
    6b8c:	28adc83a 	sub	r22,r5,r2
    6b90:	05be410e 	bge	zero,r22,6498 <__alt_mem_VGA_Subsystem_Char_Buf_Subsystem_Onchip_SRAM+0xf7006498>
    6b94:	07000404 	movi	fp,16
    6b98:	d8801f17 	ldw	r2,124(sp)
    6b9c:	e5838f0e 	bge	fp,r22,79dc <___vfprintf_internal_r+0x1e50>
    6ba0:	01400074 	movhi	r5,1
    6ba4:	294c9884 	addi	r5,r5,12898
    6ba8:	dc403015 	stw	r17,192(sp)
    6bac:	d9402c15 	stw	r5,176(sp)
    6bb0:	b023883a 	mov	r17,r22
    6bb4:	04c001c4 	movi	r19,7
    6bb8:	a82d883a 	mov	r22,r21
    6bbc:	902b883a 	mov	r21,r18
    6bc0:	8025883a 	mov	r18,r16
    6bc4:	dc002d17 	ldw	r16,180(sp)
    6bc8:	00000306 	br	6bd8 <___vfprintf_internal_r+0x104c>
    6bcc:	8c7ffc04 	addi	r17,r17,-16
    6bd0:	42000204 	addi	r8,r8,8
    6bd4:	e440110e 	bge	fp,r17,6c1c <___vfprintf_internal_r+0x1090>
    6bd8:	18c00404 	addi	r3,r3,16
    6bdc:	10800044 	addi	r2,r2,1
    6be0:	45000015 	stw	r20,0(r8)
    6be4:	47000115 	stw	fp,4(r8)
    6be8:	d8c02015 	stw	r3,128(sp)
    6bec:	d8801f15 	stw	r2,124(sp)
    6bf0:	98bff60e 	bge	r19,r2,6bcc <__alt_mem_VGA_Subsystem_Char_Buf_Subsystem_Onchip_SRAM+0xf7006bcc>
    6bf4:	d9801e04 	addi	r6,sp,120
    6bf8:	b80b883a 	mov	r5,r23
    6bfc:	8009883a 	mov	r4,r16
    6c00:	000c87c0 	call	c87c <__sprint_r>
    6c04:	103ce51e 	bne	r2,zero,5f9c <__alt_mem_VGA_Subsystem_Char_Buf_Subsystem_Onchip_SRAM+0xf7005f9c>
    6c08:	8c7ffc04 	addi	r17,r17,-16
    6c0c:	d8c02017 	ldw	r3,128(sp)
    6c10:	d8801f17 	ldw	r2,124(sp)
    6c14:	da000404 	addi	r8,sp,16
    6c18:	e47fef16 	blt	fp,r17,6bd8 <__alt_mem_VGA_Subsystem_Char_Buf_Subsystem_Onchip_SRAM+0xf7006bd8>
    6c1c:	9021883a 	mov	r16,r18
    6c20:	a825883a 	mov	r18,r21
    6c24:	b02b883a 	mov	r21,r22
    6c28:	882d883a 	mov	r22,r17
    6c2c:	dc403017 	ldw	r17,192(sp)
    6c30:	d9002c17 	ldw	r4,176(sp)
    6c34:	1d87883a 	add	r3,r3,r22
    6c38:	10800044 	addi	r2,r2,1
    6c3c:	41000015 	stw	r4,0(r8)
    6c40:	45800115 	stw	r22,4(r8)
    6c44:	d8c02015 	stw	r3,128(sp)
    6c48:	d8801f15 	stw	r2,124(sp)
    6c4c:	010001c4 	movi	r4,7
    6c50:	20818e16 	blt	r4,r2,728c <___vfprintf_internal_r+0x1700>
    6c54:	42000204 	addi	r8,r8,8
    6c58:	003e0f06 	br	6498 <__alt_mem_VGA_Subsystem_Char_Buf_Subsystem_Onchip_SRAM+0xf7006498>
    6c5c:	d9403317 	ldw	r5,204(sp)
    6c60:	00800044 	movi	r2,1
    6c64:	18c00044 	addi	r3,r3,1
    6c68:	1141530e 	bge	r2,r5,71b8 <___vfprintf_internal_r+0x162c>
    6c6c:	dc401f17 	ldw	r17,124(sp)
    6c70:	00800044 	movi	r2,1
    6c74:	40800115 	stw	r2,4(r8)
    6c78:	8c400044 	addi	r17,r17,1
    6c7c:	44000015 	stw	r16,0(r8)
    6c80:	d8c02015 	stw	r3,128(sp)
    6c84:	dc401f15 	stw	r17,124(sp)
    6c88:	008001c4 	movi	r2,7
    6c8c:	14416b16 	blt	r2,r17,723c <___vfprintf_internal_r+0x16b0>
    6c90:	42000204 	addi	r8,r8,8
    6c94:	d8803717 	ldw	r2,220(sp)
    6c98:	d9003417 	ldw	r4,208(sp)
    6c9c:	8c400044 	addi	r17,r17,1
    6ca0:	10c7883a 	add	r3,r2,r3
    6ca4:	40800115 	stw	r2,4(r8)
    6ca8:	41000015 	stw	r4,0(r8)
    6cac:	d8c02015 	stw	r3,128(sp)
    6cb0:	dc401f15 	stw	r17,124(sp)
    6cb4:	008001c4 	movi	r2,7
    6cb8:	14416916 	blt	r2,r17,7260 <___vfprintf_internal_r+0x16d4>
    6cbc:	45800204 	addi	r22,r8,8
    6cc0:	d9003617 	ldw	r4,216(sp)
    6cc4:	d9403817 	ldw	r5,224(sp)
    6cc8:	000d883a 	mov	r6,zero
    6ccc:	000f883a 	mov	r7,zero
    6cd0:	d8c03c15 	stw	r3,240(sp)
    6cd4:	00045ec0 	call	45ec <__eqdf2>
    6cd8:	d8c03c17 	ldw	r3,240(sp)
    6cdc:	1000bc26 	beq	r2,zero,6fd0 <___vfprintf_internal_r+0x1444>
    6ce0:	d9403317 	ldw	r5,204(sp)
    6ce4:	84000044 	addi	r16,r16,1
    6ce8:	8c400044 	addi	r17,r17,1
    6cec:	28bfffc4 	addi	r2,r5,-1
    6cf0:	1887883a 	add	r3,r3,r2
    6cf4:	b0800115 	stw	r2,4(r22)
    6cf8:	b4000015 	stw	r16,0(r22)
    6cfc:	d8c02015 	stw	r3,128(sp)
    6d00:	dc401f15 	stw	r17,124(sp)
    6d04:	008001c4 	movi	r2,7
    6d08:	14414316 	blt	r2,r17,7218 <___vfprintf_internal_r+0x168c>
    6d0c:	b5800204 	addi	r22,r22,8
    6d10:	d9003a17 	ldw	r4,232(sp)
    6d14:	df0022c4 	addi	fp,sp,139
    6d18:	8c400044 	addi	r17,r17,1
    6d1c:	20c7883a 	add	r3,r4,r3
    6d20:	b7000015 	stw	fp,0(r22)
    6d24:	b1000115 	stw	r4,4(r22)
    6d28:	d8c02015 	stw	r3,128(sp)
    6d2c:	dc401f15 	stw	r17,124(sp)
    6d30:	008001c4 	movi	r2,7
    6d34:	14400e16 	blt	r2,r17,6d70 <___vfprintf_internal_r+0x11e4>
    6d38:	b2000204 	addi	r8,r22,8
    6d3c:	003e1806 	br	65a0 <__alt_mem_VGA_Subsystem_Char_Buf_Subsystem_Onchip_SRAM+0xf70065a0>
    6d40:	01000074 	movhi	r4,1
    6d44:	210c9884 	addi	r4,r4,12898
    6d48:	d9002c15 	stw	r4,176(sp)
    6d4c:	d9002c17 	ldw	r4,176(sp)
    6d50:	1c07883a 	add	r3,r3,r16
    6d54:	44000115 	stw	r16,4(r8)
    6d58:	41000015 	stw	r4,0(r8)
    6d5c:	10800044 	addi	r2,r2,1
    6d60:	d8c02015 	stw	r3,128(sp)
    6d64:	d8801f15 	stw	r2,124(sp)
    6d68:	010001c4 	movi	r4,7
    6d6c:	20be0b0e 	bge	r4,r2,659c <__alt_mem_VGA_Subsystem_Char_Buf_Subsystem_Onchip_SRAM+0xf700659c>
    6d70:	d9002d17 	ldw	r4,180(sp)
    6d74:	d9801e04 	addi	r6,sp,120
    6d78:	b80b883a 	mov	r5,r23
    6d7c:	000c87c0 	call	c87c <__sprint_r>
    6d80:	103c861e 	bne	r2,zero,5f9c <__alt_mem_VGA_Subsystem_Char_Buf_Subsystem_Onchip_SRAM+0xf7005f9c>
    6d84:	d8c02017 	ldw	r3,128(sp)
    6d88:	da000404 	addi	r8,sp,16
    6d8c:	003e0406 	br	65a0 <__alt_mem_VGA_Subsystem_Char_Buf_Subsystem_Onchip_SRAM+0xf70065a0>
    6d90:	d9002d17 	ldw	r4,180(sp)
    6d94:	d9801e04 	addi	r6,sp,120
    6d98:	b80b883a 	mov	r5,r23
    6d9c:	000c87c0 	call	c87c <__sprint_r>
    6da0:	103e3b26 	beq	r2,zero,6690 <__alt_mem_VGA_Subsystem_Char_Buf_Subsystem_Onchip_SRAM+0xf7006690>
    6da4:	003c7d06 	br	5f9c <__alt_mem_VGA_Subsystem_Char_Buf_Subsystem_Onchip_SRAM+0xf7005f9c>
    6da8:	d9002d17 	ldw	r4,180(sp)
    6dac:	d9801e04 	addi	r6,sp,120
    6db0:	b80b883a 	mov	r5,r23
    6db4:	000c87c0 	call	c87c <__sprint_r>
    6db8:	103c781e 	bne	r2,zero,5f9c <__alt_mem_VGA_Subsystem_Char_Buf_Subsystem_Onchip_SRAM+0xf7005f9c>
    6dbc:	d8c02017 	ldw	r3,128(sp)
    6dc0:	da000404 	addi	r8,sp,16
    6dc4:	003de906 	br	656c <__alt_mem_VGA_Subsystem_Char_Buf_Subsystem_Onchip_SRAM+0xf700656c>
    6dc8:	d9002d17 	ldw	r4,180(sp)
    6dcc:	d9801e04 	addi	r6,sp,120
    6dd0:	b80b883a 	mov	r5,r23
    6dd4:	000c87c0 	call	c87c <__sprint_r>
    6dd8:	103c701e 	bne	r2,zero,5f9c <__alt_mem_VGA_Subsystem_Char_Buf_Subsystem_Onchip_SRAM+0xf7005f9c>
    6ddc:	d8c02017 	ldw	r3,128(sp)
    6de0:	da000404 	addi	r8,sp,16
    6de4:	003d9b06 	br	6454 <__alt_mem_VGA_Subsystem_Char_Buf_Subsystem_Onchip_SRAM+0xf7006454>
    6de8:	d9002d17 	ldw	r4,180(sp)
    6dec:	d9801e04 	addi	r6,sp,120
    6df0:	b80b883a 	mov	r5,r23
    6df4:	000c87c0 	call	c87c <__sprint_r>
    6df8:	103c681e 	bne	r2,zero,5f9c <__alt_mem_VGA_Subsystem_Char_Buf_Subsystem_Onchip_SRAM+0xf7005f9c>
    6dfc:	d8c02017 	ldw	r3,128(sp)
    6e00:	da000404 	addi	r8,sp,16
    6e04:	003da106 	br	648c <__alt_mem_VGA_Subsystem_Char_Buf_Subsystem_Onchip_SRAM+0xf700648c>
    6e08:	d9402a17 	ldw	r5,168(sp)
    6e0c:	d8002785 	stb	zero,158(sp)
    6e10:	283f0616 	blt	r5,zero,6a2c <__alt_mem_VGA_Subsystem_Char_Buf_Subsystem_Onchip_SRAM+0xf7006a2c>
    6e14:	00ffdfc4 	movi	r3,-129
    6e18:	9d84b03a 	or	r2,r19,r22
    6e1c:	90e4703a 	and	r18,r18,r3
    6e20:	103c3b26 	beq	r2,zero,5f10 <__alt_mem_VGA_Subsystem_Char_Buf_Subsystem_Onchip_SRAM+0xf7005f10>
    6e24:	0039883a 	mov	fp,zero
    6e28:	003e5806 	br	678c <__alt_mem_VGA_Subsystem_Char_Buf_Subsystem_Onchip_SRAM+0xf700678c>
    6e2c:	9080040c 	andi	r2,r18,16
    6e30:	1001b326 	beq	r2,zero,7500 <___vfprintf_internal_r+0x1974>
    6e34:	d8c02e17 	ldw	r3,184(sp)
    6e38:	d9002a17 	ldw	r4,168(sp)
    6e3c:	d8002785 	stb	zero,158(sp)
    6e40:	18800104 	addi	r2,r3,4
    6e44:	1cc00017 	ldw	r19,0(r3)
    6e48:	002d883a 	mov	r22,zero
    6e4c:	2001b516 	blt	r4,zero,7524 <___vfprintf_internal_r+0x1998>
    6e50:	00ffdfc4 	movi	r3,-129
    6e54:	d8802e15 	stw	r2,184(sp)
    6e58:	90e4703a 	and	r18,r18,r3
    6e5c:	983d0526 	beq	r19,zero,6274 <__alt_mem_VGA_Subsystem_Char_Buf_Subsystem_Onchip_SRAM+0xf7006274>
    6e60:	0039883a 	mov	fp,zero
    6e64:	003d0806 	br	6288 <__alt_mem_VGA_Subsystem_Char_Buf_Subsystem_Onchip_SRAM+0xf7006288>
    6e68:	dc402617 	ldw	r17,152(sp)
    6e6c:	0441d30e 	bge	zero,r17,75bc <___vfprintf_internal_r+0x1a30>
    6e70:	dc403217 	ldw	r17,200(sp)
    6e74:	d8803317 	ldw	r2,204(sp)
    6e78:	1440010e 	bge	r2,r17,6e80 <___vfprintf_internal_r+0x12f4>
    6e7c:	1023883a 	mov	r17,r2
    6e80:	04400a0e 	bge	zero,r17,6eac <___vfprintf_internal_r+0x1320>
    6e84:	d8801f17 	ldw	r2,124(sp)
    6e88:	1c47883a 	add	r3,r3,r17
    6e8c:	44000015 	stw	r16,0(r8)
    6e90:	10800044 	addi	r2,r2,1
    6e94:	44400115 	stw	r17,4(r8)
    6e98:	d8c02015 	stw	r3,128(sp)
    6e9c:	d8801f15 	stw	r2,124(sp)
    6ea0:	010001c4 	movi	r4,7
    6ea4:	20826516 	blt	r4,r2,783c <___vfprintf_internal_r+0x1cb0>
    6ea8:	42000204 	addi	r8,r8,8
    6eac:	88026116 	blt	r17,zero,7834 <___vfprintf_internal_r+0x1ca8>
    6eb0:	d9003217 	ldw	r4,200(sp)
    6eb4:	2463c83a 	sub	r17,r4,r17
    6eb8:	04407b0e 	bge	zero,r17,70a8 <___vfprintf_internal_r+0x151c>
    6ebc:	05800404 	movi	r22,16
    6ec0:	d8801f17 	ldw	r2,124(sp)
    6ec4:	b4419d0e 	bge	r22,r17,753c <___vfprintf_internal_r+0x19b0>
    6ec8:	01000074 	movhi	r4,1
    6ecc:	210c9884 	addi	r4,r4,12898
    6ed0:	d9002c15 	stw	r4,176(sp)
    6ed4:	070001c4 	movi	fp,7
    6ed8:	dcc02d17 	ldw	r19,180(sp)
    6edc:	00000306 	br	6eec <___vfprintf_internal_r+0x1360>
    6ee0:	42000204 	addi	r8,r8,8
    6ee4:	8c7ffc04 	addi	r17,r17,-16
    6ee8:	b441970e 	bge	r22,r17,7548 <___vfprintf_internal_r+0x19bc>
    6eec:	18c00404 	addi	r3,r3,16
    6ef0:	10800044 	addi	r2,r2,1
    6ef4:	45000015 	stw	r20,0(r8)
    6ef8:	45800115 	stw	r22,4(r8)
    6efc:	d8c02015 	stw	r3,128(sp)
    6f00:	d8801f15 	stw	r2,124(sp)
    6f04:	e0bff60e 	bge	fp,r2,6ee0 <__alt_mem_VGA_Subsystem_Char_Buf_Subsystem_Onchip_SRAM+0xf7006ee0>
    6f08:	d9801e04 	addi	r6,sp,120
    6f0c:	b80b883a 	mov	r5,r23
    6f10:	9809883a 	mov	r4,r19
    6f14:	000c87c0 	call	c87c <__sprint_r>
    6f18:	103c201e 	bne	r2,zero,5f9c <__alt_mem_VGA_Subsystem_Char_Buf_Subsystem_Onchip_SRAM+0xf7005f9c>
    6f1c:	d8c02017 	ldw	r3,128(sp)
    6f20:	d8801f17 	ldw	r2,124(sp)
    6f24:	da000404 	addi	r8,sp,16
    6f28:	003fee06 	br	6ee4 <__alt_mem_VGA_Subsystem_Char_Buf_Subsystem_Onchip_SRAM+0xf7006ee4>
    6f2c:	d9002d17 	ldw	r4,180(sp)
    6f30:	d9801e04 	addi	r6,sp,120
    6f34:	b80b883a 	mov	r5,r23
    6f38:	000c87c0 	call	c87c <__sprint_r>
    6f3c:	103c171e 	bne	r2,zero,5f9c <__alt_mem_VGA_Subsystem_Char_Buf_Subsystem_Onchip_SRAM+0xf7005f9c>
    6f40:	d8c02017 	ldw	r3,128(sp)
    6f44:	df002787 	ldb	fp,158(sp)
    6f48:	da000404 	addi	r8,sp,16
    6f4c:	003d3406 	br	6420 <__alt_mem_VGA_Subsystem_Char_Buf_Subsystem_Onchip_SRAM+0xf7006420>
    6f50:	9080040c 	andi	r2,r18,16
    6f54:	10016126 	beq	r2,zero,74dc <___vfprintf_internal_r+0x1950>
    6f58:	d9402e17 	ldw	r5,184(sp)
    6f5c:	2cc00017 	ldw	r19,0(r5)
    6f60:	29400104 	addi	r5,r5,4
    6f64:	d9402e15 	stw	r5,184(sp)
    6f68:	982dd7fa 	srai	r22,r19,31
    6f6c:	b005883a 	mov	r2,r22
    6f70:	003c5a06 	br	60dc <__alt_mem_VGA_Subsystem_Char_Buf_Subsystem_Onchip_SRAM+0xf70060dc>
    6f74:	9080040c 	andi	r2,r18,16
    6f78:	10003526 	beq	r2,zero,7050 <___vfprintf_internal_r+0x14c4>
    6f7c:	d8c02e17 	ldw	r3,184(sp)
    6f80:	d9002a17 	ldw	r4,168(sp)
    6f84:	d8002785 	stb	zero,158(sp)
    6f88:	18800104 	addi	r2,r3,4
    6f8c:	1cc00017 	ldw	r19,0(r3)
    6f90:	002d883a 	mov	r22,zero
    6f94:	20003716 	blt	r4,zero,7074 <___vfprintf_internal_r+0x14e8>
    6f98:	00ffdfc4 	movi	r3,-129
    6f9c:	d8802e15 	stw	r2,184(sp)
    6fa0:	90e4703a 	and	r18,r18,r3
    6fa4:	0039883a 	mov	fp,zero
    6fa8:	983dd426 	beq	r19,zero,66fc <__alt_mem_VGA_Subsystem_Char_Buf_Subsystem_Onchip_SRAM+0xf70066fc>
    6fac:	00800244 	movi	r2,9
    6fb0:	14fc5336 	bltu	r2,r19,6100 <__alt_mem_VGA_Subsystem_Char_Buf_Subsystem_Onchip_SRAM+0xf7006100>
    6fb4:	d8c02817 	ldw	r3,160(sp)
    6fb8:	dc001dc4 	addi	r16,sp,119
    6fbc:	9cc00c04 	addi	r19,r19,48
    6fc0:	1c07c83a 	sub	r3,r3,r16
    6fc4:	dcc01dc5 	stb	r19,119(sp)
    6fc8:	d8c02b15 	stw	r3,172(sp)
    6fcc:	003cc606 	br	62e8 <__alt_mem_VGA_Subsystem_Char_Buf_Subsystem_Onchip_SRAM+0xf70062e8>
    6fd0:	d8803317 	ldw	r2,204(sp)
    6fd4:	143fffc4 	addi	r16,r2,-1
    6fd8:	043f4d0e 	bge	zero,r16,6d10 <__alt_mem_VGA_Subsystem_Char_Buf_Subsystem_Onchip_SRAM+0xf7006d10>
    6fdc:	07000404 	movi	fp,16
    6fe0:	e400810e 	bge	fp,r16,71e8 <___vfprintf_internal_r+0x165c>
    6fe4:	01400074 	movhi	r5,1
    6fe8:	294c9884 	addi	r5,r5,12898
    6fec:	d9402c15 	stw	r5,176(sp)
    6ff0:	01c001c4 	movi	r7,7
    6ff4:	dcc02d17 	ldw	r19,180(sp)
    6ff8:	00000306 	br	7008 <___vfprintf_internal_r+0x147c>
    6ffc:	b5800204 	addi	r22,r22,8
    7000:	843ffc04 	addi	r16,r16,-16
    7004:	e4007b0e 	bge	fp,r16,71f4 <___vfprintf_internal_r+0x1668>
    7008:	18c00404 	addi	r3,r3,16
    700c:	8c400044 	addi	r17,r17,1
    7010:	b5000015 	stw	r20,0(r22)
    7014:	b7000115 	stw	fp,4(r22)
    7018:	d8c02015 	stw	r3,128(sp)
    701c:	dc401f15 	stw	r17,124(sp)
    7020:	3c7ff60e 	bge	r7,r17,6ffc <__alt_mem_VGA_Subsystem_Char_Buf_Subsystem_Onchip_SRAM+0xf7006ffc>
    7024:	d9801e04 	addi	r6,sp,120
    7028:	b80b883a 	mov	r5,r23
    702c:	9809883a 	mov	r4,r19
    7030:	d9c03c15 	stw	r7,240(sp)
    7034:	000c87c0 	call	c87c <__sprint_r>
    7038:	d9c03c17 	ldw	r7,240(sp)
    703c:	103bd71e 	bne	r2,zero,5f9c <__alt_mem_VGA_Subsystem_Char_Buf_Subsystem_Onchip_SRAM+0xf7005f9c>
    7040:	d8c02017 	ldw	r3,128(sp)
    7044:	dc401f17 	ldw	r17,124(sp)
    7048:	dd800404 	addi	r22,sp,16
    704c:	003fec06 	br	7000 <__alt_mem_VGA_Subsystem_Char_Buf_Subsystem_Onchip_SRAM+0xf7007000>
    7050:	9080100c 	andi	r2,r18,64
    7054:	d8002785 	stb	zero,158(sp)
    7058:	10010e26 	beq	r2,zero,7494 <___vfprintf_internal_r+0x1908>
    705c:	d9402e17 	ldw	r5,184(sp)
    7060:	d8c02a17 	ldw	r3,168(sp)
    7064:	002d883a 	mov	r22,zero
    7068:	28800104 	addi	r2,r5,4
    706c:	2cc0000b 	ldhu	r19,0(r5)
    7070:	183fc90e 	bge	r3,zero,6f98 <__alt_mem_VGA_Subsystem_Char_Buf_Subsystem_Onchip_SRAM+0xf7006f98>
    7074:	d8802e15 	stw	r2,184(sp)
    7078:	0039883a 	mov	fp,zero
    707c:	9d84b03a 	or	r2,r19,r22
    7080:	103c1e1e 	bne	r2,zero,60fc <__alt_mem_VGA_Subsystem_Char_Buf_Subsystem_Onchip_SRAM+0xf70060fc>
    7084:	00800044 	movi	r2,1
    7088:	003e6c06 	br	6a3c <__alt_mem_VGA_Subsystem_Char_Buf_Subsystem_Onchip_SRAM+0xf7006a3c>
    708c:	d9002d17 	ldw	r4,180(sp)
    7090:	d9801e04 	addi	r6,sp,120
    7094:	b80b883a 	mov	r5,r23
    7098:	000c87c0 	call	c87c <__sprint_r>
    709c:	103bbf1e 	bne	r2,zero,5f9c <__alt_mem_VGA_Subsystem_Char_Buf_Subsystem_Onchip_SRAM+0xf7005f9c>
    70a0:	d8c02017 	ldw	r3,128(sp)
    70a4:	da000404 	addi	r8,sp,16
    70a8:	d9003217 	ldw	r4,200(sp)
    70ac:	d8802617 	ldw	r2,152(sp)
    70b0:	d9403317 	ldw	r5,204(sp)
    70b4:	8123883a 	add	r17,r16,r4
    70b8:	11400216 	blt	r2,r5,70c4 <___vfprintf_internal_r+0x1538>
    70bc:	9100004c 	andi	r4,r18,1
    70c0:	20000d26 	beq	r4,zero,70f8 <___vfprintf_internal_r+0x156c>
    70c4:	d9003717 	ldw	r4,220(sp)
    70c8:	d9403417 	ldw	r5,208(sp)
    70cc:	1907883a 	add	r3,r3,r4
    70d0:	d9001f17 	ldw	r4,124(sp)
    70d4:	41400015 	stw	r5,0(r8)
    70d8:	d9403717 	ldw	r5,220(sp)
    70dc:	21000044 	addi	r4,r4,1
    70e0:	d8c02015 	stw	r3,128(sp)
    70e4:	41400115 	stw	r5,4(r8)
    70e8:	d9001f15 	stw	r4,124(sp)
    70ec:	014001c4 	movi	r5,7
    70f0:	2901e816 	blt	r5,r4,7894 <___vfprintf_internal_r+0x1d08>
    70f4:	42000204 	addi	r8,r8,8
    70f8:	d9003317 	ldw	r4,204(sp)
    70fc:	8121883a 	add	r16,r16,r4
    7100:	2085c83a 	sub	r2,r4,r2
    7104:	8461c83a 	sub	r16,r16,r17
    7108:	1400010e 	bge	r2,r16,7110 <___vfprintf_internal_r+0x1584>
    710c:	1021883a 	mov	r16,r2
    7110:	04000a0e 	bge	zero,r16,713c <___vfprintf_internal_r+0x15b0>
    7114:	d9001f17 	ldw	r4,124(sp)
    7118:	1c07883a 	add	r3,r3,r16
    711c:	44400015 	stw	r17,0(r8)
    7120:	21000044 	addi	r4,r4,1
    7124:	44000115 	stw	r16,4(r8)
    7128:	d8c02015 	stw	r3,128(sp)
    712c:	d9001f15 	stw	r4,124(sp)
    7130:	014001c4 	movi	r5,7
    7134:	2901fb16 	blt	r5,r4,7924 <___vfprintf_internal_r+0x1d98>
    7138:	42000204 	addi	r8,r8,8
    713c:	8001f716 	blt	r16,zero,791c <___vfprintf_internal_r+0x1d90>
    7140:	1421c83a 	sub	r16,r2,r16
    7144:	043d160e 	bge	zero,r16,65a0 <__alt_mem_VGA_Subsystem_Char_Buf_Subsystem_Onchip_SRAM+0xf70065a0>
    7148:	04400404 	movi	r17,16
    714c:	d8801f17 	ldw	r2,124(sp)
    7150:	8c3efb0e 	bge	r17,r16,6d40 <__alt_mem_VGA_Subsystem_Char_Buf_Subsystem_Onchip_SRAM+0xf7006d40>
    7154:	01400074 	movhi	r5,1
    7158:	294c9884 	addi	r5,r5,12898
    715c:	d9402c15 	stw	r5,176(sp)
    7160:	058001c4 	movi	r22,7
    7164:	dcc02d17 	ldw	r19,180(sp)
    7168:	00000306 	br	7178 <___vfprintf_internal_r+0x15ec>
    716c:	42000204 	addi	r8,r8,8
    7170:	843ffc04 	addi	r16,r16,-16
    7174:	8c3ef50e 	bge	r17,r16,6d4c <__alt_mem_VGA_Subsystem_Char_Buf_Subsystem_Onchip_SRAM+0xf7006d4c>
    7178:	18c00404 	addi	r3,r3,16
    717c:	10800044 	addi	r2,r2,1
    7180:	45000015 	stw	r20,0(r8)
    7184:	44400115 	stw	r17,4(r8)
    7188:	d8c02015 	stw	r3,128(sp)
    718c:	d8801f15 	stw	r2,124(sp)
    7190:	b0bff60e 	bge	r22,r2,716c <__alt_mem_VGA_Subsystem_Char_Buf_Subsystem_Onchip_SRAM+0xf700716c>
    7194:	d9801e04 	addi	r6,sp,120
    7198:	b80b883a 	mov	r5,r23
    719c:	9809883a 	mov	r4,r19
    71a0:	000c87c0 	call	c87c <__sprint_r>
    71a4:	103b7d1e 	bne	r2,zero,5f9c <__alt_mem_VGA_Subsystem_Char_Buf_Subsystem_Onchip_SRAM+0xf7005f9c>
    71a8:	d8c02017 	ldw	r3,128(sp)
    71ac:	d8801f17 	ldw	r2,124(sp)
    71b0:	da000404 	addi	r8,sp,16
    71b4:	003fee06 	br	7170 <__alt_mem_VGA_Subsystem_Char_Buf_Subsystem_Onchip_SRAM+0xf7007170>
    71b8:	9088703a 	and	r4,r18,r2
    71bc:	203eab1e 	bne	r4,zero,6c6c <__alt_mem_VGA_Subsystem_Char_Buf_Subsystem_Onchip_SRAM+0xf7006c6c>
    71c0:	dc401f17 	ldw	r17,124(sp)
    71c4:	40800115 	stw	r2,4(r8)
    71c8:	44000015 	stw	r16,0(r8)
    71cc:	8c400044 	addi	r17,r17,1
    71d0:	d8c02015 	stw	r3,128(sp)
    71d4:	dc401f15 	stw	r17,124(sp)
    71d8:	008001c4 	movi	r2,7
    71dc:	14400e16 	blt	r2,r17,7218 <___vfprintf_internal_r+0x168c>
    71e0:	45800204 	addi	r22,r8,8
    71e4:	003eca06 	br	6d10 <__alt_mem_VGA_Subsystem_Char_Buf_Subsystem_Onchip_SRAM+0xf7006d10>
    71e8:	01000074 	movhi	r4,1
    71ec:	210c9884 	addi	r4,r4,12898
    71f0:	d9002c15 	stw	r4,176(sp)
    71f4:	d8802c17 	ldw	r2,176(sp)
    71f8:	1c07883a 	add	r3,r3,r16
    71fc:	8c400044 	addi	r17,r17,1
    7200:	b0800015 	stw	r2,0(r22)
    7204:	b4000115 	stw	r16,4(r22)
    7208:	d8c02015 	stw	r3,128(sp)
    720c:	dc401f15 	stw	r17,124(sp)
    7210:	008001c4 	movi	r2,7
    7214:	147ebd0e 	bge	r2,r17,6d0c <__alt_mem_VGA_Subsystem_Char_Buf_Subsystem_Onchip_SRAM+0xf7006d0c>
    7218:	d9002d17 	ldw	r4,180(sp)
    721c:	d9801e04 	addi	r6,sp,120
    7220:	b80b883a 	mov	r5,r23
    7224:	000c87c0 	call	c87c <__sprint_r>
    7228:	103b5c1e 	bne	r2,zero,5f9c <__alt_mem_VGA_Subsystem_Char_Buf_Subsystem_Onchip_SRAM+0xf7005f9c>
    722c:	d8c02017 	ldw	r3,128(sp)
    7230:	dc401f17 	ldw	r17,124(sp)
    7234:	dd800404 	addi	r22,sp,16
    7238:	003eb506 	br	6d10 <__alt_mem_VGA_Subsystem_Char_Buf_Subsystem_Onchip_SRAM+0xf7006d10>
    723c:	d9002d17 	ldw	r4,180(sp)
    7240:	d9801e04 	addi	r6,sp,120
    7244:	b80b883a 	mov	r5,r23
    7248:	000c87c0 	call	c87c <__sprint_r>
    724c:	103b531e 	bne	r2,zero,5f9c <__alt_mem_VGA_Subsystem_Char_Buf_Subsystem_Onchip_SRAM+0xf7005f9c>
    7250:	d8c02017 	ldw	r3,128(sp)
    7254:	dc401f17 	ldw	r17,124(sp)
    7258:	da000404 	addi	r8,sp,16
    725c:	003e8d06 	br	6c94 <__alt_mem_VGA_Subsystem_Char_Buf_Subsystem_Onchip_SRAM+0xf7006c94>
    7260:	d9002d17 	ldw	r4,180(sp)
    7264:	d9801e04 	addi	r6,sp,120
    7268:	b80b883a 	mov	r5,r23
    726c:	000c87c0 	call	c87c <__sprint_r>
    7270:	103b4a1e 	bne	r2,zero,5f9c <__alt_mem_VGA_Subsystem_Char_Buf_Subsystem_Onchip_SRAM+0xf7005f9c>
    7274:	d8c02017 	ldw	r3,128(sp)
    7278:	dc401f17 	ldw	r17,124(sp)
    727c:	dd800404 	addi	r22,sp,16
    7280:	003e8f06 	br	6cc0 <__alt_mem_VGA_Subsystem_Char_Buf_Subsystem_Onchip_SRAM+0xf7006cc0>
    7284:	0027883a 	mov	r19,zero
    7288:	003f4a06 	br	6fb4 <__alt_mem_VGA_Subsystem_Char_Buf_Subsystem_Onchip_SRAM+0xf7006fb4>
    728c:	d9002d17 	ldw	r4,180(sp)
    7290:	d9801e04 	addi	r6,sp,120
    7294:	b80b883a 	mov	r5,r23
    7298:	000c87c0 	call	c87c <__sprint_r>
    729c:	103b3f1e 	bne	r2,zero,5f9c <__alt_mem_VGA_Subsystem_Char_Buf_Subsystem_Onchip_SRAM+0xf7005f9c>
    72a0:	d8c02017 	ldw	r3,128(sp)
    72a4:	da000404 	addi	r8,sp,16
    72a8:	003c7b06 	br	6498 <__alt_mem_VGA_Subsystem_Char_Buf_Subsystem_Onchip_SRAM+0xf7006498>
    72ac:	d9402a17 	ldw	r5,168(sp)
    72b0:	04e7c83a 	sub	r19,zero,r19
    72b4:	07000b44 	movi	fp,45
    72b8:	9804c03a 	cmpne	r2,r19,zero
    72bc:	05adc83a 	sub	r22,zero,r22
    72c0:	df002785 	stb	fp,158(sp)
    72c4:	b0adc83a 	sub	r22,r22,r2
    72c8:	28017b16 	blt	r5,zero,78b8 <___vfprintf_internal_r+0x1d2c>
    72cc:	00bfdfc4 	movi	r2,-129
    72d0:	90a4703a 	and	r18,r18,r2
    72d4:	003b8906 	br	60fc <__alt_mem_VGA_Subsystem_Char_Buf_Subsystem_Onchip_SRAM+0xf70060fc>
    72d8:	d9003617 	ldw	r4,216(sp)
    72dc:	d9403817 	ldw	r5,224(sp)
    72e0:	da003d15 	stw	r8,244(sp)
    72e4:	000c4080 	call	c408 <__fpclassifyd>
    72e8:	da003d17 	ldw	r8,244(sp)
    72ec:	1000f026 	beq	r2,zero,76b0 <___vfprintf_internal_r+0x1b24>
    72f0:	d9002a17 	ldw	r4,168(sp)
    72f4:	05bff7c4 	movi	r22,-33
    72f8:	00bfffc4 	movi	r2,-1
    72fc:	8dac703a 	and	r22,r17,r22
    7300:	20820026 	beq	r4,r2,7b04 <___vfprintf_internal_r+0x1f78>
    7304:	008011c4 	movi	r2,71
    7308:	b081f726 	beq	r22,r2,7ae8 <___vfprintf_internal_r+0x1f5c>
    730c:	d9003817 	ldw	r4,224(sp)
    7310:	90c04014 	ori	r3,r18,256
    7314:	d8c02c15 	stw	r3,176(sp)
    7318:	20021516 	blt	r4,zero,7b70 <___vfprintf_internal_r+0x1fe4>
    731c:	dcc03817 	ldw	r19,224(sp)
    7320:	d8002905 	stb	zero,164(sp)
    7324:	00801984 	movi	r2,102
    7328:	8881f926 	beq	r17,r2,7b10 <___vfprintf_internal_r+0x1f84>
    732c:	00801184 	movi	r2,70
    7330:	88821c26 	beq	r17,r2,7ba4 <___vfprintf_internal_r+0x2018>
    7334:	00801144 	movi	r2,69
    7338:	b081ef26 	beq	r22,r2,7af8 <___vfprintf_internal_r+0x1f6c>
    733c:	d8c02a17 	ldw	r3,168(sp)
    7340:	d8802104 	addi	r2,sp,132
    7344:	d8800315 	stw	r2,12(sp)
    7348:	d9403617 	ldw	r5,216(sp)
    734c:	d8802504 	addi	r2,sp,148
    7350:	d9002d17 	ldw	r4,180(sp)
    7354:	d8800215 	stw	r2,8(sp)
    7358:	d8802604 	addi	r2,sp,152
    735c:	d8c00015 	stw	r3,0(sp)
    7360:	d8800115 	stw	r2,4(sp)
    7364:	01c00084 	movi	r7,2
    7368:	980d883a 	mov	r6,r19
    736c:	d8c03c15 	stw	r3,240(sp)
    7370:	da003d15 	stw	r8,244(sp)
    7374:	00082bc0 	call	82bc <_dtoa_r>
    7378:	1021883a 	mov	r16,r2
    737c:	008019c4 	movi	r2,103
    7380:	d8c03c17 	ldw	r3,240(sp)
    7384:	da003d17 	ldw	r8,244(sp)
    7388:	88817126 	beq	r17,r2,7950 <___vfprintf_internal_r+0x1dc4>
    738c:	008011c4 	movi	r2,71
    7390:	88829126 	beq	r17,r2,7dd8 <___vfprintf_internal_r+0x224c>
    7394:	80f9883a 	add	fp,r16,r3
    7398:	d9003617 	ldw	r4,216(sp)
    739c:	000d883a 	mov	r6,zero
    73a0:	000f883a 	mov	r7,zero
    73a4:	980b883a 	mov	r5,r19
    73a8:	da003d15 	stw	r8,244(sp)
    73ac:	00045ec0 	call	45ec <__eqdf2>
    73b0:	da003d17 	ldw	r8,244(sp)
    73b4:	10018d26 	beq	r2,zero,79ec <___vfprintf_internal_r+0x1e60>
    73b8:	d8802117 	ldw	r2,132(sp)
    73bc:	1700062e 	bgeu	r2,fp,73d8 <___vfprintf_internal_r+0x184c>
    73c0:	01000c04 	movi	r4,48
    73c4:	10c00044 	addi	r3,r2,1
    73c8:	d8c02115 	stw	r3,132(sp)
    73cc:	11000005 	stb	r4,0(r2)
    73d0:	d8802117 	ldw	r2,132(sp)
    73d4:	173ffb36 	bltu	r2,fp,73c4 <__alt_mem_VGA_Subsystem_Char_Buf_Subsystem_Onchip_SRAM+0xf70073c4>
    73d8:	1405c83a 	sub	r2,r2,r16
    73dc:	d8803315 	stw	r2,204(sp)
    73e0:	008011c4 	movi	r2,71
    73e4:	b0817626 	beq	r22,r2,79c0 <___vfprintf_internal_r+0x1e34>
    73e8:	00801944 	movi	r2,101
    73ec:	1442800e 	bge	r2,r17,7df0 <___vfprintf_internal_r+0x2264>
    73f0:	d8c02617 	ldw	r3,152(sp)
    73f4:	00801984 	movi	r2,102
    73f8:	d8c03215 	stw	r3,200(sp)
    73fc:	8881fe26 	beq	r17,r2,7bf8 <___vfprintf_internal_r+0x206c>
    7400:	d8c03217 	ldw	r3,200(sp)
    7404:	d9003317 	ldw	r4,204(sp)
    7408:	1901dd16 	blt	r3,r4,7b80 <___vfprintf_internal_r+0x1ff4>
    740c:	9480004c 	andi	r18,r18,1
    7410:	90022b1e 	bne	r18,zero,7cc0 <___vfprintf_internal_r+0x2134>
    7414:	1805883a 	mov	r2,r3
    7418:	18028316 	blt	r3,zero,7e28 <___vfprintf_internal_r+0x229c>
    741c:	d8c03217 	ldw	r3,200(sp)
    7420:	044019c4 	movi	r17,103
    7424:	d8c02b15 	stw	r3,172(sp)
    7428:	df002907 	ldb	fp,164(sp)
    742c:	e001531e 	bne	fp,zero,797c <___vfprintf_internal_r+0x1df0>
    7430:	df002783 	ldbu	fp,158(sp)
    7434:	d8802915 	stw	r2,164(sp)
    7438:	dc802c17 	ldw	r18,176(sp)
    743c:	d8002a15 	stw	zero,168(sp)
    7440:	003baf06 	br	6300 <__alt_mem_VGA_Subsystem_Char_Buf_Subsystem_Onchip_SRAM+0xf7006300>
    7444:	d8c02e17 	ldw	r3,184(sp)
    7448:	d9002e17 	ldw	r4,184(sp)
    744c:	d9402e17 	ldw	r5,184(sp)
    7450:	18c00017 	ldw	r3,0(r3)
    7454:	21000117 	ldw	r4,4(r4)
    7458:	29400204 	addi	r5,r5,8
    745c:	d8c03615 	stw	r3,216(sp)
    7460:	d9003815 	stw	r4,224(sp)
    7464:	d9402e15 	stw	r5,184(sp)
    7468:	003b5006 	br	61ac <__alt_mem_VGA_Subsystem_Char_Buf_Subsystem_Onchip_SRAM+0xf70061ac>
    746c:	ac400007 	ldb	r17,0(r21)
    7470:	003a2806 	br	5d14 <__alt_mem_VGA_Subsystem_Char_Buf_Subsystem_Onchip_SRAM+0xf7005d14>
    7474:	9080100c 	andi	r2,r18,64
    7478:	1000a826 	beq	r2,zero,771c <___vfprintf_internal_r+0x1b90>
    747c:	d8c02e17 	ldw	r3,184(sp)
    7480:	002d883a 	mov	r22,zero
    7484:	1cc0000b 	ldhu	r19,0(r3)
    7488:	18c00104 	addi	r3,r3,4
    748c:	d8c02e15 	stw	r3,184(sp)
    7490:	003caf06 	br	6750 <__alt_mem_VGA_Subsystem_Char_Buf_Subsystem_Onchip_SRAM+0xf7006750>
    7494:	d9002e17 	ldw	r4,184(sp)
    7498:	d9402a17 	ldw	r5,168(sp)
    749c:	002d883a 	mov	r22,zero
    74a0:	20800104 	addi	r2,r4,4
    74a4:	24c00017 	ldw	r19,0(r4)
    74a8:	283ebb0e 	bge	r5,zero,6f98 <__alt_mem_VGA_Subsystem_Char_Buf_Subsystem_Onchip_SRAM+0xf7006f98>
    74ac:	003ef106 	br	7074 <__alt_mem_VGA_Subsystem_Char_Buf_Subsystem_Onchip_SRAM+0xf7007074>
    74b0:	9080040c 	andi	r2,r18,16
    74b4:	1000921e 	bne	r2,zero,7700 <___vfprintf_internal_r+0x1b74>
    74b8:	9480100c 	andi	r18,r18,64
    74bc:	90013926 	beq	r18,zero,79a4 <___vfprintf_internal_r+0x1e18>
    74c0:	d9402e17 	ldw	r5,184(sp)
    74c4:	d8c02f17 	ldw	r3,188(sp)
    74c8:	28800017 	ldw	r2,0(r5)
    74cc:	29400104 	addi	r5,r5,4
    74d0:	d9402e15 	stw	r5,184(sp)
    74d4:	10c0000d 	sth	r3,0(r2)
    74d8:	0039e406 	br	5c6c <__alt_mem_VGA_Subsystem_Char_Buf_Subsystem_Onchip_SRAM+0xf7005c6c>
    74dc:	9080100c 	andi	r2,r18,64
    74e0:	10008026 	beq	r2,zero,76e4 <___vfprintf_internal_r+0x1b58>
    74e4:	d8802e17 	ldw	r2,184(sp)
    74e8:	14c0000f 	ldh	r19,0(r2)
    74ec:	10800104 	addi	r2,r2,4
    74f0:	d8802e15 	stw	r2,184(sp)
    74f4:	982dd7fa 	srai	r22,r19,31
    74f8:	b005883a 	mov	r2,r22
    74fc:	003af706 	br	60dc <__alt_mem_VGA_Subsystem_Char_Buf_Subsystem_Onchip_SRAM+0xf70060dc>
    7500:	9080100c 	andi	r2,r18,64
    7504:	d8002785 	stb	zero,158(sp)
    7508:	10008a1e 	bne	r2,zero,7734 <___vfprintf_internal_r+0x1ba8>
    750c:	d9002e17 	ldw	r4,184(sp)
    7510:	d9402a17 	ldw	r5,168(sp)
    7514:	002d883a 	mov	r22,zero
    7518:	20800104 	addi	r2,r4,4
    751c:	24c00017 	ldw	r19,0(r4)
    7520:	283e4b0e 	bge	r5,zero,6e50 <__alt_mem_VGA_Subsystem_Char_Buf_Subsystem_Onchip_SRAM+0xf7006e50>
    7524:	9d86b03a 	or	r3,r19,r22
    7528:	d8802e15 	stw	r2,184(sp)
    752c:	183e4c1e 	bne	r3,zero,6e60 <__alt_mem_VGA_Subsystem_Char_Buf_Subsystem_Onchip_SRAM+0xf7006e60>
    7530:	0039883a 	mov	fp,zero
    7534:	0005883a 	mov	r2,zero
    7538:	003d4006 	br	6a3c <__alt_mem_VGA_Subsystem_Char_Buf_Subsystem_Onchip_SRAM+0xf7006a3c>
    753c:	01400074 	movhi	r5,1
    7540:	294c9884 	addi	r5,r5,12898
    7544:	d9402c15 	stw	r5,176(sp)
    7548:	d9402c17 	ldw	r5,176(sp)
    754c:	1c47883a 	add	r3,r3,r17
    7550:	10800044 	addi	r2,r2,1
    7554:	41400015 	stw	r5,0(r8)
    7558:	44400115 	stw	r17,4(r8)
    755c:	d8c02015 	stw	r3,128(sp)
    7560:	d8801f15 	stw	r2,124(sp)
    7564:	010001c4 	movi	r4,7
    7568:	20bec816 	blt	r4,r2,708c <__alt_mem_VGA_Subsystem_Char_Buf_Subsystem_Onchip_SRAM+0xf700708c>
    756c:	42000204 	addi	r8,r8,8
    7570:	003ecd06 	br	70a8 <__alt_mem_VGA_Subsystem_Char_Buf_Subsystem_Onchip_SRAM+0xf70070a8>
    7574:	d9002a17 	ldw	r4,168(sp)
    7578:	d8002785 	stb	zero,158(sp)
    757c:	203d2d16 	blt	r4,zero,6a34 <__alt_mem_VGA_Subsystem_Char_Buf_Subsystem_Onchip_SRAM+0xf7006a34>
    7580:	00bfdfc4 	movi	r2,-129
    7584:	90a4703a 	and	r18,r18,r2
    7588:	003a6106 	br	5f10 <__alt_mem_VGA_Subsystem_Char_Buf_Subsystem_Onchip_SRAM+0xf7005f10>
    758c:	01000074 	movhi	r4,1
    7590:	210c9884 	addi	r4,r4,12898
    7594:	d9002c15 	stw	r4,176(sp)
    7598:	003bea06 	br	6544 <__alt_mem_VGA_Subsystem_Char_Buf_Subsystem_Onchip_SRAM+0xf7006544>
    759c:	d9002d17 	ldw	r4,180(sp)
    75a0:	d9801e04 	addi	r6,sp,120
    75a4:	b80b883a 	mov	r5,r23
    75a8:	000c87c0 	call	c87c <__sprint_r>
    75ac:	103a7b1e 	bne	r2,zero,5f9c <__alt_mem_VGA_Subsystem_Char_Buf_Subsystem_Onchip_SRAM+0xf7005f9c>
    75b0:	d8c02017 	ldw	r3,128(sp)
    75b4:	da000404 	addi	r8,sp,16
    75b8:	003d4106 	br	6ac0 <__alt_mem_VGA_Subsystem_Char_Buf_Subsystem_Onchip_SRAM+0xf7006ac0>
    75bc:	d8801f17 	ldw	r2,124(sp)
    75c0:	01400074 	movhi	r5,1
    75c4:	01000044 	movi	r4,1
    75c8:	18c00044 	addi	r3,r3,1
    75cc:	10800044 	addi	r2,r2,1
    75d0:	294c9804 	addi	r5,r5,12896
    75d4:	41000115 	stw	r4,4(r8)
    75d8:	41400015 	stw	r5,0(r8)
    75dc:	d8c02015 	stw	r3,128(sp)
    75e0:	d8801f15 	stw	r2,124(sp)
    75e4:	010001c4 	movi	r4,7
    75e8:	20805c16 	blt	r4,r2,775c <___vfprintf_internal_r+0x1bd0>
    75ec:	42000204 	addi	r8,r8,8
    75f0:	8800041e 	bne	r17,zero,7604 <___vfprintf_internal_r+0x1a78>
    75f4:	d8803317 	ldw	r2,204(sp)
    75f8:	1000021e 	bne	r2,zero,7604 <___vfprintf_internal_r+0x1a78>
    75fc:	9080004c 	andi	r2,r18,1
    7600:	103be726 	beq	r2,zero,65a0 <__alt_mem_VGA_Subsystem_Char_Buf_Subsystem_Onchip_SRAM+0xf70065a0>
    7604:	d9003717 	ldw	r4,220(sp)
    7608:	d8801f17 	ldw	r2,124(sp)
    760c:	d9403417 	ldw	r5,208(sp)
    7610:	20c7883a 	add	r3,r4,r3
    7614:	10800044 	addi	r2,r2,1
    7618:	41000115 	stw	r4,4(r8)
    761c:	41400015 	stw	r5,0(r8)
    7620:	d8c02015 	stw	r3,128(sp)
    7624:	d8801f15 	stw	r2,124(sp)
    7628:	010001c4 	movi	r4,7
    762c:	20812116 	blt	r4,r2,7ab4 <___vfprintf_internal_r+0x1f28>
    7630:	42000204 	addi	r8,r8,8
    7634:	0463c83a 	sub	r17,zero,r17
    7638:	0440730e 	bge	zero,r17,7808 <___vfprintf_internal_r+0x1c7c>
    763c:	05800404 	movi	r22,16
    7640:	b440860e 	bge	r22,r17,785c <___vfprintf_internal_r+0x1cd0>
    7644:	01400074 	movhi	r5,1
    7648:	294c9884 	addi	r5,r5,12898
    764c:	d9402c15 	stw	r5,176(sp)
    7650:	070001c4 	movi	fp,7
    7654:	dcc02d17 	ldw	r19,180(sp)
    7658:	00000306 	br	7668 <___vfprintf_internal_r+0x1adc>
    765c:	42000204 	addi	r8,r8,8
    7660:	8c7ffc04 	addi	r17,r17,-16
    7664:	b440800e 	bge	r22,r17,7868 <___vfprintf_internal_r+0x1cdc>
    7668:	18c00404 	addi	r3,r3,16
    766c:	10800044 	addi	r2,r2,1
    7670:	45000015 	stw	r20,0(r8)
    7674:	45800115 	stw	r22,4(r8)
    7678:	d8c02015 	stw	r3,128(sp)
    767c:	d8801f15 	stw	r2,124(sp)
    7680:	e0bff60e 	bge	fp,r2,765c <__alt_mem_VGA_Subsystem_Char_Buf_Subsystem_Onchip_SRAM+0xf700765c>
    7684:	d9801e04 	addi	r6,sp,120
    7688:	b80b883a 	mov	r5,r23
    768c:	9809883a 	mov	r4,r19
    7690:	000c87c0 	call	c87c <__sprint_r>
    7694:	103a411e 	bne	r2,zero,5f9c <__alt_mem_VGA_Subsystem_Char_Buf_Subsystem_Onchip_SRAM+0xf7005f9c>
    7698:	d8c02017 	ldw	r3,128(sp)
    769c:	d8801f17 	ldw	r2,124(sp)
    76a0:	da000404 	addi	r8,sp,16
    76a4:	003fee06 	br	7660 <__alt_mem_VGA_Subsystem_Char_Buf_Subsystem_Onchip_SRAM+0xf7007660>
    76a8:	00bfffc4 	movi	r2,-1
    76ac:	003a3f06 	br	5fac <__alt_mem_VGA_Subsystem_Char_Buf_Subsystem_Onchip_SRAM+0xf7005fac>
    76b0:	008011c4 	movi	r2,71
    76b4:	1440b816 	blt	r2,r17,7998 <___vfprintf_internal_r+0x1e0c>
    76b8:	04000074 	movhi	r16,1
    76bc:	840c8a04 	addi	r16,r16,12840
    76c0:	00c000c4 	movi	r3,3
    76c4:	00bfdfc4 	movi	r2,-129
    76c8:	d8c02915 	stw	r3,164(sp)
    76cc:	90a4703a 	and	r18,r18,r2
    76d0:	df002783 	ldbu	fp,158(sp)
    76d4:	d8c02b15 	stw	r3,172(sp)
    76d8:	d8002a15 	stw	zero,168(sp)
    76dc:	d8003215 	stw	zero,200(sp)
    76e0:	003b0706 	br	6300 <__alt_mem_VGA_Subsystem_Char_Buf_Subsystem_Onchip_SRAM+0xf7006300>
    76e4:	d8c02e17 	ldw	r3,184(sp)
    76e8:	1cc00017 	ldw	r19,0(r3)
    76ec:	18c00104 	addi	r3,r3,4
    76f0:	d8c02e15 	stw	r3,184(sp)
    76f4:	982dd7fa 	srai	r22,r19,31
    76f8:	b005883a 	mov	r2,r22
    76fc:	003a7706 	br	60dc <__alt_mem_VGA_Subsystem_Char_Buf_Subsystem_Onchip_SRAM+0xf70060dc>
    7700:	d8c02e17 	ldw	r3,184(sp)
    7704:	d9002f17 	ldw	r4,188(sp)
    7708:	18800017 	ldw	r2,0(r3)
    770c:	18c00104 	addi	r3,r3,4
    7710:	d8c02e15 	stw	r3,184(sp)
    7714:	11000015 	stw	r4,0(r2)
    7718:	00395406 	br	5c6c <__alt_mem_VGA_Subsystem_Char_Buf_Subsystem_Onchip_SRAM+0xf7005c6c>
    771c:	d9002e17 	ldw	r4,184(sp)
    7720:	002d883a 	mov	r22,zero
    7724:	24c00017 	ldw	r19,0(r4)
    7728:	21000104 	addi	r4,r4,4
    772c:	d9002e15 	stw	r4,184(sp)
    7730:	003c0706 	br	6750 <__alt_mem_VGA_Subsystem_Char_Buf_Subsystem_Onchip_SRAM+0xf7006750>
    7734:	d9402e17 	ldw	r5,184(sp)
    7738:	d8c02a17 	ldw	r3,168(sp)
    773c:	002d883a 	mov	r22,zero
    7740:	28800104 	addi	r2,r5,4
    7744:	2cc0000b 	ldhu	r19,0(r5)
    7748:	183dc10e 	bge	r3,zero,6e50 <__alt_mem_VGA_Subsystem_Char_Buf_Subsystem_Onchip_SRAM+0xf7006e50>
    774c:	003f7506 	br	7524 <__alt_mem_VGA_Subsystem_Char_Buf_Subsystem_Onchip_SRAM+0xf7007524>
    7750:	04000074 	movhi	r16,1
    7754:	840c8804 	addi	r16,r16,12832
    7758:	003aa706 	br	61f8 <__alt_mem_VGA_Subsystem_Char_Buf_Subsystem_Onchip_SRAM+0xf70061f8>
    775c:	d9002d17 	ldw	r4,180(sp)
    7760:	d9801e04 	addi	r6,sp,120
    7764:	b80b883a 	mov	r5,r23
    7768:	000c87c0 	call	c87c <__sprint_r>
    776c:	103a0b1e 	bne	r2,zero,5f9c <__alt_mem_VGA_Subsystem_Char_Buf_Subsystem_Onchip_SRAM+0xf7005f9c>
    7770:	dc402617 	ldw	r17,152(sp)
    7774:	d8c02017 	ldw	r3,128(sp)
    7778:	da000404 	addi	r8,sp,16
    777c:	003f9c06 	br	75f0 <__alt_mem_VGA_Subsystem_Char_Buf_Subsystem_Onchip_SRAM+0xf70075f0>
    7780:	ac400043 	ldbu	r17,1(r21)
    7784:	84000814 	ori	r16,r16,32
    7788:	ad400044 	addi	r21,r21,1
    778c:	8c403fcc 	andi	r17,r17,255
    7790:	8c40201c 	xori	r17,r17,128
    7794:	8c7fe004 	addi	r17,r17,-128
    7798:	00395e06 	br	5d14 <__alt_mem_VGA_Subsystem_Char_Buf_Subsystem_Onchip_SRAM+0xf7005d14>
    779c:	d8c02e15 	stw	r3,184(sp)
    77a0:	0039883a 	mov	fp,zero
    77a4:	003e3506 	br	707c <__alt_mem_VGA_Subsystem_Char_Buf_Subsystem_Onchip_SRAM+0xf700707c>
    77a8:	d9002d17 	ldw	r4,180(sp)
    77ac:	d9801e04 	addi	r6,sp,120
    77b0:	b80b883a 	mov	r5,r23
    77b4:	000c87c0 	call	c87c <__sprint_r>
    77b8:	1039f81e 	bne	r2,zero,5f9c <__alt_mem_VGA_Subsystem_Char_Buf_Subsystem_Onchip_SRAM+0xf7005f9c>
    77bc:	d8c02017 	ldw	r3,128(sp)
    77c0:	da000404 	addi	r8,sp,16
    77c4:	003cd006 	br	6b08 <__alt_mem_VGA_Subsystem_Char_Buf_Subsystem_Onchip_SRAM+0xf7006b08>
    77c8:	8009883a 	mov	r4,r16
    77cc:	df003d15 	stw	fp,244(sp)
    77d0:	000c6e80 	call	c6e8 <strlen>
    77d4:	d8802b15 	stw	r2,172(sp)
    77d8:	da003d17 	ldw	r8,244(sp)
    77dc:	103c200e 	bge	r2,zero,6860 <__alt_mem_VGA_Subsystem_Char_Buf_Subsystem_Onchip_SRAM+0xf7006860>
    77e0:	0005883a 	mov	r2,zero
    77e4:	003c1e06 	br	6860 <__alt_mem_VGA_Subsystem_Char_Buf_Subsystem_Onchip_SRAM+0xf7006860>
    77e8:	d9002d17 	ldw	r4,180(sp)
    77ec:	d9801e04 	addi	r6,sp,120
    77f0:	b80b883a 	mov	r5,r23
    77f4:	000c87c0 	call	c87c <__sprint_r>
    77f8:	1039e81e 	bne	r2,zero,5f9c <__alt_mem_VGA_Subsystem_Char_Buf_Subsystem_Onchip_SRAM+0xf7005f9c>
    77fc:	d8c02017 	ldw	r3,128(sp)
    7800:	d8801f17 	ldw	r2,124(sp)
    7804:	da000404 	addi	r8,sp,16
    7808:	d9403317 	ldw	r5,204(sp)
    780c:	10800044 	addi	r2,r2,1
    7810:	44000015 	stw	r16,0(r8)
    7814:	28c7883a 	add	r3,r5,r3
    7818:	003b5b06 	br	6588 <__alt_mem_VGA_Subsystem_Char_Buf_Subsystem_Onchip_SRAM+0xf7006588>
    781c:	01000074 	movhi	r4,1
    7820:	210c9c84 	addi	r4,r4,12914
    7824:	d9003515 	stw	r4,212(sp)
    7828:	003af206 	br	63f4 <__alt_mem_VGA_Subsystem_Char_Buf_Subsystem_Onchip_SRAM+0xf70063f4>
    782c:	013fffc4 	movi	r4,-1
    7830:	003a0806 	br	6054 <__alt_mem_VGA_Subsystem_Char_Buf_Subsystem_Onchip_SRAM+0xf7006054>
    7834:	0023883a 	mov	r17,zero
    7838:	003d9d06 	br	6eb0 <__alt_mem_VGA_Subsystem_Char_Buf_Subsystem_Onchip_SRAM+0xf7006eb0>
    783c:	d9002d17 	ldw	r4,180(sp)
    7840:	d9801e04 	addi	r6,sp,120
    7844:	b80b883a 	mov	r5,r23
    7848:	000c87c0 	call	c87c <__sprint_r>
    784c:	1039d31e 	bne	r2,zero,5f9c <__alt_mem_VGA_Subsystem_Char_Buf_Subsystem_Onchip_SRAM+0xf7005f9c>
    7850:	d8c02017 	ldw	r3,128(sp)
    7854:	da000404 	addi	r8,sp,16
    7858:	003d9406 	br	6eac <__alt_mem_VGA_Subsystem_Char_Buf_Subsystem_Onchip_SRAM+0xf7006eac>
    785c:	01000074 	movhi	r4,1
    7860:	210c9884 	addi	r4,r4,12898
    7864:	d9002c15 	stw	r4,176(sp)
    7868:	d9002c17 	ldw	r4,176(sp)
    786c:	1c47883a 	add	r3,r3,r17
    7870:	10800044 	addi	r2,r2,1
    7874:	41000015 	stw	r4,0(r8)
    7878:	44400115 	stw	r17,4(r8)
    787c:	d8c02015 	stw	r3,128(sp)
    7880:	d8801f15 	stw	r2,124(sp)
    7884:	010001c4 	movi	r4,7
    7888:	20bfd716 	blt	r4,r2,77e8 <__alt_mem_VGA_Subsystem_Char_Buf_Subsystem_Onchip_SRAM+0xf70077e8>
    788c:	42000204 	addi	r8,r8,8
    7890:	003fdd06 	br	7808 <__alt_mem_VGA_Subsystem_Char_Buf_Subsystem_Onchip_SRAM+0xf7007808>
    7894:	d9002d17 	ldw	r4,180(sp)
    7898:	d9801e04 	addi	r6,sp,120
    789c:	b80b883a 	mov	r5,r23
    78a0:	000c87c0 	call	c87c <__sprint_r>
    78a4:	1039bd1e 	bne	r2,zero,5f9c <__alt_mem_VGA_Subsystem_Char_Buf_Subsystem_Onchip_SRAM+0xf7005f9c>
    78a8:	d8802617 	ldw	r2,152(sp)
    78ac:	d8c02017 	ldw	r3,128(sp)
    78b0:	da000404 	addi	r8,sp,16
    78b4:	003e1006 	br	70f8 <__alt_mem_VGA_Subsystem_Char_Buf_Subsystem_Onchip_SRAM+0xf70070f8>
    78b8:	00800044 	movi	r2,1
    78bc:	10803fcc 	andi	r2,r2,255
    78c0:	00c00044 	movi	r3,1
    78c4:	10fa0d26 	beq	r2,r3,60fc <__alt_mem_VGA_Subsystem_Char_Buf_Subsystem_Onchip_SRAM+0xf70060fc>
    78c8:	00c00084 	movi	r3,2
    78cc:	10fbaf26 	beq	r2,r3,678c <__alt_mem_VGA_Subsystem_Char_Buf_Subsystem_Onchip_SRAM+0xf700678c>
    78d0:	003a6d06 	br	6288 <__alt_mem_VGA_Subsystem_Char_Buf_Subsystem_Onchip_SRAM+0xf7006288>
    78d4:	01000074 	movhi	r4,1
    78d8:	210c9c84 	addi	r4,r4,12914
    78dc:	d9003515 	stw	r4,212(sp)
    78e0:	003b5406 	br	6634 <__alt_mem_VGA_Subsystem_Char_Buf_Subsystem_Onchip_SRAM+0xf7006634>
    78e4:	d8802a17 	ldw	r2,168(sp)
    78e8:	00c00184 	movi	r3,6
    78ec:	1880012e 	bgeu	r3,r2,78f4 <___vfprintf_internal_r+0x1d68>
    78f0:	1805883a 	mov	r2,r3
    78f4:	d8802b15 	stw	r2,172(sp)
    78f8:	1000ef16 	blt	r2,zero,7cb8 <___vfprintf_internal_r+0x212c>
    78fc:	04000074 	movhi	r16,1
    7900:	d8802915 	stw	r2,164(sp)
    7904:	dcc02e15 	stw	r19,184(sp)
    7908:	d8002a15 	stw	zero,168(sp)
    790c:	d8003215 	stw	zero,200(sp)
    7910:	840c9604 	addi	r16,r16,12888
    7914:	0039883a 	mov	fp,zero
    7918:	003a8006 	br	631c <__alt_mem_VGA_Subsystem_Char_Buf_Subsystem_Onchip_SRAM+0xf700631c>
    791c:	0021883a 	mov	r16,zero
    7920:	003e0706 	br	7140 <__alt_mem_VGA_Subsystem_Char_Buf_Subsystem_Onchip_SRAM+0xf7007140>
    7924:	d9002d17 	ldw	r4,180(sp)
    7928:	d9801e04 	addi	r6,sp,120
    792c:	b80b883a 	mov	r5,r23
    7930:	000c87c0 	call	c87c <__sprint_r>
    7934:	1039991e 	bne	r2,zero,5f9c <__alt_mem_VGA_Subsystem_Char_Buf_Subsystem_Onchip_SRAM+0xf7005f9c>
    7938:	d8802617 	ldw	r2,152(sp)
    793c:	d9403317 	ldw	r5,204(sp)
    7940:	d8c02017 	ldw	r3,128(sp)
    7944:	da000404 	addi	r8,sp,16
    7948:	2885c83a 	sub	r2,r5,r2
    794c:	003dfb06 	br	713c <__alt_mem_VGA_Subsystem_Char_Buf_Subsystem_Onchip_SRAM+0xf700713c>
    7950:	9080004c 	andi	r2,r18,1
    7954:	103e8f1e 	bne	r2,zero,7394 <__alt_mem_VGA_Subsystem_Char_Buf_Subsystem_Onchip_SRAM+0xf7007394>
    7958:	d8802117 	ldw	r2,132(sp)
    795c:	003e9e06 	br	73d8 <__alt_mem_VGA_Subsystem_Char_Buf_Subsystem_Onchip_SRAM+0xf70073d8>
    7960:	1025883a 	mov	r18,r2
    7964:	0039883a 	mov	fp,zero
    7968:	00800084 	movi	r2,2
    796c:	003fd306 	br	78bc <__alt_mem_VGA_Subsystem_Char_Buf_Subsystem_Onchip_SRAM+0xf70078bc>
    7970:	07000b44 	movi	fp,45
    7974:	df002785 	stb	fp,158(sp)
    7978:	003a1b06 	br	61e8 <__alt_mem_VGA_Subsystem_Char_Buf_Subsystem_Onchip_SRAM+0xf70061e8>
    797c:	00c00b44 	movi	r3,45
    7980:	d8c02785 	stb	r3,158(sp)
    7984:	d8802915 	stw	r2,164(sp)
    7988:	dc802c17 	ldw	r18,176(sp)
    798c:	d8002a15 	stw	zero,168(sp)
    7990:	07000b44 	movi	fp,45
    7994:	003a5e06 	br	6310 <__alt_mem_VGA_Subsystem_Char_Buf_Subsystem_Onchip_SRAM+0xf7006310>
    7998:	04000074 	movhi	r16,1
    799c:	840c8b04 	addi	r16,r16,12844
    79a0:	003f4706 	br	76c0 <__alt_mem_VGA_Subsystem_Char_Buf_Subsystem_Onchip_SRAM+0xf70076c0>
    79a4:	d9002e17 	ldw	r4,184(sp)
    79a8:	d9402f17 	ldw	r5,188(sp)
    79ac:	20800017 	ldw	r2,0(r4)
    79b0:	21000104 	addi	r4,r4,4
    79b4:	d9002e15 	stw	r4,184(sp)
    79b8:	11400015 	stw	r5,0(r2)
    79bc:	0038ab06 	br	5c6c <__alt_mem_VGA_Subsystem_Char_Buf_Subsystem_Onchip_SRAM+0xf7005c6c>
    79c0:	dd802617 	ldw	r22,152(sp)
    79c4:	00bfff44 	movi	r2,-3
    79c8:	b0801c16 	blt	r22,r2,7a3c <___vfprintf_internal_r+0x1eb0>
    79cc:	d9402a17 	ldw	r5,168(sp)
    79d0:	2d801a16 	blt	r5,r22,7a3c <___vfprintf_internal_r+0x1eb0>
    79d4:	dd803215 	stw	r22,200(sp)
    79d8:	003e8906 	br	7400 <__alt_mem_VGA_Subsystem_Char_Buf_Subsystem_Onchip_SRAM+0xf7007400>
    79dc:	01000074 	movhi	r4,1
    79e0:	210c9884 	addi	r4,r4,12898
    79e4:	d9002c15 	stw	r4,176(sp)
    79e8:	003c9106 	br	6c30 <__alt_mem_VGA_Subsystem_Char_Buf_Subsystem_Onchip_SRAM+0xf7006c30>
    79ec:	e005883a 	mov	r2,fp
    79f0:	003e7906 	br	73d8 <__alt_mem_VGA_Subsystem_Char_Buf_Subsystem_Onchip_SRAM+0xf70073d8>
    79f4:	d9002a17 	ldw	r4,168(sp)
    79f8:	df002783 	ldbu	fp,158(sp)
    79fc:	dcc02e15 	stw	r19,184(sp)
    7a00:	d9002915 	stw	r4,164(sp)
    7a04:	d9002b15 	stw	r4,172(sp)
    7a08:	d8002a15 	stw	zero,168(sp)
    7a0c:	d8003215 	stw	zero,200(sp)
    7a10:	003a3b06 	br	6300 <__alt_mem_VGA_Subsystem_Char_Buf_Subsystem_Onchip_SRAM+0xf7006300>
    7a14:	9080004c 	andi	r2,r18,1
    7a18:	0039883a 	mov	fp,zero
    7a1c:	10000426 	beq	r2,zero,7a30 <___vfprintf_internal_r+0x1ea4>
    7a20:	00800c04 	movi	r2,48
    7a24:	dc001dc4 	addi	r16,sp,119
    7a28:	d8801dc5 	stb	r2,119(sp)
    7a2c:	003b6406 	br	67c0 <__alt_mem_VGA_Subsystem_Char_Buf_Subsystem_Onchip_SRAM+0xf70067c0>
    7a30:	d8002b15 	stw	zero,172(sp)
    7a34:	dc001e04 	addi	r16,sp,120
    7a38:	003a2b06 	br	62e8 <__alt_mem_VGA_Subsystem_Char_Buf_Subsystem_Onchip_SRAM+0xf70062e8>
    7a3c:	8c7fff84 	addi	r17,r17,-2
    7a40:	b5bfffc4 	addi	r22,r22,-1
    7a44:	dd802615 	stw	r22,152(sp)
    7a48:	dc4022c5 	stb	r17,139(sp)
    7a4c:	b000bf16 	blt	r22,zero,7d4c <___vfprintf_internal_r+0x21c0>
    7a50:	00800ac4 	movi	r2,43
    7a54:	d8802305 	stb	r2,140(sp)
    7a58:	00800244 	movi	r2,9
    7a5c:	15807016 	blt	r2,r22,7c20 <___vfprintf_internal_r+0x2094>
    7a60:	00800c04 	movi	r2,48
    7a64:	b5800c04 	addi	r22,r22,48
    7a68:	d8802345 	stb	r2,141(sp)
    7a6c:	dd802385 	stb	r22,142(sp)
    7a70:	d88023c4 	addi	r2,sp,143
    7a74:	df0022c4 	addi	fp,sp,139
    7a78:	d8c03317 	ldw	r3,204(sp)
    7a7c:	1739c83a 	sub	fp,r2,fp
    7a80:	d9003317 	ldw	r4,204(sp)
    7a84:	e0c7883a 	add	r3,fp,r3
    7a88:	df003a15 	stw	fp,232(sp)
    7a8c:	d8c02b15 	stw	r3,172(sp)
    7a90:	00800044 	movi	r2,1
    7a94:	1100b30e 	bge	r2,r4,7d64 <___vfprintf_internal_r+0x21d8>
    7a98:	d8c02b17 	ldw	r3,172(sp)
    7a9c:	18c00044 	addi	r3,r3,1
    7aa0:	d8c02b15 	stw	r3,172(sp)
    7aa4:	1805883a 	mov	r2,r3
    7aa8:	1800ac16 	blt	r3,zero,7d5c <___vfprintf_internal_r+0x21d0>
    7aac:	d8003215 	stw	zero,200(sp)
    7ab0:	003e5d06 	br	7428 <__alt_mem_VGA_Subsystem_Char_Buf_Subsystem_Onchip_SRAM+0xf7007428>
    7ab4:	d9002d17 	ldw	r4,180(sp)
    7ab8:	d9801e04 	addi	r6,sp,120
    7abc:	b80b883a 	mov	r5,r23
    7ac0:	000c87c0 	call	c87c <__sprint_r>
    7ac4:	1039351e 	bne	r2,zero,5f9c <__alt_mem_VGA_Subsystem_Char_Buf_Subsystem_Onchip_SRAM+0xf7005f9c>
    7ac8:	dc402617 	ldw	r17,152(sp)
    7acc:	d8c02017 	ldw	r3,128(sp)
    7ad0:	d8801f17 	ldw	r2,124(sp)
    7ad4:	da000404 	addi	r8,sp,16
    7ad8:	003ed606 	br	7634 <__alt_mem_VGA_Subsystem_Char_Buf_Subsystem_Onchip_SRAM+0xf7007634>
    7adc:	182b883a 	mov	r21,r3
    7ae0:	d8002a15 	stw	zero,168(sp)
    7ae4:	00388c06 	br	5d18 <__alt_mem_VGA_Subsystem_Char_Buf_Subsystem_Onchip_SRAM+0xf7005d18>
    7ae8:	d8802a17 	ldw	r2,168(sp)
    7aec:	103e071e 	bne	r2,zero,730c <__alt_mem_VGA_Subsystem_Char_Buf_Subsystem_Onchip_SRAM+0xf700730c>
    7af0:	dc002a15 	stw	r16,168(sp)
    7af4:	003e0506 	br	730c <__alt_mem_VGA_Subsystem_Char_Buf_Subsystem_Onchip_SRAM+0xf700730c>
    7af8:	d9002a17 	ldw	r4,168(sp)
    7afc:	20c00044 	addi	r3,r4,1
    7b00:	003e0f06 	br	7340 <__alt_mem_VGA_Subsystem_Char_Buf_Subsystem_Onchip_SRAM+0xf7007340>
    7b04:	01400184 	movi	r5,6
    7b08:	d9402a15 	stw	r5,168(sp)
    7b0c:	003dff06 	br	730c <__alt_mem_VGA_Subsystem_Char_Buf_Subsystem_Onchip_SRAM+0xf700730c>
    7b10:	d8802104 	addi	r2,sp,132
    7b14:	d8800315 	stw	r2,12(sp)
    7b18:	d8802504 	addi	r2,sp,148
    7b1c:	d8800215 	stw	r2,8(sp)
    7b20:	d8802604 	addi	r2,sp,152
    7b24:	d8800115 	stw	r2,4(sp)
    7b28:	d8802a17 	ldw	r2,168(sp)
    7b2c:	d9403617 	ldw	r5,216(sp)
    7b30:	d9002d17 	ldw	r4,180(sp)
    7b34:	d8800015 	stw	r2,0(sp)
    7b38:	01c000c4 	movi	r7,3
    7b3c:	980d883a 	mov	r6,r19
    7b40:	da003d15 	stw	r8,244(sp)
    7b44:	00082bc0 	call	82bc <_dtoa_r>
    7b48:	d8c02a17 	ldw	r3,168(sp)
    7b4c:	da003d17 	ldw	r8,244(sp)
    7b50:	1021883a 	mov	r16,r2
    7b54:	10f9883a 	add	fp,r2,r3
    7b58:	81000007 	ldb	r4,0(r16)
    7b5c:	00800c04 	movi	r2,48
    7b60:	20805e26 	beq	r4,r2,7cdc <___vfprintf_internal_r+0x2150>
    7b64:	d8c02617 	ldw	r3,152(sp)
    7b68:	e0f9883a 	add	fp,fp,r3
    7b6c:	003e0a06 	br	7398 <__alt_mem_VGA_Subsystem_Char_Buf_Subsystem_Onchip_SRAM+0xf7007398>
    7b70:	00c00b44 	movi	r3,45
    7b74:	24e0003c 	xorhi	r19,r4,32768
    7b78:	d8c02905 	stb	r3,164(sp)
    7b7c:	003de906 	br	7324 <__alt_mem_VGA_Subsystem_Char_Buf_Subsystem_Onchip_SRAM+0xf7007324>
    7b80:	d8c03217 	ldw	r3,200(sp)
    7b84:	00c07a0e 	bge	zero,r3,7d70 <___vfprintf_internal_r+0x21e4>
    7b88:	00800044 	movi	r2,1
    7b8c:	d9003317 	ldw	r4,204(sp)
    7b90:	1105883a 	add	r2,r2,r4
    7b94:	d8802b15 	stw	r2,172(sp)
    7b98:	10004e16 	blt	r2,zero,7cd4 <___vfprintf_internal_r+0x2148>
    7b9c:	044019c4 	movi	r17,103
    7ba0:	003e2106 	br	7428 <__alt_mem_VGA_Subsystem_Char_Buf_Subsystem_Onchip_SRAM+0xf7007428>
    7ba4:	d9002a17 	ldw	r4,168(sp)
    7ba8:	d8802104 	addi	r2,sp,132
    7bac:	d8800315 	stw	r2,12(sp)
    7bb0:	d9000015 	stw	r4,0(sp)
    7bb4:	d8802504 	addi	r2,sp,148
    7bb8:	d9403617 	ldw	r5,216(sp)
    7bbc:	d9002d17 	ldw	r4,180(sp)
    7bc0:	d8800215 	stw	r2,8(sp)
    7bc4:	d8802604 	addi	r2,sp,152
    7bc8:	d8800115 	stw	r2,4(sp)
    7bcc:	01c000c4 	movi	r7,3
    7bd0:	980d883a 	mov	r6,r19
    7bd4:	da003d15 	stw	r8,244(sp)
    7bd8:	00082bc0 	call	82bc <_dtoa_r>
    7bdc:	d8c02a17 	ldw	r3,168(sp)
    7be0:	da003d17 	ldw	r8,244(sp)
    7be4:	1021883a 	mov	r16,r2
    7be8:	00801184 	movi	r2,70
    7bec:	80f9883a 	add	fp,r16,r3
    7bf0:	88bfd926 	beq	r17,r2,7b58 <__alt_mem_VGA_Subsystem_Char_Buf_Subsystem_Onchip_SRAM+0xf7007b58>
    7bf4:	003de806 	br	7398 <__alt_mem_VGA_Subsystem_Char_Buf_Subsystem_Onchip_SRAM+0xf7007398>
    7bf8:	d9002a17 	ldw	r4,168(sp)
    7bfc:	00c04d0e 	bge	zero,r3,7d34 <___vfprintf_internal_r+0x21a8>
    7c00:	2000441e 	bne	r4,zero,7d14 <___vfprintf_internal_r+0x2188>
    7c04:	9480004c 	andi	r18,r18,1
    7c08:	9000421e 	bne	r18,zero,7d14 <___vfprintf_internal_r+0x2188>
    7c0c:	1805883a 	mov	r2,r3
    7c10:	18006f16 	blt	r3,zero,7dd0 <___vfprintf_internal_r+0x2244>
    7c14:	d8c03217 	ldw	r3,200(sp)
    7c18:	d8c02b15 	stw	r3,172(sp)
    7c1c:	003e0206 	br	7428 <__alt_mem_VGA_Subsystem_Char_Buf_Subsystem_Onchip_SRAM+0xf7007428>
    7c20:	df0022c4 	addi	fp,sp,139
    7c24:	dc002a15 	stw	r16,168(sp)
    7c28:	4027883a 	mov	r19,r8
    7c2c:	e021883a 	mov	r16,fp
    7c30:	b009883a 	mov	r4,r22
    7c34:	01400284 	movi	r5,10
    7c38:	00032180 	call	3218 <__modsi3>
    7c3c:	10800c04 	addi	r2,r2,48
    7c40:	843fffc4 	addi	r16,r16,-1
    7c44:	b009883a 	mov	r4,r22
    7c48:	01400284 	movi	r5,10
    7c4c:	80800005 	stb	r2,0(r16)
    7c50:	00031940 	call	3194 <__divsi3>
    7c54:	102d883a 	mov	r22,r2
    7c58:	00800244 	movi	r2,9
    7c5c:	15bff416 	blt	r2,r22,7c30 <__alt_mem_VGA_Subsystem_Char_Buf_Subsystem_Onchip_SRAM+0xf7007c30>
    7c60:	9811883a 	mov	r8,r19
    7c64:	b0800c04 	addi	r2,r22,48
    7c68:	8027883a 	mov	r19,r16
    7c6c:	997fffc4 	addi	r5,r19,-1
    7c70:	98bfffc5 	stb	r2,-1(r19)
    7c74:	dc002a17 	ldw	r16,168(sp)
    7c78:	2f006d2e 	bgeu	r5,fp,7e30 <___vfprintf_internal_r+0x22a4>
    7c7c:	d9c02384 	addi	r7,sp,142
    7c80:	3ccfc83a 	sub	r7,r7,r19
    7c84:	d9002344 	addi	r4,sp,141
    7c88:	e1cf883a 	add	r7,fp,r7
    7c8c:	00000106 	br	7c94 <___vfprintf_internal_r+0x2108>
    7c90:	28800003 	ldbu	r2,0(r5)
    7c94:	20800005 	stb	r2,0(r4)
    7c98:	21000044 	addi	r4,r4,1
    7c9c:	29400044 	addi	r5,r5,1
    7ca0:	393ffb1e 	bne	r7,r4,7c90 <__alt_mem_VGA_Subsystem_Char_Buf_Subsystem_Onchip_SRAM+0xf7007c90>
    7ca4:	d8802304 	addi	r2,sp,140
    7ca8:	14c5c83a 	sub	r2,r2,r19
    7cac:	d8c02344 	addi	r3,sp,141
    7cb0:	1885883a 	add	r2,r3,r2
    7cb4:	003f7006 	br	7a78 <__alt_mem_VGA_Subsystem_Char_Buf_Subsystem_Onchip_SRAM+0xf7007a78>
    7cb8:	0005883a 	mov	r2,zero
    7cbc:	003f0f06 	br	78fc <__alt_mem_VGA_Subsystem_Char_Buf_Subsystem_Onchip_SRAM+0xf70078fc>
    7cc0:	d8c03217 	ldw	r3,200(sp)
    7cc4:	18c00044 	addi	r3,r3,1
    7cc8:	d8c02b15 	stw	r3,172(sp)
    7ccc:	1805883a 	mov	r2,r3
    7cd0:	183fb20e 	bge	r3,zero,7b9c <__alt_mem_VGA_Subsystem_Char_Buf_Subsystem_Onchip_SRAM+0xf7007b9c>
    7cd4:	0005883a 	mov	r2,zero
    7cd8:	003fb006 	br	7b9c <__alt_mem_VGA_Subsystem_Char_Buf_Subsystem_Onchip_SRAM+0xf7007b9c>
    7cdc:	d9003617 	ldw	r4,216(sp)
    7ce0:	000d883a 	mov	r6,zero
    7ce4:	000f883a 	mov	r7,zero
    7ce8:	980b883a 	mov	r5,r19
    7cec:	d8c03c15 	stw	r3,240(sp)
    7cf0:	da003d15 	stw	r8,244(sp)
    7cf4:	00045ec0 	call	45ec <__eqdf2>
    7cf8:	d8c03c17 	ldw	r3,240(sp)
    7cfc:	da003d17 	ldw	r8,244(sp)
    7d00:	103f9826 	beq	r2,zero,7b64 <__alt_mem_VGA_Subsystem_Char_Buf_Subsystem_Onchip_SRAM+0xf7007b64>
    7d04:	00800044 	movi	r2,1
    7d08:	10c7c83a 	sub	r3,r2,r3
    7d0c:	d8c02615 	stw	r3,152(sp)
    7d10:	003f9506 	br	7b68 <__alt_mem_VGA_Subsystem_Char_Buf_Subsystem_Onchip_SRAM+0xf7007b68>
    7d14:	d9002a17 	ldw	r4,168(sp)
    7d18:	d8c03217 	ldw	r3,200(sp)
    7d1c:	20800044 	addi	r2,r4,1
    7d20:	1885883a 	add	r2,r3,r2
    7d24:	d8802b15 	stw	r2,172(sp)
    7d28:	103dbf0e 	bge	r2,zero,7428 <__alt_mem_VGA_Subsystem_Char_Buf_Subsystem_Onchip_SRAM+0xf7007428>
    7d2c:	0005883a 	mov	r2,zero
    7d30:	003dbd06 	br	7428 <__alt_mem_VGA_Subsystem_Char_Buf_Subsystem_Onchip_SRAM+0xf7007428>
    7d34:	2000201e 	bne	r4,zero,7db8 <___vfprintf_internal_r+0x222c>
    7d38:	9480004c 	andi	r18,r18,1
    7d3c:	90001e1e 	bne	r18,zero,7db8 <___vfprintf_internal_r+0x222c>
    7d40:	00800044 	movi	r2,1
    7d44:	d8802b15 	stw	r2,172(sp)
    7d48:	003db706 	br	7428 <__alt_mem_VGA_Subsystem_Char_Buf_Subsystem_Onchip_SRAM+0xf7007428>
    7d4c:	00800b44 	movi	r2,45
    7d50:	05adc83a 	sub	r22,zero,r22
    7d54:	d8802305 	stb	r2,140(sp)
    7d58:	003f3f06 	br	7a58 <__alt_mem_VGA_Subsystem_Char_Buf_Subsystem_Onchip_SRAM+0xf7007a58>
    7d5c:	0005883a 	mov	r2,zero
    7d60:	003f5206 	br	7aac <__alt_mem_VGA_Subsystem_Char_Buf_Subsystem_Onchip_SRAM+0xf7007aac>
    7d64:	90a4703a 	and	r18,r18,r2
    7d68:	903f4e26 	beq	r18,zero,7aa4 <__alt_mem_VGA_Subsystem_Char_Buf_Subsystem_Onchip_SRAM+0xf7007aa4>
    7d6c:	003f4a06 	br	7a98 <__alt_mem_VGA_Subsystem_Char_Buf_Subsystem_Onchip_SRAM+0xf7007a98>
    7d70:	00800084 	movi	r2,2
    7d74:	10c5c83a 	sub	r2,r2,r3
    7d78:	003f8406 	br	7b8c <__alt_mem_VGA_Subsystem_Char_Buf_Subsystem_Onchip_SRAM+0xf7007b8c>
    7d7c:	d9402e17 	ldw	r5,184(sp)
    7d80:	d9002e17 	ldw	r4,184(sp)
    7d84:	ac400043 	ldbu	r17,1(r21)
    7d88:	29400017 	ldw	r5,0(r5)
    7d8c:	20800104 	addi	r2,r4,4
    7d90:	d8802e15 	stw	r2,184(sp)
    7d94:	d9402a15 	stw	r5,168(sp)
    7d98:	182b883a 	mov	r21,r3
    7d9c:	283e7b0e 	bge	r5,zero,778c <__alt_mem_VGA_Subsystem_Char_Buf_Subsystem_Onchip_SRAM+0xf700778c>
    7da0:	8c403fcc 	andi	r17,r17,255
    7da4:	017fffc4 	movi	r5,-1
    7da8:	8c40201c 	xori	r17,r17,128
    7dac:	d9402a15 	stw	r5,168(sp)
    7db0:	8c7fe004 	addi	r17,r17,-128
    7db4:	0037d706 	br	5d14 <__alt_mem_VGA_Subsystem_Char_Buf_Subsystem_Onchip_SRAM+0xf7005d14>
    7db8:	d8c02a17 	ldw	r3,168(sp)
    7dbc:	18c00084 	addi	r3,r3,2
    7dc0:	d8c02b15 	stw	r3,172(sp)
    7dc4:	1805883a 	mov	r2,r3
    7dc8:	183d970e 	bge	r3,zero,7428 <__alt_mem_VGA_Subsystem_Char_Buf_Subsystem_Onchip_SRAM+0xf7007428>
    7dcc:	003fd706 	br	7d2c <__alt_mem_VGA_Subsystem_Char_Buf_Subsystem_Onchip_SRAM+0xf7007d2c>
    7dd0:	0005883a 	mov	r2,zero
    7dd4:	003f8f06 	br	7c14 <__alt_mem_VGA_Subsystem_Char_Buf_Subsystem_Onchip_SRAM+0xf7007c14>
    7dd8:	9080004c 	andi	r2,r18,1
    7ddc:	103f821e 	bne	r2,zero,7be8 <__alt_mem_VGA_Subsystem_Char_Buf_Subsystem_Onchip_SRAM+0xf7007be8>
    7de0:	d8802117 	ldw	r2,132(sp)
    7de4:	1405c83a 	sub	r2,r2,r16
    7de8:	d8803315 	stw	r2,204(sp)
    7dec:	b47ef426 	beq	r22,r17,79c0 <__alt_mem_VGA_Subsystem_Char_Buf_Subsystem_Onchip_SRAM+0xf70079c0>
    7df0:	dd802617 	ldw	r22,152(sp)
    7df4:	003f1206 	br	7a40 <__alt_mem_VGA_Subsystem_Char_Buf_Subsystem_Onchip_SRAM+0xf7007a40>
    7df8:	d8c02b03 	ldbu	r3,172(sp)
    7dfc:	d8c02785 	stb	r3,158(sp)
    7e00:	0038df06 	br	6180 <__alt_mem_VGA_Subsystem_Char_Buf_Subsystem_Onchip_SRAM+0xf7006180>
    7e04:	d8c02b03 	ldbu	r3,172(sp)
    7e08:	d8c02785 	stb	r3,158(sp)
    7e0c:	0038aa06 	br	60b8 <__alt_mem_VGA_Subsystem_Char_Buf_Subsystem_Onchip_SRAM+0xf70060b8>
    7e10:	d8c02b03 	ldbu	r3,172(sp)
    7e14:	d8c02785 	stb	r3,158(sp)
    7e18:	003a4306 	br	6728 <__alt_mem_VGA_Subsystem_Char_Buf_Subsystem_Onchip_SRAM+0xf7006728>
    7e1c:	d8c02b03 	ldbu	r3,172(sp)
    7e20:	d8c02785 	stb	r3,158(sp)
    7e24:	003af506 	br	69fc <__alt_mem_VGA_Subsystem_Char_Buf_Subsystem_Onchip_SRAM+0xf70069fc>
    7e28:	0005883a 	mov	r2,zero
    7e2c:	003d7b06 	br	741c <__alt_mem_VGA_Subsystem_Char_Buf_Subsystem_Onchip_SRAM+0xf700741c>
    7e30:	d8802344 	addi	r2,sp,141
    7e34:	003f1006 	br	7a78 <__alt_mem_VGA_Subsystem_Char_Buf_Subsystem_Onchip_SRAM+0xf7007a78>
    7e38:	d8c02b03 	ldbu	r3,172(sp)
    7e3c:	d8c02785 	stb	r3,158(sp)
    7e40:	0038fd06 	br	6238 <__alt_mem_VGA_Subsystem_Char_Buf_Subsystem_Onchip_SRAM+0xf7006238>
    7e44:	d8c02b03 	ldbu	r3,172(sp)
    7e48:	d8c02785 	stb	r3,158(sp)
    7e4c:	003a9706 	br	68ac <__alt_mem_VGA_Subsystem_Char_Buf_Subsystem_Onchip_SRAM+0xf70068ac>
    7e50:	d8c02b03 	ldbu	r3,172(sp)
    7e54:	d8c02785 	stb	r3,158(sp)
    7e58:	003a1806 	br	66bc <__alt_mem_VGA_Subsystem_Char_Buf_Subsystem_Onchip_SRAM+0xf70066bc>
    7e5c:	d8c02b03 	ldbu	r3,172(sp)
    7e60:	d8c02785 	stb	r3,158(sp)
    7e64:	003abe06 	br	6960 <__alt_mem_VGA_Subsystem_Char_Buf_Subsystem_Onchip_SRAM+0xf7006960>

00007e68 <__vfprintf_internal>:
    7e68:	00800074 	movhi	r2,1
    7e6c:	10941104 	addi	r2,r2,20548
    7e70:	300f883a 	mov	r7,r6
    7e74:	280d883a 	mov	r6,r5
    7e78:	200b883a 	mov	r5,r4
    7e7c:	11000017 	ldw	r4,0(r2)
    7e80:	0005b8c1 	jmpi	5b8c <___vfprintf_internal_r>

00007e84 <__sbprintf>:
    7e84:	2880030b 	ldhu	r2,12(r5)
    7e88:	2ac01917 	ldw	r11,100(r5)
    7e8c:	2a80038b 	ldhu	r10,14(r5)
    7e90:	2a400717 	ldw	r9,28(r5)
    7e94:	2a000917 	ldw	r8,36(r5)
    7e98:	defee204 	addi	sp,sp,-1144
    7e9c:	00c10004 	movi	r3,1024
    7ea0:	dc011a15 	stw	r16,1128(sp)
    7ea4:	10bfff4c 	andi	r2,r2,65533
    7ea8:	2821883a 	mov	r16,r5
    7eac:	d8cb883a 	add	r5,sp,r3
    7eb0:	dc811c15 	stw	r18,1136(sp)
    7eb4:	dc411b15 	stw	r17,1132(sp)
    7eb8:	dfc11d15 	stw	ra,1140(sp)
    7ebc:	2025883a 	mov	r18,r4
    7ec0:	d881030d 	sth	r2,1036(sp)
    7ec4:	dac11915 	stw	r11,1124(sp)
    7ec8:	da81038d 	sth	r10,1038(sp)
    7ecc:	da410715 	stw	r9,1052(sp)
    7ed0:	da010915 	stw	r8,1060(sp)
    7ed4:	dec10015 	stw	sp,1024(sp)
    7ed8:	dec10415 	stw	sp,1040(sp)
    7edc:	d8c10215 	stw	r3,1032(sp)
    7ee0:	d8c10515 	stw	r3,1044(sp)
    7ee4:	d8010615 	stw	zero,1048(sp)
    7ee8:	0005b8c0 	call	5b8c <___vfprintf_internal_r>
    7eec:	1023883a 	mov	r17,r2
    7ef0:	10000416 	blt	r2,zero,7f04 <__sbprintf+0x80>
    7ef4:	d9410004 	addi	r5,sp,1024
    7ef8:	9009883a 	mov	r4,r18
    7efc:	0009b600 	call	9b60 <_fflush_r>
    7f00:	10000d1e 	bne	r2,zero,7f38 <__sbprintf+0xb4>
    7f04:	d881030b 	ldhu	r2,1036(sp)
    7f08:	1080100c 	andi	r2,r2,64
    7f0c:	10000326 	beq	r2,zero,7f1c <__sbprintf+0x98>
    7f10:	8080030b 	ldhu	r2,12(r16)
    7f14:	10801014 	ori	r2,r2,64
    7f18:	8080030d 	sth	r2,12(r16)
    7f1c:	8805883a 	mov	r2,r17
    7f20:	dfc11d17 	ldw	ra,1140(sp)
    7f24:	dc811c17 	ldw	r18,1136(sp)
    7f28:	dc411b17 	ldw	r17,1132(sp)
    7f2c:	dc011a17 	ldw	r16,1128(sp)
    7f30:	dec11e04 	addi	sp,sp,1144
    7f34:	f800283a 	ret
    7f38:	047fffc4 	movi	r17,-1
    7f3c:	003ff106 	br	7f04 <__alt_mem_VGA_Subsystem_Char_Buf_Subsystem_Onchip_SRAM+0xf7007f04>

00007f40 <__swsetup_r>:
    7f40:	00800074 	movhi	r2,1
    7f44:	defffd04 	addi	sp,sp,-12
    7f48:	10941104 	addi	r2,r2,20548
    7f4c:	dc400115 	stw	r17,4(sp)
    7f50:	2023883a 	mov	r17,r4
    7f54:	11000017 	ldw	r4,0(r2)
    7f58:	dc000015 	stw	r16,0(sp)
    7f5c:	dfc00215 	stw	ra,8(sp)
    7f60:	2821883a 	mov	r16,r5
    7f64:	20000226 	beq	r4,zero,7f70 <__swsetup_r+0x30>
    7f68:	20800e17 	ldw	r2,56(r4)
    7f6c:	10003126 	beq	r2,zero,8034 <__swsetup_r+0xf4>
    7f70:	8080030b 	ldhu	r2,12(r16)
    7f74:	10c0020c 	andi	r3,r2,8
    7f78:	1009883a 	mov	r4,r2
    7f7c:	18000f26 	beq	r3,zero,7fbc <__swsetup_r+0x7c>
    7f80:	80c00417 	ldw	r3,16(r16)
    7f84:	18001526 	beq	r3,zero,7fdc <__swsetup_r+0x9c>
    7f88:	1100004c 	andi	r4,r2,1
    7f8c:	20001c1e 	bne	r4,zero,8000 <__swsetup_r+0xc0>
    7f90:	1080008c 	andi	r2,r2,2
    7f94:	1000291e 	bne	r2,zero,803c <__swsetup_r+0xfc>
    7f98:	80800517 	ldw	r2,20(r16)
    7f9c:	80800215 	stw	r2,8(r16)
    7fa0:	18001c26 	beq	r3,zero,8014 <__swsetup_r+0xd4>
    7fa4:	0005883a 	mov	r2,zero
    7fa8:	dfc00217 	ldw	ra,8(sp)
    7fac:	dc400117 	ldw	r17,4(sp)
    7fb0:	dc000017 	ldw	r16,0(sp)
    7fb4:	dec00304 	addi	sp,sp,12
    7fb8:	f800283a 	ret
    7fbc:	2080040c 	andi	r2,r4,16
    7fc0:	10002e26 	beq	r2,zero,807c <__swsetup_r+0x13c>
    7fc4:	2080010c 	andi	r2,r4,4
    7fc8:	10001e1e 	bne	r2,zero,8044 <__swsetup_r+0x104>
    7fcc:	80c00417 	ldw	r3,16(r16)
    7fd0:	20800214 	ori	r2,r4,8
    7fd4:	8080030d 	sth	r2,12(r16)
    7fd8:	183feb1e 	bne	r3,zero,7f88 <__alt_mem_VGA_Subsystem_Char_Buf_Subsystem_Onchip_SRAM+0xf7007f88>
    7fdc:	1100a00c 	andi	r4,r2,640
    7fe0:	01408004 	movi	r5,512
    7fe4:	217fe826 	beq	r4,r5,7f88 <__alt_mem_VGA_Subsystem_Char_Buf_Subsystem_Onchip_SRAM+0xf7007f88>
    7fe8:	800b883a 	mov	r5,r16
    7fec:	8809883a 	mov	r4,r17
    7ff0:	000a6340 	call	a634 <__smakebuf_r>
    7ff4:	8080030b 	ldhu	r2,12(r16)
    7ff8:	80c00417 	ldw	r3,16(r16)
    7ffc:	003fe206 	br	7f88 <__alt_mem_VGA_Subsystem_Char_Buf_Subsystem_Onchip_SRAM+0xf7007f88>
    8000:	80800517 	ldw	r2,20(r16)
    8004:	80000215 	stw	zero,8(r16)
    8008:	0085c83a 	sub	r2,zero,r2
    800c:	80800615 	stw	r2,24(r16)
    8010:	183fe41e 	bne	r3,zero,7fa4 <__alt_mem_VGA_Subsystem_Char_Buf_Subsystem_Onchip_SRAM+0xf7007fa4>
    8014:	80c0030b 	ldhu	r3,12(r16)
    8018:	0005883a 	mov	r2,zero
    801c:	1900200c 	andi	r4,r3,128
    8020:	203fe126 	beq	r4,zero,7fa8 <__alt_mem_VGA_Subsystem_Char_Buf_Subsystem_Onchip_SRAM+0xf7007fa8>
    8024:	18c01014 	ori	r3,r3,64
    8028:	80c0030d 	sth	r3,12(r16)
    802c:	00bfffc4 	movi	r2,-1
    8030:	003fdd06 	br	7fa8 <__alt_mem_VGA_Subsystem_Char_Buf_Subsystem_Onchip_SRAM+0xf7007fa8>
    8034:	0009f4c0 	call	9f4c <__sinit>
    8038:	003fcd06 	br	7f70 <__alt_mem_VGA_Subsystem_Char_Buf_Subsystem_Onchip_SRAM+0xf7007f70>
    803c:	0005883a 	mov	r2,zero
    8040:	003fd606 	br	7f9c <__alt_mem_VGA_Subsystem_Char_Buf_Subsystem_Onchip_SRAM+0xf7007f9c>
    8044:	81400c17 	ldw	r5,48(r16)
    8048:	28000626 	beq	r5,zero,8064 <__swsetup_r+0x124>
    804c:	80801004 	addi	r2,r16,64
    8050:	28800326 	beq	r5,r2,8060 <__swsetup_r+0x120>
    8054:	8809883a 	mov	r4,r17
    8058:	000a0c00 	call	a0c0 <_free_r>
    805c:	8100030b 	ldhu	r4,12(r16)
    8060:	80000c15 	stw	zero,48(r16)
    8064:	80c00417 	ldw	r3,16(r16)
    8068:	00bff6c4 	movi	r2,-37
    806c:	1108703a 	and	r4,r2,r4
    8070:	80000115 	stw	zero,4(r16)
    8074:	80c00015 	stw	r3,0(r16)
    8078:	003fd506 	br	7fd0 <__alt_mem_VGA_Subsystem_Char_Buf_Subsystem_Onchip_SRAM+0xf7007fd0>
    807c:	00800244 	movi	r2,9
    8080:	88800015 	stw	r2,0(r17)
    8084:	20801014 	ori	r2,r4,64
    8088:	8080030d 	sth	r2,12(r16)
    808c:	00bfffc4 	movi	r2,-1
    8090:	003fc506 	br	7fa8 <__alt_mem_VGA_Subsystem_Char_Buf_Subsystem_Onchip_SRAM+0xf7007fa8>

00008094 <quorem>:
    8094:	defff204 	addi	sp,sp,-56
    8098:	ddc00b15 	stw	r23,44(sp)
    809c:	20800417 	ldw	r2,16(r4)
    80a0:	2dc00417 	ldw	r23,16(r5)
    80a4:	dfc00d15 	stw	ra,52(sp)
    80a8:	df000c15 	stw	fp,48(sp)
    80ac:	dd800a15 	stw	r22,40(sp)
    80b0:	dd400915 	stw	r21,36(sp)
    80b4:	dd000815 	stw	r20,32(sp)
    80b8:	dcc00715 	stw	r19,28(sp)
    80bc:	dc800615 	stw	r18,24(sp)
    80c0:	dc400515 	stw	r17,20(sp)
    80c4:	dc000415 	stw	r16,16(sp)
    80c8:	15c07a16 	blt	r2,r23,82b4 <quorem+0x220>
    80cc:	bdffffc4 	addi	r23,r23,-1
    80d0:	bde9883a 	add	r20,r23,r23
    80d4:	28c00504 	addi	r3,r5,20
    80d8:	a529883a 	add	r20,r20,r20
    80dc:	1d39883a 	add	fp,r3,r20
    80e0:	24c00504 	addi	r19,r4,20
    80e4:	d9400215 	stw	r5,8(sp)
    80e8:	9d29883a 	add	r20,r19,r20
    80ec:	e1400017 	ldw	r5,0(fp)
    80f0:	d9000015 	stw	r4,0(sp)
    80f4:	a1000017 	ldw	r4,0(r20)
    80f8:	29400044 	addi	r5,r5,1
    80fc:	d8c00115 	stw	r3,4(sp)
    8100:	dd000315 	stw	r20,12(sp)
    8104:	000328c0 	call	328c <__udivsi3>
    8108:	1025883a 	mov	r18,r2
    810c:	10003026 	beq	r2,zero,81d0 <quorem+0x13c>
    8110:	dc400117 	ldw	r17,4(sp)
    8114:	9829883a 	mov	r20,r19
    8118:	002d883a 	mov	r22,zero
    811c:	0021883a 	mov	r16,zero
    8120:	8d400017 	ldw	r21,0(r17)
    8124:	900b883a 	mov	r5,r18
    8128:	8c400104 	addi	r17,r17,4
    812c:	a93fffcc 	andi	r4,r21,65535
    8130:	00033480 	call	3348 <__mulsi3>
    8134:	a808d43a 	srli	r4,r21,16
    8138:	900b883a 	mov	r5,r18
    813c:	15ad883a 	add	r22,r2,r22
    8140:	00033480 	call	3348 <__mulsi3>
    8144:	a1000017 	ldw	r4,0(r20)
    8148:	b00cd43a 	srli	r6,r22,16
    814c:	b0ffffcc 	andi	r3,r22,65535
    8150:	217fffcc 	andi	r5,r4,65535
    8154:	2c21883a 	add	r16,r5,r16
    8158:	80c7c83a 	sub	r3,r16,r3
    815c:	2008d43a 	srli	r4,r4,16
    8160:	1185883a 	add	r2,r2,r6
    8164:	1821d43a 	srai	r16,r3,16
    8168:	117fffcc 	andi	r5,r2,65535
    816c:	2149c83a 	sub	r4,r4,r5
    8170:	2421883a 	add	r16,r4,r16
    8174:	8008943a 	slli	r4,r16,16
    8178:	18ffffcc 	andi	r3,r3,65535
    817c:	102cd43a 	srli	r22,r2,16
    8180:	20c8b03a 	or	r4,r4,r3
    8184:	a1000015 	stw	r4,0(r20)
    8188:	8021d43a 	srai	r16,r16,16
    818c:	a5000104 	addi	r20,r20,4
    8190:	e47fe32e 	bgeu	fp,r17,8120 <__alt_mem_VGA_Subsystem_Char_Buf_Subsystem_Onchip_SRAM+0xf7008120>
    8194:	d8c00317 	ldw	r3,12(sp)
    8198:	18800017 	ldw	r2,0(r3)
    819c:	10000c1e 	bne	r2,zero,81d0 <quorem+0x13c>
    81a0:	18bfff04 	addi	r2,r3,-4
    81a4:	9880082e 	bgeu	r19,r2,81c8 <quorem+0x134>
    81a8:	18ffff17 	ldw	r3,-4(r3)
    81ac:	18000326 	beq	r3,zero,81bc <quorem+0x128>
    81b0:	00000506 	br	81c8 <quorem+0x134>
    81b4:	10c00017 	ldw	r3,0(r2)
    81b8:	1800031e 	bne	r3,zero,81c8 <quorem+0x134>
    81bc:	10bfff04 	addi	r2,r2,-4
    81c0:	bdffffc4 	addi	r23,r23,-1
    81c4:	98bffb36 	bltu	r19,r2,81b4 <__alt_mem_VGA_Subsystem_Char_Buf_Subsystem_Onchip_SRAM+0xf70081b4>
    81c8:	d8c00017 	ldw	r3,0(sp)
    81cc:	1dc00415 	stw	r23,16(r3)
    81d0:	d9400217 	ldw	r5,8(sp)
    81d4:	d9000017 	ldw	r4,0(sp)
    81d8:	000bcd40 	call	bcd4 <__mcmp>
    81dc:	10002816 	blt	r2,zero,8280 <quorem+0x1ec>
    81e0:	dc400117 	ldw	r17,4(sp)
    81e4:	94800044 	addi	r18,r18,1
    81e8:	980d883a 	mov	r6,r19
    81ec:	0007883a 	mov	r3,zero
    81f0:	31000017 	ldw	r4,0(r6)
    81f4:	89400017 	ldw	r5,0(r17)
    81f8:	31800104 	addi	r6,r6,4
    81fc:	20bfffcc 	andi	r2,r4,65535
    8200:	10c7883a 	add	r3,r2,r3
    8204:	28bfffcc 	andi	r2,r5,65535
    8208:	1885c83a 	sub	r2,r3,r2
    820c:	280ad43a 	srli	r5,r5,16
    8210:	2008d43a 	srli	r4,r4,16
    8214:	1007d43a 	srai	r3,r2,16
    8218:	10bfffcc 	andi	r2,r2,65535
    821c:	2149c83a 	sub	r4,r4,r5
    8220:	20c9883a 	add	r4,r4,r3
    8224:	200a943a 	slli	r5,r4,16
    8228:	8c400104 	addi	r17,r17,4
    822c:	2007d43a 	srai	r3,r4,16
    8230:	2884b03a 	or	r2,r5,r2
    8234:	30bfff15 	stw	r2,-4(r6)
    8238:	e47fed2e 	bgeu	fp,r17,81f0 <__alt_mem_VGA_Subsystem_Char_Buf_Subsystem_Onchip_SRAM+0xf70081f0>
    823c:	bdc5883a 	add	r2,r23,r23
    8240:	1085883a 	add	r2,r2,r2
    8244:	9887883a 	add	r3,r19,r2
    8248:	18800017 	ldw	r2,0(r3)
    824c:	10000c1e 	bne	r2,zero,8280 <quorem+0x1ec>
    8250:	18bfff04 	addi	r2,r3,-4
    8254:	9880082e 	bgeu	r19,r2,8278 <quorem+0x1e4>
    8258:	18ffff17 	ldw	r3,-4(r3)
    825c:	18000326 	beq	r3,zero,826c <quorem+0x1d8>
    8260:	00000506 	br	8278 <quorem+0x1e4>
    8264:	10c00017 	ldw	r3,0(r2)
    8268:	1800031e 	bne	r3,zero,8278 <quorem+0x1e4>
    826c:	10bfff04 	addi	r2,r2,-4
    8270:	bdffffc4 	addi	r23,r23,-1
    8274:	98bffb36 	bltu	r19,r2,8264 <__alt_mem_VGA_Subsystem_Char_Buf_Subsystem_Onchip_SRAM+0xf7008264>
    8278:	d8c00017 	ldw	r3,0(sp)
    827c:	1dc00415 	stw	r23,16(r3)
    8280:	9005883a 	mov	r2,r18
    8284:	dfc00d17 	ldw	ra,52(sp)
    8288:	df000c17 	ldw	fp,48(sp)
    828c:	ddc00b17 	ldw	r23,44(sp)
    8290:	dd800a17 	ldw	r22,40(sp)
    8294:	dd400917 	ldw	r21,36(sp)
    8298:	dd000817 	ldw	r20,32(sp)
    829c:	dcc00717 	ldw	r19,28(sp)
    82a0:	dc800617 	ldw	r18,24(sp)
    82a4:	dc400517 	ldw	r17,20(sp)
    82a8:	dc000417 	ldw	r16,16(sp)
    82ac:	dec00e04 	addi	sp,sp,56
    82b0:	f800283a 	ret
    82b4:	0005883a 	mov	r2,zero
    82b8:	003ff206 	br	8284 <__alt_mem_VGA_Subsystem_Char_Buf_Subsystem_Onchip_SRAM+0xf7008284>

000082bc <_dtoa_r>:
    82bc:	20801017 	ldw	r2,64(r4)
    82c0:	deffde04 	addi	sp,sp,-136
    82c4:	df002015 	stw	fp,128(sp)
    82c8:	dcc01b15 	stw	r19,108(sp)
    82cc:	dc801a15 	stw	r18,104(sp)
    82d0:	dc401915 	stw	r17,100(sp)
    82d4:	dc001815 	stw	r16,96(sp)
    82d8:	dfc02115 	stw	ra,132(sp)
    82dc:	ddc01f15 	stw	r23,124(sp)
    82e0:	dd801e15 	stw	r22,120(sp)
    82e4:	dd401d15 	stw	r21,116(sp)
    82e8:	dd001c15 	stw	r20,112(sp)
    82ec:	d9c00315 	stw	r7,12(sp)
    82f0:	2039883a 	mov	fp,r4
    82f4:	3023883a 	mov	r17,r6
    82f8:	2825883a 	mov	r18,r5
    82fc:	dc002417 	ldw	r16,144(sp)
    8300:	3027883a 	mov	r19,r6
    8304:	10000826 	beq	r2,zero,8328 <_dtoa_r+0x6c>
    8308:	21801117 	ldw	r6,68(r4)
    830c:	00c00044 	movi	r3,1
    8310:	100b883a 	mov	r5,r2
    8314:	1986983a 	sll	r3,r3,r6
    8318:	11800115 	stw	r6,4(r2)
    831c:	10c00215 	stw	r3,8(r2)
    8320:	000b3f80 	call	b3f8 <_Bfree>
    8324:	e0001015 	stw	zero,64(fp)
    8328:	88002e16 	blt	r17,zero,83e4 <_dtoa_r+0x128>
    832c:	80000015 	stw	zero,0(r16)
    8330:	889ffc2c 	andhi	r2,r17,32752
    8334:	00dffc34 	movhi	r3,32752
    8338:	10c01c26 	beq	r2,r3,83ac <_dtoa_r+0xf0>
    833c:	000d883a 	mov	r6,zero
    8340:	000f883a 	mov	r7,zero
    8344:	9009883a 	mov	r4,r18
    8348:	980b883a 	mov	r5,r19
    834c:	00045ec0 	call	45ec <__eqdf2>
    8350:	10002b1e 	bne	r2,zero,8400 <_dtoa_r+0x144>
    8354:	d9c02317 	ldw	r7,140(sp)
    8358:	00800044 	movi	r2,1
    835c:	38800015 	stw	r2,0(r7)
    8360:	d8802517 	ldw	r2,148(sp)
    8364:	10019e26 	beq	r2,zero,89e0 <_dtoa_r+0x724>
    8368:	d8c02517 	ldw	r3,148(sp)
    836c:	00800074 	movhi	r2,1
    8370:	108c9844 	addi	r2,r2,12897
    8374:	18800015 	stw	r2,0(r3)
    8378:	10bfffc4 	addi	r2,r2,-1
    837c:	dfc02117 	ldw	ra,132(sp)
    8380:	df002017 	ldw	fp,128(sp)
    8384:	ddc01f17 	ldw	r23,124(sp)
    8388:	dd801e17 	ldw	r22,120(sp)
    838c:	dd401d17 	ldw	r21,116(sp)
    8390:	dd001c17 	ldw	r20,112(sp)
    8394:	dcc01b17 	ldw	r19,108(sp)
    8398:	dc801a17 	ldw	r18,104(sp)
    839c:	dc401917 	ldw	r17,100(sp)
    83a0:	dc001817 	ldw	r16,96(sp)
    83a4:	dec02204 	addi	sp,sp,136
    83a8:	f800283a 	ret
    83ac:	d8c02317 	ldw	r3,140(sp)
    83b0:	0089c3c4 	movi	r2,9999
    83b4:	18800015 	stw	r2,0(r3)
    83b8:	90017726 	beq	r18,zero,8998 <_dtoa_r+0x6dc>
    83bc:	00800074 	movhi	r2,1
    83c0:	108ca404 	addi	r2,r2,12944
    83c4:	d9002517 	ldw	r4,148(sp)
    83c8:	203fec26 	beq	r4,zero,837c <__alt_mem_VGA_Subsystem_Char_Buf_Subsystem_Onchip_SRAM+0xf700837c>
    83cc:	10c000c7 	ldb	r3,3(r2)
    83d0:	1801781e 	bne	r3,zero,89b4 <_dtoa_r+0x6f8>
    83d4:	10c000c4 	addi	r3,r2,3
    83d8:	d9802517 	ldw	r6,148(sp)
    83dc:	30c00015 	stw	r3,0(r6)
    83e0:	003fe606 	br	837c <__alt_mem_VGA_Subsystem_Char_Buf_Subsystem_Onchip_SRAM+0xf700837c>
    83e4:	04e00034 	movhi	r19,32768
    83e8:	9cffffc4 	addi	r19,r19,-1
    83ec:	00800044 	movi	r2,1
    83f0:	8ce6703a 	and	r19,r17,r19
    83f4:	80800015 	stw	r2,0(r16)
    83f8:	9823883a 	mov	r17,r19
    83fc:	003fcc06 	br	8330 <__alt_mem_VGA_Subsystem_Char_Buf_Subsystem_Onchip_SRAM+0xf7008330>
    8400:	d8800204 	addi	r2,sp,8
    8404:	d8800015 	stw	r2,0(sp)
    8408:	d9c00104 	addi	r7,sp,4
    840c:	900b883a 	mov	r5,r18
    8410:	980d883a 	mov	r6,r19
    8414:	e009883a 	mov	r4,fp
    8418:	8820d53a 	srli	r16,r17,20
    841c:	000c0a00 	call	c0a0 <__d2b>
    8420:	d8800915 	stw	r2,36(sp)
    8424:	8001651e 	bne	r16,zero,89bc <_dtoa_r+0x700>
    8428:	dd800217 	ldw	r22,8(sp)
    842c:	dc000117 	ldw	r16,4(sp)
    8430:	00800804 	movi	r2,32
    8434:	b421883a 	add	r16,r22,r16
    8438:	80c10c84 	addi	r3,r16,1074
    843c:	10c2d10e 	bge	r2,r3,8f84 <_dtoa_r+0xcc8>
    8440:	00801004 	movi	r2,64
    8444:	81010484 	addi	r4,r16,1042
    8448:	10c7c83a 	sub	r3,r2,r3
    844c:	9108d83a 	srl	r4,r18,r4
    8450:	88e2983a 	sll	r17,r17,r3
    8454:	2448b03a 	or	r4,r4,r17
    8458:	0005a140 	call	5a14 <__floatunsidf>
    845c:	017f8434 	movhi	r5,65040
    8460:	01800044 	movi	r6,1
    8464:	1009883a 	mov	r4,r2
    8468:	194b883a 	add	r5,r3,r5
    846c:	843fffc4 	addi	r16,r16,-1
    8470:	d9801115 	stw	r6,68(sp)
    8474:	000d883a 	mov	r6,zero
    8478:	01cffe34 	movhi	r7,16376
    847c:	0004fbc0 	call	4fbc <__subdf3>
    8480:	0198dbf4 	movhi	r6,25455
    8484:	01cff4f4 	movhi	r7,16339
    8488:	3190d844 	addi	r6,r6,17249
    848c:	39e1e9c4 	addi	r7,r7,-30809
    8490:	1009883a 	mov	r4,r2
    8494:	180b883a 	mov	r5,r3
    8498:	00047500 	call	4750 <__muldf3>
    849c:	01a2d874 	movhi	r6,35681
    84a0:	01cff1f4 	movhi	r7,16327
    84a4:	31b22cc4 	addi	r6,r6,-14157
    84a8:	39e28a04 	addi	r7,r7,-30168
    84ac:	180b883a 	mov	r5,r3
    84b0:	1009883a 	mov	r4,r2
    84b4:	00033700 	call	3370 <__adddf3>
    84b8:	8009883a 	mov	r4,r16
    84bc:	1029883a 	mov	r20,r2
    84c0:	1823883a 	mov	r17,r3
    84c4:	00059380 	call	5938 <__floatsidf>
    84c8:	019427f4 	movhi	r6,20639
    84cc:	01cff4f4 	movhi	r7,16339
    84d0:	319e7ec4 	addi	r6,r6,31227
    84d4:	39d104c4 	addi	r7,r7,17427
    84d8:	1009883a 	mov	r4,r2
    84dc:	180b883a 	mov	r5,r3
    84e0:	00047500 	call	4750 <__muldf3>
    84e4:	100d883a 	mov	r6,r2
    84e8:	180f883a 	mov	r7,r3
    84ec:	a009883a 	mov	r4,r20
    84f0:	880b883a 	mov	r5,r17
    84f4:	00033700 	call	3370 <__adddf3>
    84f8:	1009883a 	mov	r4,r2
    84fc:	180b883a 	mov	r5,r3
    8500:	1029883a 	mov	r20,r2
    8504:	1823883a 	mov	r17,r3
    8508:	00058b80 	call	58b8 <__fixdfsi>
    850c:	000d883a 	mov	r6,zero
    8510:	000f883a 	mov	r7,zero
    8514:	a009883a 	mov	r4,r20
    8518:	880b883a 	mov	r5,r17
    851c:	d8800515 	stw	r2,20(sp)
    8520:	000ff0c0 	call	ff0c <__ledf2>
    8524:	10028716 	blt	r2,zero,8f44 <_dtoa_r+0xc88>
    8528:	d8c00517 	ldw	r3,20(sp)
    852c:	00800584 	movi	r2,22
    8530:	10c27536 	bltu	r2,r3,8f08 <_dtoa_r+0xc4c>
    8534:	180490fa 	slli	r2,r3,3
    8538:	00c00074 	movhi	r3,1
    853c:	18ccc004 	addi	r3,r3,13056
    8540:	1885883a 	add	r2,r3,r2
    8544:	11000017 	ldw	r4,0(r2)
    8548:	11400117 	ldw	r5,4(r2)
    854c:	900d883a 	mov	r6,r18
    8550:	980f883a 	mov	r7,r19
    8554:	00046740 	call	4674 <__gedf2>
    8558:	00828d0e 	bge	zero,r2,8f90 <_dtoa_r+0xcd4>
    855c:	d9000517 	ldw	r4,20(sp)
    8560:	d8000e15 	stw	zero,56(sp)
    8564:	213fffc4 	addi	r4,r4,-1
    8568:	d9000515 	stw	r4,20(sp)
    856c:	b42dc83a 	sub	r22,r22,r16
    8570:	b5bfffc4 	addi	r22,r22,-1
    8574:	b0026f16 	blt	r22,zero,8f34 <_dtoa_r+0xc78>
    8578:	d8000815 	stw	zero,32(sp)
    857c:	d9c00517 	ldw	r7,20(sp)
    8580:	38026416 	blt	r7,zero,8f14 <_dtoa_r+0xc58>
    8584:	b1ed883a 	add	r22,r22,r7
    8588:	d9c00d15 	stw	r7,52(sp)
    858c:	d8000a15 	stw	zero,40(sp)
    8590:	d9800317 	ldw	r6,12(sp)
    8594:	00800244 	movi	r2,9
    8598:	11811436 	bltu	r2,r6,89ec <_dtoa_r+0x730>
    859c:	00800144 	movi	r2,5
    85a0:	1184e10e 	bge	r2,r6,9928 <_dtoa_r+0x166c>
    85a4:	31bfff04 	addi	r6,r6,-4
    85a8:	d9800315 	stw	r6,12(sp)
    85ac:	0023883a 	mov	r17,zero
    85b0:	d9800317 	ldw	r6,12(sp)
    85b4:	008000c4 	movi	r2,3
    85b8:	30836726 	beq	r6,r2,9358 <_dtoa_r+0x109c>
    85bc:	1183410e 	bge	r2,r6,92c4 <_dtoa_r+0x1008>
    85c0:	d9c00317 	ldw	r7,12(sp)
    85c4:	00800104 	movi	r2,4
    85c8:	38827c26 	beq	r7,r2,8fbc <_dtoa_r+0xd00>
    85cc:	00800144 	movi	r2,5
    85d0:	3884c41e 	bne	r7,r2,98e4 <_dtoa_r+0x1628>
    85d4:	00800044 	movi	r2,1
    85d8:	d8800b15 	stw	r2,44(sp)
    85dc:	d8c00517 	ldw	r3,20(sp)
    85e0:	d9002217 	ldw	r4,136(sp)
    85e4:	1907883a 	add	r3,r3,r4
    85e8:	19800044 	addi	r6,r3,1
    85ec:	d8c00c15 	stw	r3,48(sp)
    85f0:	d9800615 	stw	r6,24(sp)
    85f4:	0183a40e 	bge	zero,r6,9488 <_dtoa_r+0x11cc>
    85f8:	d9800617 	ldw	r6,24(sp)
    85fc:	3021883a 	mov	r16,r6
    8600:	e0001115 	stw	zero,68(fp)
    8604:	008005c4 	movi	r2,23
    8608:	1184c92e 	bgeu	r2,r6,9930 <_dtoa_r+0x1674>
    860c:	00c00044 	movi	r3,1
    8610:	00800104 	movi	r2,4
    8614:	1085883a 	add	r2,r2,r2
    8618:	11000504 	addi	r4,r2,20
    861c:	180b883a 	mov	r5,r3
    8620:	18c00044 	addi	r3,r3,1
    8624:	313ffb2e 	bgeu	r6,r4,8614 <__alt_mem_VGA_Subsystem_Char_Buf_Subsystem_Onchip_SRAM+0xf7008614>
    8628:	e1401115 	stw	r5,68(fp)
    862c:	e009883a 	mov	r4,fp
    8630:	000b3500 	call	b350 <_Balloc>
    8634:	d8800715 	stw	r2,28(sp)
    8638:	e0801015 	stw	r2,64(fp)
    863c:	00800384 	movi	r2,14
    8640:	1400f736 	bltu	r2,r16,8a20 <_dtoa_r+0x764>
    8644:	8800f626 	beq	r17,zero,8a20 <_dtoa_r+0x764>
    8648:	d9c00517 	ldw	r7,20(sp)
    864c:	01c39a0e 	bge	zero,r7,94b8 <_dtoa_r+0x11fc>
    8650:	388003cc 	andi	r2,r7,15
    8654:	100490fa 	slli	r2,r2,3
    8658:	382bd13a 	srai	r21,r7,4
    865c:	00c00074 	movhi	r3,1
    8660:	18ccc004 	addi	r3,r3,13056
    8664:	1885883a 	add	r2,r3,r2
    8668:	a8c0040c 	andi	r3,r21,16
    866c:	12400017 	ldw	r9,0(r2)
    8670:	12000117 	ldw	r8,4(r2)
    8674:	18037926 	beq	r3,zero,945c <_dtoa_r+0x11a0>
    8678:	00800074 	movhi	r2,1
    867c:	108cb604 	addi	r2,r2,13016
    8680:	11800817 	ldw	r6,32(r2)
    8684:	11c00917 	ldw	r7,36(r2)
    8688:	9009883a 	mov	r4,r18
    868c:	980b883a 	mov	r5,r19
    8690:	da001715 	stw	r8,92(sp)
    8694:	da401615 	stw	r9,88(sp)
    8698:	0003c1c0 	call	3c1c <__divdf3>
    869c:	da001717 	ldw	r8,92(sp)
    86a0:	da401617 	ldw	r9,88(sp)
    86a4:	ad4003cc 	andi	r21,r21,15
    86a8:	040000c4 	movi	r16,3
    86ac:	1023883a 	mov	r17,r2
    86b0:	1829883a 	mov	r20,r3
    86b4:	a8001126 	beq	r21,zero,86fc <_dtoa_r+0x440>
    86b8:	05c00074 	movhi	r23,1
    86bc:	bdccb604 	addi	r23,r23,13016
    86c0:	4805883a 	mov	r2,r9
    86c4:	4007883a 	mov	r3,r8
    86c8:	a980004c 	andi	r6,r21,1
    86cc:	1009883a 	mov	r4,r2
    86d0:	a82bd07a 	srai	r21,r21,1
    86d4:	180b883a 	mov	r5,r3
    86d8:	30000426 	beq	r6,zero,86ec <_dtoa_r+0x430>
    86dc:	b9800017 	ldw	r6,0(r23)
    86e0:	b9c00117 	ldw	r7,4(r23)
    86e4:	84000044 	addi	r16,r16,1
    86e8:	00047500 	call	4750 <__muldf3>
    86ec:	bdc00204 	addi	r23,r23,8
    86f0:	a83ff51e 	bne	r21,zero,86c8 <__alt_mem_VGA_Subsystem_Char_Buf_Subsystem_Onchip_SRAM+0xf70086c8>
    86f4:	1013883a 	mov	r9,r2
    86f8:	1811883a 	mov	r8,r3
    86fc:	480d883a 	mov	r6,r9
    8700:	400f883a 	mov	r7,r8
    8704:	8809883a 	mov	r4,r17
    8708:	a00b883a 	mov	r5,r20
    870c:	0003c1c0 	call	3c1c <__divdf3>
    8710:	d8800f15 	stw	r2,60(sp)
    8714:	d8c01015 	stw	r3,64(sp)
    8718:	d8c00e17 	ldw	r3,56(sp)
    871c:	18000626 	beq	r3,zero,8738 <_dtoa_r+0x47c>
    8720:	d9000f17 	ldw	r4,60(sp)
    8724:	d9401017 	ldw	r5,64(sp)
    8728:	000d883a 	mov	r6,zero
    872c:	01cffc34 	movhi	r7,16368
    8730:	000ff0c0 	call	ff0c <__ledf2>
    8734:	10040b16 	blt	r2,zero,9764 <_dtoa_r+0x14a8>
    8738:	8009883a 	mov	r4,r16
    873c:	00059380 	call	5938 <__floatsidf>
    8740:	d9800f17 	ldw	r6,60(sp)
    8744:	d9c01017 	ldw	r7,64(sp)
    8748:	1009883a 	mov	r4,r2
    874c:	180b883a 	mov	r5,r3
    8750:	00047500 	call	4750 <__muldf3>
    8754:	000d883a 	mov	r6,zero
    8758:	01d00734 	movhi	r7,16412
    875c:	1009883a 	mov	r4,r2
    8760:	180b883a 	mov	r5,r3
    8764:	00033700 	call	3370 <__adddf3>
    8768:	1021883a 	mov	r16,r2
    876c:	d8800617 	ldw	r2,24(sp)
    8770:	047f3034 	movhi	r17,64704
    8774:	1c63883a 	add	r17,r3,r17
    8778:	10031826 	beq	r2,zero,93dc <_dtoa_r+0x1120>
    877c:	d8c00517 	ldw	r3,20(sp)
    8780:	db000617 	ldw	r12,24(sp)
    8784:	d8c01315 	stw	r3,76(sp)
    8788:	d9000b17 	ldw	r4,44(sp)
    878c:	20038f26 	beq	r4,zero,95cc <_dtoa_r+0x1310>
    8790:	60bfffc4 	addi	r2,r12,-1
    8794:	100490fa 	slli	r2,r2,3
    8798:	00c00074 	movhi	r3,1
    879c:	18ccc004 	addi	r3,r3,13056
    87a0:	1885883a 	add	r2,r3,r2
    87a4:	11800017 	ldw	r6,0(r2)
    87a8:	11c00117 	ldw	r7,4(r2)
    87ac:	d8800717 	ldw	r2,28(sp)
    87b0:	0009883a 	mov	r4,zero
    87b4:	014ff834 	movhi	r5,16352
    87b8:	db001615 	stw	r12,88(sp)
    87bc:	15c00044 	addi	r23,r2,1
    87c0:	0003c1c0 	call	3c1c <__divdf3>
    87c4:	800d883a 	mov	r6,r16
    87c8:	880f883a 	mov	r7,r17
    87cc:	1009883a 	mov	r4,r2
    87d0:	180b883a 	mov	r5,r3
    87d4:	0004fbc0 	call	4fbc <__subdf3>
    87d8:	d9401017 	ldw	r5,64(sp)
    87dc:	d9000f17 	ldw	r4,60(sp)
    87e0:	102b883a 	mov	r21,r2
    87e4:	d8c01215 	stw	r3,72(sp)
    87e8:	00058b80 	call	58b8 <__fixdfsi>
    87ec:	1009883a 	mov	r4,r2
    87f0:	1029883a 	mov	r20,r2
    87f4:	00059380 	call	5938 <__floatsidf>
    87f8:	d9000f17 	ldw	r4,60(sp)
    87fc:	d9401017 	ldw	r5,64(sp)
    8800:	100d883a 	mov	r6,r2
    8804:	180f883a 	mov	r7,r3
    8808:	0004fbc0 	call	4fbc <__subdf3>
    880c:	1823883a 	mov	r17,r3
    8810:	d8c00717 	ldw	r3,28(sp)
    8814:	d9401217 	ldw	r5,72(sp)
    8818:	a2000c04 	addi	r8,r20,48
    881c:	1021883a 	mov	r16,r2
    8820:	1a000005 	stb	r8,0(r3)
    8824:	800d883a 	mov	r6,r16
    8828:	880f883a 	mov	r7,r17
    882c:	a809883a 	mov	r4,r21
    8830:	4029883a 	mov	r20,r8
    8834:	00046740 	call	4674 <__gedf2>
    8838:	00841d16 	blt	zero,r2,98b0 <_dtoa_r+0x15f4>
    883c:	800d883a 	mov	r6,r16
    8840:	880f883a 	mov	r7,r17
    8844:	0009883a 	mov	r4,zero
    8848:	014ffc34 	movhi	r5,16368
    884c:	0004fbc0 	call	4fbc <__subdf3>
    8850:	d9401217 	ldw	r5,72(sp)
    8854:	100d883a 	mov	r6,r2
    8858:	180f883a 	mov	r7,r3
    885c:	a809883a 	mov	r4,r21
    8860:	00046740 	call	4674 <__gedf2>
    8864:	db001617 	ldw	r12,88(sp)
    8868:	00840e16 	blt	zero,r2,98a4 <_dtoa_r+0x15e8>
    886c:	00800044 	movi	r2,1
    8870:	13006b0e 	bge	r2,r12,8a20 <_dtoa_r+0x764>
    8874:	d9000717 	ldw	r4,28(sp)
    8878:	dd800f15 	stw	r22,60(sp)
    887c:	dcc01015 	stw	r19,64(sp)
    8880:	2319883a 	add	r12,r4,r12
    8884:	dcc01217 	ldw	r19,72(sp)
    8888:	602d883a 	mov	r22,r12
    888c:	dc801215 	stw	r18,72(sp)
    8890:	b825883a 	mov	r18,r23
    8894:	00000906 	br	88bc <_dtoa_r+0x600>
    8898:	0004fbc0 	call	4fbc <__subdf3>
    889c:	a80d883a 	mov	r6,r21
    88a0:	980f883a 	mov	r7,r19
    88a4:	1009883a 	mov	r4,r2
    88a8:	180b883a 	mov	r5,r3
    88ac:	000ff0c0 	call	ff0c <__ledf2>
    88b0:	1003e816 	blt	r2,zero,9854 <_dtoa_r+0x1598>
    88b4:	b825883a 	mov	r18,r23
    88b8:	bd83e926 	beq	r23,r22,9860 <_dtoa_r+0x15a4>
    88bc:	a809883a 	mov	r4,r21
    88c0:	980b883a 	mov	r5,r19
    88c4:	000d883a 	mov	r6,zero
    88c8:	01d00934 	movhi	r7,16420
    88cc:	00047500 	call	4750 <__muldf3>
    88d0:	000d883a 	mov	r6,zero
    88d4:	01d00934 	movhi	r7,16420
    88d8:	8009883a 	mov	r4,r16
    88dc:	880b883a 	mov	r5,r17
    88e0:	102b883a 	mov	r21,r2
    88e4:	1827883a 	mov	r19,r3
    88e8:	00047500 	call	4750 <__muldf3>
    88ec:	180b883a 	mov	r5,r3
    88f0:	1009883a 	mov	r4,r2
    88f4:	1821883a 	mov	r16,r3
    88f8:	1023883a 	mov	r17,r2
    88fc:	00058b80 	call	58b8 <__fixdfsi>
    8900:	1009883a 	mov	r4,r2
    8904:	1029883a 	mov	r20,r2
    8908:	00059380 	call	5938 <__floatsidf>
    890c:	8809883a 	mov	r4,r17
    8910:	800b883a 	mov	r5,r16
    8914:	100d883a 	mov	r6,r2
    8918:	180f883a 	mov	r7,r3
    891c:	0004fbc0 	call	4fbc <__subdf3>
    8920:	a5000c04 	addi	r20,r20,48
    8924:	a80d883a 	mov	r6,r21
    8928:	980f883a 	mov	r7,r19
    892c:	1009883a 	mov	r4,r2
    8930:	180b883a 	mov	r5,r3
    8934:	95000005 	stb	r20,0(r18)
    8938:	1021883a 	mov	r16,r2
    893c:	1823883a 	mov	r17,r3
    8940:	000ff0c0 	call	ff0c <__ledf2>
    8944:	bdc00044 	addi	r23,r23,1
    8948:	800d883a 	mov	r6,r16
    894c:	880f883a 	mov	r7,r17
    8950:	0009883a 	mov	r4,zero
    8954:	014ffc34 	movhi	r5,16368
    8958:	103fcf0e 	bge	r2,zero,8898 <__alt_mem_VGA_Subsystem_Char_Buf_Subsystem_Onchip_SRAM+0xf7008898>
    895c:	d8c01317 	ldw	r3,76(sp)
    8960:	d8c00515 	stw	r3,20(sp)
    8964:	d9400917 	ldw	r5,36(sp)
    8968:	e009883a 	mov	r4,fp
    896c:	000b3f80 	call	b3f8 <_Bfree>
    8970:	d9000517 	ldw	r4,20(sp)
    8974:	d9802317 	ldw	r6,140(sp)
    8978:	d9c02517 	ldw	r7,148(sp)
    897c:	b8000005 	stb	zero,0(r23)
    8980:	20800044 	addi	r2,r4,1
    8984:	30800015 	stw	r2,0(r6)
    8988:	3802aa26 	beq	r7,zero,9434 <_dtoa_r+0x1178>
    898c:	3dc00015 	stw	r23,0(r7)
    8990:	d8800717 	ldw	r2,28(sp)
    8994:	003e7906 	br	837c <__alt_mem_VGA_Subsystem_Char_Buf_Subsystem_Onchip_SRAM+0xf700837c>
    8998:	00800434 	movhi	r2,16
    899c:	10bfffc4 	addi	r2,r2,-1
    89a0:	88a2703a 	and	r17,r17,r2
    89a4:	883e851e 	bne	r17,zero,83bc <__alt_mem_VGA_Subsystem_Char_Buf_Subsystem_Onchip_SRAM+0xf70083bc>
    89a8:	00800074 	movhi	r2,1
    89ac:	108ca104 	addi	r2,r2,12932
    89b0:	003e8406 	br	83c4 <__alt_mem_VGA_Subsystem_Char_Buf_Subsystem_Onchip_SRAM+0xf70083c4>
    89b4:	10c00204 	addi	r3,r2,8
    89b8:	003e8706 	br	83d8 <__alt_mem_VGA_Subsystem_Char_Buf_Subsystem_Onchip_SRAM+0xf70083d8>
    89bc:	01400434 	movhi	r5,16
    89c0:	297fffc4 	addi	r5,r5,-1
    89c4:	994a703a 	and	r5,r19,r5
    89c8:	9009883a 	mov	r4,r18
    89cc:	843f0044 	addi	r16,r16,-1023
    89d0:	294ffc34 	orhi	r5,r5,16368
    89d4:	dd800217 	ldw	r22,8(sp)
    89d8:	d8001115 	stw	zero,68(sp)
    89dc:	003ea506 	br	8474 <__alt_mem_VGA_Subsystem_Char_Buf_Subsystem_Onchip_SRAM+0xf7008474>
    89e0:	00800074 	movhi	r2,1
    89e4:	108c9804 	addi	r2,r2,12896
    89e8:	003e6406 	br	837c <__alt_mem_VGA_Subsystem_Char_Buf_Subsystem_Onchip_SRAM+0xf700837c>
    89ec:	e0001115 	stw	zero,68(fp)
    89f0:	000b883a 	mov	r5,zero
    89f4:	e009883a 	mov	r4,fp
    89f8:	000b3500 	call	b350 <_Balloc>
    89fc:	01bfffc4 	movi	r6,-1
    8a00:	01c00044 	movi	r7,1
    8a04:	d8800715 	stw	r2,28(sp)
    8a08:	d9800c15 	stw	r6,48(sp)
    8a0c:	e0801015 	stw	r2,64(fp)
    8a10:	d8000315 	stw	zero,12(sp)
    8a14:	d9c00b15 	stw	r7,44(sp)
    8a18:	d9800615 	stw	r6,24(sp)
    8a1c:	d8002215 	stw	zero,136(sp)
    8a20:	d8800117 	ldw	r2,4(sp)
    8a24:	10008916 	blt	r2,zero,8c4c <_dtoa_r+0x990>
    8a28:	d9000517 	ldw	r4,20(sp)
    8a2c:	00c00384 	movi	r3,14
    8a30:	19008616 	blt	r3,r4,8c4c <_dtoa_r+0x990>
    8a34:	200490fa 	slli	r2,r4,3
    8a38:	00c00074 	movhi	r3,1
    8a3c:	d9802217 	ldw	r6,136(sp)
    8a40:	18ccc004 	addi	r3,r3,13056
    8a44:	1885883a 	add	r2,r3,r2
    8a48:	14000017 	ldw	r16,0(r2)
    8a4c:	14400117 	ldw	r17,4(r2)
    8a50:	30016316 	blt	r6,zero,8fe0 <_dtoa_r+0xd24>
    8a54:	800d883a 	mov	r6,r16
    8a58:	880f883a 	mov	r7,r17
    8a5c:	9009883a 	mov	r4,r18
    8a60:	980b883a 	mov	r5,r19
    8a64:	0003c1c0 	call	3c1c <__divdf3>
    8a68:	180b883a 	mov	r5,r3
    8a6c:	1009883a 	mov	r4,r2
    8a70:	00058b80 	call	58b8 <__fixdfsi>
    8a74:	1009883a 	mov	r4,r2
    8a78:	102b883a 	mov	r21,r2
    8a7c:	00059380 	call	5938 <__floatsidf>
    8a80:	800d883a 	mov	r6,r16
    8a84:	880f883a 	mov	r7,r17
    8a88:	1009883a 	mov	r4,r2
    8a8c:	180b883a 	mov	r5,r3
    8a90:	00047500 	call	4750 <__muldf3>
    8a94:	100d883a 	mov	r6,r2
    8a98:	180f883a 	mov	r7,r3
    8a9c:	9009883a 	mov	r4,r18
    8aa0:	980b883a 	mov	r5,r19
    8aa4:	0004fbc0 	call	4fbc <__subdf3>
    8aa8:	d9c00717 	ldw	r7,28(sp)
    8aac:	1009883a 	mov	r4,r2
    8ab0:	a8800c04 	addi	r2,r21,48
    8ab4:	38800005 	stb	r2,0(r7)
    8ab8:	3dc00044 	addi	r23,r7,1
    8abc:	d9c00617 	ldw	r7,24(sp)
    8ac0:	01800044 	movi	r6,1
    8ac4:	180b883a 	mov	r5,r3
    8ac8:	2005883a 	mov	r2,r4
    8acc:	39803826 	beq	r7,r6,8bb0 <_dtoa_r+0x8f4>
    8ad0:	000d883a 	mov	r6,zero
    8ad4:	01d00934 	movhi	r7,16420
    8ad8:	00047500 	call	4750 <__muldf3>
    8adc:	000d883a 	mov	r6,zero
    8ae0:	000f883a 	mov	r7,zero
    8ae4:	1009883a 	mov	r4,r2
    8ae8:	180b883a 	mov	r5,r3
    8aec:	1025883a 	mov	r18,r2
    8af0:	1827883a 	mov	r19,r3
    8af4:	00045ec0 	call	45ec <__eqdf2>
    8af8:	103f9a26 	beq	r2,zero,8964 <__alt_mem_VGA_Subsystem_Char_Buf_Subsystem_Onchip_SRAM+0xf7008964>
    8afc:	d9c00617 	ldw	r7,24(sp)
    8b00:	d8c00717 	ldw	r3,28(sp)
    8b04:	b829883a 	mov	r20,r23
    8b08:	38bfffc4 	addi	r2,r7,-1
    8b0c:	18ad883a 	add	r22,r3,r2
    8b10:	00000a06 	br	8b3c <_dtoa_r+0x880>
    8b14:	00047500 	call	4750 <__muldf3>
    8b18:	000d883a 	mov	r6,zero
    8b1c:	000f883a 	mov	r7,zero
    8b20:	1009883a 	mov	r4,r2
    8b24:	180b883a 	mov	r5,r3
    8b28:	1025883a 	mov	r18,r2
    8b2c:	1827883a 	mov	r19,r3
    8b30:	b829883a 	mov	r20,r23
    8b34:	00045ec0 	call	45ec <__eqdf2>
    8b38:	103f8a26 	beq	r2,zero,8964 <__alt_mem_VGA_Subsystem_Char_Buf_Subsystem_Onchip_SRAM+0xf7008964>
    8b3c:	800d883a 	mov	r6,r16
    8b40:	880f883a 	mov	r7,r17
    8b44:	9009883a 	mov	r4,r18
    8b48:	980b883a 	mov	r5,r19
    8b4c:	0003c1c0 	call	3c1c <__divdf3>
    8b50:	180b883a 	mov	r5,r3
    8b54:	1009883a 	mov	r4,r2
    8b58:	00058b80 	call	58b8 <__fixdfsi>
    8b5c:	1009883a 	mov	r4,r2
    8b60:	102b883a 	mov	r21,r2
    8b64:	00059380 	call	5938 <__floatsidf>
    8b68:	800d883a 	mov	r6,r16
    8b6c:	880f883a 	mov	r7,r17
    8b70:	1009883a 	mov	r4,r2
    8b74:	180b883a 	mov	r5,r3
    8b78:	00047500 	call	4750 <__muldf3>
    8b7c:	100d883a 	mov	r6,r2
    8b80:	180f883a 	mov	r7,r3
    8b84:	9009883a 	mov	r4,r18
    8b88:	980b883a 	mov	r5,r19
    8b8c:	0004fbc0 	call	4fbc <__subdf3>
    8b90:	aa000c04 	addi	r8,r21,48
    8b94:	a2000005 	stb	r8,0(r20)
    8b98:	000d883a 	mov	r6,zero
    8b9c:	01d00934 	movhi	r7,16420
    8ba0:	1009883a 	mov	r4,r2
    8ba4:	180b883a 	mov	r5,r3
    8ba8:	a5c00044 	addi	r23,r20,1
    8bac:	b53fd91e 	bne	r22,r20,8b14 <__alt_mem_VGA_Subsystem_Char_Buf_Subsystem_Onchip_SRAM+0xf7008b14>
    8bb0:	100d883a 	mov	r6,r2
    8bb4:	180f883a 	mov	r7,r3
    8bb8:	1009883a 	mov	r4,r2
    8bbc:	180b883a 	mov	r5,r3
    8bc0:	00033700 	call	3370 <__adddf3>
    8bc4:	100d883a 	mov	r6,r2
    8bc8:	180f883a 	mov	r7,r3
    8bcc:	8009883a 	mov	r4,r16
    8bd0:	880b883a 	mov	r5,r17
    8bd4:	1027883a 	mov	r19,r2
    8bd8:	1825883a 	mov	r18,r3
    8bdc:	000ff0c0 	call	ff0c <__ledf2>
    8be0:	10000816 	blt	r2,zero,8c04 <_dtoa_r+0x948>
    8be4:	980d883a 	mov	r6,r19
    8be8:	900f883a 	mov	r7,r18
    8bec:	8009883a 	mov	r4,r16
    8bf0:	880b883a 	mov	r5,r17
    8bf4:	00045ec0 	call	45ec <__eqdf2>
    8bf8:	103f5a1e 	bne	r2,zero,8964 <__alt_mem_VGA_Subsystem_Char_Buf_Subsystem_Onchip_SRAM+0xf7008964>
    8bfc:	ad40004c 	andi	r21,r21,1
    8c00:	a83f5826 	beq	r21,zero,8964 <__alt_mem_VGA_Subsystem_Char_Buf_Subsystem_Onchip_SRAM+0xf7008964>
    8c04:	bd3fffc3 	ldbu	r20,-1(r23)
    8c08:	b8bfffc4 	addi	r2,r23,-1
    8c0c:	1007883a 	mov	r3,r2
    8c10:	01400e44 	movi	r5,57
    8c14:	d9800717 	ldw	r6,28(sp)
    8c18:	00000506 	br	8c30 <_dtoa_r+0x974>
    8c1c:	18ffffc4 	addi	r3,r3,-1
    8c20:	11824726 	beq	r2,r6,9540 <_dtoa_r+0x1284>
    8c24:	1d000003 	ldbu	r20,0(r3)
    8c28:	102f883a 	mov	r23,r2
    8c2c:	10bfffc4 	addi	r2,r2,-1
    8c30:	a1003fcc 	andi	r4,r20,255
    8c34:	2100201c 	xori	r4,r4,128
    8c38:	213fe004 	addi	r4,r4,-128
    8c3c:	217ff726 	beq	r4,r5,8c1c <__alt_mem_VGA_Subsystem_Char_Buf_Subsystem_Onchip_SRAM+0xf7008c1c>
    8c40:	a2000044 	addi	r8,r20,1
    8c44:	12000005 	stb	r8,0(r2)
    8c48:	003f4606 	br	8964 <__alt_mem_VGA_Subsystem_Char_Buf_Subsystem_Onchip_SRAM+0xf7008964>
    8c4c:	d9000b17 	ldw	r4,44(sp)
    8c50:	2000c826 	beq	r4,zero,8f74 <_dtoa_r+0xcb8>
    8c54:	d9800317 	ldw	r6,12(sp)
    8c58:	00c00044 	movi	r3,1
    8c5c:	1980f90e 	bge	r3,r6,9044 <_dtoa_r+0xd88>
    8c60:	d8800617 	ldw	r2,24(sp)
    8c64:	d8c00a17 	ldw	r3,40(sp)
    8c68:	157fffc4 	addi	r21,r2,-1
    8c6c:	1d41f316 	blt	r3,r21,943c <_dtoa_r+0x1180>
    8c70:	1d6bc83a 	sub	r21,r3,r21
    8c74:	d9c00617 	ldw	r7,24(sp)
    8c78:	3802aa16 	blt	r7,zero,9724 <_dtoa_r+0x1468>
    8c7c:	dd000817 	ldw	r20,32(sp)
    8c80:	d8800617 	ldw	r2,24(sp)
    8c84:	d8c00817 	ldw	r3,32(sp)
    8c88:	01400044 	movi	r5,1
    8c8c:	e009883a 	mov	r4,fp
    8c90:	1887883a 	add	r3,r3,r2
    8c94:	d8c00815 	stw	r3,32(sp)
    8c98:	b0ad883a 	add	r22,r22,r2
    8c9c:	000b7840 	call	b784 <__i2b>
    8ca0:	1023883a 	mov	r17,r2
    8ca4:	a0000826 	beq	r20,zero,8cc8 <_dtoa_r+0xa0c>
    8ca8:	0580070e 	bge	zero,r22,8cc8 <_dtoa_r+0xa0c>
    8cac:	a005883a 	mov	r2,r20
    8cb0:	b500b916 	blt	r22,r20,8f98 <_dtoa_r+0xcdc>
    8cb4:	d9000817 	ldw	r4,32(sp)
    8cb8:	a0a9c83a 	sub	r20,r20,r2
    8cbc:	b0adc83a 	sub	r22,r22,r2
    8cc0:	2089c83a 	sub	r4,r4,r2
    8cc4:	d9000815 	stw	r4,32(sp)
    8cc8:	d9800a17 	ldw	r6,40(sp)
    8ccc:	0181810e 	bge	zero,r6,92d4 <_dtoa_r+0x1018>
    8cd0:	d9c00b17 	ldw	r7,44(sp)
    8cd4:	3800b326 	beq	r7,zero,8fa4 <_dtoa_r+0xce8>
    8cd8:	a800b226 	beq	r21,zero,8fa4 <_dtoa_r+0xce8>
    8cdc:	880b883a 	mov	r5,r17
    8ce0:	a80d883a 	mov	r6,r21
    8ce4:	e009883a 	mov	r4,fp
    8ce8:	000ba4c0 	call	ba4c <__pow5mult>
    8cec:	d9800917 	ldw	r6,36(sp)
    8cf0:	100b883a 	mov	r5,r2
    8cf4:	e009883a 	mov	r4,fp
    8cf8:	1023883a 	mov	r17,r2
    8cfc:	000b7c00 	call	b7c0 <__multiply>
    8d00:	1021883a 	mov	r16,r2
    8d04:	d8800a17 	ldw	r2,40(sp)
    8d08:	d9400917 	ldw	r5,36(sp)
    8d0c:	e009883a 	mov	r4,fp
    8d10:	1545c83a 	sub	r2,r2,r21
    8d14:	d8800a15 	stw	r2,40(sp)
    8d18:	000b3f80 	call	b3f8 <_Bfree>
    8d1c:	d8c00a17 	ldw	r3,40(sp)
    8d20:	18009f1e 	bne	r3,zero,8fa0 <_dtoa_r+0xce4>
    8d24:	05c00044 	movi	r23,1
    8d28:	e009883a 	mov	r4,fp
    8d2c:	b80b883a 	mov	r5,r23
    8d30:	000b7840 	call	b784 <__i2b>
    8d34:	d9000d17 	ldw	r4,52(sp)
    8d38:	102b883a 	mov	r21,r2
    8d3c:	2000ce26 	beq	r4,zero,9078 <_dtoa_r+0xdbc>
    8d40:	200d883a 	mov	r6,r4
    8d44:	100b883a 	mov	r5,r2
    8d48:	e009883a 	mov	r4,fp
    8d4c:	000ba4c0 	call	ba4c <__pow5mult>
    8d50:	d9800317 	ldw	r6,12(sp)
    8d54:	102b883a 	mov	r21,r2
    8d58:	b981810e 	bge	r23,r6,9360 <_dtoa_r+0x10a4>
    8d5c:	0027883a 	mov	r19,zero
    8d60:	a8800417 	ldw	r2,16(r21)
    8d64:	05c00804 	movi	r23,32
    8d68:	10800104 	addi	r2,r2,4
    8d6c:	1085883a 	add	r2,r2,r2
    8d70:	1085883a 	add	r2,r2,r2
    8d74:	a885883a 	add	r2,r21,r2
    8d78:	11000017 	ldw	r4,0(r2)
    8d7c:	000b66c0 	call	b66c <__hi0bits>
    8d80:	b885c83a 	sub	r2,r23,r2
    8d84:	1585883a 	add	r2,r2,r22
    8d88:	108007cc 	andi	r2,r2,31
    8d8c:	1000b326 	beq	r2,zero,905c <_dtoa_r+0xda0>
    8d90:	00c00804 	movi	r3,32
    8d94:	1887c83a 	sub	r3,r3,r2
    8d98:	01000104 	movi	r4,4
    8d9c:	20c2cd0e 	bge	r4,r3,98d4 <_dtoa_r+0x1618>
    8da0:	00c00704 	movi	r3,28
    8da4:	1885c83a 	sub	r2,r3,r2
    8da8:	d8c00817 	ldw	r3,32(sp)
    8dac:	a0a9883a 	add	r20,r20,r2
    8db0:	b0ad883a 	add	r22,r22,r2
    8db4:	1887883a 	add	r3,r3,r2
    8db8:	d8c00815 	stw	r3,32(sp)
    8dbc:	d9800817 	ldw	r6,32(sp)
    8dc0:	0180040e 	bge	zero,r6,8dd4 <_dtoa_r+0xb18>
    8dc4:	800b883a 	mov	r5,r16
    8dc8:	e009883a 	mov	r4,fp
    8dcc:	000bb8c0 	call	bb8c <__lshift>
    8dd0:	1021883a 	mov	r16,r2
    8dd4:	0580050e 	bge	zero,r22,8dec <_dtoa_r+0xb30>
    8dd8:	a80b883a 	mov	r5,r21
    8ddc:	b00d883a 	mov	r6,r22
    8de0:	e009883a 	mov	r4,fp
    8de4:	000bb8c0 	call	bb8c <__lshift>
    8de8:	102b883a 	mov	r21,r2
    8dec:	d9c00e17 	ldw	r7,56(sp)
    8df0:	3801211e 	bne	r7,zero,9278 <_dtoa_r+0xfbc>
    8df4:	d9800617 	ldw	r6,24(sp)
    8df8:	0181380e 	bge	zero,r6,92dc <_dtoa_r+0x1020>
    8dfc:	d8c00b17 	ldw	r3,44(sp)
    8e00:	1800ab1e 	bne	r3,zero,90b0 <_dtoa_r+0xdf4>
    8e04:	dc800717 	ldw	r18,28(sp)
    8e08:	dcc00617 	ldw	r19,24(sp)
    8e0c:	9029883a 	mov	r20,r18
    8e10:	00000206 	br	8e1c <_dtoa_r+0xb60>
    8e14:	000b4200 	call	b420 <__multadd>
    8e18:	1021883a 	mov	r16,r2
    8e1c:	a80b883a 	mov	r5,r21
    8e20:	8009883a 	mov	r4,r16
    8e24:	00080940 	call	8094 <quorem>
    8e28:	10800c04 	addi	r2,r2,48
    8e2c:	90800005 	stb	r2,0(r18)
    8e30:	94800044 	addi	r18,r18,1
    8e34:	9507c83a 	sub	r3,r18,r20
    8e38:	000f883a 	mov	r7,zero
    8e3c:	01800284 	movi	r6,10
    8e40:	800b883a 	mov	r5,r16
    8e44:	e009883a 	mov	r4,fp
    8e48:	1cfff216 	blt	r3,r19,8e14 <__alt_mem_VGA_Subsystem_Char_Buf_Subsystem_Onchip_SRAM+0xf7008e14>
    8e4c:	1011883a 	mov	r8,r2
    8e50:	d8800617 	ldw	r2,24(sp)
    8e54:	0082370e 	bge	zero,r2,9734 <_dtoa_r+0x1478>
    8e58:	d9000717 	ldw	r4,28(sp)
    8e5c:	0025883a 	mov	r18,zero
    8e60:	20af883a 	add	r23,r4,r2
    8e64:	01800044 	movi	r6,1
    8e68:	800b883a 	mov	r5,r16
    8e6c:	e009883a 	mov	r4,fp
    8e70:	da001715 	stw	r8,92(sp)
    8e74:	000bb8c0 	call	bb8c <__lshift>
    8e78:	a80b883a 	mov	r5,r21
    8e7c:	1009883a 	mov	r4,r2
    8e80:	d8800915 	stw	r2,36(sp)
    8e84:	000bcd40 	call	bcd4 <__mcmp>
    8e88:	da001717 	ldw	r8,92(sp)
    8e8c:	0081800e 	bge	zero,r2,9490 <_dtoa_r+0x11d4>
    8e90:	b93fffc3 	ldbu	r4,-1(r23)
    8e94:	b8bfffc4 	addi	r2,r23,-1
    8e98:	1007883a 	mov	r3,r2
    8e9c:	01800e44 	movi	r6,57
    8ea0:	d9c00717 	ldw	r7,28(sp)
    8ea4:	00000506 	br	8ebc <_dtoa_r+0xc00>
    8ea8:	18ffffc4 	addi	r3,r3,-1
    8eac:	11c12326 	beq	r2,r7,933c <_dtoa_r+0x1080>
    8eb0:	19000003 	ldbu	r4,0(r3)
    8eb4:	102f883a 	mov	r23,r2
    8eb8:	10bfffc4 	addi	r2,r2,-1
    8ebc:	21403fcc 	andi	r5,r4,255
    8ec0:	2940201c 	xori	r5,r5,128
    8ec4:	297fe004 	addi	r5,r5,-128
    8ec8:	29bff726 	beq	r5,r6,8ea8 <__alt_mem_VGA_Subsystem_Char_Buf_Subsystem_Onchip_SRAM+0xf7008ea8>
    8ecc:	21000044 	addi	r4,r4,1
    8ed0:	11000005 	stb	r4,0(r2)
    8ed4:	a80b883a 	mov	r5,r21
    8ed8:	e009883a 	mov	r4,fp
    8edc:	000b3f80 	call	b3f8 <_Bfree>
    8ee0:	883ea026 	beq	r17,zero,8964 <__alt_mem_VGA_Subsystem_Char_Buf_Subsystem_Onchip_SRAM+0xf7008964>
    8ee4:	90000426 	beq	r18,zero,8ef8 <_dtoa_r+0xc3c>
    8ee8:	94400326 	beq	r18,r17,8ef8 <_dtoa_r+0xc3c>
    8eec:	900b883a 	mov	r5,r18
    8ef0:	e009883a 	mov	r4,fp
    8ef4:	000b3f80 	call	b3f8 <_Bfree>
    8ef8:	880b883a 	mov	r5,r17
    8efc:	e009883a 	mov	r4,fp
    8f00:	000b3f80 	call	b3f8 <_Bfree>
    8f04:	003e9706 	br	8964 <__alt_mem_VGA_Subsystem_Char_Buf_Subsystem_Onchip_SRAM+0xf7008964>
    8f08:	01800044 	movi	r6,1
    8f0c:	d9800e15 	stw	r6,56(sp)
    8f10:	003d9606 	br	856c <__alt_mem_VGA_Subsystem_Char_Buf_Subsystem_Onchip_SRAM+0xf700856c>
    8f14:	d8800817 	ldw	r2,32(sp)
    8f18:	d8c00517 	ldw	r3,20(sp)
    8f1c:	d8000d15 	stw	zero,52(sp)
    8f20:	10c5c83a 	sub	r2,r2,r3
    8f24:	00c9c83a 	sub	r4,zero,r3
    8f28:	d8800815 	stw	r2,32(sp)
    8f2c:	d9000a15 	stw	r4,40(sp)
    8f30:	003d9706 	br	8590 <__alt_mem_VGA_Subsystem_Char_Buf_Subsystem_Onchip_SRAM+0xf7008590>
    8f34:	05adc83a 	sub	r22,zero,r22
    8f38:	dd800815 	stw	r22,32(sp)
    8f3c:	002d883a 	mov	r22,zero
    8f40:	003d8e06 	br	857c <__alt_mem_VGA_Subsystem_Char_Buf_Subsystem_Onchip_SRAM+0xf700857c>
    8f44:	d9000517 	ldw	r4,20(sp)
    8f48:	00059380 	call	5938 <__floatsidf>
    8f4c:	100d883a 	mov	r6,r2
    8f50:	180f883a 	mov	r7,r3
    8f54:	a009883a 	mov	r4,r20
    8f58:	880b883a 	mov	r5,r17
    8f5c:	00045ec0 	call	45ec <__eqdf2>
    8f60:	103d7126 	beq	r2,zero,8528 <__alt_mem_VGA_Subsystem_Char_Buf_Subsystem_Onchip_SRAM+0xf7008528>
    8f64:	d9c00517 	ldw	r7,20(sp)
    8f68:	39ffffc4 	addi	r7,r7,-1
    8f6c:	d9c00515 	stw	r7,20(sp)
    8f70:	003d6d06 	br	8528 <__alt_mem_VGA_Subsystem_Char_Buf_Subsystem_Onchip_SRAM+0xf7008528>
    8f74:	dd400a17 	ldw	r21,40(sp)
    8f78:	dd000817 	ldw	r20,32(sp)
    8f7c:	0023883a 	mov	r17,zero
    8f80:	003f4806 	br	8ca4 <__alt_mem_VGA_Subsystem_Char_Buf_Subsystem_Onchip_SRAM+0xf7008ca4>
    8f84:	10e3c83a 	sub	r17,r2,r3
    8f88:	9448983a 	sll	r4,r18,r17
    8f8c:	003d3206 	br	8458 <__alt_mem_VGA_Subsystem_Char_Buf_Subsystem_Onchip_SRAM+0xf7008458>
    8f90:	d8000e15 	stw	zero,56(sp)
    8f94:	003d7506 	br	856c <__alt_mem_VGA_Subsystem_Char_Buf_Subsystem_Onchip_SRAM+0xf700856c>
    8f98:	b005883a 	mov	r2,r22
    8f9c:	003f4506 	br	8cb4 <__alt_mem_VGA_Subsystem_Char_Buf_Subsystem_Onchip_SRAM+0xf7008cb4>
    8fa0:	dc000915 	stw	r16,36(sp)
    8fa4:	d9800a17 	ldw	r6,40(sp)
    8fa8:	d9400917 	ldw	r5,36(sp)
    8fac:	e009883a 	mov	r4,fp
    8fb0:	000ba4c0 	call	ba4c <__pow5mult>
    8fb4:	1021883a 	mov	r16,r2
    8fb8:	003f5a06 	br	8d24 <__alt_mem_VGA_Subsystem_Char_Buf_Subsystem_Onchip_SRAM+0xf7008d24>
    8fbc:	01c00044 	movi	r7,1
    8fc0:	d9c00b15 	stw	r7,44(sp)
    8fc4:	d8802217 	ldw	r2,136(sp)
    8fc8:	0081280e 	bge	zero,r2,946c <_dtoa_r+0x11b0>
    8fcc:	100d883a 	mov	r6,r2
    8fd0:	1021883a 	mov	r16,r2
    8fd4:	d8800c15 	stw	r2,48(sp)
    8fd8:	d8800615 	stw	r2,24(sp)
    8fdc:	003d8806 	br	8600 <__alt_mem_VGA_Subsystem_Char_Buf_Subsystem_Onchip_SRAM+0xf7008600>
    8fe0:	d8800617 	ldw	r2,24(sp)
    8fe4:	00be9b16 	blt	zero,r2,8a54 <__alt_mem_VGA_Subsystem_Char_Buf_Subsystem_Onchip_SRAM+0xf7008a54>
    8fe8:	10010f1e 	bne	r2,zero,9428 <_dtoa_r+0x116c>
    8fec:	880b883a 	mov	r5,r17
    8ff0:	000d883a 	mov	r6,zero
    8ff4:	01d00534 	movhi	r7,16404
    8ff8:	8009883a 	mov	r4,r16
    8ffc:	00047500 	call	4750 <__muldf3>
    9000:	900d883a 	mov	r6,r18
    9004:	980f883a 	mov	r7,r19
    9008:	1009883a 	mov	r4,r2
    900c:	180b883a 	mov	r5,r3
    9010:	00046740 	call	4674 <__gedf2>
    9014:	002b883a 	mov	r21,zero
    9018:	0023883a 	mov	r17,zero
    901c:	1000bf16 	blt	r2,zero,931c <_dtoa_r+0x1060>
    9020:	d9802217 	ldw	r6,136(sp)
    9024:	ddc00717 	ldw	r23,28(sp)
    9028:	018c303a 	nor	r6,zero,r6
    902c:	d9800515 	stw	r6,20(sp)
    9030:	a80b883a 	mov	r5,r21
    9034:	e009883a 	mov	r4,fp
    9038:	000b3f80 	call	b3f8 <_Bfree>
    903c:	883e4926 	beq	r17,zero,8964 <__alt_mem_VGA_Subsystem_Char_Buf_Subsystem_Onchip_SRAM+0xf7008964>
    9040:	003fad06 	br	8ef8 <__alt_mem_VGA_Subsystem_Char_Buf_Subsystem_Onchip_SRAM+0xf7008ef8>
    9044:	d9c01117 	ldw	r7,68(sp)
    9048:	3801bc26 	beq	r7,zero,973c <_dtoa_r+0x1480>
    904c:	10810cc4 	addi	r2,r2,1075
    9050:	dd400a17 	ldw	r21,40(sp)
    9054:	dd000817 	ldw	r20,32(sp)
    9058:	003f0a06 	br	8c84 <__alt_mem_VGA_Subsystem_Char_Buf_Subsystem_Onchip_SRAM+0xf7008c84>
    905c:	00800704 	movi	r2,28
    9060:	d9000817 	ldw	r4,32(sp)
    9064:	a0a9883a 	add	r20,r20,r2
    9068:	b0ad883a 	add	r22,r22,r2
    906c:	2089883a 	add	r4,r4,r2
    9070:	d9000815 	stw	r4,32(sp)
    9074:	003f5106 	br	8dbc <__alt_mem_VGA_Subsystem_Char_Buf_Subsystem_Onchip_SRAM+0xf7008dbc>
    9078:	d8c00317 	ldw	r3,12(sp)
    907c:	b8c1fc0e 	bge	r23,r3,9870 <_dtoa_r+0x15b4>
    9080:	0027883a 	mov	r19,zero
    9084:	b805883a 	mov	r2,r23
    9088:	003f3e06 	br	8d84 <__alt_mem_VGA_Subsystem_Char_Buf_Subsystem_Onchip_SRAM+0xf7008d84>
    908c:	880b883a 	mov	r5,r17
    9090:	e009883a 	mov	r4,fp
    9094:	000f883a 	mov	r7,zero
    9098:	01800284 	movi	r6,10
    909c:	000b4200 	call	b420 <__multadd>
    90a0:	d9000c17 	ldw	r4,48(sp)
    90a4:	1023883a 	mov	r17,r2
    90a8:	0102040e 	bge	zero,r4,98bc <_dtoa_r+0x1600>
    90ac:	d9000615 	stw	r4,24(sp)
    90b0:	0500050e 	bge	zero,r20,90c8 <_dtoa_r+0xe0c>
    90b4:	880b883a 	mov	r5,r17
    90b8:	a00d883a 	mov	r6,r20
    90bc:	e009883a 	mov	r4,fp
    90c0:	000bb8c0 	call	bb8c <__lshift>
    90c4:	1023883a 	mov	r17,r2
    90c8:	9801241e 	bne	r19,zero,955c <_dtoa_r+0x12a0>
    90cc:	8829883a 	mov	r20,r17
    90d0:	d9000617 	ldw	r4,24(sp)
    90d4:	dcc00717 	ldw	r19,28(sp)
    90d8:	9480004c 	andi	r18,r18,1
    90dc:	20bfffc4 	addi	r2,r4,-1
    90e0:	9885883a 	add	r2,r19,r2
    90e4:	d8800415 	stw	r2,16(sp)
    90e8:	dc800615 	stw	r18,24(sp)
    90ec:	a80b883a 	mov	r5,r21
    90f0:	8009883a 	mov	r4,r16
    90f4:	00080940 	call	8094 <quorem>
    90f8:	880b883a 	mov	r5,r17
    90fc:	8009883a 	mov	r4,r16
    9100:	102f883a 	mov	r23,r2
    9104:	000bcd40 	call	bcd4 <__mcmp>
    9108:	a80b883a 	mov	r5,r21
    910c:	a00d883a 	mov	r6,r20
    9110:	e009883a 	mov	r4,fp
    9114:	102d883a 	mov	r22,r2
    9118:	000bd340 	call	bd34 <__mdiff>
    911c:	1007883a 	mov	r3,r2
    9120:	10800317 	ldw	r2,12(r2)
    9124:	bc800c04 	addi	r18,r23,48
    9128:	180b883a 	mov	r5,r3
    912c:	10004e1e 	bne	r2,zero,9268 <_dtoa_r+0xfac>
    9130:	8009883a 	mov	r4,r16
    9134:	d8c01615 	stw	r3,88(sp)
    9138:	000bcd40 	call	bcd4 <__mcmp>
    913c:	d8c01617 	ldw	r3,88(sp)
    9140:	e009883a 	mov	r4,fp
    9144:	d8801615 	stw	r2,88(sp)
    9148:	180b883a 	mov	r5,r3
    914c:	000b3f80 	call	b3f8 <_Bfree>
    9150:	d8801617 	ldw	r2,88(sp)
    9154:	1000041e 	bne	r2,zero,9168 <_dtoa_r+0xeac>
    9158:	d9800317 	ldw	r6,12(sp)
    915c:	3000021e 	bne	r6,zero,9168 <_dtoa_r+0xeac>
    9160:	d8c00617 	ldw	r3,24(sp)
    9164:	18003726 	beq	r3,zero,9244 <_dtoa_r+0xf88>
    9168:	b0002016 	blt	r22,zero,91ec <_dtoa_r+0xf30>
    916c:	b000041e 	bne	r22,zero,9180 <_dtoa_r+0xec4>
    9170:	d9000317 	ldw	r4,12(sp)
    9174:	2000021e 	bne	r4,zero,9180 <_dtoa_r+0xec4>
    9178:	d8c00617 	ldw	r3,24(sp)
    917c:	18001b26 	beq	r3,zero,91ec <_dtoa_r+0xf30>
    9180:	00810716 	blt	zero,r2,95a0 <_dtoa_r+0x12e4>
    9184:	d8c00417 	ldw	r3,16(sp)
    9188:	9d800044 	addi	r22,r19,1
    918c:	9c800005 	stb	r18,0(r19)
    9190:	b02f883a 	mov	r23,r22
    9194:	98c10626 	beq	r19,r3,95b0 <_dtoa_r+0x12f4>
    9198:	800b883a 	mov	r5,r16
    919c:	000f883a 	mov	r7,zero
    91a0:	01800284 	movi	r6,10
    91a4:	e009883a 	mov	r4,fp
    91a8:	000b4200 	call	b420 <__multadd>
    91ac:	1021883a 	mov	r16,r2
    91b0:	000f883a 	mov	r7,zero
    91b4:	01800284 	movi	r6,10
    91b8:	880b883a 	mov	r5,r17
    91bc:	e009883a 	mov	r4,fp
    91c0:	8d002526 	beq	r17,r20,9258 <_dtoa_r+0xf9c>
    91c4:	000b4200 	call	b420 <__multadd>
    91c8:	a00b883a 	mov	r5,r20
    91cc:	000f883a 	mov	r7,zero
    91d0:	01800284 	movi	r6,10
    91d4:	e009883a 	mov	r4,fp
    91d8:	1023883a 	mov	r17,r2
    91dc:	000b4200 	call	b420 <__multadd>
    91e0:	1029883a 	mov	r20,r2
    91e4:	b027883a 	mov	r19,r22
    91e8:	003fc006 	br	90ec <__alt_mem_VGA_Subsystem_Char_Buf_Subsystem_Onchip_SRAM+0xf70090ec>
    91ec:	9011883a 	mov	r8,r18
    91f0:	00800e0e 	bge	zero,r2,922c <_dtoa_r+0xf70>
    91f4:	800b883a 	mov	r5,r16
    91f8:	01800044 	movi	r6,1
    91fc:	e009883a 	mov	r4,fp
    9200:	da001715 	stw	r8,92(sp)
    9204:	000bb8c0 	call	bb8c <__lshift>
    9208:	a80b883a 	mov	r5,r21
    920c:	1009883a 	mov	r4,r2
    9210:	1021883a 	mov	r16,r2
    9214:	000bcd40 	call	bcd4 <__mcmp>
    9218:	da001717 	ldw	r8,92(sp)
    921c:	0081960e 	bge	zero,r2,9878 <_dtoa_r+0x15bc>
    9220:	00800e44 	movi	r2,57
    9224:	40817026 	beq	r8,r2,97e8 <_dtoa_r+0x152c>
    9228:	ba000c44 	addi	r8,r23,49
    922c:	8825883a 	mov	r18,r17
    9230:	9dc00044 	addi	r23,r19,1
    9234:	9a000005 	stb	r8,0(r19)
    9238:	a023883a 	mov	r17,r20
    923c:	dc000915 	stw	r16,36(sp)
    9240:	003f2406 	br	8ed4 <__alt_mem_VGA_Subsystem_Char_Buf_Subsystem_Onchip_SRAM+0xf7008ed4>
    9244:	00800e44 	movi	r2,57
    9248:	9011883a 	mov	r8,r18
    924c:	90816626 	beq	r18,r2,97e8 <_dtoa_r+0x152c>
    9250:	05bff516 	blt	zero,r22,9228 <__alt_mem_VGA_Subsystem_Char_Buf_Subsystem_Onchip_SRAM+0xf7009228>
    9254:	003ff506 	br	922c <__alt_mem_VGA_Subsystem_Char_Buf_Subsystem_Onchip_SRAM+0xf700922c>
    9258:	000b4200 	call	b420 <__multadd>
    925c:	1023883a 	mov	r17,r2
    9260:	1029883a 	mov	r20,r2
    9264:	003fdf06 	br	91e4 <__alt_mem_VGA_Subsystem_Char_Buf_Subsystem_Onchip_SRAM+0xf70091e4>
    9268:	e009883a 	mov	r4,fp
    926c:	000b3f80 	call	b3f8 <_Bfree>
    9270:	00800044 	movi	r2,1
    9274:	003fbc06 	br	9168 <__alt_mem_VGA_Subsystem_Char_Buf_Subsystem_Onchip_SRAM+0xf7009168>
    9278:	a80b883a 	mov	r5,r21
    927c:	8009883a 	mov	r4,r16
    9280:	000bcd40 	call	bcd4 <__mcmp>
    9284:	103edb0e 	bge	r2,zero,8df4 <__alt_mem_VGA_Subsystem_Char_Buf_Subsystem_Onchip_SRAM+0xf7008df4>
    9288:	800b883a 	mov	r5,r16
    928c:	000f883a 	mov	r7,zero
    9290:	01800284 	movi	r6,10
    9294:	e009883a 	mov	r4,fp
    9298:	000b4200 	call	b420 <__multadd>
    929c:	1021883a 	mov	r16,r2
    92a0:	d8800517 	ldw	r2,20(sp)
    92a4:	d8c00b17 	ldw	r3,44(sp)
    92a8:	10bfffc4 	addi	r2,r2,-1
    92ac:	d8800515 	stw	r2,20(sp)
    92b0:	183f761e 	bne	r3,zero,908c <__alt_mem_VGA_Subsystem_Char_Buf_Subsystem_Onchip_SRAM+0xf700908c>
    92b4:	d9000c17 	ldw	r4,48(sp)
    92b8:	0101730e 	bge	zero,r4,9888 <_dtoa_r+0x15cc>
    92bc:	d9000615 	stw	r4,24(sp)
    92c0:	003ed006 	br	8e04 <__alt_mem_VGA_Subsystem_Char_Buf_Subsystem_Onchip_SRAM+0xf7008e04>
    92c4:	00800084 	movi	r2,2
    92c8:	3081861e 	bne	r6,r2,98e4 <_dtoa_r+0x1628>
    92cc:	d8000b15 	stw	zero,44(sp)
    92d0:	003f3c06 	br	8fc4 <__alt_mem_VGA_Subsystem_Char_Buf_Subsystem_Onchip_SRAM+0xf7008fc4>
    92d4:	dc000917 	ldw	r16,36(sp)
    92d8:	003e9206 	br	8d24 <__alt_mem_VGA_Subsystem_Char_Buf_Subsystem_Onchip_SRAM+0xf7008d24>
    92dc:	d9c00317 	ldw	r7,12(sp)
    92e0:	00800084 	movi	r2,2
    92e4:	11fec50e 	bge	r2,r7,8dfc <__alt_mem_VGA_Subsystem_Char_Buf_Subsystem_Onchip_SRAM+0xf7008dfc>
    92e8:	d9000617 	ldw	r4,24(sp)
    92ec:	20013c1e 	bne	r4,zero,97e0 <_dtoa_r+0x1524>
    92f0:	a80b883a 	mov	r5,r21
    92f4:	000f883a 	mov	r7,zero
    92f8:	01800144 	movi	r6,5
    92fc:	e009883a 	mov	r4,fp
    9300:	000b4200 	call	b420 <__multadd>
    9304:	100b883a 	mov	r5,r2
    9308:	8009883a 	mov	r4,r16
    930c:	102b883a 	mov	r21,r2
    9310:	000bcd40 	call	bcd4 <__mcmp>
    9314:	dc000915 	stw	r16,36(sp)
    9318:	00bf410e 	bge	zero,r2,9020 <__alt_mem_VGA_Subsystem_Char_Buf_Subsystem_Onchip_SRAM+0xf7009020>
    931c:	d9c00717 	ldw	r7,28(sp)
    9320:	00800c44 	movi	r2,49
    9324:	38800005 	stb	r2,0(r7)
    9328:	d8800517 	ldw	r2,20(sp)
    932c:	3dc00044 	addi	r23,r7,1
    9330:	10800044 	addi	r2,r2,1
    9334:	d8800515 	stw	r2,20(sp)
    9338:	003f3d06 	br	9030 <__alt_mem_VGA_Subsystem_Char_Buf_Subsystem_Onchip_SRAM+0xf7009030>
    933c:	d9800517 	ldw	r6,20(sp)
    9340:	d9c00717 	ldw	r7,28(sp)
    9344:	00800c44 	movi	r2,49
    9348:	31800044 	addi	r6,r6,1
    934c:	d9800515 	stw	r6,20(sp)
    9350:	38800005 	stb	r2,0(r7)
    9354:	003edf06 	br	8ed4 <__alt_mem_VGA_Subsystem_Char_Buf_Subsystem_Onchip_SRAM+0xf7008ed4>
    9358:	d8000b15 	stw	zero,44(sp)
    935c:	003c9f06 	br	85dc <__alt_mem_VGA_Subsystem_Char_Buf_Subsystem_Onchip_SRAM+0xf70085dc>
    9360:	903e7e1e 	bne	r18,zero,8d5c <__alt_mem_VGA_Subsystem_Char_Buf_Subsystem_Onchip_SRAM+0xf7008d5c>
    9364:	00800434 	movhi	r2,16
    9368:	10bfffc4 	addi	r2,r2,-1
    936c:	9884703a 	and	r2,r19,r2
    9370:	1000ea1e 	bne	r2,zero,971c <_dtoa_r+0x1460>
    9374:	9cdffc2c 	andhi	r19,r19,32752
    9378:	9800e826 	beq	r19,zero,971c <_dtoa_r+0x1460>
    937c:	d9c00817 	ldw	r7,32(sp)
    9380:	b5800044 	addi	r22,r22,1
    9384:	04c00044 	movi	r19,1
    9388:	39c00044 	addi	r7,r7,1
    938c:	d9c00815 	stw	r7,32(sp)
    9390:	d8800d17 	ldw	r2,52(sp)
    9394:	103e721e 	bne	r2,zero,8d60 <__alt_mem_VGA_Subsystem_Char_Buf_Subsystem_Onchip_SRAM+0xf7008d60>
    9398:	00800044 	movi	r2,1
    939c:	003e7906 	br	8d84 <__alt_mem_VGA_Subsystem_Char_Buf_Subsystem_Onchip_SRAM+0xf7008d84>
    93a0:	8009883a 	mov	r4,r16
    93a4:	00059380 	call	5938 <__floatsidf>
    93a8:	d9800f17 	ldw	r6,60(sp)
    93ac:	d9c01017 	ldw	r7,64(sp)
    93b0:	1009883a 	mov	r4,r2
    93b4:	180b883a 	mov	r5,r3
    93b8:	00047500 	call	4750 <__muldf3>
    93bc:	000d883a 	mov	r6,zero
    93c0:	01d00734 	movhi	r7,16412
    93c4:	1009883a 	mov	r4,r2
    93c8:	180b883a 	mov	r5,r3
    93cc:	00033700 	call	3370 <__adddf3>
    93d0:	047f3034 	movhi	r17,64704
    93d4:	1021883a 	mov	r16,r2
    93d8:	1c63883a 	add	r17,r3,r17
    93dc:	d9000f17 	ldw	r4,60(sp)
    93e0:	d9401017 	ldw	r5,64(sp)
    93e4:	000d883a 	mov	r6,zero
    93e8:	01d00534 	movhi	r7,16404
    93ec:	0004fbc0 	call	4fbc <__subdf3>
    93f0:	800d883a 	mov	r6,r16
    93f4:	880f883a 	mov	r7,r17
    93f8:	1009883a 	mov	r4,r2
    93fc:	180b883a 	mov	r5,r3
    9400:	102b883a 	mov	r21,r2
    9404:	1829883a 	mov	r20,r3
    9408:	00046740 	call	4674 <__gedf2>
    940c:	00806c16 	blt	zero,r2,95c0 <_dtoa_r+0x1304>
    9410:	89e0003c 	xorhi	r7,r17,32768
    9414:	800d883a 	mov	r6,r16
    9418:	a809883a 	mov	r4,r21
    941c:	a00b883a 	mov	r5,r20
    9420:	000ff0c0 	call	ff0c <__ledf2>
    9424:	103d7e0e 	bge	r2,zero,8a20 <__alt_mem_VGA_Subsystem_Char_Buf_Subsystem_Onchip_SRAM+0xf7008a20>
    9428:	002b883a 	mov	r21,zero
    942c:	0023883a 	mov	r17,zero
    9430:	003efb06 	br	9020 <__alt_mem_VGA_Subsystem_Char_Buf_Subsystem_Onchip_SRAM+0xf7009020>
    9434:	d8800717 	ldw	r2,28(sp)
    9438:	003bd006 	br	837c <__alt_mem_VGA_Subsystem_Char_Buf_Subsystem_Onchip_SRAM+0xf700837c>
    943c:	d9000a17 	ldw	r4,40(sp)
    9440:	d9800d17 	ldw	r6,52(sp)
    9444:	dd400a15 	stw	r21,40(sp)
    9448:	a905c83a 	sub	r2,r21,r4
    944c:	308d883a 	add	r6,r6,r2
    9450:	d9800d15 	stw	r6,52(sp)
    9454:	002b883a 	mov	r21,zero
    9458:	003e0606 	br	8c74 <__alt_mem_VGA_Subsystem_Char_Buf_Subsystem_Onchip_SRAM+0xf7008c74>
    945c:	9023883a 	mov	r17,r18
    9460:	9829883a 	mov	r20,r19
    9464:	04000084 	movi	r16,2
    9468:	003c9206 	br	86b4 <__alt_mem_VGA_Subsystem_Char_Buf_Subsystem_Onchip_SRAM+0xf70086b4>
    946c:	04000044 	movi	r16,1
    9470:	dc000c15 	stw	r16,48(sp)
    9474:	dc000615 	stw	r16,24(sp)
    9478:	dc002215 	stw	r16,136(sp)
    947c:	e0001115 	stw	zero,68(fp)
    9480:	000b883a 	mov	r5,zero
    9484:	003c6906 	br	862c <__alt_mem_VGA_Subsystem_Char_Buf_Subsystem_Onchip_SRAM+0xf700862c>
    9488:	3021883a 	mov	r16,r6
    948c:	003ffb06 	br	947c <__alt_mem_VGA_Subsystem_Char_Buf_Subsystem_Onchip_SRAM+0xf700947c>
    9490:	1000021e 	bne	r2,zero,949c <_dtoa_r+0x11e0>
    9494:	4200004c 	andi	r8,r8,1
    9498:	403e7d1e 	bne	r8,zero,8e90 <__alt_mem_VGA_Subsystem_Char_Buf_Subsystem_Onchip_SRAM+0xf7008e90>
    949c:	01000c04 	movi	r4,48
    94a0:	00000106 	br	94a8 <_dtoa_r+0x11ec>
    94a4:	102f883a 	mov	r23,r2
    94a8:	b8bfffc4 	addi	r2,r23,-1
    94ac:	10c00007 	ldb	r3,0(r2)
    94b0:	193ffc26 	beq	r3,r4,94a4 <__alt_mem_VGA_Subsystem_Char_Buf_Subsystem_Onchip_SRAM+0xf70094a4>
    94b4:	003e8706 	br	8ed4 <__alt_mem_VGA_Subsystem_Char_Buf_Subsystem_Onchip_SRAM+0xf7008ed4>
    94b8:	d8800517 	ldw	r2,20(sp)
    94bc:	00a3c83a 	sub	r17,zero,r2
    94c0:	8800a426 	beq	r17,zero,9754 <_dtoa_r+0x1498>
    94c4:	888003cc 	andi	r2,r17,15
    94c8:	100490fa 	slli	r2,r2,3
    94cc:	00c00074 	movhi	r3,1
    94d0:	18ccc004 	addi	r3,r3,13056
    94d4:	1885883a 	add	r2,r3,r2
    94d8:	11800017 	ldw	r6,0(r2)
    94dc:	11c00117 	ldw	r7,4(r2)
    94e0:	9009883a 	mov	r4,r18
    94e4:	980b883a 	mov	r5,r19
    94e8:	8823d13a 	srai	r17,r17,4
    94ec:	00047500 	call	4750 <__muldf3>
    94f0:	d8800f15 	stw	r2,60(sp)
    94f4:	d8c01015 	stw	r3,64(sp)
    94f8:	8800e826 	beq	r17,zero,989c <_dtoa_r+0x15e0>
    94fc:	05000074 	movhi	r20,1
    9500:	a50cb604 	addi	r20,r20,13016
    9504:	04000084 	movi	r16,2
    9508:	8980004c 	andi	r6,r17,1
    950c:	1009883a 	mov	r4,r2
    9510:	8823d07a 	srai	r17,r17,1
    9514:	180b883a 	mov	r5,r3
    9518:	30000426 	beq	r6,zero,952c <_dtoa_r+0x1270>
    951c:	a1800017 	ldw	r6,0(r20)
    9520:	a1c00117 	ldw	r7,4(r20)
    9524:	84000044 	addi	r16,r16,1
    9528:	00047500 	call	4750 <__muldf3>
    952c:	a5000204 	addi	r20,r20,8
    9530:	883ff51e 	bne	r17,zero,9508 <__alt_mem_VGA_Subsystem_Char_Buf_Subsystem_Onchip_SRAM+0xf7009508>
    9534:	d8800f15 	stw	r2,60(sp)
    9538:	d8c01015 	stw	r3,64(sp)
    953c:	003c7606 	br	8718 <__alt_mem_VGA_Subsystem_Char_Buf_Subsystem_Onchip_SRAM+0xf7008718>
    9540:	00c00c04 	movi	r3,48
    9544:	10c00005 	stb	r3,0(r2)
    9548:	d8c00517 	ldw	r3,20(sp)
    954c:	bd3fffc3 	ldbu	r20,-1(r23)
    9550:	18c00044 	addi	r3,r3,1
    9554:	d8c00515 	stw	r3,20(sp)
    9558:	003db906 	br	8c40 <__alt_mem_VGA_Subsystem_Char_Buf_Subsystem_Onchip_SRAM+0xf7008c40>
    955c:	89400117 	ldw	r5,4(r17)
    9560:	e009883a 	mov	r4,fp
    9564:	000b3500 	call	b350 <_Balloc>
    9568:	89800417 	ldw	r6,16(r17)
    956c:	89400304 	addi	r5,r17,12
    9570:	11000304 	addi	r4,r2,12
    9574:	31800084 	addi	r6,r6,2
    9578:	318d883a 	add	r6,r6,r6
    957c:	318d883a 	add	r6,r6,r6
    9580:	1027883a 	mov	r19,r2
    9584:	000b0e00 	call	b0e0 <memcpy>
    9588:	01800044 	movi	r6,1
    958c:	980b883a 	mov	r5,r19
    9590:	e009883a 	mov	r4,fp
    9594:	000bb8c0 	call	bb8c <__lshift>
    9598:	1029883a 	mov	r20,r2
    959c:	003ecc06 	br	90d0 <__alt_mem_VGA_Subsystem_Char_Buf_Subsystem_Onchip_SRAM+0xf70090d0>
    95a0:	00800e44 	movi	r2,57
    95a4:	90809026 	beq	r18,r2,97e8 <_dtoa_r+0x152c>
    95a8:	92000044 	addi	r8,r18,1
    95ac:	003f1f06 	br	922c <__alt_mem_VGA_Subsystem_Char_Buf_Subsystem_Onchip_SRAM+0xf700922c>
    95b0:	9011883a 	mov	r8,r18
    95b4:	8825883a 	mov	r18,r17
    95b8:	a023883a 	mov	r17,r20
    95bc:	003e2906 	br	8e64 <__alt_mem_VGA_Subsystem_Char_Buf_Subsystem_Onchip_SRAM+0xf7008e64>
    95c0:	002b883a 	mov	r21,zero
    95c4:	0023883a 	mov	r17,zero
    95c8:	003f5406 	br	931c <__alt_mem_VGA_Subsystem_Char_Buf_Subsystem_Onchip_SRAM+0xf700931c>
    95cc:	61bfffc4 	addi	r6,r12,-1
    95d0:	300490fa 	slli	r2,r6,3
    95d4:	00c00074 	movhi	r3,1
    95d8:	18ccc004 	addi	r3,r3,13056
    95dc:	1885883a 	add	r2,r3,r2
    95e0:	11000017 	ldw	r4,0(r2)
    95e4:	11400117 	ldw	r5,4(r2)
    95e8:	d8800717 	ldw	r2,28(sp)
    95ec:	880f883a 	mov	r7,r17
    95f0:	d9801215 	stw	r6,72(sp)
    95f4:	800d883a 	mov	r6,r16
    95f8:	db001615 	stw	r12,88(sp)
    95fc:	15c00044 	addi	r23,r2,1
    9600:	00047500 	call	4750 <__muldf3>
    9604:	d9401017 	ldw	r5,64(sp)
    9608:	d9000f17 	ldw	r4,60(sp)
    960c:	d8c01515 	stw	r3,84(sp)
    9610:	d8801415 	stw	r2,80(sp)
    9614:	00058b80 	call	58b8 <__fixdfsi>
    9618:	1009883a 	mov	r4,r2
    961c:	1021883a 	mov	r16,r2
    9620:	00059380 	call	5938 <__floatsidf>
    9624:	d9000f17 	ldw	r4,60(sp)
    9628:	d9401017 	ldw	r5,64(sp)
    962c:	100d883a 	mov	r6,r2
    9630:	180f883a 	mov	r7,r3
    9634:	0004fbc0 	call	4fbc <__subdf3>
    9638:	1829883a 	mov	r20,r3
    963c:	d8c00717 	ldw	r3,28(sp)
    9640:	84000c04 	addi	r16,r16,48
    9644:	1023883a 	mov	r17,r2
    9648:	1c000005 	stb	r16,0(r3)
    964c:	db001617 	ldw	r12,88(sp)
    9650:	00800044 	movi	r2,1
    9654:	60802226 	beq	r12,r2,96e0 <_dtoa_r+0x1424>
    9658:	d9c00717 	ldw	r7,28(sp)
    965c:	8805883a 	mov	r2,r17
    9660:	b82b883a 	mov	r21,r23
    9664:	3b19883a 	add	r12,r7,r12
    9668:	6023883a 	mov	r17,r12
    966c:	a007883a 	mov	r3,r20
    9670:	dc800f15 	stw	r18,60(sp)
    9674:	000d883a 	mov	r6,zero
    9678:	01d00934 	movhi	r7,16420
    967c:	1009883a 	mov	r4,r2
    9680:	180b883a 	mov	r5,r3
    9684:	00047500 	call	4750 <__muldf3>
    9688:	180b883a 	mov	r5,r3
    968c:	1009883a 	mov	r4,r2
    9690:	1829883a 	mov	r20,r3
    9694:	1025883a 	mov	r18,r2
    9698:	00058b80 	call	58b8 <__fixdfsi>
    969c:	1009883a 	mov	r4,r2
    96a0:	1021883a 	mov	r16,r2
    96a4:	00059380 	call	5938 <__floatsidf>
    96a8:	100d883a 	mov	r6,r2
    96ac:	180f883a 	mov	r7,r3
    96b0:	9009883a 	mov	r4,r18
    96b4:	a00b883a 	mov	r5,r20
    96b8:	84000c04 	addi	r16,r16,48
    96bc:	0004fbc0 	call	4fbc <__subdf3>
    96c0:	ad400044 	addi	r21,r21,1
    96c4:	ac3fffc5 	stb	r16,-1(r21)
    96c8:	ac7fea1e 	bne	r21,r17,9674 <__alt_mem_VGA_Subsystem_Char_Buf_Subsystem_Onchip_SRAM+0xf7009674>
    96cc:	1023883a 	mov	r17,r2
    96d0:	d8801217 	ldw	r2,72(sp)
    96d4:	dc800f17 	ldw	r18,60(sp)
    96d8:	1829883a 	mov	r20,r3
    96dc:	b8af883a 	add	r23,r23,r2
    96e0:	d9001417 	ldw	r4,80(sp)
    96e4:	d9401517 	ldw	r5,84(sp)
    96e8:	000d883a 	mov	r6,zero
    96ec:	01cff834 	movhi	r7,16352
    96f0:	00033700 	call	3370 <__adddf3>
    96f4:	880d883a 	mov	r6,r17
    96f8:	a00f883a 	mov	r7,r20
    96fc:	1009883a 	mov	r4,r2
    9700:	180b883a 	mov	r5,r3
    9704:	000ff0c0 	call	ff0c <__ledf2>
    9708:	10003e0e 	bge	r2,zero,9804 <_dtoa_r+0x1548>
    970c:	d9001317 	ldw	r4,76(sp)
    9710:	bd3fffc3 	ldbu	r20,-1(r23)
    9714:	d9000515 	stw	r4,20(sp)
    9718:	003d3b06 	br	8c08 <__alt_mem_VGA_Subsystem_Char_Buf_Subsystem_Onchip_SRAM+0xf7008c08>
    971c:	0027883a 	mov	r19,zero
    9720:	003f1b06 	br	9390 <__alt_mem_VGA_Subsystem_Char_Buf_Subsystem_Onchip_SRAM+0xf7009390>
    9724:	d8800817 	ldw	r2,32(sp)
    9728:	11e9c83a 	sub	r20,r2,r7
    972c:	0005883a 	mov	r2,zero
    9730:	003d5406 	br	8c84 <__alt_mem_VGA_Subsystem_Char_Buf_Subsystem_Onchip_SRAM+0xf7008c84>
    9734:	00800044 	movi	r2,1
    9738:	003dc706 	br	8e58 <__alt_mem_VGA_Subsystem_Char_Buf_Subsystem_Onchip_SRAM+0xf7008e58>
    973c:	d8c00217 	ldw	r3,8(sp)
    9740:	00800d84 	movi	r2,54
    9744:	dd400a17 	ldw	r21,40(sp)
    9748:	10c5c83a 	sub	r2,r2,r3
    974c:	dd000817 	ldw	r20,32(sp)
    9750:	003d4c06 	br	8c84 <__alt_mem_VGA_Subsystem_Char_Buf_Subsystem_Onchip_SRAM+0xf7008c84>
    9754:	dc800f15 	stw	r18,60(sp)
    9758:	dcc01015 	stw	r19,64(sp)
    975c:	04000084 	movi	r16,2
    9760:	003bed06 	br	8718 <__alt_mem_VGA_Subsystem_Char_Buf_Subsystem_Onchip_SRAM+0xf7008718>
    9764:	d9000617 	ldw	r4,24(sp)
    9768:	203f0d26 	beq	r4,zero,93a0 <__alt_mem_VGA_Subsystem_Char_Buf_Subsystem_Onchip_SRAM+0xf70093a0>
    976c:	d9800c17 	ldw	r6,48(sp)
    9770:	01bcab0e 	bge	zero,r6,8a20 <__alt_mem_VGA_Subsystem_Char_Buf_Subsystem_Onchip_SRAM+0xf7008a20>
    9774:	d9401017 	ldw	r5,64(sp)
    9778:	d9000f17 	ldw	r4,60(sp)
    977c:	000d883a 	mov	r6,zero
    9780:	01d00934 	movhi	r7,16420
    9784:	00047500 	call	4750 <__muldf3>
    9788:	81000044 	addi	r4,r16,1
    978c:	d8800f15 	stw	r2,60(sp)
    9790:	d8c01015 	stw	r3,64(sp)
    9794:	00059380 	call	5938 <__floatsidf>
    9798:	d9800f17 	ldw	r6,60(sp)
    979c:	d9c01017 	ldw	r7,64(sp)
    97a0:	1009883a 	mov	r4,r2
    97a4:	180b883a 	mov	r5,r3
    97a8:	00047500 	call	4750 <__muldf3>
    97ac:	01d00734 	movhi	r7,16412
    97b0:	000d883a 	mov	r6,zero
    97b4:	1009883a 	mov	r4,r2
    97b8:	180b883a 	mov	r5,r3
    97bc:	00033700 	call	3370 <__adddf3>
    97c0:	d9c00517 	ldw	r7,20(sp)
    97c4:	047f3034 	movhi	r17,64704
    97c8:	1021883a 	mov	r16,r2
    97cc:	39ffffc4 	addi	r7,r7,-1
    97d0:	d9c01315 	stw	r7,76(sp)
    97d4:	1c63883a 	add	r17,r3,r17
    97d8:	db000c17 	ldw	r12,48(sp)
    97dc:	003bea06 	br	8788 <__alt_mem_VGA_Subsystem_Char_Buf_Subsystem_Onchip_SRAM+0xf7008788>
    97e0:	dc000915 	stw	r16,36(sp)
    97e4:	003e0e06 	br	9020 <__alt_mem_VGA_Subsystem_Char_Buf_Subsystem_Onchip_SRAM+0xf7009020>
    97e8:	01000e44 	movi	r4,57
    97ec:	8825883a 	mov	r18,r17
    97f0:	9dc00044 	addi	r23,r19,1
    97f4:	99000005 	stb	r4,0(r19)
    97f8:	a023883a 	mov	r17,r20
    97fc:	dc000915 	stw	r16,36(sp)
    9800:	003da406 	br	8e94 <__alt_mem_VGA_Subsystem_Char_Buf_Subsystem_Onchip_SRAM+0xf7008e94>
    9804:	d9801417 	ldw	r6,80(sp)
    9808:	d9c01517 	ldw	r7,84(sp)
    980c:	0009883a 	mov	r4,zero
    9810:	014ff834 	movhi	r5,16352
    9814:	0004fbc0 	call	4fbc <__subdf3>
    9818:	880d883a 	mov	r6,r17
    981c:	a00f883a 	mov	r7,r20
    9820:	1009883a 	mov	r4,r2
    9824:	180b883a 	mov	r5,r3
    9828:	00046740 	call	4674 <__gedf2>
    982c:	00bc7c0e 	bge	zero,r2,8a20 <__alt_mem_VGA_Subsystem_Char_Buf_Subsystem_Onchip_SRAM+0xf7008a20>
    9830:	01000c04 	movi	r4,48
    9834:	00000106 	br	983c <_dtoa_r+0x1580>
    9838:	102f883a 	mov	r23,r2
    983c:	b8bfffc4 	addi	r2,r23,-1
    9840:	10c00007 	ldb	r3,0(r2)
    9844:	193ffc26 	beq	r3,r4,9838 <__alt_mem_VGA_Subsystem_Char_Buf_Subsystem_Onchip_SRAM+0xf7009838>
    9848:	d9801317 	ldw	r6,76(sp)
    984c:	d9800515 	stw	r6,20(sp)
    9850:	003c4406 	br	8964 <__alt_mem_VGA_Subsystem_Char_Buf_Subsystem_Onchip_SRAM+0xf7008964>
    9854:	d9801317 	ldw	r6,76(sp)
    9858:	d9800515 	stw	r6,20(sp)
    985c:	003cea06 	br	8c08 <__alt_mem_VGA_Subsystem_Char_Buf_Subsystem_Onchip_SRAM+0xf7008c08>
    9860:	dd800f17 	ldw	r22,60(sp)
    9864:	dcc01017 	ldw	r19,64(sp)
    9868:	dc801217 	ldw	r18,72(sp)
    986c:	003c6c06 	br	8a20 <__alt_mem_VGA_Subsystem_Char_Buf_Subsystem_Onchip_SRAM+0xf7008a20>
    9870:	903e031e 	bne	r18,zero,9080 <__alt_mem_VGA_Subsystem_Char_Buf_Subsystem_Onchip_SRAM+0xf7009080>
    9874:	003ebb06 	br	9364 <__alt_mem_VGA_Subsystem_Char_Buf_Subsystem_Onchip_SRAM+0xf7009364>
    9878:	103e6c1e 	bne	r2,zero,922c <__alt_mem_VGA_Subsystem_Char_Buf_Subsystem_Onchip_SRAM+0xf700922c>
    987c:	4080004c 	andi	r2,r8,1
    9880:	103e6a26 	beq	r2,zero,922c <__alt_mem_VGA_Subsystem_Char_Buf_Subsystem_Onchip_SRAM+0xf700922c>
    9884:	003e6606 	br	9220 <__alt_mem_VGA_Subsystem_Char_Buf_Subsystem_Onchip_SRAM+0xf7009220>
    9888:	d8c00317 	ldw	r3,12(sp)
    988c:	00800084 	movi	r2,2
    9890:	10c02916 	blt	r2,r3,9938 <_dtoa_r+0x167c>
    9894:	d9000c17 	ldw	r4,48(sp)
    9898:	003e8806 	br	92bc <__alt_mem_VGA_Subsystem_Char_Buf_Subsystem_Onchip_SRAM+0xf70092bc>
    989c:	04000084 	movi	r16,2
    98a0:	003b9d06 	br	8718 <__alt_mem_VGA_Subsystem_Char_Buf_Subsystem_Onchip_SRAM+0xf7008718>
    98a4:	d9001317 	ldw	r4,76(sp)
    98a8:	d9000515 	stw	r4,20(sp)
    98ac:	003cd606 	br	8c08 <__alt_mem_VGA_Subsystem_Char_Buf_Subsystem_Onchip_SRAM+0xf7008c08>
    98b0:	d8801317 	ldw	r2,76(sp)
    98b4:	d8800515 	stw	r2,20(sp)
    98b8:	003c2a06 	br	8964 <__alt_mem_VGA_Subsystem_Char_Buf_Subsystem_Onchip_SRAM+0xf7008964>
    98bc:	d9800317 	ldw	r6,12(sp)
    98c0:	00800084 	movi	r2,2
    98c4:	11801516 	blt	r2,r6,991c <_dtoa_r+0x1660>
    98c8:	d9c00c17 	ldw	r7,48(sp)
    98cc:	d9c00615 	stw	r7,24(sp)
    98d0:	003df706 	br	90b0 <__alt_mem_VGA_Subsystem_Char_Buf_Subsystem_Onchip_SRAM+0xf70090b0>
    98d4:	193d3926 	beq	r3,r4,8dbc <__alt_mem_VGA_Subsystem_Char_Buf_Subsystem_Onchip_SRAM+0xf7008dbc>
    98d8:	00c00f04 	movi	r3,60
    98dc:	1885c83a 	sub	r2,r3,r2
    98e0:	003ddf06 	br	9060 <__alt_mem_VGA_Subsystem_Char_Buf_Subsystem_Onchip_SRAM+0xf7009060>
    98e4:	e009883a 	mov	r4,fp
    98e8:	e0001115 	stw	zero,68(fp)
    98ec:	000b883a 	mov	r5,zero
    98f0:	000b3500 	call	b350 <_Balloc>
    98f4:	d8800715 	stw	r2,28(sp)
    98f8:	d8c00717 	ldw	r3,28(sp)
    98fc:	00bfffc4 	movi	r2,-1
    9900:	01000044 	movi	r4,1
    9904:	d8800c15 	stw	r2,48(sp)
    9908:	e0c01015 	stw	r3,64(fp)
    990c:	d9000b15 	stw	r4,44(sp)
    9910:	d8800615 	stw	r2,24(sp)
    9914:	d8002215 	stw	zero,136(sp)
    9918:	003c4106 	br	8a20 <__alt_mem_VGA_Subsystem_Char_Buf_Subsystem_Onchip_SRAM+0xf7008a20>
    991c:	d8c00c17 	ldw	r3,48(sp)
    9920:	d8c00615 	stw	r3,24(sp)
    9924:	003e7006 	br	92e8 <__alt_mem_VGA_Subsystem_Char_Buf_Subsystem_Onchip_SRAM+0xf70092e8>
    9928:	04400044 	movi	r17,1
    992c:	003b2006 	br	85b0 <__alt_mem_VGA_Subsystem_Char_Buf_Subsystem_Onchip_SRAM+0xf70085b0>
    9930:	000b883a 	mov	r5,zero
    9934:	003b3d06 	br	862c <__alt_mem_VGA_Subsystem_Char_Buf_Subsystem_Onchip_SRAM+0xf700862c>
    9938:	d8800c17 	ldw	r2,48(sp)
    993c:	d8800615 	stw	r2,24(sp)
    9940:	003e6906 	br	92e8 <__alt_mem_VGA_Subsystem_Char_Buf_Subsystem_Onchip_SRAM+0xf70092e8>

00009944 <__sflush_r>:
    9944:	2880030b 	ldhu	r2,12(r5)
    9948:	defffb04 	addi	sp,sp,-20
    994c:	dcc00315 	stw	r19,12(sp)
    9950:	dc400115 	stw	r17,4(sp)
    9954:	dfc00415 	stw	ra,16(sp)
    9958:	dc800215 	stw	r18,8(sp)
    995c:	dc000015 	stw	r16,0(sp)
    9960:	10c0020c 	andi	r3,r2,8
    9964:	2823883a 	mov	r17,r5
    9968:	2027883a 	mov	r19,r4
    996c:	1800311e 	bne	r3,zero,9a34 <__sflush_r+0xf0>
    9970:	28c00117 	ldw	r3,4(r5)
    9974:	10820014 	ori	r2,r2,2048
    9978:	2880030d 	sth	r2,12(r5)
    997c:	00c04b0e 	bge	zero,r3,9aac <__sflush_r+0x168>
    9980:	8a000a17 	ldw	r8,40(r17)
    9984:	40002326 	beq	r8,zero,9a14 <__sflush_r+0xd0>
    9988:	9c000017 	ldw	r16,0(r19)
    998c:	10c4000c 	andi	r3,r2,4096
    9990:	98000015 	stw	zero,0(r19)
    9994:	18004826 	beq	r3,zero,9ab8 <__sflush_r+0x174>
    9998:	89801417 	ldw	r6,80(r17)
    999c:	10c0010c 	andi	r3,r2,4
    99a0:	18000626 	beq	r3,zero,99bc <__sflush_r+0x78>
    99a4:	88c00117 	ldw	r3,4(r17)
    99a8:	88800c17 	ldw	r2,48(r17)
    99ac:	30cdc83a 	sub	r6,r6,r3
    99b0:	10000226 	beq	r2,zero,99bc <__sflush_r+0x78>
    99b4:	88800f17 	ldw	r2,60(r17)
    99b8:	308dc83a 	sub	r6,r6,r2
    99bc:	89400717 	ldw	r5,28(r17)
    99c0:	000f883a 	mov	r7,zero
    99c4:	9809883a 	mov	r4,r19
    99c8:	403ee83a 	callr	r8
    99cc:	00ffffc4 	movi	r3,-1
    99d0:	10c04426 	beq	r2,r3,9ae4 <__sflush_r+0x1a0>
    99d4:	88c0030b 	ldhu	r3,12(r17)
    99d8:	89000417 	ldw	r4,16(r17)
    99dc:	88000115 	stw	zero,4(r17)
    99e0:	197dffcc 	andi	r5,r3,63487
    99e4:	8940030d 	sth	r5,12(r17)
    99e8:	89000015 	stw	r4,0(r17)
    99ec:	18c4000c 	andi	r3,r3,4096
    99f0:	18002c1e 	bne	r3,zero,9aa4 <__sflush_r+0x160>
    99f4:	89400c17 	ldw	r5,48(r17)
    99f8:	9c000015 	stw	r16,0(r19)
    99fc:	28000526 	beq	r5,zero,9a14 <__sflush_r+0xd0>
    9a00:	88801004 	addi	r2,r17,64
    9a04:	28800226 	beq	r5,r2,9a10 <__sflush_r+0xcc>
    9a08:	9809883a 	mov	r4,r19
    9a0c:	000a0c00 	call	a0c0 <_free_r>
    9a10:	88000c15 	stw	zero,48(r17)
    9a14:	0005883a 	mov	r2,zero
    9a18:	dfc00417 	ldw	ra,16(sp)
    9a1c:	dcc00317 	ldw	r19,12(sp)
    9a20:	dc800217 	ldw	r18,8(sp)
    9a24:	dc400117 	ldw	r17,4(sp)
    9a28:	dc000017 	ldw	r16,0(sp)
    9a2c:	dec00504 	addi	sp,sp,20
    9a30:	f800283a 	ret
    9a34:	2c800417 	ldw	r18,16(r5)
    9a38:	903ff626 	beq	r18,zero,9a14 <__alt_mem_VGA_Subsystem_Char_Buf_Subsystem_Onchip_SRAM+0xf7009a14>
    9a3c:	2c000017 	ldw	r16,0(r5)
    9a40:	108000cc 	andi	r2,r2,3
    9a44:	2c800015 	stw	r18,0(r5)
    9a48:	84a1c83a 	sub	r16,r16,r18
    9a4c:	1000131e 	bne	r2,zero,9a9c <__sflush_r+0x158>
    9a50:	28800517 	ldw	r2,20(r5)
    9a54:	88800215 	stw	r2,8(r17)
    9a58:	04000316 	blt	zero,r16,9a68 <__sflush_r+0x124>
    9a5c:	003fed06 	br	9a14 <__alt_mem_VGA_Subsystem_Char_Buf_Subsystem_Onchip_SRAM+0xf7009a14>
    9a60:	90a5883a 	add	r18,r18,r2
    9a64:	043feb0e 	bge	zero,r16,9a14 <__alt_mem_VGA_Subsystem_Char_Buf_Subsystem_Onchip_SRAM+0xf7009a14>
    9a68:	88800917 	ldw	r2,36(r17)
    9a6c:	89400717 	ldw	r5,28(r17)
    9a70:	800f883a 	mov	r7,r16
    9a74:	900d883a 	mov	r6,r18
    9a78:	9809883a 	mov	r4,r19
    9a7c:	103ee83a 	callr	r2
    9a80:	80a1c83a 	sub	r16,r16,r2
    9a84:	00bff616 	blt	zero,r2,9a60 <__alt_mem_VGA_Subsystem_Char_Buf_Subsystem_Onchip_SRAM+0xf7009a60>
    9a88:	88c0030b 	ldhu	r3,12(r17)
    9a8c:	00bfffc4 	movi	r2,-1
    9a90:	18c01014 	ori	r3,r3,64
    9a94:	88c0030d 	sth	r3,12(r17)
    9a98:	003fdf06 	br	9a18 <__alt_mem_VGA_Subsystem_Char_Buf_Subsystem_Onchip_SRAM+0xf7009a18>
    9a9c:	0005883a 	mov	r2,zero
    9aa0:	003fec06 	br	9a54 <__alt_mem_VGA_Subsystem_Char_Buf_Subsystem_Onchip_SRAM+0xf7009a54>
    9aa4:	88801415 	stw	r2,80(r17)
    9aa8:	003fd206 	br	99f4 <__alt_mem_VGA_Subsystem_Char_Buf_Subsystem_Onchip_SRAM+0xf70099f4>
    9aac:	28c00f17 	ldw	r3,60(r5)
    9ab0:	00ffb316 	blt	zero,r3,9980 <__alt_mem_VGA_Subsystem_Char_Buf_Subsystem_Onchip_SRAM+0xf7009980>
    9ab4:	003fd706 	br	9a14 <__alt_mem_VGA_Subsystem_Char_Buf_Subsystem_Onchip_SRAM+0xf7009a14>
    9ab8:	89400717 	ldw	r5,28(r17)
    9abc:	000d883a 	mov	r6,zero
    9ac0:	01c00044 	movi	r7,1
    9ac4:	9809883a 	mov	r4,r19
    9ac8:	403ee83a 	callr	r8
    9acc:	100d883a 	mov	r6,r2
    9ad0:	00bfffc4 	movi	r2,-1
    9ad4:	30801426 	beq	r6,r2,9b28 <__sflush_r+0x1e4>
    9ad8:	8880030b 	ldhu	r2,12(r17)
    9adc:	8a000a17 	ldw	r8,40(r17)
    9ae0:	003fae06 	br	999c <__alt_mem_VGA_Subsystem_Char_Buf_Subsystem_Onchip_SRAM+0xf700999c>
    9ae4:	98c00017 	ldw	r3,0(r19)
    9ae8:	183fba26 	beq	r3,zero,99d4 <__alt_mem_VGA_Subsystem_Char_Buf_Subsystem_Onchip_SRAM+0xf70099d4>
    9aec:	01000744 	movi	r4,29
    9af0:	19000626 	beq	r3,r4,9b0c <__sflush_r+0x1c8>
    9af4:	01000584 	movi	r4,22
    9af8:	19000426 	beq	r3,r4,9b0c <__sflush_r+0x1c8>
    9afc:	88c0030b 	ldhu	r3,12(r17)
    9b00:	18c01014 	ori	r3,r3,64
    9b04:	88c0030d 	sth	r3,12(r17)
    9b08:	003fc306 	br	9a18 <__alt_mem_VGA_Subsystem_Char_Buf_Subsystem_Onchip_SRAM+0xf7009a18>
    9b0c:	8880030b 	ldhu	r2,12(r17)
    9b10:	88c00417 	ldw	r3,16(r17)
    9b14:	88000115 	stw	zero,4(r17)
    9b18:	10bdffcc 	andi	r2,r2,63487
    9b1c:	8880030d 	sth	r2,12(r17)
    9b20:	88c00015 	stw	r3,0(r17)
    9b24:	003fb306 	br	99f4 <__alt_mem_VGA_Subsystem_Char_Buf_Subsystem_Onchip_SRAM+0xf70099f4>
    9b28:	98800017 	ldw	r2,0(r19)
    9b2c:	103fea26 	beq	r2,zero,9ad8 <__alt_mem_VGA_Subsystem_Char_Buf_Subsystem_Onchip_SRAM+0xf7009ad8>
    9b30:	00c00744 	movi	r3,29
    9b34:	10c00226 	beq	r2,r3,9b40 <__sflush_r+0x1fc>
    9b38:	00c00584 	movi	r3,22
    9b3c:	10c0031e 	bne	r2,r3,9b4c <__sflush_r+0x208>
    9b40:	9c000015 	stw	r16,0(r19)
    9b44:	0005883a 	mov	r2,zero
    9b48:	003fb306 	br	9a18 <__alt_mem_VGA_Subsystem_Char_Buf_Subsystem_Onchip_SRAM+0xf7009a18>
    9b4c:	88c0030b 	ldhu	r3,12(r17)
    9b50:	3005883a 	mov	r2,r6
    9b54:	18c01014 	ori	r3,r3,64
    9b58:	88c0030d 	sth	r3,12(r17)
    9b5c:	003fae06 	br	9a18 <__alt_mem_VGA_Subsystem_Char_Buf_Subsystem_Onchip_SRAM+0xf7009a18>

00009b60 <_fflush_r>:
    9b60:	defffd04 	addi	sp,sp,-12
    9b64:	dc000115 	stw	r16,4(sp)
    9b68:	dfc00215 	stw	ra,8(sp)
    9b6c:	2021883a 	mov	r16,r4
    9b70:	20000226 	beq	r4,zero,9b7c <_fflush_r+0x1c>
    9b74:	20800e17 	ldw	r2,56(r4)
    9b78:	10000c26 	beq	r2,zero,9bac <_fflush_r+0x4c>
    9b7c:	2880030f 	ldh	r2,12(r5)
    9b80:	1000051e 	bne	r2,zero,9b98 <_fflush_r+0x38>
    9b84:	0005883a 	mov	r2,zero
    9b88:	dfc00217 	ldw	ra,8(sp)
    9b8c:	dc000117 	ldw	r16,4(sp)
    9b90:	dec00304 	addi	sp,sp,12
    9b94:	f800283a 	ret
    9b98:	8009883a 	mov	r4,r16
    9b9c:	dfc00217 	ldw	ra,8(sp)
    9ba0:	dc000117 	ldw	r16,4(sp)
    9ba4:	dec00304 	addi	sp,sp,12
    9ba8:	00099441 	jmpi	9944 <__sflush_r>
    9bac:	d9400015 	stw	r5,0(sp)
    9bb0:	0009f4c0 	call	9f4c <__sinit>
    9bb4:	d9400017 	ldw	r5,0(sp)
    9bb8:	003ff006 	br	9b7c <__alt_mem_VGA_Subsystem_Char_Buf_Subsystem_Onchip_SRAM+0xf7009b7c>

00009bbc <fflush>:
    9bbc:	20000526 	beq	r4,zero,9bd4 <fflush+0x18>
    9bc0:	00800074 	movhi	r2,1
    9bc4:	10941104 	addi	r2,r2,20548
    9bc8:	200b883a 	mov	r5,r4
    9bcc:	11000017 	ldw	r4,0(r2)
    9bd0:	0009b601 	jmpi	9b60 <_fflush_r>
    9bd4:	00800074 	movhi	r2,1
    9bd8:	10941004 	addi	r2,r2,20544
    9bdc:	11000017 	ldw	r4,0(r2)
    9be0:	01400074 	movhi	r5,1
    9be4:	2966d804 	addi	r5,r5,-25760
    9be8:	000a4941 	jmpi	a494 <_fwalk_reent>

00009bec <__fp_unlock>:
    9bec:	0005883a 	mov	r2,zero
    9bf0:	f800283a 	ret

00009bf4 <_cleanup_r>:
    9bf4:	01400074 	movhi	r5,1
    9bf8:	29780204 	addi	r5,r5,-8184
    9bfc:	000a4941 	jmpi	a494 <_fwalk_reent>

00009c00 <__sinit.part.1>:
    9c00:	defff704 	addi	sp,sp,-36
    9c04:	00c00074 	movhi	r3,1
    9c08:	dfc00815 	stw	ra,32(sp)
    9c0c:	ddc00715 	stw	r23,28(sp)
    9c10:	dd800615 	stw	r22,24(sp)
    9c14:	dd400515 	stw	r21,20(sp)
    9c18:	dd000415 	stw	r20,16(sp)
    9c1c:	dcc00315 	stw	r19,12(sp)
    9c20:	dc800215 	stw	r18,8(sp)
    9c24:	dc400115 	stw	r17,4(sp)
    9c28:	dc000015 	stw	r16,0(sp)
    9c2c:	18e6fd04 	addi	r3,r3,-25612
    9c30:	24000117 	ldw	r16,4(r4)
    9c34:	20c00f15 	stw	r3,60(r4)
    9c38:	2080bb04 	addi	r2,r4,748
    9c3c:	00c000c4 	movi	r3,3
    9c40:	20c0b915 	stw	r3,740(r4)
    9c44:	2080ba15 	stw	r2,744(r4)
    9c48:	2000b815 	stw	zero,736(r4)
    9c4c:	05c00204 	movi	r23,8
    9c50:	00800104 	movi	r2,4
    9c54:	2025883a 	mov	r18,r4
    9c58:	b80d883a 	mov	r6,r23
    9c5c:	81001704 	addi	r4,r16,92
    9c60:	000b883a 	mov	r5,zero
    9c64:	80000015 	stw	zero,0(r16)
    9c68:	80000115 	stw	zero,4(r16)
    9c6c:	80000215 	stw	zero,8(r16)
    9c70:	8080030d 	sth	r2,12(r16)
    9c74:	80001915 	stw	zero,100(r16)
    9c78:	8000038d 	sth	zero,14(r16)
    9c7c:	80000415 	stw	zero,16(r16)
    9c80:	80000515 	stw	zero,20(r16)
    9c84:	80000615 	stw	zero,24(r16)
    9c88:	000b2280 	call	b228 <memset>
    9c8c:	05800074 	movhi	r22,1
    9c90:	94400217 	ldw	r17,8(r18)
    9c94:	05400074 	movhi	r21,1
    9c98:	05000074 	movhi	r20,1
    9c9c:	04c00074 	movhi	r19,1
    9ca0:	b5b13404 	addi	r22,r22,-15152
    9ca4:	ad714b04 	addi	r21,r21,-15060
    9ca8:	a5316a04 	addi	r20,r20,-14936
    9cac:	9cf18104 	addi	r19,r19,-14844
    9cb0:	85800815 	stw	r22,32(r16)
    9cb4:	85400915 	stw	r21,36(r16)
    9cb8:	85000a15 	stw	r20,40(r16)
    9cbc:	84c00b15 	stw	r19,44(r16)
    9cc0:	84000715 	stw	r16,28(r16)
    9cc4:	00800284 	movi	r2,10
    9cc8:	8880030d 	sth	r2,12(r17)
    9ccc:	00800044 	movi	r2,1
    9cd0:	b80d883a 	mov	r6,r23
    9cd4:	89001704 	addi	r4,r17,92
    9cd8:	000b883a 	mov	r5,zero
    9cdc:	88000015 	stw	zero,0(r17)
    9ce0:	88000115 	stw	zero,4(r17)
    9ce4:	88000215 	stw	zero,8(r17)
    9ce8:	88001915 	stw	zero,100(r17)
    9cec:	8880038d 	sth	r2,14(r17)
    9cf0:	88000415 	stw	zero,16(r17)
    9cf4:	88000515 	stw	zero,20(r17)
    9cf8:	88000615 	stw	zero,24(r17)
    9cfc:	000b2280 	call	b228 <memset>
    9d00:	94000317 	ldw	r16,12(r18)
    9d04:	00800484 	movi	r2,18
    9d08:	8c400715 	stw	r17,28(r17)
    9d0c:	8d800815 	stw	r22,32(r17)
    9d10:	8d400915 	stw	r21,36(r17)
    9d14:	8d000a15 	stw	r20,40(r17)
    9d18:	8cc00b15 	stw	r19,44(r17)
    9d1c:	8080030d 	sth	r2,12(r16)
    9d20:	00800084 	movi	r2,2
    9d24:	80000015 	stw	zero,0(r16)
    9d28:	80000115 	stw	zero,4(r16)
    9d2c:	80000215 	stw	zero,8(r16)
    9d30:	80001915 	stw	zero,100(r16)
    9d34:	8080038d 	sth	r2,14(r16)
    9d38:	80000415 	stw	zero,16(r16)
    9d3c:	80000515 	stw	zero,20(r16)
    9d40:	80000615 	stw	zero,24(r16)
    9d44:	b80d883a 	mov	r6,r23
    9d48:	000b883a 	mov	r5,zero
    9d4c:	81001704 	addi	r4,r16,92
    9d50:	000b2280 	call	b228 <memset>
    9d54:	00800044 	movi	r2,1
    9d58:	84000715 	stw	r16,28(r16)
    9d5c:	85800815 	stw	r22,32(r16)
    9d60:	85400915 	stw	r21,36(r16)
    9d64:	85000a15 	stw	r20,40(r16)
    9d68:	84c00b15 	stw	r19,44(r16)
    9d6c:	90800e15 	stw	r2,56(r18)
    9d70:	dfc00817 	ldw	ra,32(sp)
    9d74:	ddc00717 	ldw	r23,28(sp)
    9d78:	dd800617 	ldw	r22,24(sp)
    9d7c:	dd400517 	ldw	r21,20(sp)
    9d80:	dd000417 	ldw	r20,16(sp)
    9d84:	dcc00317 	ldw	r19,12(sp)
    9d88:	dc800217 	ldw	r18,8(sp)
    9d8c:	dc400117 	ldw	r17,4(sp)
    9d90:	dc000017 	ldw	r16,0(sp)
    9d94:	dec00904 	addi	sp,sp,36
    9d98:	f800283a 	ret

00009d9c <__fp_lock>:
    9d9c:	0005883a 	mov	r2,zero
    9da0:	f800283a 	ret

00009da4 <__sfmoreglue>:
    9da4:	defffc04 	addi	sp,sp,-16
    9da8:	dc800215 	stw	r18,8(sp)
    9dac:	2825883a 	mov	r18,r5
    9db0:	dc000015 	stw	r16,0(sp)
    9db4:	01401a04 	movi	r5,104
    9db8:	2021883a 	mov	r16,r4
    9dbc:	913fffc4 	addi	r4,r18,-1
    9dc0:	dfc00315 	stw	ra,12(sp)
    9dc4:	dc400115 	stw	r17,4(sp)
    9dc8:	00033480 	call	3348 <__mulsi3>
    9dcc:	8009883a 	mov	r4,r16
    9dd0:	11401d04 	addi	r5,r2,116
    9dd4:	1023883a 	mov	r17,r2
    9dd8:	000a7f00 	call	a7f0 <_malloc_r>
    9ddc:	1021883a 	mov	r16,r2
    9de0:	10000726 	beq	r2,zero,9e00 <__sfmoreglue+0x5c>
    9de4:	11000304 	addi	r4,r2,12
    9de8:	10000015 	stw	zero,0(r2)
    9dec:	14800115 	stw	r18,4(r2)
    9df0:	11000215 	stw	r4,8(r2)
    9df4:	89801a04 	addi	r6,r17,104
    9df8:	000b883a 	mov	r5,zero
    9dfc:	000b2280 	call	b228 <memset>
    9e00:	8005883a 	mov	r2,r16
    9e04:	dfc00317 	ldw	ra,12(sp)
    9e08:	dc800217 	ldw	r18,8(sp)
    9e0c:	dc400117 	ldw	r17,4(sp)
    9e10:	dc000017 	ldw	r16,0(sp)
    9e14:	dec00404 	addi	sp,sp,16
    9e18:	f800283a 	ret

00009e1c <__sfp>:
    9e1c:	defffb04 	addi	sp,sp,-20
    9e20:	dc000015 	stw	r16,0(sp)
    9e24:	04000074 	movhi	r16,1
    9e28:	84141004 	addi	r16,r16,20544
    9e2c:	dcc00315 	stw	r19,12(sp)
    9e30:	2027883a 	mov	r19,r4
    9e34:	81000017 	ldw	r4,0(r16)
    9e38:	dfc00415 	stw	ra,16(sp)
    9e3c:	dc800215 	stw	r18,8(sp)
    9e40:	20800e17 	ldw	r2,56(r4)
    9e44:	dc400115 	stw	r17,4(sp)
    9e48:	1000021e 	bne	r2,zero,9e54 <__sfp+0x38>
    9e4c:	0009c000 	call	9c00 <__sinit.part.1>
    9e50:	81000017 	ldw	r4,0(r16)
    9e54:	2480b804 	addi	r18,r4,736
    9e58:	047fffc4 	movi	r17,-1
    9e5c:	91000117 	ldw	r4,4(r18)
    9e60:	94000217 	ldw	r16,8(r18)
    9e64:	213fffc4 	addi	r4,r4,-1
    9e68:	20000a16 	blt	r4,zero,9e94 <__sfp+0x78>
    9e6c:	8080030f 	ldh	r2,12(r16)
    9e70:	10000c26 	beq	r2,zero,9ea4 <__sfp+0x88>
    9e74:	80c01d04 	addi	r3,r16,116
    9e78:	00000206 	br	9e84 <__sfp+0x68>
    9e7c:	18bfe60f 	ldh	r2,-104(r3)
    9e80:	10000826 	beq	r2,zero,9ea4 <__sfp+0x88>
    9e84:	213fffc4 	addi	r4,r4,-1
    9e88:	1c3ffd04 	addi	r16,r3,-12
    9e8c:	18c01a04 	addi	r3,r3,104
    9e90:	247ffa1e 	bne	r4,r17,9e7c <__alt_mem_VGA_Subsystem_Char_Buf_Subsystem_Onchip_SRAM+0xf7009e7c>
    9e94:	90800017 	ldw	r2,0(r18)
    9e98:	10001d26 	beq	r2,zero,9f10 <__sfp+0xf4>
    9e9c:	1025883a 	mov	r18,r2
    9ea0:	003fee06 	br	9e5c <__alt_mem_VGA_Subsystem_Char_Buf_Subsystem_Onchip_SRAM+0xf7009e5c>
    9ea4:	00bfffc4 	movi	r2,-1
    9ea8:	8080038d 	sth	r2,14(r16)
    9eac:	00800044 	movi	r2,1
    9eb0:	8080030d 	sth	r2,12(r16)
    9eb4:	80001915 	stw	zero,100(r16)
    9eb8:	80000015 	stw	zero,0(r16)
    9ebc:	80000215 	stw	zero,8(r16)
    9ec0:	80000115 	stw	zero,4(r16)
    9ec4:	80000415 	stw	zero,16(r16)
    9ec8:	80000515 	stw	zero,20(r16)
    9ecc:	80000615 	stw	zero,24(r16)
    9ed0:	01800204 	movi	r6,8
    9ed4:	000b883a 	mov	r5,zero
    9ed8:	81001704 	addi	r4,r16,92
    9edc:	000b2280 	call	b228 <memset>
    9ee0:	8005883a 	mov	r2,r16
    9ee4:	80000c15 	stw	zero,48(r16)
    9ee8:	80000d15 	stw	zero,52(r16)
    9eec:	80001115 	stw	zero,68(r16)
    9ef0:	80001215 	stw	zero,72(r16)
    9ef4:	dfc00417 	ldw	ra,16(sp)
    9ef8:	dcc00317 	ldw	r19,12(sp)
    9efc:	dc800217 	ldw	r18,8(sp)
    9f00:	dc400117 	ldw	r17,4(sp)
    9f04:	dc000017 	ldw	r16,0(sp)
    9f08:	dec00504 	addi	sp,sp,20
    9f0c:	f800283a 	ret
    9f10:	01400104 	movi	r5,4
    9f14:	9809883a 	mov	r4,r19
    9f18:	0009da40 	call	9da4 <__sfmoreglue>
    9f1c:	90800015 	stw	r2,0(r18)
    9f20:	103fde1e 	bne	r2,zero,9e9c <__alt_mem_VGA_Subsystem_Char_Buf_Subsystem_Onchip_SRAM+0xf7009e9c>
    9f24:	00800304 	movi	r2,12
    9f28:	98800015 	stw	r2,0(r19)
    9f2c:	0005883a 	mov	r2,zero
    9f30:	003ff006 	br	9ef4 <__alt_mem_VGA_Subsystem_Char_Buf_Subsystem_Onchip_SRAM+0xf7009ef4>

00009f34 <_cleanup>:
    9f34:	00800074 	movhi	r2,1
    9f38:	10941004 	addi	r2,r2,20544
    9f3c:	11000017 	ldw	r4,0(r2)
    9f40:	01400074 	movhi	r5,1
    9f44:	29780204 	addi	r5,r5,-8184
    9f48:	000a4941 	jmpi	a494 <_fwalk_reent>

00009f4c <__sinit>:
    9f4c:	20800e17 	ldw	r2,56(r4)
    9f50:	10000126 	beq	r2,zero,9f58 <__sinit+0xc>
    9f54:	f800283a 	ret
    9f58:	0009c001 	jmpi	9c00 <__sinit.part.1>

00009f5c <__sfp_lock_acquire>:
    9f5c:	f800283a 	ret

00009f60 <__sfp_lock_release>:
    9f60:	f800283a 	ret

00009f64 <__sinit_lock_acquire>:
    9f64:	f800283a 	ret

00009f68 <__sinit_lock_release>:
    9f68:	f800283a 	ret

00009f6c <__fp_lock_all>:
    9f6c:	00800074 	movhi	r2,1
    9f70:	10941104 	addi	r2,r2,20548
    9f74:	11000017 	ldw	r4,0(r2)
    9f78:	01400074 	movhi	r5,1
    9f7c:	29676704 	addi	r5,r5,-25188
    9f80:	000a3d01 	jmpi	a3d0 <_fwalk>

00009f84 <__fp_unlock_all>:
    9f84:	00800074 	movhi	r2,1
    9f88:	10941104 	addi	r2,r2,20548
    9f8c:	11000017 	ldw	r4,0(r2)
    9f90:	01400074 	movhi	r5,1
    9f94:	2966fb04 	addi	r5,r5,-25620
    9f98:	000a3d01 	jmpi	a3d0 <_fwalk>

00009f9c <_malloc_trim_r>:
    9f9c:	defffb04 	addi	sp,sp,-20
    9fa0:	dcc00315 	stw	r19,12(sp)
    9fa4:	04c00074 	movhi	r19,1
    9fa8:	dc800215 	stw	r18,8(sp)
    9fac:	dc400115 	stw	r17,4(sp)
    9fb0:	dc000015 	stw	r16,0(sp)
    9fb4:	dfc00415 	stw	ra,16(sp)
    9fb8:	2821883a 	mov	r16,r5
    9fbc:	9cce4d04 	addi	r19,r19,14644
    9fc0:	2025883a 	mov	r18,r4
    9fc4:	001059c0 	call	1059c <__malloc_lock>
    9fc8:	98800217 	ldw	r2,8(r19)
    9fcc:	14400117 	ldw	r17,4(r2)
    9fd0:	00bfff04 	movi	r2,-4
    9fd4:	88a2703a 	and	r17,r17,r2
    9fd8:	8c21c83a 	sub	r16,r17,r16
    9fdc:	8403fbc4 	addi	r16,r16,4079
    9fe0:	8020d33a 	srli	r16,r16,12
    9fe4:	0083ffc4 	movi	r2,4095
    9fe8:	843fffc4 	addi	r16,r16,-1
    9fec:	8020933a 	slli	r16,r16,12
    9ff0:	1400060e 	bge	r2,r16,a00c <_malloc_trim_r+0x70>
    9ff4:	000b883a 	mov	r5,zero
    9ff8:	9009883a 	mov	r4,r18
    9ffc:	000c47c0 	call	c47c <_sbrk_r>
    a000:	98c00217 	ldw	r3,8(r19)
    a004:	1c47883a 	add	r3,r3,r17
    a008:	10c00a26 	beq	r2,r3,a034 <_malloc_trim_r+0x98>
    a00c:	9009883a 	mov	r4,r18
    a010:	00105c00 	call	105c0 <__malloc_unlock>
    a014:	0005883a 	mov	r2,zero
    a018:	dfc00417 	ldw	ra,16(sp)
    a01c:	dcc00317 	ldw	r19,12(sp)
    a020:	dc800217 	ldw	r18,8(sp)
    a024:	dc400117 	ldw	r17,4(sp)
    a028:	dc000017 	ldw	r16,0(sp)
    a02c:	dec00504 	addi	sp,sp,20
    a030:	f800283a 	ret
    a034:	040bc83a 	sub	r5,zero,r16
    a038:	9009883a 	mov	r4,r18
    a03c:	000c47c0 	call	c47c <_sbrk_r>
    a040:	00ffffc4 	movi	r3,-1
    a044:	10c00d26 	beq	r2,r3,a07c <_malloc_trim_r+0xe0>
    a048:	00c00074 	movhi	r3,1
    a04c:	18db2d04 	addi	r3,r3,27828
    a050:	18800017 	ldw	r2,0(r3)
    a054:	99000217 	ldw	r4,8(r19)
    a058:	8c23c83a 	sub	r17,r17,r16
    a05c:	8c400054 	ori	r17,r17,1
    a060:	1421c83a 	sub	r16,r2,r16
    a064:	24400115 	stw	r17,4(r4)
    a068:	9009883a 	mov	r4,r18
    a06c:	1c000015 	stw	r16,0(r3)
    a070:	00105c00 	call	105c0 <__malloc_unlock>
    a074:	00800044 	movi	r2,1
    a078:	003fe706 	br	a018 <__alt_mem_VGA_Subsystem_Char_Buf_Subsystem_Onchip_SRAM+0xf700a018>
    a07c:	000b883a 	mov	r5,zero
    a080:	9009883a 	mov	r4,r18
    a084:	000c47c0 	call	c47c <_sbrk_r>
    a088:	99000217 	ldw	r4,8(r19)
    a08c:	014003c4 	movi	r5,15
    a090:	1107c83a 	sub	r3,r2,r4
    a094:	28ffdd0e 	bge	r5,r3,a00c <__alt_mem_VGA_Subsystem_Char_Buf_Subsystem_Onchip_SRAM+0xf700a00c>
    a098:	01400074 	movhi	r5,1
    a09c:	29541304 	addi	r5,r5,20556
    a0a0:	29400017 	ldw	r5,0(r5)
    a0a4:	18c00054 	ori	r3,r3,1
    a0a8:	20c00115 	stw	r3,4(r4)
    a0ac:	00c00074 	movhi	r3,1
    a0b0:	1145c83a 	sub	r2,r2,r5
    a0b4:	18db2d04 	addi	r3,r3,27828
    a0b8:	18800015 	stw	r2,0(r3)
    a0bc:	003fd306 	br	a00c <__alt_mem_VGA_Subsystem_Char_Buf_Subsystem_Onchip_SRAM+0xf700a00c>

0000a0c0 <_free_r>:
    a0c0:	28004126 	beq	r5,zero,a1c8 <_free_r+0x108>
    a0c4:	defffd04 	addi	sp,sp,-12
    a0c8:	dc400115 	stw	r17,4(sp)
    a0cc:	dc000015 	stw	r16,0(sp)
    a0d0:	2023883a 	mov	r17,r4
    a0d4:	2821883a 	mov	r16,r5
    a0d8:	dfc00215 	stw	ra,8(sp)
    a0dc:	001059c0 	call	1059c <__malloc_lock>
    a0e0:	81ffff17 	ldw	r7,-4(r16)
    a0e4:	00bfff84 	movi	r2,-2
    a0e8:	01000074 	movhi	r4,1
    a0ec:	81bffe04 	addi	r6,r16,-8
    a0f0:	3884703a 	and	r2,r7,r2
    a0f4:	210e4d04 	addi	r4,r4,14644
    a0f8:	308b883a 	add	r5,r6,r2
    a0fc:	2a400117 	ldw	r9,4(r5)
    a100:	22000217 	ldw	r8,8(r4)
    a104:	00ffff04 	movi	r3,-4
    a108:	48c6703a 	and	r3,r9,r3
    a10c:	2a005726 	beq	r5,r8,a26c <_free_r+0x1ac>
    a110:	28c00115 	stw	r3,4(r5)
    a114:	39c0004c 	andi	r7,r7,1
    a118:	3800091e 	bne	r7,zero,a140 <_free_r+0x80>
    a11c:	823ffe17 	ldw	r8,-8(r16)
    a120:	22400204 	addi	r9,r4,8
    a124:	320dc83a 	sub	r6,r6,r8
    a128:	31c00217 	ldw	r7,8(r6)
    a12c:	1205883a 	add	r2,r2,r8
    a130:	3a406526 	beq	r7,r9,a2c8 <_free_r+0x208>
    a134:	32000317 	ldw	r8,12(r6)
    a138:	3a000315 	stw	r8,12(r7)
    a13c:	41c00215 	stw	r7,8(r8)
    a140:	28cf883a 	add	r7,r5,r3
    a144:	39c00117 	ldw	r7,4(r7)
    a148:	39c0004c 	andi	r7,r7,1
    a14c:	38003a26 	beq	r7,zero,a238 <_free_r+0x178>
    a150:	10c00054 	ori	r3,r2,1
    a154:	30c00115 	stw	r3,4(r6)
    a158:	3087883a 	add	r3,r6,r2
    a15c:	18800015 	stw	r2,0(r3)
    a160:	00c07fc4 	movi	r3,511
    a164:	18801936 	bltu	r3,r2,a1cc <_free_r+0x10c>
    a168:	1004d0fa 	srli	r2,r2,3
    a16c:	01c00044 	movi	r7,1
    a170:	21400117 	ldw	r5,4(r4)
    a174:	10c00044 	addi	r3,r2,1
    a178:	18c7883a 	add	r3,r3,r3
    a17c:	1005d0ba 	srai	r2,r2,2
    a180:	18c7883a 	add	r3,r3,r3
    a184:	18c7883a 	add	r3,r3,r3
    a188:	1907883a 	add	r3,r3,r4
    a18c:	3884983a 	sll	r2,r7,r2
    a190:	19c00017 	ldw	r7,0(r3)
    a194:	1a3ffe04 	addi	r8,r3,-8
    a198:	1144b03a 	or	r2,r2,r5
    a19c:	32000315 	stw	r8,12(r6)
    a1a0:	31c00215 	stw	r7,8(r6)
    a1a4:	20800115 	stw	r2,4(r4)
    a1a8:	19800015 	stw	r6,0(r3)
    a1ac:	39800315 	stw	r6,12(r7)
    a1b0:	8809883a 	mov	r4,r17
    a1b4:	dfc00217 	ldw	ra,8(sp)
    a1b8:	dc400117 	ldw	r17,4(sp)
    a1bc:	dc000017 	ldw	r16,0(sp)
    a1c0:	dec00304 	addi	sp,sp,12
    a1c4:	00105c01 	jmpi	105c0 <__malloc_unlock>
    a1c8:	f800283a 	ret
    a1cc:	100ad27a 	srli	r5,r2,9
    a1d0:	00c00104 	movi	r3,4
    a1d4:	19404a36 	bltu	r3,r5,a300 <_free_r+0x240>
    a1d8:	100ad1ba 	srli	r5,r2,6
    a1dc:	28c00e44 	addi	r3,r5,57
    a1e0:	18c7883a 	add	r3,r3,r3
    a1e4:	29400e04 	addi	r5,r5,56
    a1e8:	18c7883a 	add	r3,r3,r3
    a1ec:	18c7883a 	add	r3,r3,r3
    a1f0:	1909883a 	add	r4,r3,r4
    a1f4:	20c00017 	ldw	r3,0(r4)
    a1f8:	01c00074 	movhi	r7,1
    a1fc:	213ffe04 	addi	r4,r4,-8
    a200:	39ce4d04 	addi	r7,r7,14644
    a204:	20c04426 	beq	r4,r3,a318 <_free_r+0x258>
    a208:	01ffff04 	movi	r7,-4
    a20c:	19400117 	ldw	r5,4(r3)
    a210:	29ca703a 	and	r5,r5,r7
    a214:	1140022e 	bgeu	r2,r5,a220 <_free_r+0x160>
    a218:	18c00217 	ldw	r3,8(r3)
    a21c:	20fffb1e 	bne	r4,r3,a20c <__alt_mem_VGA_Subsystem_Char_Buf_Subsystem_Onchip_SRAM+0xf700a20c>
    a220:	19000317 	ldw	r4,12(r3)
    a224:	31000315 	stw	r4,12(r6)
    a228:	30c00215 	stw	r3,8(r6)
    a22c:	21800215 	stw	r6,8(r4)
    a230:	19800315 	stw	r6,12(r3)
    a234:	003fde06 	br	a1b0 <__alt_mem_VGA_Subsystem_Char_Buf_Subsystem_Onchip_SRAM+0xf700a1b0>
    a238:	29c00217 	ldw	r7,8(r5)
    a23c:	10c5883a 	add	r2,r2,r3
    a240:	00c00074 	movhi	r3,1
    a244:	18ce4f04 	addi	r3,r3,14652
    a248:	38c03b26 	beq	r7,r3,a338 <_free_r+0x278>
    a24c:	2a000317 	ldw	r8,12(r5)
    a250:	11400054 	ori	r5,r2,1
    a254:	3087883a 	add	r3,r6,r2
    a258:	3a000315 	stw	r8,12(r7)
    a25c:	41c00215 	stw	r7,8(r8)
    a260:	31400115 	stw	r5,4(r6)
    a264:	18800015 	stw	r2,0(r3)
    a268:	003fbd06 	br	a160 <__alt_mem_VGA_Subsystem_Char_Buf_Subsystem_Onchip_SRAM+0xf700a160>
    a26c:	39c0004c 	andi	r7,r7,1
    a270:	10c5883a 	add	r2,r2,r3
    a274:	3800071e 	bne	r7,zero,a294 <_free_r+0x1d4>
    a278:	81fffe17 	ldw	r7,-8(r16)
    a27c:	31cdc83a 	sub	r6,r6,r7
    a280:	30c00317 	ldw	r3,12(r6)
    a284:	31400217 	ldw	r5,8(r6)
    a288:	11c5883a 	add	r2,r2,r7
    a28c:	28c00315 	stw	r3,12(r5)
    a290:	19400215 	stw	r5,8(r3)
    a294:	10c00054 	ori	r3,r2,1
    a298:	30c00115 	stw	r3,4(r6)
    a29c:	00c00074 	movhi	r3,1
    a2a0:	18d41404 	addi	r3,r3,20560
    a2a4:	18c00017 	ldw	r3,0(r3)
    a2a8:	21800215 	stw	r6,8(r4)
    a2ac:	10ffc036 	bltu	r2,r3,a1b0 <__alt_mem_VGA_Subsystem_Char_Buf_Subsystem_Onchip_SRAM+0xf700a1b0>
    a2b0:	00800074 	movhi	r2,1
    a2b4:	109b2404 	addi	r2,r2,27792
    a2b8:	11400017 	ldw	r5,0(r2)
    a2bc:	8809883a 	mov	r4,r17
    a2c0:	0009f9c0 	call	9f9c <_malloc_trim_r>
    a2c4:	003fba06 	br	a1b0 <__alt_mem_VGA_Subsystem_Char_Buf_Subsystem_Onchip_SRAM+0xf700a1b0>
    a2c8:	28c9883a 	add	r4,r5,r3
    a2cc:	21000117 	ldw	r4,4(r4)
    a2d0:	2100004c 	andi	r4,r4,1
    a2d4:	2000391e 	bne	r4,zero,a3bc <_free_r+0x2fc>
    a2d8:	29c00217 	ldw	r7,8(r5)
    a2dc:	29000317 	ldw	r4,12(r5)
    a2e0:	1885883a 	add	r2,r3,r2
    a2e4:	10c00054 	ori	r3,r2,1
    a2e8:	39000315 	stw	r4,12(r7)
    a2ec:	21c00215 	stw	r7,8(r4)
    a2f0:	30c00115 	stw	r3,4(r6)
    a2f4:	308d883a 	add	r6,r6,r2
    a2f8:	30800015 	stw	r2,0(r6)
    a2fc:	003fac06 	br	a1b0 <__alt_mem_VGA_Subsystem_Char_Buf_Subsystem_Onchip_SRAM+0xf700a1b0>
    a300:	00c00504 	movi	r3,20
    a304:	19401536 	bltu	r3,r5,a35c <_free_r+0x29c>
    a308:	28c01704 	addi	r3,r5,92
    a30c:	18c7883a 	add	r3,r3,r3
    a310:	294016c4 	addi	r5,r5,91
    a314:	003fb406 	br	a1e8 <__alt_mem_VGA_Subsystem_Char_Buf_Subsystem_Onchip_SRAM+0xf700a1e8>
    a318:	280bd0ba 	srai	r5,r5,2
    a31c:	00c00044 	movi	r3,1
    a320:	38800117 	ldw	r2,4(r7)
    a324:	194a983a 	sll	r5,r3,r5
    a328:	2007883a 	mov	r3,r4
    a32c:	2884b03a 	or	r2,r5,r2
    a330:	38800115 	stw	r2,4(r7)
    a334:	003fbb06 	br	a224 <__alt_mem_VGA_Subsystem_Char_Buf_Subsystem_Onchip_SRAM+0xf700a224>
    a338:	21800515 	stw	r6,20(r4)
    a33c:	21800415 	stw	r6,16(r4)
    a340:	10c00054 	ori	r3,r2,1
    a344:	31c00315 	stw	r7,12(r6)
    a348:	31c00215 	stw	r7,8(r6)
    a34c:	30c00115 	stw	r3,4(r6)
    a350:	308d883a 	add	r6,r6,r2
    a354:	30800015 	stw	r2,0(r6)
    a358:	003f9506 	br	a1b0 <__alt_mem_VGA_Subsystem_Char_Buf_Subsystem_Onchip_SRAM+0xf700a1b0>
    a35c:	00c01504 	movi	r3,84
    a360:	19400536 	bltu	r3,r5,a378 <_free_r+0x2b8>
    a364:	100ad33a 	srli	r5,r2,12
    a368:	28c01bc4 	addi	r3,r5,111
    a36c:	18c7883a 	add	r3,r3,r3
    a370:	29401b84 	addi	r5,r5,110
    a374:	003f9c06 	br	a1e8 <__alt_mem_VGA_Subsystem_Char_Buf_Subsystem_Onchip_SRAM+0xf700a1e8>
    a378:	00c05504 	movi	r3,340
    a37c:	19400536 	bltu	r3,r5,a394 <_free_r+0x2d4>
    a380:	100ad3fa 	srli	r5,r2,15
    a384:	28c01e04 	addi	r3,r5,120
    a388:	18c7883a 	add	r3,r3,r3
    a38c:	29401dc4 	addi	r5,r5,119
    a390:	003f9506 	br	a1e8 <__alt_mem_VGA_Subsystem_Char_Buf_Subsystem_Onchip_SRAM+0xf700a1e8>
    a394:	00c15504 	movi	r3,1364
    a398:	19400536 	bltu	r3,r5,a3b0 <_free_r+0x2f0>
    a39c:	100ad4ba 	srli	r5,r2,18
    a3a0:	28c01f44 	addi	r3,r5,125
    a3a4:	18c7883a 	add	r3,r3,r3
    a3a8:	29401f04 	addi	r5,r5,124
    a3ac:	003f8e06 	br	a1e8 <__alt_mem_VGA_Subsystem_Char_Buf_Subsystem_Onchip_SRAM+0xf700a1e8>
    a3b0:	00c03f84 	movi	r3,254
    a3b4:	01401f84 	movi	r5,126
    a3b8:	003f8b06 	br	a1e8 <__alt_mem_VGA_Subsystem_Char_Buf_Subsystem_Onchip_SRAM+0xf700a1e8>
    a3bc:	10c00054 	ori	r3,r2,1
    a3c0:	30c00115 	stw	r3,4(r6)
    a3c4:	308d883a 	add	r6,r6,r2
    a3c8:	30800015 	stw	r2,0(r6)
    a3cc:	003f7806 	br	a1b0 <__alt_mem_VGA_Subsystem_Char_Buf_Subsystem_Onchip_SRAM+0xf700a1b0>

0000a3d0 <_fwalk>:
    a3d0:	defff704 	addi	sp,sp,-36
    a3d4:	dd000415 	stw	r20,16(sp)
    a3d8:	dfc00815 	stw	ra,32(sp)
    a3dc:	ddc00715 	stw	r23,28(sp)
    a3e0:	dd800615 	stw	r22,24(sp)
    a3e4:	dd400515 	stw	r21,20(sp)
    a3e8:	dcc00315 	stw	r19,12(sp)
    a3ec:	dc800215 	stw	r18,8(sp)
    a3f0:	dc400115 	stw	r17,4(sp)
    a3f4:	dc000015 	stw	r16,0(sp)
    a3f8:	2500b804 	addi	r20,r4,736
    a3fc:	a0002326 	beq	r20,zero,a48c <_fwalk+0xbc>
    a400:	282b883a 	mov	r21,r5
    a404:	002f883a 	mov	r23,zero
    a408:	05800044 	movi	r22,1
    a40c:	04ffffc4 	movi	r19,-1
    a410:	a4400117 	ldw	r17,4(r20)
    a414:	a4800217 	ldw	r18,8(r20)
    a418:	8c7fffc4 	addi	r17,r17,-1
    a41c:	88000d16 	blt	r17,zero,a454 <_fwalk+0x84>
    a420:	94000304 	addi	r16,r18,12
    a424:	94800384 	addi	r18,r18,14
    a428:	8080000b 	ldhu	r2,0(r16)
    a42c:	8c7fffc4 	addi	r17,r17,-1
    a430:	813ffd04 	addi	r4,r16,-12
    a434:	b080042e 	bgeu	r22,r2,a448 <_fwalk+0x78>
    a438:	9080000f 	ldh	r2,0(r18)
    a43c:	14c00226 	beq	r2,r19,a448 <_fwalk+0x78>
    a440:	a83ee83a 	callr	r21
    a444:	b8aeb03a 	or	r23,r23,r2
    a448:	84001a04 	addi	r16,r16,104
    a44c:	94801a04 	addi	r18,r18,104
    a450:	8cfff51e 	bne	r17,r19,a428 <__alt_mem_VGA_Subsystem_Char_Buf_Subsystem_Onchip_SRAM+0xf700a428>
    a454:	a5000017 	ldw	r20,0(r20)
    a458:	a03fed1e 	bne	r20,zero,a410 <__alt_mem_VGA_Subsystem_Char_Buf_Subsystem_Onchip_SRAM+0xf700a410>
    a45c:	b805883a 	mov	r2,r23
    a460:	dfc00817 	ldw	ra,32(sp)
    a464:	ddc00717 	ldw	r23,28(sp)
    a468:	dd800617 	ldw	r22,24(sp)
    a46c:	dd400517 	ldw	r21,20(sp)
    a470:	dd000417 	ldw	r20,16(sp)
    a474:	dcc00317 	ldw	r19,12(sp)
    a478:	dc800217 	ldw	r18,8(sp)
    a47c:	dc400117 	ldw	r17,4(sp)
    a480:	dc000017 	ldw	r16,0(sp)
    a484:	dec00904 	addi	sp,sp,36
    a488:	f800283a 	ret
    a48c:	002f883a 	mov	r23,zero
    a490:	003ff206 	br	a45c <__alt_mem_VGA_Subsystem_Char_Buf_Subsystem_Onchip_SRAM+0xf700a45c>

0000a494 <_fwalk_reent>:
    a494:	defff704 	addi	sp,sp,-36
    a498:	dd000415 	stw	r20,16(sp)
    a49c:	dfc00815 	stw	ra,32(sp)
    a4a0:	ddc00715 	stw	r23,28(sp)
    a4a4:	dd800615 	stw	r22,24(sp)
    a4a8:	dd400515 	stw	r21,20(sp)
    a4ac:	dcc00315 	stw	r19,12(sp)
    a4b0:	dc800215 	stw	r18,8(sp)
    a4b4:	dc400115 	stw	r17,4(sp)
    a4b8:	dc000015 	stw	r16,0(sp)
    a4bc:	2500b804 	addi	r20,r4,736
    a4c0:	a0002326 	beq	r20,zero,a550 <_fwalk_reent+0xbc>
    a4c4:	282b883a 	mov	r21,r5
    a4c8:	2027883a 	mov	r19,r4
    a4cc:	002f883a 	mov	r23,zero
    a4d0:	05800044 	movi	r22,1
    a4d4:	04bfffc4 	movi	r18,-1
    a4d8:	a4400117 	ldw	r17,4(r20)
    a4dc:	a4000217 	ldw	r16,8(r20)
    a4e0:	8c7fffc4 	addi	r17,r17,-1
    a4e4:	88000c16 	blt	r17,zero,a518 <_fwalk_reent+0x84>
    a4e8:	84000304 	addi	r16,r16,12
    a4ec:	8080000b 	ldhu	r2,0(r16)
    a4f0:	8c7fffc4 	addi	r17,r17,-1
    a4f4:	817ffd04 	addi	r5,r16,-12
    a4f8:	b080052e 	bgeu	r22,r2,a510 <_fwalk_reent+0x7c>
    a4fc:	8080008f 	ldh	r2,2(r16)
    a500:	9809883a 	mov	r4,r19
    a504:	14800226 	beq	r2,r18,a510 <_fwalk_reent+0x7c>
    a508:	a83ee83a 	callr	r21
    a50c:	b8aeb03a 	or	r23,r23,r2
    a510:	84001a04 	addi	r16,r16,104
    a514:	8cbff51e 	bne	r17,r18,a4ec <__alt_mem_VGA_Subsystem_Char_Buf_Subsystem_Onchip_SRAM+0xf700a4ec>
    a518:	a5000017 	ldw	r20,0(r20)
    a51c:	a03fee1e 	bne	r20,zero,a4d8 <__alt_mem_VGA_Subsystem_Char_Buf_Subsystem_Onchip_SRAM+0xf700a4d8>
    a520:	b805883a 	mov	r2,r23
    a524:	dfc00817 	ldw	ra,32(sp)
    a528:	ddc00717 	ldw	r23,28(sp)
    a52c:	dd800617 	ldw	r22,24(sp)
    a530:	dd400517 	ldw	r21,20(sp)
    a534:	dd000417 	ldw	r20,16(sp)
    a538:	dcc00317 	ldw	r19,12(sp)
    a53c:	dc800217 	ldw	r18,8(sp)
    a540:	dc400117 	ldw	r17,4(sp)
    a544:	dc000017 	ldw	r16,0(sp)
    a548:	dec00904 	addi	sp,sp,36
    a54c:	f800283a 	ret
    a550:	002f883a 	mov	r23,zero
    a554:	003ff206 	br	a520 <__alt_mem_VGA_Subsystem_Char_Buf_Subsystem_Onchip_SRAM+0xf700a520>

0000a558 <_setlocale_r>:
    a558:	30001b26 	beq	r6,zero,a5c8 <_setlocale_r+0x70>
    a55c:	01400074 	movhi	r5,1
    a560:	defffe04 	addi	sp,sp,-8
    a564:	294ca604 	addi	r5,r5,12952
    a568:	3009883a 	mov	r4,r6
    a56c:	dc000015 	stw	r16,0(sp)
    a570:	dfc00115 	stw	ra,4(sp)
    a574:	3021883a 	mov	r16,r6
    a578:	000c60c0 	call	c60c <strcmp>
    a57c:	1000061e 	bne	r2,zero,a598 <_setlocale_r+0x40>
    a580:	00800074 	movhi	r2,1
    a584:	108ca504 	addi	r2,r2,12948
    a588:	dfc00117 	ldw	ra,4(sp)
    a58c:	dc000017 	ldw	r16,0(sp)
    a590:	dec00204 	addi	sp,sp,8
    a594:	f800283a 	ret
    a598:	01400074 	movhi	r5,1
    a59c:	294ca504 	addi	r5,r5,12948
    a5a0:	8009883a 	mov	r4,r16
    a5a4:	000c60c0 	call	c60c <strcmp>
    a5a8:	103ff526 	beq	r2,zero,a580 <__alt_mem_VGA_Subsystem_Char_Buf_Subsystem_Onchip_SRAM+0xf700a580>
    a5ac:	01400074 	movhi	r5,1
    a5b0:	294c9004 	addi	r5,r5,12864
    a5b4:	8009883a 	mov	r4,r16
    a5b8:	000c60c0 	call	c60c <strcmp>
    a5bc:	103ff026 	beq	r2,zero,a580 <__alt_mem_VGA_Subsystem_Char_Buf_Subsystem_Onchip_SRAM+0xf700a580>
    a5c0:	0005883a 	mov	r2,zero
    a5c4:	003ff006 	br	a588 <__alt_mem_VGA_Subsystem_Char_Buf_Subsystem_Onchip_SRAM+0xf700a588>
    a5c8:	00800074 	movhi	r2,1
    a5cc:	108ca504 	addi	r2,r2,12948
    a5d0:	f800283a 	ret

0000a5d4 <__locale_charset>:
    a5d4:	00800074 	movhi	r2,1
    a5d8:	108e3704 	addi	r2,r2,14556
    a5dc:	f800283a 	ret

0000a5e0 <__locale_mb_cur_max>:
    a5e0:	00800074 	movhi	r2,1
    a5e4:	10941204 	addi	r2,r2,20552
    a5e8:	10800017 	ldw	r2,0(r2)
    a5ec:	f800283a 	ret

0000a5f0 <__locale_msgcharset>:
    a5f0:	00800074 	movhi	r2,1
    a5f4:	108e2f04 	addi	r2,r2,14524
    a5f8:	f800283a 	ret

0000a5fc <__locale_cjk_lang>:
    a5fc:	0005883a 	mov	r2,zero
    a600:	f800283a 	ret

0000a604 <_localeconv_r>:
    a604:	00800074 	movhi	r2,1
    a608:	108e3f04 	addi	r2,r2,14588
    a60c:	f800283a 	ret

0000a610 <setlocale>:
    a610:	00800074 	movhi	r2,1
    a614:	10941104 	addi	r2,r2,20548
    a618:	280d883a 	mov	r6,r5
    a61c:	200b883a 	mov	r5,r4
    a620:	11000017 	ldw	r4,0(r2)
    a624:	000a5581 	jmpi	a558 <_setlocale_r>

0000a628 <localeconv>:
    a628:	00800074 	movhi	r2,1
    a62c:	108e3f04 	addi	r2,r2,14588
    a630:	f800283a 	ret

0000a634 <__smakebuf_r>:
    a634:	2880030b 	ldhu	r2,12(r5)
    a638:	10c0008c 	andi	r3,r2,2
    a63c:	1800411e 	bne	r3,zero,a744 <__smakebuf_r+0x110>
    a640:	deffec04 	addi	sp,sp,-80
    a644:	dc000f15 	stw	r16,60(sp)
    a648:	2821883a 	mov	r16,r5
    a64c:	2940038f 	ldh	r5,14(r5)
    a650:	dc401015 	stw	r17,64(sp)
    a654:	dfc01315 	stw	ra,76(sp)
    a658:	dcc01215 	stw	r19,72(sp)
    a65c:	dc801115 	stw	r18,68(sp)
    a660:	2023883a 	mov	r17,r4
    a664:	28001c16 	blt	r5,zero,a6d8 <__smakebuf_r+0xa4>
    a668:	d80d883a 	mov	r6,sp
    a66c:	000e3140 	call	e314 <_fstat_r>
    a670:	10001816 	blt	r2,zero,a6d4 <__smakebuf_r+0xa0>
    a674:	d8800117 	ldw	r2,4(sp)
    a678:	00e00014 	movui	r3,32768
    a67c:	10bc000c 	andi	r2,r2,61440
    a680:	14c80020 	cmpeqi	r19,r2,8192
    a684:	10c03726 	beq	r2,r3,a764 <__smakebuf_r+0x130>
    a688:	80c0030b 	ldhu	r3,12(r16)
    a68c:	18c20014 	ori	r3,r3,2048
    a690:	80c0030d 	sth	r3,12(r16)
    a694:	00c80004 	movi	r3,8192
    a698:	10c0521e 	bne	r2,r3,a7e4 <__smakebuf_r+0x1b0>
    a69c:	8140038f 	ldh	r5,14(r16)
    a6a0:	8809883a 	mov	r4,r17
    a6a4:	000e8380 	call	e838 <_isatty_r>
    a6a8:	10004c26 	beq	r2,zero,a7dc <__smakebuf_r+0x1a8>
    a6ac:	8080030b 	ldhu	r2,12(r16)
    a6b0:	80c010c4 	addi	r3,r16,67
    a6b4:	80c00015 	stw	r3,0(r16)
    a6b8:	10800054 	ori	r2,r2,1
    a6bc:	8080030d 	sth	r2,12(r16)
    a6c0:	00800044 	movi	r2,1
    a6c4:	80c00415 	stw	r3,16(r16)
    a6c8:	80800515 	stw	r2,20(r16)
    a6cc:	04810004 	movi	r18,1024
    a6d0:	00000706 	br	a6f0 <__smakebuf_r+0xbc>
    a6d4:	8080030b 	ldhu	r2,12(r16)
    a6d8:	10c0200c 	andi	r3,r2,128
    a6dc:	18001f1e 	bne	r3,zero,a75c <__smakebuf_r+0x128>
    a6e0:	04810004 	movi	r18,1024
    a6e4:	10820014 	ori	r2,r2,2048
    a6e8:	8080030d 	sth	r2,12(r16)
    a6ec:	0027883a 	mov	r19,zero
    a6f0:	900b883a 	mov	r5,r18
    a6f4:	8809883a 	mov	r4,r17
    a6f8:	000a7f00 	call	a7f0 <_malloc_r>
    a6fc:	10002c26 	beq	r2,zero,a7b0 <__smakebuf_r+0x17c>
    a700:	80c0030b 	ldhu	r3,12(r16)
    a704:	01000074 	movhi	r4,1
    a708:	2126fd04 	addi	r4,r4,-25612
    a70c:	89000f15 	stw	r4,60(r17)
    a710:	18c02014 	ori	r3,r3,128
    a714:	80c0030d 	sth	r3,12(r16)
    a718:	80800015 	stw	r2,0(r16)
    a71c:	80800415 	stw	r2,16(r16)
    a720:	84800515 	stw	r18,20(r16)
    a724:	98001a1e 	bne	r19,zero,a790 <__smakebuf_r+0x15c>
    a728:	dfc01317 	ldw	ra,76(sp)
    a72c:	dcc01217 	ldw	r19,72(sp)
    a730:	dc801117 	ldw	r18,68(sp)
    a734:	dc401017 	ldw	r17,64(sp)
    a738:	dc000f17 	ldw	r16,60(sp)
    a73c:	dec01404 	addi	sp,sp,80
    a740:	f800283a 	ret
    a744:	288010c4 	addi	r2,r5,67
    a748:	28800015 	stw	r2,0(r5)
    a74c:	28800415 	stw	r2,16(r5)
    a750:	00800044 	movi	r2,1
    a754:	28800515 	stw	r2,20(r5)
    a758:	f800283a 	ret
    a75c:	04801004 	movi	r18,64
    a760:	003fe006 	br	a6e4 <__alt_mem_VGA_Subsystem_Char_Buf_Subsystem_Onchip_SRAM+0xf700a6e4>
    a764:	81000a17 	ldw	r4,40(r16)
    a768:	00c00074 	movhi	r3,1
    a76c:	18f16a04 	addi	r3,r3,-14936
    a770:	20ffc51e 	bne	r4,r3,a688 <__alt_mem_VGA_Subsystem_Char_Buf_Subsystem_Onchip_SRAM+0xf700a688>
    a774:	8080030b 	ldhu	r2,12(r16)
    a778:	04810004 	movi	r18,1024
    a77c:	84801315 	stw	r18,76(r16)
    a780:	1484b03a 	or	r2,r2,r18
    a784:	8080030d 	sth	r2,12(r16)
    a788:	0027883a 	mov	r19,zero
    a78c:	003fd806 	br	a6f0 <__alt_mem_VGA_Subsystem_Char_Buf_Subsystem_Onchip_SRAM+0xf700a6f0>
    a790:	8140038f 	ldh	r5,14(r16)
    a794:	8809883a 	mov	r4,r17
    a798:	000e8380 	call	e838 <_isatty_r>
    a79c:	103fe226 	beq	r2,zero,a728 <__alt_mem_VGA_Subsystem_Char_Buf_Subsystem_Onchip_SRAM+0xf700a728>
    a7a0:	8080030b 	ldhu	r2,12(r16)
    a7a4:	10800054 	ori	r2,r2,1
    a7a8:	8080030d 	sth	r2,12(r16)
    a7ac:	003fde06 	br	a728 <__alt_mem_VGA_Subsystem_Char_Buf_Subsystem_Onchip_SRAM+0xf700a728>
    a7b0:	8080030b 	ldhu	r2,12(r16)
    a7b4:	10c0800c 	andi	r3,r2,512
    a7b8:	183fdb1e 	bne	r3,zero,a728 <__alt_mem_VGA_Subsystem_Char_Buf_Subsystem_Onchip_SRAM+0xf700a728>
    a7bc:	10800094 	ori	r2,r2,2
    a7c0:	80c010c4 	addi	r3,r16,67
    a7c4:	8080030d 	sth	r2,12(r16)
    a7c8:	00800044 	movi	r2,1
    a7cc:	80c00015 	stw	r3,0(r16)
    a7d0:	80c00415 	stw	r3,16(r16)
    a7d4:	80800515 	stw	r2,20(r16)
    a7d8:	003fd306 	br	a728 <__alt_mem_VGA_Subsystem_Char_Buf_Subsystem_Onchip_SRAM+0xf700a728>
    a7dc:	04810004 	movi	r18,1024
    a7e0:	003fc306 	br	a6f0 <__alt_mem_VGA_Subsystem_Char_Buf_Subsystem_Onchip_SRAM+0xf700a6f0>
    a7e4:	0027883a 	mov	r19,zero
    a7e8:	04810004 	movi	r18,1024
    a7ec:	003fc006 	br	a6f0 <__alt_mem_VGA_Subsystem_Char_Buf_Subsystem_Onchip_SRAM+0xf700a6f0>

0000a7f0 <_malloc_r>:
    a7f0:	defff504 	addi	sp,sp,-44
    a7f4:	dc800315 	stw	r18,12(sp)
    a7f8:	dfc00a15 	stw	ra,40(sp)
    a7fc:	df000915 	stw	fp,36(sp)
    a800:	ddc00815 	stw	r23,32(sp)
    a804:	dd800715 	stw	r22,28(sp)
    a808:	dd400615 	stw	r21,24(sp)
    a80c:	dd000515 	stw	r20,20(sp)
    a810:	dcc00415 	stw	r19,16(sp)
    a814:	dc400215 	stw	r17,8(sp)
    a818:	dc000115 	stw	r16,4(sp)
    a81c:	288002c4 	addi	r2,r5,11
    a820:	00c00584 	movi	r3,22
    a824:	2025883a 	mov	r18,r4
    a828:	18807f2e 	bgeu	r3,r2,aa28 <_malloc_r+0x238>
    a82c:	047ffe04 	movi	r17,-8
    a830:	1462703a 	and	r17,r2,r17
    a834:	8800a316 	blt	r17,zero,aac4 <_malloc_r+0x2d4>
    a838:	8940a236 	bltu	r17,r5,aac4 <_malloc_r+0x2d4>
    a83c:	001059c0 	call	1059c <__malloc_lock>
    a840:	00807dc4 	movi	r2,503
    a844:	1441e92e 	bgeu	r2,r17,afec <_malloc_r+0x7fc>
    a848:	8804d27a 	srli	r2,r17,9
    a84c:	1000a126 	beq	r2,zero,aad4 <_malloc_r+0x2e4>
    a850:	00c00104 	movi	r3,4
    a854:	18811e36 	bltu	r3,r2,acd0 <_malloc_r+0x4e0>
    a858:	8804d1ba 	srli	r2,r17,6
    a85c:	12000e44 	addi	r8,r2,57
    a860:	11c00e04 	addi	r7,r2,56
    a864:	4209883a 	add	r4,r8,r8
    a868:	04c00074 	movhi	r19,1
    a86c:	2109883a 	add	r4,r4,r4
    a870:	9cce4d04 	addi	r19,r19,14644
    a874:	2109883a 	add	r4,r4,r4
    a878:	9909883a 	add	r4,r19,r4
    a87c:	24000117 	ldw	r16,4(r4)
    a880:	213ffe04 	addi	r4,r4,-8
    a884:	24009726 	beq	r4,r16,aae4 <_malloc_r+0x2f4>
    a888:	80800117 	ldw	r2,4(r16)
    a88c:	01bfff04 	movi	r6,-4
    a890:	014003c4 	movi	r5,15
    a894:	1184703a 	and	r2,r2,r6
    a898:	1447c83a 	sub	r3,r2,r17
    a89c:	28c00716 	blt	r5,r3,a8bc <_malloc_r+0xcc>
    a8a0:	1800920e 	bge	r3,zero,aaec <_malloc_r+0x2fc>
    a8a4:	84000317 	ldw	r16,12(r16)
    a8a8:	24008e26 	beq	r4,r16,aae4 <_malloc_r+0x2f4>
    a8ac:	80800117 	ldw	r2,4(r16)
    a8b0:	1184703a 	and	r2,r2,r6
    a8b4:	1447c83a 	sub	r3,r2,r17
    a8b8:	28fff90e 	bge	r5,r3,a8a0 <__alt_mem_VGA_Subsystem_Char_Buf_Subsystem_Onchip_SRAM+0xf700a8a0>
    a8bc:	3809883a 	mov	r4,r7
    a8c0:	01800074 	movhi	r6,1
    a8c4:	9c000417 	ldw	r16,16(r19)
    a8c8:	318e4d04 	addi	r6,r6,14644
    a8cc:	32000204 	addi	r8,r6,8
    a8d0:	82013426 	beq	r16,r8,ada4 <_malloc_r+0x5b4>
    a8d4:	80c00117 	ldw	r3,4(r16)
    a8d8:	00bfff04 	movi	r2,-4
    a8dc:	188e703a 	and	r7,r3,r2
    a8e0:	3c45c83a 	sub	r2,r7,r17
    a8e4:	00c003c4 	movi	r3,15
    a8e8:	18811f16 	blt	r3,r2,ad68 <_malloc_r+0x578>
    a8ec:	32000515 	stw	r8,20(r6)
    a8f0:	32000415 	stw	r8,16(r6)
    a8f4:	10007f0e 	bge	r2,zero,aaf4 <_malloc_r+0x304>
    a8f8:	00807fc4 	movi	r2,511
    a8fc:	11c0fd36 	bltu	r2,r7,acf4 <_malloc_r+0x504>
    a900:	3806d0fa 	srli	r3,r7,3
    a904:	01c00044 	movi	r7,1
    a908:	30800117 	ldw	r2,4(r6)
    a90c:	19400044 	addi	r5,r3,1
    a910:	294b883a 	add	r5,r5,r5
    a914:	1807d0ba 	srai	r3,r3,2
    a918:	294b883a 	add	r5,r5,r5
    a91c:	294b883a 	add	r5,r5,r5
    a920:	298b883a 	add	r5,r5,r6
    a924:	38c6983a 	sll	r3,r7,r3
    a928:	29c00017 	ldw	r7,0(r5)
    a92c:	2a7ffe04 	addi	r9,r5,-8
    a930:	1886b03a 	or	r3,r3,r2
    a934:	82400315 	stw	r9,12(r16)
    a938:	81c00215 	stw	r7,8(r16)
    a93c:	30c00115 	stw	r3,4(r6)
    a940:	2c000015 	stw	r16,0(r5)
    a944:	3c000315 	stw	r16,12(r7)
    a948:	2005d0ba 	srai	r2,r4,2
    a94c:	01400044 	movi	r5,1
    a950:	288a983a 	sll	r5,r5,r2
    a954:	19406f36 	bltu	r3,r5,ab14 <_malloc_r+0x324>
    a958:	28c4703a 	and	r2,r5,r3
    a95c:	10000a1e 	bne	r2,zero,a988 <_malloc_r+0x198>
    a960:	00bfff04 	movi	r2,-4
    a964:	294b883a 	add	r5,r5,r5
    a968:	2088703a 	and	r4,r4,r2
    a96c:	28c4703a 	and	r2,r5,r3
    a970:	21000104 	addi	r4,r4,4
    a974:	1000041e 	bne	r2,zero,a988 <_malloc_r+0x198>
    a978:	294b883a 	add	r5,r5,r5
    a97c:	28c4703a 	and	r2,r5,r3
    a980:	21000104 	addi	r4,r4,4
    a984:	103ffc26 	beq	r2,zero,a978 <__alt_mem_VGA_Subsystem_Char_Buf_Subsystem_Onchip_SRAM+0xf700a978>
    a988:	02bfff04 	movi	r10,-4
    a98c:	024003c4 	movi	r9,15
    a990:	21800044 	addi	r6,r4,1
    a994:	318d883a 	add	r6,r6,r6
    a998:	318d883a 	add	r6,r6,r6
    a99c:	318d883a 	add	r6,r6,r6
    a9a0:	998d883a 	add	r6,r19,r6
    a9a4:	333ffe04 	addi	r12,r6,-8
    a9a8:	2017883a 	mov	r11,r4
    a9ac:	31800104 	addi	r6,r6,4
    a9b0:	34000017 	ldw	r16,0(r6)
    a9b4:	31fffd04 	addi	r7,r6,-12
    a9b8:	81c0041e 	bne	r16,r7,a9cc <_malloc_r+0x1dc>
    a9bc:	0000fb06 	br	adac <_malloc_r+0x5bc>
    a9c0:	1801030e 	bge	r3,zero,add0 <_malloc_r+0x5e0>
    a9c4:	84000317 	ldw	r16,12(r16)
    a9c8:	81c0f826 	beq	r16,r7,adac <_malloc_r+0x5bc>
    a9cc:	80800117 	ldw	r2,4(r16)
    a9d0:	1284703a 	and	r2,r2,r10
    a9d4:	1447c83a 	sub	r3,r2,r17
    a9d8:	48fff90e 	bge	r9,r3,a9c0 <__alt_mem_VGA_Subsystem_Char_Buf_Subsystem_Onchip_SRAM+0xf700a9c0>
    a9dc:	80800317 	ldw	r2,12(r16)
    a9e0:	81000217 	ldw	r4,8(r16)
    a9e4:	89400054 	ori	r5,r17,1
    a9e8:	81400115 	stw	r5,4(r16)
    a9ec:	20800315 	stw	r2,12(r4)
    a9f0:	11000215 	stw	r4,8(r2)
    a9f4:	8463883a 	add	r17,r16,r17
    a9f8:	9c400515 	stw	r17,20(r19)
    a9fc:	9c400415 	stw	r17,16(r19)
    aa00:	18800054 	ori	r2,r3,1
    aa04:	88800115 	stw	r2,4(r17)
    aa08:	8a000315 	stw	r8,12(r17)
    aa0c:	8a000215 	stw	r8,8(r17)
    aa10:	88e3883a 	add	r17,r17,r3
    aa14:	88c00015 	stw	r3,0(r17)
    aa18:	9009883a 	mov	r4,r18
    aa1c:	00105c00 	call	105c0 <__malloc_unlock>
    aa20:	80800204 	addi	r2,r16,8
    aa24:	00001b06 	br	aa94 <_malloc_r+0x2a4>
    aa28:	04400404 	movi	r17,16
    aa2c:	89402536 	bltu	r17,r5,aac4 <_malloc_r+0x2d4>
    aa30:	001059c0 	call	1059c <__malloc_lock>
    aa34:	00800184 	movi	r2,6
    aa38:	01000084 	movi	r4,2
    aa3c:	04c00074 	movhi	r19,1
    aa40:	1085883a 	add	r2,r2,r2
    aa44:	9cce4d04 	addi	r19,r19,14644
    aa48:	1085883a 	add	r2,r2,r2
    aa4c:	9885883a 	add	r2,r19,r2
    aa50:	14000117 	ldw	r16,4(r2)
    aa54:	10fffe04 	addi	r3,r2,-8
    aa58:	80c0d926 	beq	r16,r3,adc0 <_malloc_r+0x5d0>
    aa5c:	80c00117 	ldw	r3,4(r16)
    aa60:	81000317 	ldw	r4,12(r16)
    aa64:	00bfff04 	movi	r2,-4
    aa68:	1884703a 	and	r2,r3,r2
    aa6c:	81400217 	ldw	r5,8(r16)
    aa70:	8085883a 	add	r2,r16,r2
    aa74:	10c00117 	ldw	r3,4(r2)
    aa78:	29000315 	stw	r4,12(r5)
    aa7c:	21400215 	stw	r5,8(r4)
    aa80:	18c00054 	ori	r3,r3,1
    aa84:	10c00115 	stw	r3,4(r2)
    aa88:	9009883a 	mov	r4,r18
    aa8c:	00105c00 	call	105c0 <__malloc_unlock>
    aa90:	80800204 	addi	r2,r16,8
    aa94:	dfc00a17 	ldw	ra,40(sp)
    aa98:	df000917 	ldw	fp,36(sp)
    aa9c:	ddc00817 	ldw	r23,32(sp)
    aaa0:	dd800717 	ldw	r22,28(sp)
    aaa4:	dd400617 	ldw	r21,24(sp)
    aaa8:	dd000517 	ldw	r20,20(sp)
    aaac:	dcc00417 	ldw	r19,16(sp)
    aab0:	dc800317 	ldw	r18,12(sp)
    aab4:	dc400217 	ldw	r17,8(sp)
    aab8:	dc000117 	ldw	r16,4(sp)
    aabc:	dec00b04 	addi	sp,sp,44
    aac0:	f800283a 	ret
    aac4:	00800304 	movi	r2,12
    aac8:	90800015 	stw	r2,0(r18)
    aacc:	0005883a 	mov	r2,zero
    aad0:	003ff006 	br	aa94 <__alt_mem_VGA_Subsystem_Char_Buf_Subsystem_Onchip_SRAM+0xf700aa94>
    aad4:	01002004 	movi	r4,128
    aad8:	02001004 	movi	r8,64
    aadc:	01c00fc4 	movi	r7,63
    aae0:	003f6106 	br	a868 <__alt_mem_VGA_Subsystem_Char_Buf_Subsystem_Onchip_SRAM+0xf700a868>
    aae4:	4009883a 	mov	r4,r8
    aae8:	003f7506 	br	a8c0 <__alt_mem_VGA_Subsystem_Char_Buf_Subsystem_Onchip_SRAM+0xf700a8c0>
    aaec:	81000317 	ldw	r4,12(r16)
    aaf0:	003fde06 	br	aa6c <__alt_mem_VGA_Subsystem_Char_Buf_Subsystem_Onchip_SRAM+0xf700aa6c>
    aaf4:	81c5883a 	add	r2,r16,r7
    aaf8:	11400117 	ldw	r5,4(r2)
    aafc:	9009883a 	mov	r4,r18
    ab00:	29400054 	ori	r5,r5,1
    ab04:	11400115 	stw	r5,4(r2)
    ab08:	00105c00 	call	105c0 <__malloc_unlock>
    ab0c:	80800204 	addi	r2,r16,8
    ab10:	003fe006 	br	aa94 <__alt_mem_VGA_Subsystem_Char_Buf_Subsystem_Onchip_SRAM+0xf700aa94>
    ab14:	9c000217 	ldw	r16,8(r19)
    ab18:	00bfff04 	movi	r2,-4
    ab1c:	85800117 	ldw	r22,4(r16)
    ab20:	b0ac703a 	and	r22,r22,r2
    ab24:	b4400336 	bltu	r22,r17,ab34 <_malloc_r+0x344>
    ab28:	b445c83a 	sub	r2,r22,r17
    ab2c:	00c003c4 	movi	r3,15
    ab30:	18805d16 	blt	r3,r2,aca8 <_malloc_r+0x4b8>
    ab34:	05c00074 	movhi	r23,1
    ab38:	00800074 	movhi	r2,1
    ab3c:	109b2404 	addi	r2,r2,27792
    ab40:	bdd41304 	addi	r23,r23,20556
    ab44:	15400017 	ldw	r21,0(r2)
    ab48:	b8c00017 	ldw	r3,0(r23)
    ab4c:	00bfffc4 	movi	r2,-1
    ab50:	858d883a 	add	r6,r16,r22
    ab54:	8d6b883a 	add	r21,r17,r21
    ab58:	1880ea26 	beq	r3,r2,af04 <_malloc_r+0x714>
    ab5c:	ad4403c4 	addi	r21,r21,4111
    ab60:	00bc0004 	movi	r2,-4096
    ab64:	a8aa703a 	and	r21,r21,r2
    ab68:	a80b883a 	mov	r5,r21
    ab6c:	9009883a 	mov	r4,r18
    ab70:	d9800015 	stw	r6,0(sp)
    ab74:	000c47c0 	call	c47c <_sbrk_r>
    ab78:	1029883a 	mov	r20,r2
    ab7c:	00bfffc4 	movi	r2,-1
    ab80:	d9800017 	ldw	r6,0(sp)
    ab84:	a080e826 	beq	r20,r2,af28 <_malloc_r+0x738>
    ab88:	a180a636 	bltu	r20,r6,ae24 <_malloc_r+0x634>
    ab8c:	07000074 	movhi	fp,1
    ab90:	e71b2d04 	addi	fp,fp,27828
    ab94:	e0800017 	ldw	r2,0(fp)
    ab98:	a887883a 	add	r3,r21,r2
    ab9c:	e0c00015 	stw	r3,0(fp)
    aba0:	3500e626 	beq	r6,r20,af3c <_malloc_r+0x74c>
    aba4:	b9000017 	ldw	r4,0(r23)
    aba8:	00bfffc4 	movi	r2,-1
    abac:	2080ee26 	beq	r4,r2,af68 <_malloc_r+0x778>
    abb0:	a185c83a 	sub	r2,r20,r6
    abb4:	10c5883a 	add	r2,r2,r3
    abb8:	e0800015 	stw	r2,0(fp)
    abbc:	a0c001cc 	andi	r3,r20,7
    abc0:	1800bc26 	beq	r3,zero,aeb4 <_malloc_r+0x6c4>
    abc4:	a0e9c83a 	sub	r20,r20,r3
    abc8:	00840204 	movi	r2,4104
    abcc:	a5000204 	addi	r20,r20,8
    abd0:	10c7c83a 	sub	r3,r2,r3
    abd4:	a545883a 	add	r2,r20,r21
    abd8:	1083ffcc 	andi	r2,r2,4095
    abdc:	18abc83a 	sub	r21,r3,r2
    abe0:	a80b883a 	mov	r5,r21
    abe4:	9009883a 	mov	r4,r18
    abe8:	000c47c0 	call	c47c <_sbrk_r>
    abec:	00ffffc4 	movi	r3,-1
    abf0:	10c0e126 	beq	r2,r3,af78 <_malloc_r+0x788>
    abf4:	1505c83a 	sub	r2,r2,r20
    abf8:	1545883a 	add	r2,r2,r21
    abfc:	10800054 	ori	r2,r2,1
    ac00:	e0c00017 	ldw	r3,0(fp)
    ac04:	9d000215 	stw	r20,8(r19)
    ac08:	a0800115 	stw	r2,4(r20)
    ac0c:	a8c7883a 	add	r3,r21,r3
    ac10:	e0c00015 	stw	r3,0(fp)
    ac14:	84c00e26 	beq	r16,r19,ac50 <_malloc_r+0x460>
    ac18:	018003c4 	movi	r6,15
    ac1c:	3580a72e 	bgeu	r6,r22,aebc <_malloc_r+0x6cc>
    ac20:	81400117 	ldw	r5,4(r16)
    ac24:	013ffe04 	movi	r4,-8
    ac28:	b0bffd04 	addi	r2,r22,-12
    ac2c:	1104703a 	and	r2,r2,r4
    ac30:	2900004c 	andi	r4,r5,1
    ac34:	2088b03a 	or	r4,r4,r2
    ac38:	81000115 	stw	r4,4(r16)
    ac3c:	01400144 	movi	r5,5
    ac40:	8089883a 	add	r4,r16,r2
    ac44:	21400115 	stw	r5,4(r4)
    ac48:	21400215 	stw	r5,8(r4)
    ac4c:	3080cd36 	bltu	r6,r2,af84 <_malloc_r+0x794>
    ac50:	00800074 	movhi	r2,1
    ac54:	109b2304 	addi	r2,r2,27788
    ac58:	11000017 	ldw	r4,0(r2)
    ac5c:	20c0012e 	bgeu	r4,r3,ac64 <_malloc_r+0x474>
    ac60:	10c00015 	stw	r3,0(r2)
    ac64:	00800074 	movhi	r2,1
    ac68:	109b2204 	addi	r2,r2,27784
    ac6c:	11000017 	ldw	r4,0(r2)
    ac70:	9c000217 	ldw	r16,8(r19)
    ac74:	20c0012e 	bgeu	r4,r3,ac7c <_malloc_r+0x48c>
    ac78:	10c00015 	stw	r3,0(r2)
    ac7c:	80c00117 	ldw	r3,4(r16)
    ac80:	00bfff04 	movi	r2,-4
    ac84:	1886703a 	and	r3,r3,r2
    ac88:	1c45c83a 	sub	r2,r3,r17
    ac8c:	1c400236 	bltu	r3,r17,ac98 <_malloc_r+0x4a8>
    ac90:	00c003c4 	movi	r3,15
    ac94:	18800416 	blt	r3,r2,aca8 <_malloc_r+0x4b8>
    ac98:	9009883a 	mov	r4,r18
    ac9c:	00105c00 	call	105c0 <__malloc_unlock>
    aca0:	0005883a 	mov	r2,zero
    aca4:	003f7b06 	br	aa94 <__alt_mem_VGA_Subsystem_Char_Buf_Subsystem_Onchip_SRAM+0xf700aa94>
    aca8:	88c00054 	ori	r3,r17,1
    acac:	80c00115 	stw	r3,4(r16)
    acb0:	8463883a 	add	r17,r16,r17
    acb4:	10800054 	ori	r2,r2,1
    acb8:	9c400215 	stw	r17,8(r19)
    acbc:	88800115 	stw	r2,4(r17)
    acc0:	9009883a 	mov	r4,r18
    acc4:	00105c00 	call	105c0 <__malloc_unlock>
    acc8:	80800204 	addi	r2,r16,8
    accc:	003f7106 	br	aa94 <__alt_mem_VGA_Subsystem_Char_Buf_Subsystem_Onchip_SRAM+0xf700aa94>
    acd0:	00c00504 	movi	r3,20
    acd4:	18804a2e 	bgeu	r3,r2,ae00 <_malloc_r+0x610>
    acd8:	00c01504 	movi	r3,84
    acdc:	18806e36 	bltu	r3,r2,ae98 <_malloc_r+0x6a8>
    ace0:	8804d33a 	srli	r2,r17,12
    ace4:	12001bc4 	addi	r8,r2,111
    ace8:	11c01b84 	addi	r7,r2,110
    acec:	4209883a 	add	r4,r8,r8
    acf0:	003edd06 	br	a868 <__alt_mem_VGA_Subsystem_Char_Buf_Subsystem_Onchip_SRAM+0xf700a868>
    acf4:	3804d27a 	srli	r2,r7,9
    acf8:	00c00104 	movi	r3,4
    acfc:	1880442e 	bgeu	r3,r2,ae10 <_malloc_r+0x620>
    ad00:	00c00504 	movi	r3,20
    ad04:	18808136 	bltu	r3,r2,af0c <_malloc_r+0x71c>
    ad08:	11401704 	addi	r5,r2,92
    ad0c:	10c016c4 	addi	r3,r2,91
    ad10:	294b883a 	add	r5,r5,r5
    ad14:	294b883a 	add	r5,r5,r5
    ad18:	294b883a 	add	r5,r5,r5
    ad1c:	994b883a 	add	r5,r19,r5
    ad20:	28800017 	ldw	r2,0(r5)
    ad24:	01800074 	movhi	r6,1
    ad28:	297ffe04 	addi	r5,r5,-8
    ad2c:	318e4d04 	addi	r6,r6,14644
    ad30:	28806526 	beq	r5,r2,aec8 <_malloc_r+0x6d8>
    ad34:	01bfff04 	movi	r6,-4
    ad38:	10c00117 	ldw	r3,4(r2)
    ad3c:	1986703a 	and	r3,r3,r6
    ad40:	38c0022e 	bgeu	r7,r3,ad4c <_malloc_r+0x55c>
    ad44:	10800217 	ldw	r2,8(r2)
    ad48:	28bffb1e 	bne	r5,r2,ad38 <__alt_mem_VGA_Subsystem_Char_Buf_Subsystem_Onchip_SRAM+0xf700ad38>
    ad4c:	11400317 	ldw	r5,12(r2)
    ad50:	98c00117 	ldw	r3,4(r19)
    ad54:	81400315 	stw	r5,12(r16)
    ad58:	80800215 	stw	r2,8(r16)
    ad5c:	2c000215 	stw	r16,8(r5)
    ad60:	14000315 	stw	r16,12(r2)
    ad64:	003ef806 	br	a948 <__alt_mem_VGA_Subsystem_Char_Buf_Subsystem_Onchip_SRAM+0xf700a948>
    ad68:	88c00054 	ori	r3,r17,1
    ad6c:	80c00115 	stw	r3,4(r16)
    ad70:	8463883a 	add	r17,r16,r17
    ad74:	34400515 	stw	r17,20(r6)
    ad78:	34400415 	stw	r17,16(r6)
    ad7c:	10c00054 	ori	r3,r2,1
    ad80:	8a000315 	stw	r8,12(r17)
    ad84:	8a000215 	stw	r8,8(r17)
    ad88:	88c00115 	stw	r3,4(r17)
    ad8c:	88a3883a 	add	r17,r17,r2
    ad90:	88800015 	stw	r2,0(r17)
    ad94:	9009883a 	mov	r4,r18
    ad98:	00105c00 	call	105c0 <__malloc_unlock>
    ad9c:	80800204 	addi	r2,r16,8
    ada0:	003f3c06 	br	aa94 <__alt_mem_VGA_Subsystem_Char_Buf_Subsystem_Onchip_SRAM+0xf700aa94>
    ada4:	30c00117 	ldw	r3,4(r6)
    ada8:	003ee706 	br	a948 <__alt_mem_VGA_Subsystem_Char_Buf_Subsystem_Onchip_SRAM+0xf700a948>
    adac:	5ac00044 	addi	r11,r11,1
    adb0:	588000cc 	andi	r2,r11,3
    adb4:	31800204 	addi	r6,r6,8
    adb8:	103efd1e 	bne	r2,zero,a9b0 <__alt_mem_VGA_Subsystem_Char_Buf_Subsystem_Onchip_SRAM+0xf700a9b0>
    adbc:	00002406 	br	ae50 <_malloc_r+0x660>
    adc0:	14000317 	ldw	r16,12(r2)
    adc4:	143f251e 	bne	r2,r16,aa5c <__alt_mem_VGA_Subsystem_Char_Buf_Subsystem_Onchip_SRAM+0xf700aa5c>
    adc8:	21000084 	addi	r4,r4,2
    adcc:	003ebc06 	br	a8c0 <__alt_mem_VGA_Subsystem_Char_Buf_Subsystem_Onchip_SRAM+0xf700a8c0>
    add0:	8085883a 	add	r2,r16,r2
    add4:	10c00117 	ldw	r3,4(r2)
    add8:	81000317 	ldw	r4,12(r16)
    addc:	81400217 	ldw	r5,8(r16)
    ade0:	18c00054 	ori	r3,r3,1
    ade4:	10c00115 	stw	r3,4(r2)
    ade8:	29000315 	stw	r4,12(r5)
    adec:	21400215 	stw	r5,8(r4)
    adf0:	9009883a 	mov	r4,r18
    adf4:	00105c00 	call	105c0 <__malloc_unlock>
    adf8:	80800204 	addi	r2,r16,8
    adfc:	003f2506 	br	aa94 <__alt_mem_VGA_Subsystem_Char_Buf_Subsystem_Onchip_SRAM+0xf700aa94>
    ae00:	12001704 	addi	r8,r2,92
    ae04:	11c016c4 	addi	r7,r2,91
    ae08:	4209883a 	add	r4,r8,r8
    ae0c:	003e9606 	br	a868 <__alt_mem_VGA_Subsystem_Char_Buf_Subsystem_Onchip_SRAM+0xf700a868>
    ae10:	3804d1ba 	srli	r2,r7,6
    ae14:	11400e44 	addi	r5,r2,57
    ae18:	10c00e04 	addi	r3,r2,56
    ae1c:	294b883a 	add	r5,r5,r5
    ae20:	003fbc06 	br	ad14 <__alt_mem_VGA_Subsystem_Char_Buf_Subsystem_Onchip_SRAM+0xf700ad14>
    ae24:	84ff5926 	beq	r16,r19,ab8c <__alt_mem_VGA_Subsystem_Char_Buf_Subsystem_Onchip_SRAM+0xf700ab8c>
    ae28:	00800074 	movhi	r2,1
    ae2c:	108e4d04 	addi	r2,r2,14644
    ae30:	14000217 	ldw	r16,8(r2)
    ae34:	00bfff04 	movi	r2,-4
    ae38:	80c00117 	ldw	r3,4(r16)
    ae3c:	1886703a 	and	r3,r3,r2
    ae40:	003f9106 	br	ac88 <__alt_mem_VGA_Subsystem_Char_Buf_Subsystem_Onchip_SRAM+0xf700ac88>
    ae44:	60800217 	ldw	r2,8(r12)
    ae48:	213fffc4 	addi	r4,r4,-1
    ae4c:	1300651e 	bne	r2,r12,afe4 <_malloc_r+0x7f4>
    ae50:	208000cc 	andi	r2,r4,3
    ae54:	633ffe04 	addi	r12,r12,-8
    ae58:	103ffa1e 	bne	r2,zero,ae44 <__alt_mem_VGA_Subsystem_Char_Buf_Subsystem_Onchip_SRAM+0xf700ae44>
    ae5c:	98800117 	ldw	r2,4(r19)
    ae60:	0146303a 	nor	r3,zero,r5
    ae64:	1884703a 	and	r2,r3,r2
    ae68:	98800115 	stw	r2,4(r19)
    ae6c:	294b883a 	add	r5,r5,r5
    ae70:	117f2836 	bltu	r2,r5,ab14 <__alt_mem_VGA_Subsystem_Char_Buf_Subsystem_Onchip_SRAM+0xf700ab14>
    ae74:	283f2726 	beq	r5,zero,ab14 <__alt_mem_VGA_Subsystem_Char_Buf_Subsystem_Onchip_SRAM+0xf700ab14>
    ae78:	2886703a 	and	r3,r5,r2
    ae7c:	5809883a 	mov	r4,r11
    ae80:	183ec31e 	bne	r3,zero,a990 <__alt_mem_VGA_Subsystem_Char_Buf_Subsystem_Onchip_SRAM+0xf700a990>
    ae84:	294b883a 	add	r5,r5,r5
    ae88:	2886703a 	and	r3,r5,r2
    ae8c:	21000104 	addi	r4,r4,4
    ae90:	183ffc26 	beq	r3,zero,ae84 <__alt_mem_VGA_Subsystem_Char_Buf_Subsystem_Onchip_SRAM+0xf700ae84>
    ae94:	003ebe06 	br	a990 <__alt_mem_VGA_Subsystem_Char_Buf_Subsystem_Onchip_SRAM+0xf700a990>
    ae98:	00c05504 	movi	r3,340
    ae9c:	18801236 	bltu	r3,r2,aee8 <_malloc_r+0x6f8>
    aea0:	8804d3fa 	srli	r2,r17,15
    aea4:	12001e04 	addi	r8,r2,120
    aea8:	11c01dc4 	addi	r7,r2,119
    aeac:	4209883a 	add	r4,r8,r8
    aeb0:	003e6d06 	br	a868 <__alt_mem_VGA_Subsystem_Char_Buf_Subsystem_Onchip_SRAM+0xf700a868>
    aeb4:	00c40004 	movi	r3,4096
    aeb8:	003f4606 	br	abd4 <__alt_mem_VGA_Subsystem_Char_Buf_Subsystem_Onchip_SRAM+0xf700abd4>
    aebc:	00800044 	movi	r2,1
    aec0:	a0800115 	stw	r2,4(r20)
    aec4:	003f7406 	br	ac98 <__alt_mem_VGA_Subsystem_Char_Buf_Subsystem_Onchip_SRAM+0xf700ac98>
    aec8:	1805d0ba 	srai	r2,r3,2
    aecc:	01c00044 	movi	r7,1
    aed0:	30c00117 	ldw	r3,4(r6)
    aed4:	388e983a 	sll	r7,r7,r2
    aed8:	2805883a 	mov	r2,r5
    aedc:	38c6b03a 	or	r3,r7,r3
    aee0:	30c00115 	stw	r3,4(r6)
    aee4:	003f9b06 	br	ad54 <__alt_mem_VGA_Subsystem_Char_Buf_Subsystem_Onchip_SRAM+0xf700ad54>
    aee8:	00c15504 	movi	r3,1364
    aeec:	18801a36 	bltu	r3,r2,af58 <_malloc_r+0x768>
    aef0:	8804d4ba 	srli	r2,r17,18
    aef4:	12001f44 	addi	r8,r2,125
    aef8:	11c01f04 	addi	r7,r2,124
    aefc:	4209883a 	add	r4,r8,r8
    af00:	003e5906 	br	a868 <__alt_mem_VGA_Subsystem_Char_Buf_Subsystem_Onchip_SRAM+0xf700a868>
    af04:	ad400404 	addi	r21,r21,16
    af08:	003f1706 	br	ab68 <__alt_mem_VGA_Subsystem_Char_Buf_Subsystem_Onchip_SRAM+0xf700ab68>
    af0c:	00c01504 	movi	r3,84
    af10:	18802336 	bltu	r3,r2,afa0 <_malloc_r+0x7b0>
    af14:	3804d33a 	srli	r2,r7,12
    af18:	11401bc4 	addi	r5,r2,111
    af1c:	10c01b84 	addi	r3,r2,110
    af20:	294b883a 	add	r5,r5,r5
    af24:	003f7b06 	br	ad14 <__alt_mem_VGA_Subsystem_Char_Buf_Subsystem_Onchip_SRAM+0xf700ad14>
    af28:	9c000217 	ldw	r16,8(r19)
    af2c:	00bfff04 	movi	r2,-4
    af30:	80c00117 	ldw	r3,4(r16)
    af34:	1886703a 	and	r3,r3,r2
    af38:	003f5306 	br	ac88 <__alt_mem_VGA_Subsystem_Char_Buf_Subsystem_Onchip_SRAM+0xf700ac88>
    af3c:	3083ffcc 	andi	r2,r6,4095
    af40:	103f181e 	bne	r2,zero,aba4 <__alt_mem_VGA_Subsystem_Char_Buf_Subsystem_Onchip_SRAM+0xf700aba4>
    af44:	99000217 	ldw	r4,8(r19)
    af48:	b545883a 	add	r2,r22,r21
    af4c:	10800054 	ori	r2,r2,1
    af50:	20800115 	stw	r2,4(r4)
    af54:	003f3e06 	br	ac50 <__alt_mem_VGA_Subsystem_Char_Buf_Subsystem_Onchip_SRAM+0xf700ac50>
    af58:	01003f84 	movi	r4,254
    af5c:	02001fc4 	movi	r8,127
    af60:	01c01f84 	movi	r7,126
    af64:	003e4006 	br	a868 <__alt_mem_VGA_Subsystem_Char_Buf_Subsystem_Onchip_SRAM+0xf700a868>
    af68:	00800074 	movhi	r2,1
    af6c:	10941304 	addi	r2,r2,20556
    af70:	15000015 	stw	r20,0(r2)
    af74:	003f1106 	br	abbc <__alt_mem_VGA_Subsystem_Char_Buf_Subsystem_Onchip_SRAM+0xf700abbc>
    af78:	00800044 	movi	r2,1
    af7c:	002b883a 	mov	r21,zero
    af80:	003f1f06 	br	ac00 <__alt_mem_VGA_Subsystem_Char_Buf_Subsystem_Onchip_SRAM+0xf700ac00>
    af84:	81400204 	addi	r5,r16,8
    af88:	9009883a 	mov	r4,r18
    af8c:	000a0c00 	call	a0c0 <_free_r>
    af90:	00800074 	movhi	r2,1
    af94:	109b2d04 	addi	r2,r2,27828
    af98:	10c00017 	ldw	r3,0(r2)
    af9c:	003f2c06 	br	ac50 <__alt_mem_VGA_Subsystem_Char_Buf_Subsystem_Onchip_SRAM+0xf700ac50>
    afa0:	00c05504 	movi	r3,340
    afa4:	18800536 	bltu	r3,r2,afbc <_malloc_r+0x7cc>
    afa8:	3804d3fa 	srli	r2,r7,15
    afac:	11401e04 	addi	r5,r2,120
    afb0:	10c01dc4 	addi	r3,r2,119
    afb4:	294b883a 	add	r5,r5,r5
    afb8:	003f5606 	br	ad14 <__alt_mem_VGA_Subsystem_Char_Buf_Subsystem_Onchip_SRAM+0xf700ad14>
    afbc:	00c15504 	movi	r3,1364
    afc0:	18800536 	bltu	r3,r2,afd8 <_malloc_r+0x7e8>
    afc4:	3804d4ba 	srli	r2,r7,18
    afc8:	11401f44 	addi	r5,r2,125
    afcc:	10c01f04 	addi	r3,r2,124
    afd0:	294b883a 	add	r5,r5,r5
    afd4:	003f4f06 	br	ad14 <__alt_mem_VGA_Subsystem_Char_Buf_Subsystem_Onchip_SRAM+0xf700ad14>
    afd8:	01403f84 	movi	r5,254
    afdc:	00c01f84 	movi	r3,126
    afe0:	003f4c06 	br	ad14 <__alt_mem_VGA_Subsystem_Char_Buf_Subsystem_Onchip_SRAM+0xf700ad14>
    afe4:	98800117 	ldw	r2,4(r19)
    afe8:	003fa006 	br	ae6c <__alt_mem_VGA_Subsystem_Char_Buf_Subsystem_Onchip_SRAM+0xf700ae6c>
    afec:	8808d0fa 	srli	r4,r17,3
    aff0:	20800044 	addi	r2,r4,1
    aff4:	1085883a 	add	r2,r2,r2
    aff8:	003e9006 	br	aa3c <__alt_mem_VGA_Subsystem_Char_Buf_Subsystem_Onchip_SRAM+0xf700aa3c>

0000affc <memchr>:
    affc:	208000cc 	andi	r2,r4,3
    b000:	280f883a 	mov	r7,r5
    b004:	10003426 	beq	r2,zero,b0d8 <memchr+0xdc>
    b008:	30bfffc4 	addi	r2,r6,-1
    b00c:	30001a26 	beq	r6,zero,b078 <memchr+0x7c>
    b010:	20c00003 	ldbu	r3,0(r4)
    b014:	29803fcc 	andi	r6,r5,255
    b018:	30c0051e 	bne	r6,r3,b030 <memchr+0x34>
    b01c:	00001806 	br	b080 <memchr+0x84>
    b020:	10001526 	beq	r2,zero,b078 <memchr+0x7c>
    b024:	20c00003 	ldbu	r3,0(r4)
    b028:	10bfffc4 	addi	r2,r2,-1
    b02c:	30c01426 	beq	r6,r3,b080 <memchr+0x84>
    b030:	21000044 	addi	r4,r4,1
    b034:	20c000cc 	andi	r3,r4,3
    b038:	183ff91e 	bne	r3,zero,b020 <__alt_mem_VGA_Subsystem_Char_Buf_Subsystem_Onchip_SRAM+0xf700b020>
    b03c:	020000c4 	movi	r8,3
    b040:	40801136 	bltu	r8,r2,b088 <memchr+0x8c>
    b044:	10000c26 	beq	r2,zero,b078 <memchr+0x7c>
    b048:	20c00003 	ldbu	r3,0(r4)
    b04c:	29403fcc 	andi	r5,r5,255
    b050:	28c00b26 	beq	r5,r3,b080 <memchr+0x84>
    b054:	20c00044 	addi	r3,r4,1
    b058:	39803fcc 	andi	r6,r7,255
    b05c:	2089883a 	add	r4,r4,r2
    b060:	00000306 	br	b070 <memchr+0x74>
    b064:	18c00044 	addi	r3,r3,1
    b068:	197fffc3 	ldbu	r5,-1(r3)
    b06c:	31400526 	beq	r6,r5,b084 <memchr+0x88>
    b070:	1805883a 	mov	r2,r3
    b074:	20fffb1e 	bne	r4,r3,b064 <__alt_mem_VGA_Subsystem_Char_Buf_Subsystem_Onchip_SRAM+0xf700b064>
    b078:	0005883a 	mov	r2,zero
    b07c:	f800283a 	ret
    b080:	2005883a 	mov	r2,r4
    b084:	f800283a 	ret
    b088:	28c03fcc 	andi	r3,r5,255
    b08c:	1812923a 	slli	r9,r3,8
    b090:	02ffbff4 	movhi	r11,65279
    b094:	02a02074 	movhi	r10,32897
    b098:	48d2b03a 	or	r9,r9,r3
    b09c:	4806943a 	slli	r3,r9,16
    b0a0:	5affbfc4 	addi	r11,r11,-257
    b0a4:	52a02004 	addi	r10,r10,-32640
    b0a8:	48d2b03a 	or	r9,r9,r3
    b0ac:	20c00017 	ldw	r3,0(r4)
    b0b0:	48c6f03a 	xor	r3,r9,r3
    b0b4:	1acd883a 	add	r6,r3,r11
    b0b8:	00c6303a 	nor	r3,zero,r3
    b0bc:	30c6703a 	and	r3,r6,r3
    b0c0:	1a86703a 	and	r3,r3,r10
    b0c4:	183fe01e 	bne	r3,zero,b048 <__alt_mem_VGA_Subsystem_Char_Buf_Subsystem_Onchip_SRAM+0xf700b048>
    b0c8:	10bfff04 	addi	r2,r2,-4
    b0cc:	21000104 	addi	r4,r4,4
    b0d0:	40bff636 	bltu	r8,r2,b0ac <__alt_mem_VGA_Subsystem_Char_Buf_Subsystem_Onchip_SRAM+0xf700b0ac>
    b0d4:	003fdb06 	br	b044 <__alt_mem_VGA_Subsystem_Char_Buf_Subsystem_Onchip_SRAM+0xf700b044>
    b0d8:	3005883a 	mov	r2,r6
    b0dc:	003fd706 	br	b03c <__alt_mem_VGA_Subsystem_Char_Buf_Subsystem_Onchip_SRAM+0xf700b03c>

0000b0e0 <memcpy>:
    b0e0:	defffd04 	addi	sp,sp,-12
    b0e4:	dfc00215 	stw	ra,8(sp)
    b0e8:	dc400115 	stw	r17,4(sp)
    b0ec:	dc000015 	stw	r16,0(sp)
    b0f0:	00c003c4 	movi	r3,15
    b0f4:	2005883a 	mov	r2,r4
    b0f8:	1980452e 	bgeu	r3,r6,b210 <memcpy+0x130>
    b0fc:	2906b03a 	or	r3,r5,r4
    b100:	18c000cc 	andi	r3,r3,3
    b104:	1800441e 	bne	r3,zero,b218 <memcpy+0x138>
    b108:	347ffc04 	addi	r17,r6,-16
    b10c:	8822d13a 	srli	r17,r17,4
    b110:	28c00104 	addi	r3,r5,4
    b114:	23400104 	addi	r13,r4,4
    b118:	8820913a 	slli	r16,r17,4
    b11c:	2b000204 	addi	r12,r5,8
    b120:	22c00204 	addi	r11,r4,8
    b124:	84000504 	addi	r16,r16,20
    b128:	2a800304 	addi	r10,r5,12
    b12c:	22400304 	addi	r9,r4,12
    b130:	2c21883a 	add	r16,r5,r16
    b134:	2811883a 	mov	r8,r5
    b138:	200f883a 	mov	r7,r4
    b13c:	41000017 	ldw	r4,0(r8)
    b140:	1fc00017 	ldw	ra,0(r3)
    b144:	63c00017 	ldw	r15,0(r12)
    b148:	39000015 	stw	r4,0(r7)
    b14c:	53800017 	ldw	r14,0(r10)
    b150:	6fc00015 	stw	ra,0(r13)
    b154:	5bc00015 	stw	r15,0(r11)
    b158:	4b800015 	stw	r14,0(r9)
    b15c:	18c00404 	addi	r3,r3,16
    b160:	39c00404 	addi	r7,r7,16
    b164:	42000404 	addi	r8,r8,16
    b168:	6b400404 	addi	r13,r13,16
    b16c:	63000404 	addi	r12,r12,16
    b170:	5ac00404 	addi	r11,r11,16
    b174:	52800404 	addi	r10,r10,16
    b178:	4a400404 	addi	r9,r9,16
    b17c:	1c3fef1e 	bne	r3,r16,b13c <__alt_mem_VGA_Subsystem_Char_Buf_Subsystem_Onchip_SRAM+0xf700b13c>
    b180:	89c00044 	addi	r7,r17,1
    b184:	380e913a 	slli	r7,r7,4
    b188:	310003cc 	andi	r4,r6,15
    b18c:	02c000c4 	movi	r11,3
    b190:	11c7883a 	add	r3,r2,r7
    b194:	29cb883a 	add	r5,r5,r7
    b198:	5900212e 	bgeu	r11,r4,b220 <memcpy+0x140>
    b19c:	1813883a 	mov	r9,r3
    b1a0:	2811883a 	mov	r8,r5
    b1a4:	200f883a 	mov	r7,r4
    b1a8:	42800017 	ldw	r10,0(r8)
    b1ac:	4a400104 	addi	r9,r9,4
    b1b0:	39ffff04 	addi	r7,r7,-4
    b1b4:	4abfff15 	stw	r10,-4(r9)
    b1b8:	42000104 	addi	r8,r8,4
    b1bc:	59fffa36 	bltu	r11,r7,b1a8 <__alt_mem_VGA_Subsystem_Char_Buf_Subsystem_Onchip_SRAM+0xf700b1a8>
    b1c0:	213fff04 	addi	r4,r4,-4
    b1c4:	2008d0ba 	srli	r4,r4,2
    b1c8:	318000cc 	andi	r6,r6,3
    b1cc:	21000044 	addi	r4,r4,1
    b1d0:	2109883a 	add	r4,r4,r4
    b1d4:	2109883a 	add	r4,r4,r4
    b1d8:	1907883a 	add	r3,r3,r4
    b1dc:	290b883a 	add	r5,r5,r4
    b1e0:	30000626 	beq	r6,zero,b1fc <memcpy+0x11c>
    b1e4:	198d883a 	add	r6,r3,r6
    b1e8:	29c00003 	ldbu	r7,0(r5)
    b1ec:	18c00044 	addi	r3,r3,1
    b1f0:	29400044 	addi	r5,r5,1
    b1f4:	19ffffc5 	stb	r7,-1(r3)
    b1f8:	19bffb1e 	bne	r3,r6,b1e8 <__alt_mem_VGA_Subsystem_Char_Buf_Subsystem_Onchip_SRAM+0xf700b1e8>
    b1fc:	dfc00217 	ldw	ra,8(sp)
    b200:	dc400117 	ldw	r17,4(sp)
    b204:	dc000017 	ldw	r16,0(sp)
    b208:	dec00304 	addi	sp,sp,12
    b20c:	f800283a 	ret
    b210:	2007883a 	mov	r3,r4
    b214:	003ff206 	br	b1e0 <__alt_mem_VGA_Subsystem_Char_Buf_Subsystem_Onchip_SRAM+0xf700b1e0>
    b218:	2007883a 	mov	r3,r4
    b21c:	003ff106 	br	b1e4 <__alt_mem_VGA_Subsystem_Char_Buf_Subsystem_Onchip_SRAM+0xf700b1e4>
    b220:	200d883a 	mov	r6,r4
    b224:	003fee06 	br	b1e0 <__alt_mem_VGA_Subsystem_Char_Buf_Subsystem_Onchip_SRAM+0xf700b1e0>

0000b228 <memset>:
    b228:	20c000cc 	andi	r3,r4,3
    b22c:	2005883a 	mov	r2,r4
    b230:	18004426 	beq	r3,zero,b344 <memset+0x11c>
    b234:	31ffffc4 	addi	r7,r6,-1
    b238:	30004026 	beq	r6,zero,b33c <memset+0x114>
    b23c:	2813883a 	mov	r9,r5
    b240:	200d883a 	mov	r6,r4
    b244:	2007883a 	mov	r3,r4
    b248:	00000406 	br	b25c <memset+0x34>
    b24c:	3a3fffc4 	addi	r8,r7,-1
    b250:	31800044 	addi	r6,r6,1
    b254:	38003926 	beq	r7,zero,b33c <memset+0x114>
    b258:	400f883a 	mov	r7,r8
    b25c:	18c00044 	addi	r3,r3,1
    b260:	32400005 	stb	r9,0(r6)
    b264:	1a0000cc 	andi	r8,r3,3
    b268:	403ff81e 	bne	r8,zero,b24c <__alt_mem_VGA_Subsystem_Char_Buf_Subsystem_Onchip_SRAM+0xf700b24c>
    b26c:	010000c4 	movi	r4,3
    b270:	21c02d2e 	bgeu	r4,r7,b328 <memset+0x100>
    b274:	29003fcc 	andi	r4,r5,255
    b278:	200c923a 	slli	r6,r4,8
    b27c:	3108b03a 	or	r4,r6,r4
    b280:	200c943a 	slli	r6,r4,16
    b284:	218cb03a 	or	r6,r4,r6
    b288:	010003c4 	movi	r4,15
    b28c:	21c0182e 	bgeu	r4,r7,b2f0 <memset+0xc8>
    b290:	3b3ffc04 	addi	r12,r7,-16
    b294:	6018d13a 	srli	r12,r12,4
    b298:	1a000104 	addi	r8,r3,4
    b29c:	1ac00204 	addi	r11,r3,8
    b2a0:	6008913a 	slli	r4,r12,4
    b2a4:	1a800304 	addi	r10,r3,12
    b2a8:	1813883a 	mov	r9,r3
    b2ac:	21000504 	addi	r4,r4,20
    b2b0:	1909883a 	add	r4,r3,r4
    b2b4:	49800015 	stw	r6,0(r9)
    b2b8:	41800015 	stw	r6,0(r8)
    b2bc:	59800015 	stw	r6,0(r11)
    b2c0:	51800015 	stw	r6,0(r10)
    b2c4:	42000404 	addi	r8,r8,16
    b2c8:	4a400404 	addi	r9,r9,16
    b2cc:	5ac00404 	addi	r11,r11,16
    b2d0:	52800404 	addi	r10,r10,16
    b2d4:	413ff71e 	bne	r8,r4,b2b4 <__alt_mem_VGA_Subsystem_Char_Buf_Subsystem_Onchip_SRAM+0xf700b2b4>
    b2d8:	63000044 	addi	r12,r12,1
    b2dc:	6018913a 	slli	r12,r12,4
    b2e0:	39c003cc 	andi	r7,r7,15
    b2e4:	010000c4 	movi	r4,3
    b2e8:	1b07883a 	add	r3,r3,r12
    b2ec:	21c00e2e 	bgeu	r4,r7,b328 <memset+0x100>
    b2f0:	1813883a 	mov	r9,r3
    b2f4:	3811883a 	mov	r8,r7
    b2f8:	010000c4 	movi	r4,3
    b2fc:	49800015 	stw	r6,0(r9)
    b300:	423fff04 	addi	r8,r8,-4
    b304:	4a400104 	addi	r9,r9,4
    b308:	223ffc36 	bltu	r4,r8,b2fc <__alt_mem_VGA_Subsystem_Char_Buf_Subsystem_Onchip_SRAM+0xf700b2fc>
    b30c:	393fff04 	addi	r4,r7,-4
    b310:	2008d0ba 	srli	r4,r4,2
    b314:	39c000cc 	andi	r7,r7,3
    b318:	21000044 	addi	r4,r4,1
    b31c:	2109883a 	add	r4,r4,r4
    b320:	2109883a 	add	r4,r4,r4
    b324:	1907883a 	add	r3,r3,r4
    b328:	38000526 	beq	r7,zero,b340 <memset+0x118>
    b32c:	19cf883a 	add	r7,r3,r7
    b330:	19400005 	stb	r5,0(r3)
    b334:	18c00044 	addi	r3,r3,1
    b338:	38fffd1e 	bne	r7,r3,b330 <__alt_mem_VGA_Subsystem_Char_Buf_Subsystem_Onchip_SRAM+0xf700b330>
    b33c:	f800283a 	ret
    b340:	f800283a 	ret
    b344:	2007883a 	mov	r3,r4
    b348:	300f883a 	mov	r7,r6
    b34c:	003fc706 	br	b26c <__alt_mem_VGA_Subsystem_Char_Buf_Subsystem_Onchip_SRAM+0xf700b26c>

0000b350 <_Balloc>:
    b350:	20801317 	ldw	r2,76(r4)
    b354:	defffc04 	addi	sp,sp,-16
    b358:	dc400115 	stw	r17,4(sp)
    b35c:	dc000015 	stw	r16,0(sp)
    b360:	dfc00315 	stw	ra,12(sp)
    b364:	dc800215 	stw	r18,8(sp)
    b368:	2023883a 	mov	r17,r4
    b36c:	2821883a 	mov	r16,r5
    b370:	10000f26 	beq	r2,zero,b3b0 <_Balloc+0x60>
    b374:	8407883a 	add	r3,r16,r16
    b378:	18c7883a 	add	r3,r3,r3
    b37c:	10c7883a 	add	r3,r2,r3
    b380:	18800017 	ldw	r2,0(r3)
    b384:	10001126 	beq	r2,zero,b3cc <_Balloc+0x7c>
    b388:	11000017 	ldw	r4,0(r2)
    b38c:	19000015 	stw	r4,0(r3)
    b390:	10000415 	stw	zero,16(r2)
    b394:	10000315 	stw	zero,12(r2)
    b398:	dfc00317 	ldw	ra,12(sp)
    b39c:	dc800217 	ldw	r18,8(sp)
    b3a0:	dc400117 	ldw	r17,4(sp)
    b3a4:	dc000017 	ldw	r16,0(sp)
    b3a8:	dec00404 	addi	sp,sp,16
    b3ac:	f800283a 	ret
    b3b0:	01800844 	movi	r6,33
    b3b4:	01400104 	movi	r5,4
    b3b8:	000df2c0 	call	df2c <_calloc_r>
    b3bc:	88801315 	stw	r2,76(r17)
    b3c0:	103fec1e 	bne	r2,zero,b374 <__alt_mem_VGA_Subsystem_Char_Buf_Subsystem_Onchip_SRAM+0xf700b374>
    b3c4:	0005883a 	mov	r2,zero
    b3c8:	003ff306 	br	b398 <__alt_mem_VGA_Subsystem_Char_Buf_Subsystem_Onchip_SRAM+0xf700b398>
    b3cc:	01400044 	movi	r5,1
    b3d0:	2c24983a 	sll	r18,r5,r16
    b3d4:	8809883a 	mov	r4,r17
    b3d8:	91800144 	addi	r6,r18,5
    b3dc:	318d883a 	add	r6,r6,r6
    b3e0:	318d883a 	add	r6,r6,r6
    b3e4:	000df2c0 	call	df2c <_calloc_r>
    b3e8:	103ff626 	beq	r2,zero,b3c4 <__alt_mem_VGA_Subsystem_Char_Buf_Subsystem_Onchip_SRAM+0xf700b3c4>
    b3ec:	14000115 	stw	r16,4(r2)
    b3f0:	14800215 	stw	r18,8(r2)
    b3f4:	003fe606 	br	b390 <__alt_mem_VGA_Subsystem_Char_Buf_Subsystem_Onchip_SRAM+0xf700b390>

0000b3f8 <_Bfree>:
    b3f8:	28000826 	beq	r5,zero,b41c <_Bfree+0x24>
    b3fc:	28c00117 	ldw	r3,4(r5)
    b400:	20801317 	ldw	r2,76(r4)
    b404:	18c7883a 	add	r3,r3,r3
    b408:	18c7883a 	add	r3,r3,r3
    b40c:	10c5883a 	add	r2,r2,r3
    b410:	10c00017 	ldw	r3,0(r2)
    b414:	28c00015 	stw	r3,0(r5)
    b418:	11400015 	stw	r5,0(r2)
    b41c:	f800283a 	ret

0000b420 <__multadd>:
    b420:	defff704 	addi	sp,sp,-36
    b424:	dc800215 	stw	r18,8(sp)
    b428:	2c800417 	ldw	r18,16(r5)
    b42c:	dd800615 	stw	r22,24(sp)
    b430:	dd400515 	stw	r21,20(sp)
    b434:	dd000415 	stw	r20,16(sp)
    b438:	dcc00315 	stw	r19,12(sp)
    b43c:	dc400115 	stw	r17,4(sp)
    b440:	dc000015 	stw	r16,0(sp)
    b444:	dfc00815 	stw	ra,32(sp)
    b448:	ddc00715 	stw	r23,28(sp)
    b44c:	2827883a 	mov	r19,r5
    b450:	2029883a 	mov	r20,r4
    b454:	3023883a 	mov	r17,r6
    b458:	3821883a 	mov	r16,r7
    b45c:	2d400504 	addi	r21,r5,20
    b460:	002d883a 	mov	r22,zero
    b464:	adc00017 	ldw	r23,0(r21)
    b468:	880b883a 	mov	r5,r17
    b46c:	ad400104 	addi	r21,r21,4
    b470:	b93fffcc 	andi	r4,r23,65535
    b474:	00033480 	call	3348 <__mulsi3>
    b478:	b808d43a 	srli	r4,r23,16
    b47c:	880b883a 	mov	r5,r17
    b480:	1421883a 	add	r16,r2,r16
    b484:	00033480 	call	3348 <__mulsi3>
    b488:	800ed43a 	srli	r7,r16,16
    b48c:	80ffffcc 	andi	r3,r16,65535
    b490:	b5800044 	addi	r22,r22,1
    b494:	11c5883a 	add	r2,r2,r7
    b498:	100e943a 	slli	r7,r2,16
    b49c:	1020d43a 	srli	r16,r2,16
    b4a0:	38c7883a 	add	r3,r7,r3
    b4a4:	a8ffff15 	stw	r3,-4(r21)
    b4a8:	b4bfee16 	blt	r22,r18,b464 <__alt_mem_VGA_Subsystem_Char_Buf_Subsystem_Onchip_SRAM+0xf700b464>
    b4ac:	80000926 	beq	r16,zero,b4d4 <__multadd+0xb4>
    b4b0:	98800217 	ldw	r2,8(r19)
    b4b4:	9080130e 	bge	r18,r2,b504 <__multadd+0xe4>
    b4b8:	90800144 	addi	r2,r18,5
    b4bc:	1085883a 	add	r2,r2,r2
    b4c0:	1085883a 	add	r2,r2,r2
    b4c4:	9885883a 	add	r2,r19,r2
    b4c8:	14000015 	stw	r16,0(r2)
    b4cc:	94800044 	addi	r18,r18,1
    b4d0:	9c800415 	stw	r18,16(r19)
    b4d4:	9805883a 	mov	r2,r19
    b4d8:	dfc00817 	ldw	ra,32(sp)
    b4dc:	ddc00717 	ldw	r23,28(sp)
    b4e0:	dd800617 	ldw	r22,24(sp)
    b4e4:	dd400517 	ldw	r21,20(sp)
    b4e8:	dd000417 	ldw	r20,16(sp)
    b4ec:	dcc00317 	ldw	r19,12(sp)
    b4f0:	dc800217 	ldw	r18,8(sp)
    b4f4:	dc400117 	ldw	r17,4(sp)
    b4f8:	dc000017 	ldw	r16,0(sp)
    b4fc:	dec00904 	addi	sp,sp,36
    b500:	f800283a 	ret
    b504:	99400117 	ldw	r5,4(r19)
    b508:	a009883a 	mov	r4,r20
    b50c:	29400044 	addi	r5,r5,1
    b510:	000b3500 	call	b350 <_Balloc>
    b514:	99800417 	ldw	r6,16(r19)
    b518:	99400304 	addi	r5,r19,12
    b51c:	11000304 	addi	r4,r2,12
    b520:	31800084 	addi	r6,r6,2
    b524:	318d883a 	add	r6,r6,r6
    b528:	318d883a 	add	r6,r6,r6
    b52c:	1023883a 	mov	r17,r2
    b530:	000b0e00 	call	b0e0 <memcpy>
    b534:	98000a26 	beq	r19,zero,b560 <__multadd+0x140>
    b538:	98c00117 	ldw	r3,4(r19)
    b53c:	a0801317 	ldw	r2,76(r20)
    b540:	18c7883a 	add	r3,r3,r3
    b544:	18c7883a 	add	r3,r3,r3
    b548:	10c5883a 	add	r2,r2,r3
    b54c:	10c00017 	ldw	r3,0(r2)
    b550:	98c00015 	stw	r3,0(r19)
    b554:	14c00015 	stw	r19,0(r2)
    b558:	8827883a 	mov	r19,r17
    b55c:	003fd606 	br	b4b8 <__alt_mem_VGA_Subsystem_Char_Buf_Subsystem_Onchip_SRAM+0xf700b4b8>
    b560:	8827883a 	mov	r19,r17
    b564:	003fd406 	br	b4b8 <__alt_mem_VGA_Subsystem_Char_Buf_Subsystem_Onchip_SRAM+0xf700b4b8>

0000b568 <__s2b>:
    b568:	defff904 	addi	sp,sp,-28
    b56c:	dc400115 	stw	r17,4(sp)
    b570:	dc000015 	stw	r16,0(sp)
    b574:	2023883a 	mov	r17,r4
    b578:	2821883a 	mov	r16,r5
    b57c:	39000204 	addi	r4,r7,8
    b580:	01400244 	movi	r5,9
    b584:	dcc00315 	stw	r19,12(sp)
    b588:	dc800215 	stw	r18,8(sp)
    b58c:	dfc00615 	stw	ra,24(sp)
    b590:	dd400515 	stw	r21,20(sp)
    b594:	dd000415 	stw	r20,16(sp)
    b598:	3825883a 	mov	r18,r7
    b59c:	3027883a 	mov	r19,r6
    b5a0:	00031940 	call	3194 <__divsi3>
    b5a4:	00c00044 	movi	r3,1
    b5a8:	000b883a 	mov	r5,zero
    b5ac:	1880030e 	bge	r3,r2,b5bc <__s2b+0x54>
    b5b0:	18c7883a 	add	r3,r3,r3
    b5b4:	29400044 	addi	r5,r5,1
    b5b8:	18bffd16 	blt	r3,r2,b5b0 <__alt_mem_VGA_Subsystem_Char_Buf_Subsystem_Onchip_SRAM+0xf700b5b0>
    b5bc:	8809883a 	mov	r4,r17
    b5c0:	000b3500 	call	b350 <_Balloc>
    b5c4:	d8c00717 	ldw	r3,28(sp)
    b5c8:	10c00515 	stw	r3,20(r2)
    b5cc:	00c00044 	movi	r3,1
    b5d0:	10c00415 	stw	r3,16(r2)
    b5d4:	00c00244 	movi	r3,9
    b5d8:	1cc0210e 	bge	r3,r19,b660 <__s2b+0xf8>
    b5dc:	80eb883a 	add	r21,r16,r3
    b5e0:	a829883a 	mov	r20,r21
    b5e4:	84e1883a 	add	r16,r16,r19
    b5e8:	a1c00007 	ldb	r7,0(r20)
    b5ec:	01800284 	movi	r6,10
    b5f0:	a5000044 	addi	r20,r20,1
    b5f4:	100b883a 	mov	r5,r2
    b5f8:	39fff404 	addi	r7,r7,-48
    b5fc:	8809883a 	mov	r4,r17
    b600:	000b4200 	call	b420 <__multadd>
    b604:	a43ff81e 	bne	r20,r16,b5e8 <__alt_mem_VGA_Subsystem_Char_Buf_Subsystem_Onchip_SRAM+0xf700b5e8>
    b608:	ace1883a 	add	r16,r21,r19
    b60c:	843ffe04 	addi	r16,r16,-8
    b610:	9c800a0e 	bge	r19,r18,b63c <__s2b+0xd4>
    b614:	94e5c83a 	sub	r18,r18,r19
    b618:	84a5883a 	add	r18,r16,r18
    b61c:	81c00007 	ldb	r7,0(r16)
    b620:	01800284 	movi	r6,10
    b624:	84000044 	addi	r16,r16,1
    b628:	100b883a 	mov	r5,r2
    b62c:	39fff404 	addi	r7,r7,-48
    b630:	8809883a 	mov	r4,r17
    b634:	000b4200 	call	b420 <__multadd>
    b638:	84bff81e 	bne	r16,r18,b61c <__alt_mem_VGA_Subsystem_Char_Buf_Subsystem_Onchip_SRAM+0xf700b61c>
    b63c:	dfc00617 	ldw	ra,24(sp)
    b640:	dd400517 	ldw	r21,20(sp)
    b644:	dd000417 	ldw	r20,16(sp)
    b648:	dcc00317 	ldw	r19,12(sp)
    b64c:	dc800217 	ldw	r18,8(sp)
    b650:	dc400117 	ldw	r17,4(sp)
    b654:	dc000017 	ldw	r16,0(sp)
    b658:	dec00704 	addi	sp,sp,28
    b65c:	f800283a 	ret
    b660:	84000284 	addi	r16,r16,10
    b664:	1827883a 	mov	r19,r3
    b668:	003fe906 	br	b610 <__alt_mem_VGA_Subsystem_Char_Buf_Subsystem_Onchip_SRAM+0xf700b610>

0000b66c <__hi0bits>:
    b66c:	20bfffec 	andhi	r2,r4,65535
    b670:	1000141e 	bne	r2,zero,b6c4 <__hi0bits+0x58>
    b674:	2008943a 	slli	r4,r4,16
    b678:	00800404 	movi	r2,16
    b67c:	20ffc02c 	andhi	r3,r4,65280
    b680:	1800021e 	bne	r3,zero,b68c <__hi0bits+0x20>
    b684:	2008923a 	slli	r4,r4,8
    b688:	10800204 	addi	r2,r2,8
    b68c:	20fc002c 	andhi	r3,r4,61440
    b690:	1800021e 	bne	r3,zero,b69c <__hi0bits+0x30>
    b694:	2008913a 	slli	r4,r4,4
    b698:	10800104 	addi	r2,r2,4
    b69c:	20f0002c 	andhi	r3,r4,49152
    b6a0:	1800031e 	bne	r3,zero,b6b0 <__hi0bits+0x44>
    b6a4:	2109883a 	add	r4,r4,r4
    b6a8:	10800084 	addi	r2,r2,2
    b6ac:	2109883a 	add	r4,r4,r4
    b6b0:	20000316 	blt	r4,zero,b6c0 <__hi0bits+0x54>
    b6b4:	2110002c 	andhi	r4,r4,16384
    b6b8:	2000041e 	bne	r4,zero,b6cc <__hi0bits+0x60>
    b6bc:	00800804 	movi	r2,32
    b6c0:	f800283a 	ret
    b6c4:	0005883a 	mov	r2,zero
    b6c8:	003fec06 	br	b67c <__alt_mem_VGA_Subsystem_Char_Buf_Subsystem_Onchip_SRAM+0xf700b67c>
    b6cc:	10800044 	addi	r2,r2,1
    b6d0:	f800283a 	ret

0000b6d4 <__lo0bits>:
    b6d4:	20c00017 	ldw	r3,0(r4)
    b6d8:	188001cc 	andi	r2,r3,7
    b6dc:	10000826 	beq	r2,zero,b700 <__lo0bits+0x2c>
    b6e0:	1880004c 	andi	r2,r3,1
    b6e4:	1000211e 	bne	r2,zero,b76c <__lo0bits+0x98>
    b6e8:	1880008c 	andi	r2,r3,2
    b6ec:	1000211e 	bne	r2,zero,b774 <__lo0bits+0xa0>
    b6f0:	1806d0ba 	srli	r3,r3,2
    b6f4:	00800084 	movi	r2,2
    b6f8:	20c00015 	stw	r3,0(r4)
    b6fc:	f800283a 	ret
    b700:	18bfffcc 	andi	r2,r3,65535
    b704:	10001326 	beq	r2,zero,b754 <__lo0bits+0x80>
    b708:	0005883a 	mov	r2,zero
    b70c:	19403fcc 	andi	r5,r3,255
    b710:	2800021e 	bne	r5,zero,b71c <__lo0bits+0x48>
    b714:	1806d23a 	srli	r3,r3,8
    b718:	10800204 	addi	r2,r2,8
    b71c:	194003cc 	andi	r5,r3,15
    b720:	2800021e 	bne	r5,zero,b72c <__lo0bits+0x58>
    b724:	1806d13a 	srli	r3,r3,4
    b728:	10800104 	addi	r2,r2,4
    b72c:	194000cc 	andi	r5,r3,3
    b730:	2800021e 	bne	r5,zero,b73c <__lo0bits+0x68>
    b734:	1806d0ba 	srli	r3,r3,2
    b738:	10800084 	addi	r2,r2,2
    b73c:	1940004c 	andi	r5,r3,1
    b740:	2800081e 	bne	r5,zero,b764 <__lo0bits+0x90>
    b744:	1806d07a 	srli	r3,r3,1
    b748:	1800051e 	bne	r3,zero,b760 <__lo0bits+0x8c>
    b74c:	00800804 	movi	r2,32
    b750:	f800283a 	ret
    b754:	1806d43a 	srli	r3,r3,16
    b758:	00800404 	movi	r2,16
    b75c:	003feb06 	br	b70c <__alt_mem_VGA_Subsystem_Char_Buf_Subsystem_Onchip_SRAM+0xf700b70c>
    b760:	10800044 	addi	r2,r2,1
    b764:	20c00015 	stw	r3,0(r4)
    b768:	f800283a 	ret
    b76c:	0005883a 	mov	r2,zero
    b770:	f800283a 	ret
    b774:	1806d07a 	srli	r3,r3,1
    b778:	00800044 	movi	r2,1
    b77c:	20c00015 	stw	r3,0(r4)
    b780:	f800283a 	ret

0000b784 <__i2b>:
    b784:	defffd04 	addi	sp,sp,-12
    b788:	dc000015 	stw	r16,0(sp)
    b78c:	04000044 	movi	r16,1
    b790:	dc400115 	stw	r17,4(sp)
    b794:	2823883a 	mov	r17,r5
    b798:	800b883a 	mov	r5,r16
    b79c:	dfc00215 	stw	ra,8(sp)
    b7a0:	000b3500 	call	b350 <_Balloc>
    b7a4:	14400515 	stw	r17,20(r2)
    b7a8:	14000415 	stw	r16,16(r2)
    b7ac:	dfc00217 	ldw	ra,8(sp)
    b7b0:	dc400117 	ldw	r17,4(sp)
    b7b4:	dc000017 	ldw	r16,0(sp)
    b7b8:	dec00304 	addi	sp,sp,12
    b7bc:	f800283a 	ret

0000b7c0 <__multiply>:
    b7c0:	deffef04 	addi	sp,sp,-68
    b7c4:	dc400815 	stw	r17,32(sp)
    b7c8:	dc000715 	stw	r16,28(sp)
    b7cc:	34400417 	ldw	r17,16(r6)
    b7d0:	2c000417 	ldw	r16,16(r5)
    b7d4:	dd800d15 	stw	r22,52(sp)
    b7d8:	dc800915 	stw	r18,36(sp)
    b7dc:	dfc01015 	stw	ra,64(sp)
    b7e0:	df000f15 	stw	fp,60(sp)
    b7e4:	ddc00e15 	stw	r23,56(sp)
    b7e8:	dd400c15 	stw	r21,48(sp)
    b7ec:	dd000b15 	stw	r20,44(sp)
    b7f0:	dcc00a15 	stw	r19,40(sp)
    b7f4:	2825883a 	mov	r18,r5
    b7f8:	302d883a 	mov	r22,r6
    b7fc:	8440050e 	bge	r16,r17,b814 <__multiply+0x54>
    b800:	8007883a 	mov	r3,r16
    b804:	3025883a 	mov	r18,r6
    b808:	8821883a 	mov	r16,r17
    b80c:	282d883a 	mov	r22,r5
    b810:	1823883a 	mov	r17,r3
    b814:	90800217 	ldw	r2,8(r18)
    b818:	8447883a 	add	r3,r16,r17
    b81c:	d8c00215 	stw	r3,8(sp)
    b820:	91400117 	ldw	r5,4(r18)
    b824:	10c0010e 	bge	r2,r3,b82c <__multiply+0x6c>
    b828:	29400044 	addi	r5,r5,1
    b82c:	000b3500 	call	b350 <_Balloc>
    b830:	d8c00217 	ldw	r3,8(sp)
    b834:	d8800615 	stw	r2,24(sp)
    b838:	18eb883a 	add	r21,r3,r3
    b83c:	ad6b883a 	add	r21,r21,r21
    b840:	10c00504 	addi	r3,r2,20
    b844:	1d6b883a 	add	r21,r3,r21
    b848:	d8c00115 	stw	r3,4(sp)
    b84c:	dd400315 	stw	r21,12(sp)
    b850:	1805883a 	mov	r2,r3
    b854:	1d40042e 	bgeu	r3,r21,b868 <__multiply+0xa8>
    b858:	d8c00317 	ldw	r3,12(sp)
    b85c:	10000015 	stw	zero,0(r2)
    b860:	10800104 	addi	r2,r2,4
    b864:	10fffc36 	bltu	r2,r3,b858 <__alt_mem_VGA_Subsystem_Char_Buf_Subsystem_Onchip_SRAM+0xf700b858>
    b868:	8c63883a 	add	r17,r17,r17
    b86c:	b5800504 	addi	r22,r22,20
    b870:	8c63883a 	add	r17,r17,r17
    b874:	94800504 	addi	r18,r18,20
    b878:	8421883a 	add	r16,r16,r16
    b87c:	b463883a 	add	r17,r22,r17
    b880:	8421883a 	add	r16,r16,r16
    b884:	dd800015 	stw	r22,0(sp)
    b888:	dc800415 	stw	r18,16(sp)
    b88c:	dc400515 	stw	r17,20(sp)
    b890:	9429883a 	add	r20,r18,r16
    b894:	b4404f2e 	bgeu	r22,r17,b9d4 <__multiply+0x214>
    b898:	d8c00017 	ldw	r3,0(sp)
    b89c:	1c800017 	ldw	r18,0(r3)
    b8a0:	947fffcc 	andi	r17,r18,65535
    b8a4:	88001e26 	beq	r17,zero,b920 <__multiply+0x160>
    b8a8:	dd800117 	ldw	r22,4(sp)
    b8ac:	dd400417 	ldw	r21,16(sp)
    b8b0:	0027883a 	mov	r19,zero
    b8b4:	ac800017 	ldw	r18,0(r21)
    b8b8:	b4000017 	ldw	r16,0(r22)
    b8bc:	880b883a 	mov	r5,r17
    b8c0:	913fffcc 	andi	r4,r18,65535
    b8c4:	00033480 	call	3348 <__mulsi3>
    b8c8:	9008d43a 	srli	r4,r18,16
    b8cc:	84bfffcc 	andi	r18,r16,65535
    b8d0:	1485883a 	add	r2,r2,r18
    b8d4:	14e5883a 	add	r18,r2,r19
    b8d8:	8020d43a 	srli	r16,r16,16
    b8dc:	9026d43a 	srli	r19,r18,16
    b8e0:	880b883a 	mov	r5,r17
    b8e4:	00033480 	call	3348 <__mulsi3>
    b8e8:	1405883a 	add	r2,r2,r16
    b8ec:	14e1883a 	add	r16,r2,r19
    b8f0:	90ffffcc 	andi	r3,r18,65535
    b8f4:	8024943a 	slli	r18,r16,16
    b8f8:	ad400104 	addi	r21,r21,4
    b8fc:	b005883a 	mov	r2,r22
    b900:	90c6b03a 	or	r3,r18,r3
    b904:	b0c00015 	stw	r3,0(r22)
    b908:	8026d43a 	srli	r19,r16,16
    b90c:	b5800104 	addi	r22,r22,4
    b910:	ad3fe836 	bltu	r21,r20,b8b4 <__alt_mem_VGA_Subsystem_Char_Buf_Subsystem_Onchip_SRAM+0xf700b8b4>
    b914:	d8c00017 	ldw	r3,0(sp)
    b918:	14c00115 	stw	r19,4(r2)
    b91c:	1c800017 	ldw	r18,0(r3)
    b920:	9024d43a 	srli	r18,r18,16
    b924:	90002226 	beq	r18,zero,b9b0 <__multiply+0x1f0>
    b928:	d8c00117 	ldw	r3,4(sp)
    b92c:	dd800417 	ldw	r22,16(sp)
    b930:	002f883a 	mov	r23,zero
    b934:	1f000017 	ldw	fp,0(r3)
    b938:	1823883a 	mov	r17,r3
    b93c:	182b883a 	mov	r21,r3
    b940:	e021883a 	mov	r16,fp
    b944:	00000106 	br	b94c <__multiply+0x18c>
    b948:	982b883a 	mov	r21,r19
    b94c:	b100000b 	ldhu	r4,0(r22)
    b950:	8020d43a 	srli	r16,r16,16
    b954:	900b883a 	mov	r5,r18
    b958:	00033480 	call	3348 <__mulsi3>
    b95c:	1405883a 	add	r2,r2,r16
    b960:	15ef883a 	add	r23,r2,r23
    b964:	b804943a 	slli	r2,r23,16
    b968:	e0ffffcc 	andi	r3,fp,65535
    b96c:	8c400104 	addi	r17,r17,4
    b970:	10c6b03a 	or	r3,r2,r3
    b974:	88ffff15 	stw	r3,-4(r17)
    b978:	b5800104 	addi	r22,r22,4
    b97c:	b13fff17 	ldw	r4,-4(r22)
    b980:	acc00104 	addi	r19,r21,4
    b984:	900b883a 	mov	r5,r18
    b988:	2008d43a 	srli	r4,r4,16
    b98c:	9c000017 	ldw	r16,0(r19)
    b990:	00033480 	call	3348 <__mulsi3>
    b994:	b806d43a 	srli	r3,r23,16
    b998:	813fffcc 	andi	r4,r16,65535
    b99c:	1105883a 	add	r2,r2,r4
    b9a0:	10f9883a 	add	fp,r2,r3
    b9a4:	e02ed43a 	srli	r23,fp,16
    b9a8:	b53fe736 	bltu	r22,r20,b948 <__alt_mem_VGA_Subsystem_Char_Buf_Subsystem_Onchip_SRAM+0xf700b948>
    b9ac:	af000115 	stw	fp,4(r21)
    b9b0:	d8c00017 	ldw	r3,0(sp)
    b9b4:	d9000517 	ldw	r4,20(sp)
    b9b8:	18c00104 	addi	r3,r3,4
    b9bc:	d8c00015 	stw	r3,0(sp)
    b9c0:	d8c00117 	ldw	r3,4(sp)
    b9c4:	18c00104 	addi	r3,r3,4
    b9c8:	d8c00115 	stw	r3,4(sp)
    b9cc:	d8c00017 	ldw	r3,0(sp)
    b9d0:	193fb136 	bltu	r3,r4,b898 <__alt_mem_VGA_Subsystem_Char_Buf_Subsystem_Onchip_SRAM+0xf700b898>
    b9d4:	d8c00217 	ldw	r3,8(sp)
    b9d8:	00c00c0e 	bge	zero,r3,ba0c <__multiply+0x24c>
    b9dc:	d8c00317 	ldw	r3,12(sp)
    b9e0:	18bfff17 	ldw	r2,-4(r3)
    b9e4:	1d7fff04 	addi	r21,r3,-4
    b9e8:	10000326 	beq	r2,zero,b9f8 <__multiply+0x238>
    b9ec:	00000706 	br	ba0c <__multiply+0x24c>
    b9f0:	a8800017 	ldw	r2,0(r21)
    b9f4:	1000051e 	bne	r2,zero,ba0c <__multiply+0x24c>
    b9f8:	d8c00217 	ldw	r3,8(sp)
    b9fc:	ad7fff04 	addi	r21,r21,-4
    ba00:	18ffffc4 	addi	r3,r3,-1
    ba04:	d8c00215 	stw	r3,8(sp)
    ba08:	183ff91e 	bne	r3,zero,b9f0 <__alt_mem_VGA_Subsystem_Char_Buf_Subsystem_Onchip_SRAM+0xf700b9f0>
    ba0c:	d8c00617 	ldw	r3,24(sp)
    ba10:	d9000217 	ldw	r4,8(sp)
    ba14:	1805883a 	mov	r2,r3
    ba18:	19000415 	stw	r4,16(r3)
    ba1c:	dfc01017 	ldw	ra,64(sp)
    ba20:	df000f17 	ldw	fp,60(sp)
    ba24:	ddc00e17 	ldw	r23,56(sp)
    ba28:	dd800d17 	ldw	r22,52(sp)
    ba2c:	dd400c17 	ldw	r21,48(sp)
    ba30:	dd000b17 	ldw	r20,44(sp)
    ba34:	dcc00a17 	ldw	r19,40(sp)
    ba38:	dc800917 	ldw	r18,36(sp)
    ba3c:	dc400817 	ldw	r17,32(sp)
    ba40:	dc000717 	ldw	r16,28(sp)
    ba44:	dec01104 	addi	sp,sp,68
    ba48:	f800283a 	ret

0000ba4c <__pow5mult>:
    ba4c:	defffa04 	addi	sp,sp,-24
    ba50:	dcc00315 	stw	r19,12(sp)
    ba54:	dc000015 	stw	r16,0(sp)
    ba58:	dfc00515 	stw	ra,20(sp)
    ba5c:	dd000415 	stw	r20,16(sp)
    ba60:	dc800215 	stw	r18,8(sp)
    ba64:	dc400115 	stw	r17,4(sp)
    ba68:	308000cc 	andi	r2,r6,3
    ba6c:	3021883a 	mov	r16,r6
    ba70:	2027883a 	mov	r19,r4
    ba74:	10002f1e 	bne	r2,zero,bb34 <__pow5mult+0xe8>
    ba78:	2825883a 	mov	r18,r5
    ba7c:	8021d0ba 	srai	r16,r16,2
    ba80:	80001a26 	beq	r16,zero,baec <__pow5mult+0xa0>
    ba84:	9c401217 	ldw	r17,72(r19)
    ba88:	8800061e 	bne	r17,zero,baa4 <__pow5mult+0x58>
    ba8c:	00003406 	br	bb60 <__pow5mult+0x114>
    ba90:	8021d07a 	srai	r16,r16,1
    ba94:	80001526 	beq	r16,zero,baec <__pow5mult+0xa0>
    ba98:	88800017 	ldw	r2,0(r17)
    ba9c:	10001c26 	beq	r2,zero,bb10 <__pow5mult+0xc4>
    baa0:	1023883a 	mov	r17,r2
    baa4:	8080004c 	andi	r2,r16,1
    baa8:	103ff926 	beq	r2,zero,ba90 <__alt_mem_VGA_Subsystem_Char_Buf_Subsystem_Onchip_SRAM+0xf700ba90>
    baac:	880d883a 	mov	r6,r17
    bab0:	900b883a 	mov	r5,r18
    bab4:	9809883a 	mov	r4,r19
    bab8:	000b7c00 	call	b7c0 <__multiply>
    babc:	90001b26 	beq	r18,zero,bb2c <__pow5mult+0xe0>
    bac0:	91000117 	ldw	r4,4(r18)
    bac4:	98c01317 	ldw	r3,76(r19)
    bac8:	8021d07a 	srai	r16,r16,1
    bacc:	2109883a 	add	r4,r4,r4
    bad0:	2109883a 	add	r4,r4,r4
    bad4:	1907883a 	add	r3,r3,r4
    bad8:	19000017 	ldw	r4,0(r3)
    badc:	91000015 	stw	r4,0(r18)
    bae0:	1c800015 	stw	r18,0(r3)
    bae4:	1025883a 	mov	r18,r2
    bae8:	803feb1e 	bne	r16,zero,ba98 <__alt_mem_VGA_Subsystem_Char_Buf_Subsystem_Onchip_SRAM+0xf700ba98>
    baec:	9005883a 	mov	r2,r18
    baf0:	dfc00517 	ldw	ra,20(sp)
    baf4:	dd000417 	ldw	r20,16(sp)
    baf8:	dcc00317 	ldw	r19,12(sp)
    bafc:	dc800217 	ldw	r18,8(sp)
    bb00:	dc400117 	ldw	r17,4(sp)
    bb04:	dc000017 	ldw	r16,0(sp)
    bb08:	dec00604 	addi	sp,sp,24
    bb0c:	f800283a 	ret
    bb10:	880d883a 	mov	r6,r17
    bb14:	880b883a 	mov	r5,r17
    bb18:	9809883a 	mov	r4,r19
    bb1c:	000b7c00 	call	b7c0 <__multiply>
    bb20:	88800015 	stw	r2,0(r17)
    bb24:	10000015 	stw	zero,0(r2)
    bb28:	003fdd06 	br	baa0 <__alt_mem_VGA_Subsystem_Char_Buf_Subsystem_Onchip_SRAM+0xf700baa0>
    bb2c:	1025883a 	mov	r18,r2
    bb30:	003fd706 	br	ba90 <__alt_mem_VGA_Subsystem_Char_Buf_Subsystem_Onchip_SRAM+0xf700ba90>
    bb34:	10bfffc4 	addi	r2,r2,-1
    bb38:	1085883a 	add	r2,r2,r2
    bb3c:	00c00074 	movhi	r3,1
    bb40:	18cca904 	addi	r3,r3,12964
    bb44:	1085883a 	add	r2,r2,r2
    bb48:	1885883a 	add	r2,r3,r2
    bb4c:	11800017 	ldw	r6,0(r2)
    bb50:	000f883a 	mov	r7,zero
    bb54:	000b4200 	call	b420 <__multadd>
    bb58:	1025883a 	mov	r18,r2
    bb5c:	003fc706 	br	ba7c <__alt_mem_VGA_Subsystem_Char_Buf_Subsystem_Onchip_SRAM+0xf700ba7c>
    bb60:	05000044 	movi	r20,1
    bb64:	a00b883a 	mov	r5,r20
    bb68:	9809883a 	mov	r4,r19
    bb6c:	000b3500 	call	b350 <_Balloc>
    bb70:	1023883a 	mov	r17,r2
    bb74:	00809c44 	movi	r2,625
    bb78:	88800515 	stw	r2,20(r17)
    bb7c:	8d000415 	stw	r20,16(r17)
    bb80:	9c401215 	stw	r17,72(r19)
    bb84:	88000015 	stw	zero,0(r17)
    bb88:	003fc606 	br	baa4 <__alt_mem_VGA_Subsystem_Char_Buf_Subsystem_Onchip_SRAM+0xf700baa4>

0000bb8c <__lshift>:
    bb8c:	defff904 	addi	sp,sp,-28
    bb90:	dd400515 	stw	r21,20(sp)
    bb94:	dcc00315 	stw	r19,12(sp)
    bb98:	302bd17a 	srai	r21,r6,5
    bb9c:	2cc00417 	ldw	r19,16(r5)
    bba0:	28800217 	ldw	r2,8(r5)
    bba4:	dd000415 	stw	r20,16(sp)
    bba8:	ace7883a 	add	r19,r21,r19
    bbac:	dc800215 	stw	r18,8(sp)
    bbb0:	dc400115 	stw	r17,4(sp)
    bbb4:	dc000015 	stw	r16,0(sp)
    bbb8:	dfc00615 	stw	ra,24(sp)
    bbbc:	9c000044 	addi	r16,r19,1
    bbc0:	2823883a 	mov	r17,r5
    bbc4:	3029883a 	mov	r20,r6
    bbc8:	2025883a 	mov	r18,r4
    bbcc:	29400117 	ldw	r5,4(r5)
    bbd0:	1400030e 	bge	r2,r16,bbe0 <__lshift+0x54>
    bbd4:	1085883a 	add	r2,r2,r2
    bbd8:	29400044 	addi	r5,r5,1
    bbdc:	143ffd16 	blt	r2,r16,bbd4 <__alt_mem_VGA_Subsystem_Char_Buf_Subsystem_Onchip_SRAM+0xf700bbd4>
    bbe0:	9009883a 	mov	r4,r18
    bbe4:	000b3500 	call	b350 <_Balloc>
    bbe8:	10c00504 	addi	r3,r2,20
    bbec:	0540070e 	bge	zero,r21,bc0c <__lshift+0x80>
    bbf0:	ad6b883a 	add	r21,r21,r21
    bbf4:	ad6b883a 	add	r21,r21,r21
    bbf8:	1809883a 	mov	r4,r3
    bbfc:	1d47883a 	add	r3,r3,r21
    bc00:	20000015 	stw	zero,0(r4)
    bc04:	21000104 	addi	r4,r4,4
    bc08:	193ffd1e 	bne	r3,r4,bc00 <__alt_mem_VGA_Subsystem_Char_Buf_Subsystem_Onchip_SRAM+0xf700bc00>
    bc0c:	8a000417 	ldw	r8,16(r17)
    bc10:	89000504 	addi	r4,r17,20
    bc14:	a18007cc 	andi	r6,r20,31
    bc18:	4211883a 	add	r8,r8,r8
    bc1c:	4211883a 	add	r8,r8,r8
    bc20:	2211883a 	add	r8,r4,r8
    bc24:	30002326 	beq	r6,zero,bcb4 <__lshift+0x128>
    bc28:	02400804 	movi	r9,32
    bc2c:	4993c83a 	sub	r9,r9,r6
    bc30:	000b883a 	mov	r5,zero
    bc34:	21c00017 	ldw	r7,0(r4)
    bc38:	1815883a 	mov	r10,r3
    bc3c:	18c00104 	addi	r3,r3,4
    bc40:	398e983a 	sll	r7,r7,r6
    bc44:	21000104 	addi	r4,r4,4
    bc48:	394ab03a 	or	r5,r7,r5
    bc4c:	197fff15 	stw	r5,-4(r3)
    bc50:	217fff17 	ldw	r5,-4(r4)
    bc54:	2a4ad83a 	srl	r5,r5,r9
    bc58:	223ff636 	bltu	r4,r8,bc34 <__alt_mem_VGA_Subsystem_Char_Buf_Subsystem_Onchip_SRAM+0xf700bc34>
    bc5c:	51400115 	stw	r5,4(r10)
    bc60:	28001a1e 	bne	r5,zero,bccc <__lshift+0x140>
    bc64:	843fffc4 	addi	r16,r16,-1
    bc68:	14000415 	stw	r16,16(r2)
    bc6c:	88000826 	beq	r17,zero,bc90 <__lshift+0x104>
    bc70:	89000117 	ldw	r4,4(r17)
    bc74:	90c01317 	ldw	r3,76(r18)
    bc78:	2109883a 	add	r4,r4,r4
    bc7c:	2109883a 	add	r4,r4,r4
    bc80:	1907883a 	add	r3,r3,r4
    bc84:	19000017 	ldw	r4,0(r3)
    bc88:	89000015 	stw	r4,0(r17)
    bc8c:	1c400015 	stw	r17,0(r3)
    bc90:	dfc00617 	ldw	ra,24(sp)
    bc94:	dd400517 	ldw	r21,20(sp)
    bc98:	dd000417 	ldw	r20,16(sp)
    bc9c:	dcc00317 	ldw	r19,12(sp)
    bca0:	dc800217 	ldw	r18,8(sp)
    bca4:	dc400117 	ldw	r17,4(sp)
    bca8:	dc000017 	ldw	r16,0(sp)
    bcac:	dec00704 	addi	sp,sp,28
    bcb0:	f800283a 	ret
    bcb4:	21400017 	ldw	r5,0(r4)
    bcb8:	18c00104 	addi	r3,r3,4
    bcbc:	21000104 	addi	r4,r4,4
    bcc0:	197fff15 	stw	r5,-4(r3)
    bcc4:	223ffb36 	bltu	r4,r8,bcb4 <__alt_mem_VGA_Subsystem_Char_Buf_Subsystem_Onchip_SRAM+0xf700bcb4>
    bcc8:	003fe606 	br	bc64 <__alt_mem_VGA_Subsystem_Char_Buf_Subsystem_Onchip_SRAM+0xf700bc64>
    bccc:	9c000084 	addi	r16,r19,2
    bcd0:	003fe406 	br	bc64 <__alt_mem_VGA_Subsystem_Char_Buf_Subsystem_Onchip_SRAM+0xf700bc64>

0000bcd4 <__mcmp>:
    bcd4:	20800417 	ldw	r2,16(r4)
    bcd8:	28c00417 	ldw	r3,16(r5)
    bcdc:	10c5c83a 	sub	r2,r2,r3
    bce0:	1000111e 	bne	r2,zero,bd28 <__mcmp+0x54>
    bce4:	18c7883a 	add	r3,r3,r3
    bce8:	18c7883a 	add	r3,r3,r3
    bcec:	21000504 	addi	r4,r4,20
    bcf0:	29400504 	addi	r5,r5,20
    bcf4:	20c5883a 	add	r2,r4,r3
    bcf8:	28cb883a 	add	r5,r5,r3
    bcfc:	00000106 	br	bd04 <__mcmp+0x30>
    bd00:	20800a2e 	bgeu	r4,r2,bd2c <__mcmp+0x58>
    bd04:	10bfff04 	addi	r2,r2,-4
    bd08:	297fff04 	addi	r5,r5,-4
    bd0c:	11800017 	ldw	r6,0(r2)
    bd10:	28c00017 	ldw	r3,0(r5)
    bd14:	30fffa26 	beq	r6,r3,bd00 <__alt_mem_VGA_Subsystem_Char_Buf_Subsystem_Onchip_SRAM+0xf700bd00>
    bd18:	30c00236 	bltu	r6,r3,bd24 <__mcmp+0x50>
    bd1c:	00800044 	movi	r2,1
    bd20:	f800283a 	ret
    bd24:	00bfffc4 	movi	r2,-1
    bd28:	f800283a 	ret
    bd2c:	0005883a 	mov	r2,zero
    bd30:	f800283a 	ret

0000bd34 <__mdiff>:
    bd34:	28c00417 	ldw	r3,16(r5)
    bd38:	30800417 	ldw	r2,16(r6)
    bd3c:	defffa04 	addi	sp,sp,-24
    bd40:	dcc00315 	stw	r19,12(sp)
    bd44:	dc800215 	stw	r18,8(sp)
    bd48:	dfc00515 	stw	ra,20(sp)
    bd4c:	dd000415 	stw	r20,16(sp)
    bd50:	dc400115 	stw	r17,4(sp)
    bd54:	dc000015 	stw	r16,0(sp)
    bd58:	1887c83a 	sub	r3,r3,r2
    bd5c:	2825883a 	mov	r18,r5
    bd60:	3027883a 	mov	r19,r6
    bd64:	1800141e 	bne	r3,zero,bdb8 <__mdiff+0x84>
    bd68:	1085883a 	add	r2,r2,r2
    bd6c:	1085883a 	add	r2,r2,r2
    bd70:	2a000504 	addi	r8,r5,20
    bd74:	34000504 	addi	r16,r6,20
    bd78:	4087883a 	add	r3,r8,r2
    bd7c:	8085883a 	add	r2,r16,r2
    bd80:	00000106 	br	bd88 <__mdiff+0x54>
    bd84:	40c0592e 	bgeu	r8,r3,beec <__mdiff+0x1b8>
    bd88:	18ffff04 	addi	r3,r3,-4
    bd8c:	10bfff04 	addi	r2,r2,-4
    bd90:	19c00017 	ldw	r7,0(r3)
    bd94:	11400017 	ldw	r5,0(r2)
    bd98:	397ffa26 	beq	r7,r5,bd84 <__alt_mem_VGA_Subsystem_Char_Buf_Subsystem_Onchip_SRAM+0xf700bd84>
    bd9c:	3940592e 	bgeu	r7,r5,bf04 <__mdiff+0x1d0>
    bda0:	9005883a 	mov	r2,r18
    bda4:	4023883a 	mov	r17,r8
    bda8:	9825883a 	mov	r18,r19
    bdac:	05000044 	movi	r20,1
    bdb0:	1027883a 	mov	r19,r2
    bdb4:	00000406 	br	bdc8 <__mdiff+0x94>
    bdb8:	18005616 	blt	r3,zero,bf14 <__mdiff+0x1e0>
    bdbc:	34400504 	addi	r17,r6,20
    bdc0:	2c000504 	addi	r16,r5,20
    bdc4:	0029883a 	mov	r20,zero
    bdc8:	91400117 	ldw	r5,4(r18)
    bdcc:	000b3500 	call	b350 <_Balloc>
    bdd0:	92400417 	ldw	r9,16(r18)
    bdd4:	9b000417 	ldw	r12,16(r19)
    bdd8:	12c00504 	addi	r11,r2,20
    bddc:	4a51883a 	add	r8,r9,r9
    bde0:	6319883a 	add	r12,r12,r12
    bde4:	4211883a 	add	r8,r8,r8
    bde8:	6319883a 	add	r12,r12,r12
    bdec:	15000315 	stw	r20,12(r2)
    bdf0:	8211883a 	add	r8,r16,r8
    bdf4:	8b19883a 	add	r12,r17,r12
    bdf8:	0007883a 	mov	r3,zero
    bdfc:	81400017 	ldw	r5,0(r16)
    be00:	89c00017 	ldw	r7,0(r17)
    be04:	59800104 	addi	r6,r11,4
    be08:	293fffcc 	andi	r4,r5,65535
    be0c:	20c7883a 	add	r3,r4,r3
    be10:	393fffcc 	andi	r4,r7,65535
    be14:	1909c83a 	sub	r4,r3,r4
    be18:	280ad43a 	srli	r5,r5,16
    be1c:	380ed43a 	srli	r7,r7,16
    be20:	2007d43a 	srai	r3,r4,16
    be24:	213fffcc 	andi	r4,r4,65535
    be28:	29cbc83a 	sub	r5,r5,r7
    be2c:	28c7883a 	add	r3,r5,r3
    be30:	180a943a 	slli	r5,r3,16
    be34:	8c400104 	addi	r17,r17,4
    be38:	84000104 	addi	r16,r16,4
    be3c:	2908b03a 	or	r4,r5,r4
    be40:	59000015 	stw	r4,0(r11)
    be44:	1807d43a 	srai	r3,r3,16
    be48:	3015883a 	mov	r10,r6
    be4c:	3017883a 	mov	r11,r6
    be50:	8b3fea36 	bltu	r17,r12,bdfc <__alt_mem_VGA_Subsystem_Char_Buf_Subsystem_Onchip_SRAM+0xf700bdfc>
    be54:	8200162e 	bgeu	r16,r8,beb0 <__mdiff+0x17c>
    be58:	8017883a 	mov	r11,r16
    be5c:	59400017 	ldw	r5,0(r11)
    be60:	31800104 	addi	r6,r6,4
    be64:	5ac00104 	addi	r11,r11,4
    be68:	293fffcc 	andi	r4,r5,65535
    be6c:	20c7883a 	add	r3,r4,r3
    be70:	280ed43a 	srli	r7,r5,16
    be74:	180bd43a 	srai	r5,r3,16
    be78:	193fffcc 	andi	r4,r3,65535
    be7c:	3947883a 	add	r3,r7,r5
    be80:	180a943a 	slli	r5,r3,16
    be84:	1807d43a 	srai	r3,r3,16
    be88:	2908b03a 	or	r4,r5,r4
    be8c:	313fff15 	stw	r4,-4(r6)
    be90:	5a3ff236 	bltu	r11,r8,be5c <__alt_mem_VGA_Subsystem_Char_Buf_Subsystem_Onchip_SRAM+0xf700be5c>
    be94:	0406303a 	nor	r3,zero,r16
    be98:	1a07883a 	add	r3,r3,r8
    be9c:	1806d0ba 	srli	r3,r3,2
    bea0:	18c00044 	addi	r3,r3,1
    bea4:	18c7883a 	add	r3,r3,r3
    bea8:	18c7883a 	add	r3,r3,r3
    beac:	50d5883a 	add	r10,r10,r3
    beb0:	50ffff04 	addi	r3,r10,-4
    beb4:	2000041e 	bne	r4,zero,bec8 <__mdiff+0x194>
    beb8:	18ffff04 	addi	r3,r3,-4
    bebc:	19000017 	ldw	r4,0(r3)
    bec0:	4a7fffc4 	addi	r9,r9,-1
    bec4:	203ffc26 	beq	r4,zero,beb8 <__alt_mem_VGA_Subsystem_Char_Buf_Subsystem_Onchip_SRAM+0xf700beb8>
    bec8:	12400415 	stw	r9,16(r2)
    becc:	dfc00517 	ldw	ra,20(sp)
    bed0:	dd000417 	ldw	r20,16(sp)
    bed4:	dcc00317 	ldw	r19,12(sp)
    bed8:	dc800217 	ldw	r18,8(sp)
    bedc:	dc400117 	ldw	r17,4(sp)
    bee0:	dc000017 	ldw	r16,0(sp)
    bee4:	dec00604 	addi	sp,sp,24
    bee8:	f800283a 	ret
    beec:	000b883a 	mov	r5,zero
    bef0:	000b3500 	call	b350 <_Balloc>
    bef4:	00c00044 	movi	r3,1
    bef8:	10c00415 	stw	r3,16(r2)
    befc:	10000515 	stw	zero,20(r2)
    bf00:	003ff206 	br	becc <__alt_mem_VGA_Subsystem_Char_Buf_Subsystem_Onchip_SRAM+0xf700becc>
    bf04:	8023883a 	mov	r17,r16
    bf08:	0029883a 	mov	r20,zero
    bf0c:	4021883a 	mov	r16,r8
    bf10:	003fad06 	br	bdc8 <__alt_mem_VGA_Subsystem_Char_Buf_Subsystem_Onchip_SRAM+0xf700bdc8>
    bf14:	9005883a 	mov	r2,r18
    bf18:	94400504 	addi	r17,r18,20
    bf1c:	9c000504 	addi	r16,r19,20
    bf20:	9825883a 	mov	r18,r19
    bf24:	05000044 	movi	r20,1
    bf28:	1027883a 	mov	r19,r2
    bf2c:	003fa606 	br	bdc8 <__alt_mem_VGA_Subsystem_Char_Buf_Subsystem_Onchip_SRAM+0xf700bdc8>

0000bf30 <__ulp>:
    bf30:	295ffc2c 	andhi	r5,r5,32752
    bf34:	00bf3034 	movhi	r2,64704
    bf38:	2887883a 	add	r3,r5,r2
    bf3c:	00c0020e 	bge	zero,r3,bf48 <__ulp+0x18>
    bf40:	0005883a 	mov	r2,zero
    bf44:	f800283a 	ret
    bf48:	00c7c83a 	sub	r3,zero,r3
    bf4c:	1807d53a 	srai	r3,r3,20
    bf50:	008004c4 	movi	r2,19
    bf54:	10c00b0e 	bge	r2,r3,bf84 <__ulp+0x54>
    bf58:	18bffb04 	addi	r2,r3,-20
    bf5c:	01000784 	movi	r4,30
    bf60:	0007883a 	mov	r3,zero
    bf64:	20800516 	blt	r4,r2,bf7c <__ulp+0x4c>
    bf68:	010007c4 	movi	r4,31
    bf6c:	2089c83a 	sub	r4,r4,r2
    bf70:	00800044 	movi	r2,1
    bf74:	1104983a 	sll	r2,r2,r4
    bf78:	f800283a 	ret
    bf7c:	00800044 	movi	r2,1
    bf80:	f800283a 	ret
    bf84:	01400234 	movhi	r5,8
    bf88:	28c7d83a 	sra	r3,r5,r3
    bf8c:	0005883a 	mov	r2,zero
    bf90:	f800283a 	ret

0000bf94 <__b2d>:
    bf94:	defffa04 	addi	sp,sp,-24
    bf98:	dc000015 	stw	r16,0(sp)
    bf9c:	24000417 	ldw	r16,16(r4)
    bfa0:	dc400115 	stw	r17,4(sp)
    bfa4:	24400504 	addi	r17,r4,20
    bfa8:	8421883a 	add	r16,r16,r16
    bfac:	8421883a 	add	r16,r16,r16
    bfb0:	8c21883a 	add	r16,r17,r16
    bfb4:	dc800215 	stw	r18,8(sp)
    bfb8:	84bfff17 	ldw	r18,-4(r16)
    bfbc:	dd000415 	stw	r20,16(sp)
    bfc0:	dcc00315 	stw	r19,12(sp)
    bfc4:	9009883a 	mov	r4,r18
    bfc8:	2829883a 	mov	r20,r5
    bfcc:	dfc00515 	stw	ra,20(sp)
    bfd0:	000b66c0 	call	b66c <__hi0bits>
    bfd4:	00c00804 	movi	r3,32
    bfd8:	1889c83a 	sub	r4,r3,r2
    bfdc:	a1000015 	stw	r4,0(r20)
    bfe0:	01000284 	movi	r4,10
    bfe4:	84ffff04 	addi	r19,r16,-4
    bfe8:	20801216 	blt	r4,r2,c034 <__b2d+0xa0>
    bfec:	018002c4 	movi	r6,11
    bff0:	308dc83a 	sub	r6,r6,r2
    bff4:	9186d83a 	srl	r3,r18,r6
    bff8:	18cffc34 	orhi	r3,r3,16368
    bffc:	8cc0212e 	bgeu	r17,r19,c084 <__b2d+0xf0>
    c000:	813ffe17 	ldw	r4,-8(r16)
    c004:	218cd83a 	srl	r6,r4,r6
    c008:	10800544 	addi	r2,r2,21
    c00c:	9084983a 	sll	r2,r18,r2
    c010:	1184b03a 	or	r2,r2,r6
    c014:	dfc00517 	ldw	ra,20(sp)
    c018:	dd000417 	ldw	r20,16(sp)
    c01c:	dcc00317 	ldw	r19,12(sp)
    c020:	dc800217 	ldw	r18,8(sp)
    c024:	dc400117 	ldw	r17,4(sp)
    c028:	dc000017 	ldw	r16,0(sp)
    c02c:	dec00604 	addi	sp,sp,24
    c030:	f800283a 	ret
    c034:	8cc00f2e 	bgeu	r17,r19,c074 <__b2d+0xe0>
    c038:	117ffd44 	addi	r5,r2,-11
    c03c:	80bffe17 	ldw	r2,-8(r16)
    c040:	28000e26 	beq	r5,zero,c07c <__b2d+0xe8>
    c044:	1949c83a 	sub	r4,r3,r5
    c048:	9164983a 	sll	r18,r18,r5
    c04c:	1106d83a 	srl	r3,r2,r4
    c050:	81bffe04 	addi	r6,r16,-8
    c054:	948ffc34 	orhi	r18,r18,16368
    c058:	90c6b03a 	or	r3,r18,r3
    c05c:	89800e2e 	bgeu	r17,r6,c098 <__b2d+0x104>
    c060:	81bffd17 	ldw	r6,-12(r16)
    c064:	1144983a 	sll	r2,r2,r5
    c068:	310ad83a 	srl	r5,r6,r4
    c06c:	2884b03a 	or	r2,r5,r2
    c070:	003fe806 	br	c014 <__alt_mem_VGA_Subsystem_Char_Buf_Subsystem_Onchip_SRAM+0xf700c014>
    c074:	10bffd44 	addi	r2,r2,-11
    c078:	1000041e 	bne	r2,zero,c08c <__b2d+0xf8>
    c07c:	90cffc34 	orhi	r3,r18,16368
    c080:	003fe406 	br	c014 <__alt_mem_VGA_Subsystem_Char_Buf_Subsystem_Onchip_SRAM+0xf700c014>
    c084:	000d883a 	mov	r6,zero
    c088:	003fdf06 	br	c008 <__alt_mem_VGA_Subsystem_Char_Buf_Subsystem_Onchip_SRAM+0xf700c008>
    c08c:	90a4983a 	sll	r18,r18,r2
    c090:	0005883a 	mov	r2,zero
    c094:	003ff906 	br	c07c <__alt_mem_VGA_Subsystem_Char_Buf_Subsystem_Onchip_SRAM+0xf700c07c>
    c098:	1144983a 	sll	r2,r2,r5
    c09c:	003fdd06 	br	c014 <__alt_mem_VGA_Subsystem_Char_Buf_Subsystem_Onchip_SRAM+0xf700c014>

0000c0a0 <__d2b>:
    c0a0:	defff804 	addi	sp,sp,-32
    c0a4:	dc000215 	stw	r16,8(sp)
    c0a8:	3021883a 	mov	r16,r6
    c0ac:	dc400315 	stw	r17,12(sp)
    c0b0:	8022907a 	slli	r17,r16,1
    c0b4:	dd000615 	stw	r20,24(sp)
    c0b8:	2829883a 	mov	r20,r5
    c0bc:	01400044 	movi	r5,1
    c0c0:	dcc00515 	stw	r19,20(sp)
    c0c4:	dc800415 	stw	r18,16(sp)
    c0c8:	dfc00715 	stw	ra,28(sp)
    c0cc:	3825883a 	mov	r18,r7
    c0d0:	8822d57a 	srli	r17,r17,21
    c0d4:	000b3500 	call	b350 <_Balloc>
    c0d8:	1027883a 	mov	r19,r2
    c0dc:	00800434 	movhi	r2,16
    c0e0:	10bfffc4 	addi	r2,r2,-1
    c0e4:	808c703a 	and	r6,r16,r2
    c0e8:	88000126 	beq	r17,zero,c0f0 <__d2b+0x50>
    c0ec:	31800434 	orhi	r6,r6,16
    c0f0:	d9800015 	stw	r6,0(sp)
    c0f4:	a0002426 	beq	r20,zero,c188 <__d2b+0xe8>
    c0f8:	d9000104 	addi	r4,sp,4
    c0fc:	dd000115 	stw	r20,4(sp)
    c100:	000b6d40 	call	b6d4 <__lo0bits>
    c104:	d8c00017 	ldw	r3,0(sp)
    c108:	10002f1e 	bne	r2,zero,c1c8 <__d2b+0x128>
    c10c:	d9000117 	ldw	r4,4(sp)
    c110:	99000515 	stw	r4,20(r19)
    c114:	1821003a 	cmpeq	r16,r3,zero
    c118:	01000084 	movi	r4,2
    c11c:	2421c83a 	sub	r16,r4,r16
    c120:	98c00615 	stw	r3,24(r19)
    c124:	9c000415 	stw	r16,16(r19)
    c128:	88001f1e 	bne	r17,zero,c1a8 <__d2b+0x108>
    c12c:	10bef384 	addi	r2,r2,-1074
    c130:	90800015 	stw	r2,0(r18)
    c134:	00900034 	movhi	r2,16384
    c138:	10bfffc4 	addi	r2,r2,-1
    c13c:	8085883a 	add	r2,r16,r2
    c140:	1085883a 	add	r2,r2,r2
    c144:	1085883a 	add	r2,r2,r2
    c148:	9885883a 	add	r2,r19,r2
    c14c:	11000517 	ldw	r4,20(r2)
    c150:	8020917a 	slli	r16,r16,5
    c154:	000b66c0 	call	b66c <__hi0bits>
    c158:	d8c00817 	ldw	r3,32(sp)
    c15c:	8085c83a 	sub	r2,r16,r2
    c160:	18800015 	stw	r2,0(r3)
    c164:	9805883a 	mov	r2,r19
    c168:	dfc00717 	ldw	ra,28(sp)
    c16c:	dd000617 	ldw	r20,24(sp)
    c170:	dcc00517 	ldw	r19,20(sp)
    c174:	dc800417 	ldw	r18,16(sp)
    c178:	dc400317 	ldw	r17,12(sp)
    c17c:	dc000217 	ldw	r16,8(sp)
    c180:	dec00804 	addi	sp,sp,32
    c184:	f800283a 	ret
    c188:	d809883a 	mov	r4,sp
    c18c:	000b6d40 	call	b6d4 <__lo0bits>
    c190:	d8c00017 	ldw	r3,0(sp)
    c194:	04000044 	movi	r16,1
    c198:	9c000415 	stw	r16,16(r19)
    c19c:	98c00515 	stw	r3,20(r19)
    c1a0:	10800804 	addi	r2,r2,32
    c1a4:	883fe126 	beq	r17,zero,c12c <__alt_mem_VGA_Subsystem_Char_Buf_Subsystem_Onchip_SRAM+0xf700c12c>
    c1a8:	00c00d44 	movi	r3,53
    c1ac:	8c7ef344 	addi	r17,r17,-1075
    c1b0:	88a3883a 	add	r17,r17,r2
    c1b4:	1885c83a 	sub	r2,r3,r2
    c1b8:	d8c00817 	ldw	r3,32(sp)
    c1bc:	94400015 	stw	r17,0(r18)
    c1c0:	18800015 	stw	r2,0(r3)
    c1c4:	003fe706 	br	c164 <__alt_mem_VGA_Subsystem_Char_Buf_Subsystem_Onchip_SRAM+0xf700c164>
    c1c8:	01000804 	movi	r4,32
    c1cc:	2089c83a 	sub	r4,r4,r2
    c1d0:	1908983a 	sll	r4,r3,r4
    c1d4:	d9400117 	ldw	r5,4(sp)
    c1d8:	1886d83a 	srl	r3,r3,r2
    c1dc:	2148b03a 	or	r4,r4,r5
    c1e0:	99000515 	stw	r4,20(r19)
    c1e4:	d8c00015 	stw	r3,0(sp)
    c1e8:	003fca06 	br	c114 <__alt_mem_VGA_Subsystem_Char_Buf_Subsystem_Onchip_SRAM+0xf700c114>

0000c1ec <__ratio>:
    c1ec:	defff904 	addi	sp,sp,-28
    c1f0:	dc400315 	stw	r17,12(sp)
    c1f4:	2823883a 	mov	r17,r5
    c1f8:	d9400104 	addi	r5,sp,4
    c1fc:	dfc00615 	stw	ra,24(sp)
    c200:	dcc00515 	stw	r19,20(sp)
    c204:	dc800415 	stw	r18,16(sp)
    c208:	2027883a 	mov	r19,r4
    c20c:	dc000215 	stw	r16,8(sp)
    c210:	000bf940 	call	bf94 <__b2d>
    c214:	d80b883a 	mov	r5,sp
    c218:	8809883a 	mov	r4,r17
    c21c:	1025883a 	mov	r18,r2
    c220:	1821883a 	mov	r16,r3
    c224:	000bf940 	call	bf94 <__b2d>
    c228:	8a000417 	ldw	r8,16(r17)
    c22c:	99000417 	ldw	r4,16(r19)
    c230:	d9400117 	ldw	r5,4(sp)
    c234:	2209c83a 	sub	r4,r4,r8
    c238:	2010917a 	slli	r8,r4,5
    c23c:	d9000017 	ldw	r4,0(sp)
    c240:	2909c83a 	sub	r4,r5,r4
    c244:	4109883a 	add	r4,r8,r4
    c248:	01000e0e 	bge	zero,r4,c284 <__ratio+0x98>
    c24c:	2008953a 	slli	r4,r4,20
    c250:	2421883a 	add	r16,r4,r16
    c254:	100d883a 	mov	r6,r2
    c258:	180f883a 	mov	r7,r3
    c25c:	9009883a 	mov	r4,r18
    c260:	800b883a 	mov	r5,r16
    c264:	0003c1c0 	call	3c1c <__divdf3>
    c268:	dfc00617 	ldw	ra,24(sp)
    c26c:	dcc00517 	ldw	r19,20(sp)
    c270:	dc800417 	ldw	r18,16(sp)
    c274:	dc400317 	ldw	r17,12(sp)
    c278:	dc000217 	ldw	r16,8(sp)
    c27c:	dec00704 	addi	sp,sp,28
    c280:	f800283a 	ret
    c284:	2008953a 	slli	r4,r4,20
    c288:	1907c83a 	sub	r3,r3,r4
    c28c:	003ff106 	br	c254 <__alt_mem_VGA_Subsystem_Char_Buf_Subsystem_Onchip_SRAM+0xf700c254>

0000c290 <_mprec_log10>:
    c290:	defffe04 	addi	sp,sp,-8
    c294:	dc000015 	stw	r16,0(sp)
    c298:	dfc00115 	stw	ra,4(sp)
    c29c:	008005c4 	movi	r2,23
    c2a0:	2021883a 	mov	r16,r4
    c2a4:	11000d0e 	bge	r2,r4,c2dc <_mprec_log10+0x4c>
    c2a8:	0005883a 	mov	r2,zero
    c2ac:	00cffc34 	movhi	r3,16368
    c2b0:	843fffc4 	addi	r16,r16,-1
    c2b4:	000d883a 	mov	r6,zero
    c2b8:	01d00934 	movhi	r7,16420
    c2bc:	1009883a 	mov	r4,r2
    c2c0:	180b883a 	mov	r5,r3
    c2c4:	00047500 	call	4750 <__muldf3>
    c2c8:	803ff91e 	bne	r16,zero,c2b0 <__alt_mem_VGA_Subsystem_Char_Buf_Subsystem_Onchip_SRAM+0xf700c2b0>
    c2cc:	dfc00117 	ldw	ra,4(sp)
    c2d0:	dc000017 	ldw	r16,0(sp)
    c2d4:	dec00204 	addi	sp,sp,8
    c2d8:	f800283a 	ret
    c2dc:	202090fa 	slli	r16,r4,3
    c2e0:	00800074 	movhi	r2,1
    c2e4:	108cc004 	addi	r2,r2,13056
    c2e8:	1421883a 	add	r16,r2,r16
    c2ec:	80800017 	ldw	r2,0(r16)
    c2f0:	80c00117 	ldw	r3,4(r16)
    c2f4:	dfc00117 	ldw	ra,4(sp)
    c2f8:	dc000017 	ldw	r16,0(sp)
    c2fc:	dec00204 	addi	sp,sp,8
    c300:	f800283a 	ret

0000c304 <__copybits>:
    c304:	297fffc4 	addi	r5,r5,-1
    c308:	280fd17a 	srai	r7,r5,5
    c30c:	30c00417 	ldw	r3,16(r6)
    c310:	30800504 	addi	r2,r6,20
    c314:	39c00044 	addi	r7,r7,1
    c318:	18c7883a 	add	r3,r3,r3
    c31c:	39cf883a 	add	r7,r7,r7
    c320:	18c7883a 	add	r3,r3,r3
    c324:	39cf883a 	add	r7,r7,r7
    c328:	10c7883a 	add	r3,r2,r3
    c32c:	21cf883a 	add	r7,r4,r7
    c330:	10c00d2e 	bgeu	r2,r3,c368 <__copybits+0x64>
    c334:	200b883a 	mov	r5,r4
    c338:	12000017 	ldw	r8,0(r2)
    c33c:	29400104 	addi	r5,r5,4
    c340:	10800104 	addi	r2,r2,4
    c344:	2a3fff15 	stw	r8,-4(r5)
    c348:	10fffb36 	bltu	r2,r3,c338 <__alt_mem_VGA_Subsystem_Char_Buf_Subsystem_Onchip_SRAM+0xf700c338>
    c34c:	1985c83a 	sub	r2,r3,r6
    c350:	10bffac4 	addi	r2,r2,-21
    c354:	1004d0ba 	srli	r2,r2,2
    c358:	10800044 	addi	r2,r2,1
    c35c:	1085883a 	add	r2,r2,r2
    c360:	1085883a 	add	r2,r2,r2
    c364:	2089883a 	add	r4,r4,r2
    c368:	21c0032e 	bgeu	r4,r7,c378 <__copybits+0x74>
    c36c:	20000015 	stw	zero,0(r4)
    c370:	21000104 	addi	r4,r4,4
    c374:	21fffd36 	bltu	r4,r7,c36c <__alt_mem_VGA_Subsystem_Char_Buf_Subsystem_Onchip_SRAM+0xf700c36c>
    c378:	f800283a 	ret

0000c37c <__any_on>:
    c37c:	20c00417 	ldw	r3,16(r4)
    c380:	2805d17a 	srai	r2,r5,5
    c384:	21000504 	addi	r4,r4,20
    c388:	18800d0e 	bge	r3,r2,c3c0 <__any_on+0x44>
    c38c:	18c7883a 	add	r3,r3,r3
    c390:	18c7883a 	add	r3,r3,r3
    c394:	20c7883a 	add	r3,r4,r3
    c398:	20c0192e 	bgeu	r4,r3,c400 <__any_on+0x84>
    c39c:	18bfff17 	ldw	r2,-4(r3)
    c3a0:	18ffff04 	addi	r3,r3,-4
    c3a4:	1000041e 	bne	r2,zero,c3b8 <__any_on+0x3c>
    c3a8:	20c0142e 	bgeu	r4,r3,c3fc <__any_on+0x80>
    c3ac:	18ffff04 	addi	r3,r3,-4
    c3b0:	19400017 	ldw	r5,0(r3)
    c3b4:	283ffc26 	beq	r5,zero,c3a8 <__alt_mem_VGA_Subsystem_Char_Buf_Subsystem_Onchip_SRAM+0xf700c3a8>
    c3b8:	00800044 	movi	r2,1
    c3bc:	f800283a 	ret
    c3c0:	10c00a0e 	bge	r2,r3,c3ec <__any_on+0x70>
    c3c4:	1085883a 	add	r2,r2,r2
    c3c8:	1085883a 	add	r2,r2,r2
    c3cc:	294007cc 	andi	r5,r5,31
    c3d0:	2087883a 	add	r3,r4,r2
    c3d4:	283ff026 	beq	r5,zero,c398 <__alt_mem_VGA_Subsystem_Char_Buf_Subsystem_Onchip_SRAM+0xf700c398>
    c3d8:	19800017 	ldw	r6,0(r3)
    c3dc:	3144d83a 	srl	r2,r6,r5
    c3e0:	114a983a 	sll	r5,r2,r5
    c3e4:	317ff41e 	bne	r6,r5,c3b8 <__alt_mem_VGA_Subsystem_Char_Buf_Subsystem_Onchip_SRAM+0xf700c3b8>
    c3e8:	003feb06 	br	c398 <__alt_mem_VGA_Subsystem_Char_Buf_Subsystem_Onchip_SRAM+0xf700c398>
    c3ec:	1085883a 	add	r2,r2,r2
    c3f0:	1085883a 	add	r2,r2,r2
    c3f4:	2087883a 	add	r3,r4,r2
    c3f8:	003fe706 	br	c398 <__alt_mem_VGA_Subsystem_Char_Buf_Subsystem_Onchip_SRAM+0xf700c398>
    c3fc:	f800283a 	ret
    c400:	0005883a 	mov	r2,zero
    c404:	f800283a 	ret

0000c408 <__fpclassifyd>:
    c408:	00a00034 	movhi	r2,32768
    c40c:	10bfffc4 	addi	r2,r2,-1
    c410:	2884703a 	and	r2,r5,r2
    c414:	10000726 	beq	r2,zero,c434 <__fpclassifyd+0x2c>
    c418:	00fffc34 	movhi	r3,65520
    c41c:	019ff834 	movhi	r6,32736
    c420:	28c7883a 	add	r3,r5,r3
    c424:	31bfffc4 	addi	r6,r6,-1
    c428:	30c00536 	bltu	r6,r3,c440 <__fpclassifyd+0x38>
    c42c:	00800104 	movi	r2,4
    c430:	f800283a 	ret
    c434:	2000021e 	bne	r4,zero,c440 <__fpclassifyd+0x38>
    c438:	00800084 	movi	r2,2
    c43c:	f800283a 	ret
    c440:	00dffc34 	movhi	r3,32752
    c444:	019ff834 	movhi	r6,32736
    c448:	28cb883a 	add	r5,r5,r3
    c44c:	31bfffc4 	addi	r6,r6,-1
    c450:	317ff62e 	bgeu	r6,r5,c42c <__alt_mem_VGA_Subsystem_Char_Buf_Subsystem_Onchip_SRAM+0xf700c42c>
    c454:	01400434 	movhi	r5,16
    c458:	297fffc4 	addi	r5,r5,-1
    c45c:	28800236 	bltu	r5,r2,c468 <__fpclassifyd+0x60>
    c460:	008000c4 	movi	r2,3
    c464:	f800283a 	ret
    c468:	10c00226 	beq	r2,r3,c474 <__fpclassifyd+0x6c>
    c46c:	0005883a 	mov	r2,zero
    c470:	f800283a 	ret
    c474:	2005003a 	cmpeq	r2,r4,zero
    c478:	f800283a 	ret

0000c47c <_sbrk_r>:
    c47c:	defffd04 	addi	sp,sp,-12
    c480:	dc000015 	stw	r16,0(sp)
    c484:	04000074 	movhi	r16,1
    c488:	dc400115 	stw	r17,4(sp)
    c48c:	841b2504 	addi	r16,r16,27796
    c490:	2023883a 	mov	r17,r4
    c494:	2809883a 	mov	r4,r5
    c498:	dfc00215 	stw	ra,8(sp)
    c49c:	80000015 	stw	zero,0(r16)
    c4a0:	00107a80 	call	107a8 <sbrk>
    c4a4:	00ffffc4 	movi	r3,-1
    c4a8:	10c00526 	beq	r2,r3,c4c0 <_sbrk_r+0x44>
    c4ac:	dfc00217 	ldw	ra,8(sp)
    c4b0:	dc400117 	ldw	r17,4(sp)
    c4b4:	dc000017 	ldw	r16,0(sp)
    c4b8:	dec00304 	addi	sp,sp,12
    c4bc:	f800283a 	ret
    c4c0:	80c00017 	ldw	r3,0(r16)
    c4c4:	183ff926 	beq	r3,zero,c4ac <__alt_mem_VGA_Subsystem_Char_Buf_Subsystem_Onchip_SRAM+0xf700c4ac>
    c4c8:	88c00015 	stw	r3,0(r17)
    c4cc:	003ff706 	br	c4ac <__alt_mem_VGA_Subsystem_Char_Buf_Subsystem_Onchip_SRAM+0xf700c4ac>

0000c4d0 <__sread>:
    c4d0:	defffe04 	addi	sp,sp,-8
    c4d4:	dc000015 	stw	r16,0(sp)
    c4d8:	2821883a 	mov	r16,r5
    c4dc:	2940038f 	ldh	r5,14(r5)
    c4e0:	dfc00115 	stw	ra,4(sp)
    c4e4:	000ea480 	call	ea48 <_read_r>
    c4e8:	10000716 	blt	r2,zero,c508 <__sread+0x38>
    c4ec:	80c01417 	ldw	r3,80(r16)
    c4f0:	1887883a 	add	r3,r3,r2
    c4f4:	80c01415 	stw	r3,80(r16)
    c4f8:	dfc00117 	ldw	ra,4(sp)
    c4fc:	dc000017 	ldw	r16,0(sp)
    c500:	dec00204 	addi	sp,sp,8
    c504:	f800283a 	ret
    c508:	80c0030b 	ldhu	r3,12(r16)
    c50c:	18fbffcc 	andi	r3,r3,61439
    c510:	80c0030d 	sth	r3,12(r16)
    c514:	dfc00117 	ldw	ra,4(sp)
    c518:	dc000017 	ldw	r16,0(sp)
    c51c:	dec00204 	addi	sp,sp,8
    c520:	f800283a 	ret

0000c524 <__seofread>:
    c524:	0005883a 	mov	r2,zero
    c528:	f800283a 	ret

0000c52c <__swrite>:
    c52c:	2880030b 	ldhu	r2,12(r5)
    c530:	defffb04 	addi	sp,sp,-20
    c534:	dcc00315 	stw	r19,12(sp)
    c538:	dc800215 	stw	r18,8(sp)
    c53c:	dc400115 	stw	r17,4(sp)
    c540:	dc000015 	stw	r16,0(sp)
    c544:	dfc00415 	stw	ra,16(sp)
    c548:	10c0400c 	andi	r3,r2,256
    c54c:	2821883a 	mov	r16,r5
    c550:	2023883a 	mov	r17,r4
    c554:	3025883a 	mov	r18,r6
    c558:	3827883a 	mov	r19,r7
    c55c:	18000526 	beq	r3,zero,c574 <__swrite+0x48>
    c560:	2940038f 	ldh	r5,14(r5)
    c564:	01c00084 	movi	r7,2
    c568:	000d883a 	mov	r6,zero
    c56c:	000e88c0 	call	e88c <_lseek_r>
    c570:	8080030b 	ldhu	r2,12(r16)
    c574:	8140038f 	ldh	r5,14(r16)
    c578:	10bbffcc 	andi	r2,r2,61439
    c57c:	980f883a 	mov	r7,r19
    c580:	900d883a 	mov	r6,r18
    c584:	8809883a 	mov	r4,r17
    c588:	8080030d 	sth	r2,12(r16)
    c58c:	dfc00417 	ldw	ra,16(sp)
    c590:	dcc00317 	ldw	r19,12(sp)
    c594:	dc800217 	ldw	r18,8(sp)
    c598:	dc400117 	ldw	r17,4(sp)
    c59c:	dc000017 	ldw	r16,0(sp)
    c5a0:	dec00504 	addi	sp,sp,20
    c5a4:	000de781 	jmpi	de78 <_write_r>

0000c5a8 <__sseek>:
    c5a8:	defffe04 	addi	sp,sp,-8
    c5ac:	dc000015 	stw	r16,0(sp)
    c5b0:	2821883a 	mov	r16,r5
    c5b4:	2940038f 	ldh	r5,14(r5)
    c5b8:	dfc00115 	stw	ra,4(sp)
    c5bc:	000e88c0 	call	e88c <_lseek_r>
    c5c0:	00ffffc4 	movi	r3,-1
    c5c4:	10c00826 	beq	r2,r3,c5e8 <__sseek+0x40>
    c5c8:	80c0030b 	ldhu	r3,12(r16)
    c5cc:	80801415 	stw	r2,80(r16)
    c5d0:	18c40014 	ori	r3,r3,4096
    c5d4:	80c0030d 	sth	r3,12(r16)
    c5d8:	dfc00117 	ldw	ra,4(sp)
    c5dc:	dc000017 	ldw	r16,0(sp)
    c5e0:	dec00204 	addi	sp,sp,8
    c5e4:	f800283a 	ret
    c5e8:	80c0030b 	ldhu	r3,12(r16)
    c5ec:	18fbffcc 	andi	r3,r3,61439
    c5f0:	80c0030d 	sth	r3,12(r16)
    c5f4:	dfc00117 	ldw	ra,4(sp)
    c5f8:	dc000017 	ldw	r16,0(sp)
    c5fc:	dec00204 	addi	sp,sp,8
    c600:	f800283a 	ret

0000c604 <__sclose>:
    c604:	2940038f 	ldh	r5,14(r5)
    c608:	000ded81 	jmpi	ded8 <_close_r>

0000c60c <strcmp>:
    c60c:	2144b03a 	or	r2,r4,r5
    c610:	108000cc 	andi	r2,r2,3
    c614:	1000171e 	bne	r2,zero,c674 <strcmp+0x68>
    c618:	20800017 	ldw	r2,0(r4)
    c61c:	28c00017 	ldw	r3,0(r5)
    c620:	10c0141e 	bne	r2,r3,c674 <strcmp+0x68>
    c624:	027fbff4 	movhi	r9,65279
    c628:	4a7fbfc4 	addi	r9,r9,-257
    c62c:	0086303a 	nor	r3,zero,r2
    c630:	02202074 	movhi	r8,32897
    c634:	1245883a 	add	r2,r2,r9
    c638:	42202004 	addi	r8,r8,-32640
    c63c:	10c4703a 	and	r2,r2,r3
    c640:	1204703a 	and	r2,r2,r8
    c644:	10000226 	beq	r2,zero,c650 <strcmp+0x44>
    c648:	00002306 	br	c6d8 <strcmp+0xcc>
    c64c:	1000221e 	bne	r2,zero,c6d8 <strcmp+0xcc>
    c650:	21000104 	addi	r4,r4,4
    c654:	20c00017 	ldw	r3,0(r4)
    c658:	29400104 	addi	r5,r5,4
    c65c:	29800017 	ldw	r6,0(r5)
    c660:	1a4f883a 	add	r7,r3,r9
    c664:	00c4303a 	nor	r2,zero,r3
    c668:	3884703a 	and	r2,r7,r2
    c66c:	1204703a 	and	r2,r2,r8
    c670:	19bff626 	beq	r3,r6,c64c <__alt_mem_VGA_Subsystem_Char_Buf_Subsystem_Onchip_SRAM+0xf700c64c>
    c674:	20800003 	ldbu	r2,0(r4)
    c678:	10c03fcc 	andi	r3,r2,255
    c67c:	18c0201c 	xori	r3,r3,128
    c680:	18ffe004 	addi	r3,r3,-128
    c684:	18000c26 	beq	r3,zero,c6b8 <strcmp+0xac>
    c688:	29800007 	ldb	r6,0(r5)
    c68c:	19800326 	beq	r3,r6,c69c <strcmp+0x90>
    c690:	00001306 	br	c6e0 <strcmp+0xd4>
    c694:	29800007 	ldb	r6,0(r5)
    c698:	11800b1e 	bne	r2,r6,c6c8 <strcmp+0xbc>
    c69c:	21000044 	addi	r4,r4,1
    c6a0:	20c00003 	ldbu	r3,0(r4)
    c6a4:	29400044 	addi	r5,r5,1
    c6a8:	18803fcc 	andi	r2,r3,255
    c6ac:	1080201c 	xori	r2,r2,128
    c6b0:	10bfe004 	addi	r2,r2,-128
    c6b4:	103ff71e 	bne	r2,zero,c694 <__alt_mem_VGA_Subsystem_Char_Buf_Subsystem_Onchip_SRAM+0xf700c694>
    c6b8:	0007883a 	mov	r3,zero
    c6bc:	28800003 	ldbu	r2,0(r5)
    c6c0:	1885c83a 	sub	r2,r3,r2
    c6c4:	f800283a 	ret
    c6c8:	28800003 	ldbu	r2,0(r5)
    c6cc:	18c03fcc 	andi	r3,r3,255
    c6d0:	1885c83a 	sub	r2,r3,r2
    c6d4:	f800283a 	ret
    c6d8:	0005883a 	mov	r2,zero
    c6dc:	f800283a 	ret
    c6e0:	10c03fcc 	andi	r3,r2,255
    c6e4:	003ff506 	br	c6bc <__alt_mem_VGA_Subsystem_Char_Buf_Subsystem_Onchip_SRAM+0xf700c6bc>

0000c6e8 <strlen>:
    c6e8:	208000cc 	andi	r2,r4,3
    c6ec:	10002026 	beq	r2,zero,c770 <strlen+0x88>
    c6f0:	20800007 	ldb	r2,0(r4)
    c6f4:	10002026 	beq	r2,zero,c778 <strlen+0x90>
    c6f8:	2005883a 	mov	r2,r4
    c6fc:	00000206 	br	c708 <strlen+0x20>
    c700:	10c00007 	ldb	r3,0(r2)
    c704:	18001826 	beq	r3,zero,c768 <strlen+0x80>
    c708:	10800044 	addi	r2,r2,1
    c70c:	10c000cc 	andi	r3,r2,3
    c710:	183ffb1e 	bne	r3,zero,c700 <__alt_mem_VGA_Subsystem_Char_Buf_Subsystem_Onchip_SRAM+0xf700c700>
    c714:	10c00017 	ldw	r3,0(r2)
    c718:	01ffbff4 	movhi	r7,65279
    c71c:	39ffbfc4 	addi	r7,r7,-257
    c720:	00ca303a 	nor	r5,zero,r3
    c724:	01a02074 	movhi	r6,32897
    c728:	19c7883a 	add	r3,r3,r7
    c72c:	31a02004 	addi	r6,r6,-32640
    c730:	1946703a 	and	r3,r3,r5
    c734:	1986703a 	and	r3,r3,r6
    c738:	1800091e 	bne	r3,zero,c760 <strlen+0x78>
    c73c:	10800104 	addi	r2,r2,4
    c740:	10c00017 	ldw	r3,0(r2)
    c744:	19cb883a 	add	r5,r3,r7
    c748:	00c6303a 	nor	r3,zero,r3
    c74c:	28c6703a 	and	r3,r5,r3
    c750:	1986703a 	and	r3,r3,r6
    c754:	183ff926 	beq	r3,zero,c73c <__alt_mem_VGA_Subsystem_Char_Buf_Subsystem_Onchip_SRAM+0xf700c73c>
    c758:	00000106 	br	c760 <strlen+0x78>
    c75c:	10800044 	addi	r2,r2,1
    c760:	10c00007 	ldb	r3,0(r2)
    c764:	183ffd1e 	bne	r3,zero,c75c <__alt_mem_VGA_Subsystem_Char_Buf_Subsystem_Onchip_SRAM+0xf700c75c>
    c768:	1105c83a 	sub	r2,r2,r4
    c76c:	f800283a 	ret
    c770:	2005883a 	mov	r2,r4
    c774:	003fe706 	br	c714 <__alt_mem_VGA_Subsystem_Char_Buf_Subsystem_Onchip_SRAM+0xf700c714>
    c778:	0005883a 	mov	r2,zero
    c77c:	f800283a 	ret

0000c780 <__sprint_r.part.0>:
    c780:	28801917 	ldw	r2,100(r5)
    c784:	defff604 	addi	sp,sp,-40
    c788:	dd400515 	stw	r21,20(sp)
    c78c:	dfc00915 	stw	ra,36(sp)
    c790:	df000815 	stw	fp,32(sp)
    c794:	ddc00715 	stw	r23,28(sp)
    c798:	dd800615 	stw	r22,24(sp)
    c79c:	dd000415 	stw	r20,16(sp)
    c7a0:	dcc00315 	stw	r19,12(sp)
    c7a4:	dc800215 	stw	r18,8(sp)
    c7a8:	dc400115 	stw	r17,4(sp)
    c7ac:	dc000015 	stw	r16,0(sp)
    c7b0:	1088000c 	andi	r2,r2,8192
    c7b4:	302b883a 	mov	r21,r6
    c7b8:	10002e26 	beq	r2,zero,c874 <__sprint_r.part.0+0xf4>
    c7bc:	30800217 	ldw	r2,8(r6)
    c7c0:	35800017 	ldw	r22,0(r6)
    c7c4:	10002926 	beq	r2,zero,c86c <__sprint_r.part.0+0xec>
    c7c8:	2827883a 	mov	r19,r5
    c7cc:	2029883a 	mov	r20,r4
    c7d0:	b5c00104 	addi	r23,r22,4
    c7d4:	04bfffc4 	movi	r18,-1
    c7d8:	bc400017 	ldw	r17,0(r23)
    c7dc:	b4000017 	ldw	r16,0(r22)
    c7e0:	0039883a 	mov	fp,zero
    c7e4:	8822d0ba 	srli	r17,r17,2
    c7e8:	8800031e 	bne	r17,zero,c7f8 <__sprint_r.part.0+0x78>
    c7ec:	00001806 	br	c850 <__sprint_r.part.0+0xd0>
    c7f0:	84000104 	addi	r16,r16,4
    c7f4:	8f001526 	beq	r17,fp,c84c <__sprint_r.part.0+0xcc>
    c7f8:	81400017 	ldw	r5,0(r16)
    c7fc:	980d883a 	mov	r6,r19
    c800:	a009883a 	mov	r4,r20
    c804:	000e2700 	call	e270 <_fputwc_r>
    c808:	e7000044 	addi	fp,fp,1
    c80c:	14bff81e 	bne	r2,r18,c7f0 <__alt_mem_VGA_Subsystem_Char_Buf_Subsystem_Onchip_SRAM+0xf700c7f0>
    c810:	9005883a 	mov	r2,r18
    c814:	a8000215 	stw	zero,8(r21)
    c818:	a8000115 	stw	zero,4(r21)
    c81c:	dfc00917 	ldw	ra,36(sp)
    c820:	df000817 	ldw	fp,32(sp)
    c824:	ddc00717 	ldw	r23,28(sp)
    c828:	dd800617 	ldw	r22,24(sp)
    c82c:	dd400517 	ldw	r21,20(sp)
    c830:	dd000417 	ldw	r20,16(sp)
    c834:	dcc00317 	ldw	r19,12(sp)
    c838:	dc800217 	ldw	r18,8(sp)
    c83c:	dc400117 	ldw	r17,4(sp)
    c840:	dc000017 	ldw	r16,0(sp)
    c844:	dec00a04 	addi	sp,sp,40
    c848:	f800283a 	ret
    c84c:	a8800217 	ldw	r2,8(r21)
    c850:	8c63883a 	add	r17,r17,r17
    c854:	8c63883a 	add	r17,r17,r17
    c858:	1445c83a 	sub	r2,r2,r17
    c85c:	a8800215 	stw	r2,8(r21)
    c860:	b5800204 	addi	r22,r22,8
    c864:	bdc00204 	addi	r23,r23,8
    c868:	103fdb1e 	bne	r2,zero,c7d8 <__alt_mem_VGA_Subsystem_Char_Buf_Subsystem_Onchip_SRAM+0xf700c7d8>
    c86c:	0005883a 	mov	r2,zero
    c870:	003fe806 	br	c814 <__alt_mem_VGA_Subsystem_Char_Buf_Subsystem_Onchip_SRAM+0xf700c814>
    c874:	000e3700 	call	e370 <__sfvwrite_r>
    c878:	003fe606 	br	c814 <__alt_mem_VGA_Subsystem_Char_Buf_Subsystem_Onchip_SRAM+0xf700c814>

0000c87c <__sprint_r>:
    c87c:	30c00217 	ldw	r3,8(r6)
    c880:	18000126 	beq	r3,zero,c888 <__sprint_r+0xc>
    c884:	000c7801 	jmpi	c780 <__sprint_r.part.0>
    c888:	30000115 	stw	zero,4(r6)
    c88c:	0005883a 	mov	r2,zero
    c890:	f800283a 	ret

0000c894 <___vfiprintf_internal_r>:
    c894:	deffca04 	addi	sp,sp,-216
    c898:	dd403115 	stw	r21,196(sp)
    c89c:	dfc03515 	stw	ra,212(sp)
    c8a0:	df003415 	stw	fp,208(sp)
    c8a4:	ddc03315 	stw	r23,204(sp)
    c8a8:	dd803215 	stw	r22,200(sp)
    c8ac:	dd003015 	stw	r20,192(sp)
    c8b0:	dcc02f15 	stw	r19,188(sp)
    c8b4:	dc802e15 	stw	r18,184(sp)
    c8b8:	dc402d15 	stw	r17,180(sp)
    c8bc:	dc002c15 	stw	r16,176(sp)
    c8c0:	d9002115 	stw	r4,132(sp)
    c8c4:	d9402015 	stw	r5,128(sp)
    c8c8:	d9c02215 	stw	r7,136(sp)
    c8cc:	302b883a 	mov	r21,r6
    c8d0:	20000226 	beq	r4,zero,c8dc <___vfiprintf_internal_r+0x48>
    c8d4:	20800e17 	ldw	r2,56(r4)
    c8d8:	1000cf26 	beq	r2,zero,cc18 <___vfiprintf_internal_r+0x384>
    c8dc:	d8c02017 	ldw	r3,128(sp)
    c8e0:	1880030b 	ldhu	r2,12(r3)
    c8e4:	10c8000c 	andi	r3,r2,8192
    c8e8:	1800071e 	bne	r3,zero,c908 <___vfiprintf_internal_r+0x74>
    c8ec:	d9402017 	ldw	r5,128(sp)
    c8f0:	00f7ffc4 	movi	r3,-8193
    c8f4:	10880014 	ori	r2,r2,8192
    c8f8:	29001917 	ldw	r4,100(r5)
    c8fc:	2880030d 	sth	r2,12(r5)
    c900:	20c6703a 	and	r3,r4,r3
    c904:	28c01915 	stw	r3,100(r5)
    c908:	10c0020c 	andi	r3,r2,8
    c90c:	1800a526 	beq	r3,zero,cba4 <___vfiprintf_internal_r+0x310>
    c910:	d9002017 	ldw	r4,128(sp)
    c914:	20c00417 	ldw	r3,16(r4)
    c918:	1800a226 	beq	r3,zero,cba4 <___vfiprintf_internal_r+0x310>
    c91c:	1080068c 	andi	r2,r2,26
    c920:	00c00284 	movi	r3,10
    c924:	10c0a826 	beq	r2,r3,cbc8 <___vfiprintf_internal_r+0x334>
    c928:	d9001a04 	addi	r4,sp,104
    c92c:	d94019c4 	addi	r5,sp,103
    c930:	04800074 	movhi	r18,1
    c934:	2145c83a 	sub	r2,r4,r5
    c938:	948cf204 	addi	r18,r18,13256
    c93c:	d9001e15 	stw	r4,120(sp)
    c940:	d9401f15 	stw	r5,124(sp)
    c944:	dec01a15 	stw	sp,104(sp)
    c948:	d8001c15 	stw	zero,112(sp)
    c94c:	d8001b15 	stw	zero,108(sp)
    c950:	d811883a 	mov	r8,sp
    c954:	d8002615 	stw	zero,152(sp)
    c958:	d8002415 	stw	zero,144(sp)
    c95c:	d8802815 	stw	r2,160(sp)
    c960:	a82d883a 	mov	r22,r21
    c964:	b0800007 	ldb	r2,0(r22)
    c968:	10040d26 	beq	r2,zero,d9a0 <___vfiprintf_internal_r+0x110c>
    c96c:	00c00944 	movi	r3,37
    c970:	b029883a 	mov	r20,r22
    c974:	10c0021e 	bne	r2,r3,c980 <___vfiprintf_internal_r+0xec>
    c978:	00001606 	br	c9d4 <___vfiprintf_internal_r+0x140>
    c97c:	10c00326 	beq	r2,r3,c98c <___vfiprintf_internal_r+0xf8>
    c980:	a5000044 	addi	r20,r20,1
    c984:	a0800007 	ldb	r2,0(r20)
    c988:	103ffc1e 	bne	r2,zero,c97c <__alt_mem_VGA_Subsystem_Char_Buf_Subsystem_Onchip_SRAM+0xf700c97c>
    c98c:	a5a1c83a 	sub	r16,r20,r22
    c990:	80001026 	beq	r16,zero,c9d4 <___vfiprintf_internal_r+0x140>
    c994:	d8c01c17 	ldw	r3,112(sp)
    c998:	d8801b17 	ldw	r2,108(sp)
    c99c:	45800015 	stw	r22,0(r8)
    c9a0:	80c7883a 	add	r3,r16,r3
    c9a4:	10800044 	addi	r2,r2,1
    c9a8:	44000115 	stw	r16,4(r8)
    c9ac:	d8c01c15 	stw	r3,112(sp)
    c9b0:	d8801b15 	stw	r2,108(sp)
    c9b4:	010001c4 	movi	r4,7
    c9b8:	2080750e 	bge	r4,r2,cb90 <___vfiprintf_internal_r+0x2fc>
    c9bc:	1803951e 	bne	r3,zero,d814 <___vfiprintf_internal_r+0xf80>
    c9c0:	d8c02417 	ldw	r3,144(sp)
    c9c4:	d8001b15 	stw	zero,108(sp)
    c9c8:	d811883a 	mov	r8,sp
    c9cc:	1c07883a 	add	r3,r3,r16
    c9d0:	d8c02415 	stw	r3,144(sp)
    c9d4:	a0800007 	ldb	r2,0(r20)
    c9d8:	1002e026 	beq	r2,zero,d55c <___vfiprintf_internal_r+0xcc8>
    c9dc:	a5800044 	addi	r22,r20,1
    c9e0:	a0c00047 	ldb	r3,1(r20)
    c9e4:	d8001d85 	stb	zero,118(sp)
    c9e8:	0027883a 	mov	r19,zero
    c9ec:	d8002305 	stb	zero,140(sp)
    c9f0:	043fffc4 	movi	r16,-1
    c9f4:	d8002515 	stw	zero,148(sp)
    c9f8:	0023883a 	mov	r17,zero
    c9fc:	05001604 	movi	r20,88
    ca00:	05400244 	movi	r21,9
    ca04:	402f883a 	mov	r23,r8
    ca08:	b5800044 	addi	r22,r22,1
    ca0c:	18bff804 	addi	r2,r3,-32
    ca10:	a0827736 	bltu	r20,r2,d3f0 <___vfiprintf_internal_r+0xb5c>
    ca14:	100490ba 	slli	r2,r2,2
    ca18:	01000074 	movhi	r4,1
    ca1c:	21328b04 	addi	r4,r4,-13780
    ca20:	1105883a 	add	r2,r2,r4
    ca24:	10800017 	ldw	r2,0(r2)
    ca28:	1000683a 	jmp	r2
    ca2c:	0000d0f0 	cmpltui	zero,zero,835
    ca30:	0000d3f0 	cmpltui	zero,zero,847
    ca34:	0000d3f0 	cmpltui	zero,zero,847
    ca38:	0000d10c 	andi	zero,zero,836
    ca3c:	0000d3f0 	cmpltui	zero,zero,847
    ca40:	0000d3f0 	cmpltui	zero,zero,847
    ca44:	0000d3f0 	cmpltui	zero,zero,847
    ca48:	0000d3f0 	cmpltui	zero,zero,847
    ca4c:	0000d3f0 	cmpltui	zero,zero,847
    ca50:	0000d3f0 	cmpltui	zero,zero,847
    ca54:	0000d314 	movui	zero,844
    ca58:	0000d338 	rdprs	zero,zero,844
    ca5c:	0000d3f0 	cmpltui	zero,zero,847
    ca60:	0000cc30 	cmpltui	zero,zero,816
    ca64:	0000d34c 	andi	zero,zero,845
    ca68:	0000d3f0 	cmpltui	zero,zero,847
    ca6c:	0000d118 	cmpnei	zero,zero,836
    ca70:	0000d124 	muli	zero,zero,836
    ca74:	0000d124 	muli	zero,zero,836
    ca78:	0000d124 	muli	zero,zero,836
    ca7c:	0000d124 	muli	zero,zero,836
    ca80:	0000d124 	muli	zero,zero,836
    ca84:	0000d124 	muli	zero,zero,836
    ca88:	0000d124 	muli	zero,zero,836
    ca8c:	0000d124 	muli	zero,zero,836
    ca90:	0000d124 	muli	zero,zero,836
    ca94:	0000d3f0 	cmpltui	zero,zero,847
    ca98:	0000d3f0 	cmpltui	zero,zero,847
    ca9c:	0000d3f0 	cmpltui	zero,zero,847
    caa0:	0000d3f0 	cmpltui	zero,zero,847
    caa4:	0000d3f0 	cmpltui	zero,zero,847
    caa8:	0000d3f0 	cmpltui	zero,zero,847
    caac:	0000d3f0 	cmpltui	zero,zero,847
    cab0:	0000d3f0 	cmpltui	zero,zero,847
    cab4:	0000d3f0 	cmpltui	zero,zero,847
    cab8:	0000d3f0 	cmpltui	zero,zero,847
    cabc:	0000d164 	muli	zero,zero,837
    cac0:	0000d3f0 	cmpltui	zero,zero,847
    cac4:	0000d3f0 	cmpltui	zero,zero,847
    cac8:	0000d3f0 	cmpltui	zero,zero,847
    cacc:	0000d3f0 	cmpltui	zero,zero,847
    cad0:	0000d3f0 	cmpltui	zero,zero,847
    cad4:	0000d3f0 	cmpltui	zero,zero,847
    cad8:	0000d3f0 	cmpltui	zero,zero,847
    cadc:	0000d3f0 	cmpltui	zero,zero,847
    cae0:	0000d3f0 	cmpltui	zero,zero,847
    cae4:	0000d3f0 	cmpltui	zero,zero,847
    cae8:	0000d1a0 	cmpeqi	zero,zero,838
    caec:	0000d3f0 	cmpltui	zero,zero,847
    caf0:	0000d3f0 	cmpltui	zero,zero,847
    caf4:	0000d3f0 	cmpltui	zero,zero,847
    caf8:	0000d3f0 	cmpltui	zero,zero,847
    cafc:	0000d3f0 	cmpltui	zero,zero,847
    cb00:	0000d1fc 	xorhi	zero,zero,839
    cb04:	0000d3f0 	cmpltui	zero,zero,847
    cb08:	0000d3f0 	cmpltui	zero,zero,847
    cb0c:	0000d270 	cmpltui	zero,zero,841
    cb10:	0000d3f0 	cmpltui	zero,zero,847
    cb14:	0000d3f0 	cmpltui	zero,zero,847
    cb18:	0000d3f0 	cmpltui	zero,zero,847
    cb1c:	0000d3f0 	cmpltui	zero,zero,847
    cb20:	0000d3f0 	cmpltui	zero,zero,847
    cb24:	0000d3f0 	cmpltui	zero,zero,847
    cb28:	0000d3f0 	cmpltui	zero,zero,847
    cb2c:	0000d3f0 	cmpltui	zero,zero,847
    cb30:	0000d3f0 	cmpltui	zero,zero,847
    cb34:	0000d3f0 	cmpltui	zero,zero,847
    cb38:	0000d018 	cmpnei	zero,zero,832
    cb3c:	0000d048 	cmpgei	zero,zero,833
    cb40:	0000d3f0 	cmpltui	zero,zero,847
    cb44:	0000d3f0 	cmpltui	zero,zero,847
    cb48:	0000d3f0 	cmpltui	zero,zero,847
    cb4c:	0000d398 	cmpnei	zero,zero,846
    cb50:	0000d048 	cmpgei	zero,zero,833
    cb54:	0000d3f0 	cmpltui	zero,zero,847
    cb58:	0000d3f0 	cmpltui	zero,zero,847
    cb5c:	0000cef0 	cmpltui	zero,zero,827
    cb60:	0000d3f0 	cmpltui	zero,zero,847
    cb64:	0000cf04 	movi	zero,828
    cb68:	0000cf3c 	xorhi	zero,zero,828
    cb6c:	0000cc3c 	xorhi	zero,zero,816
    cb70:	0000cee4 	muli	zero,zero,827
    cb74:	0000d3f0 	cmpltui	zero,zero,847
    cb78:	0000d2b0 	cmpltui	zero,zero,842
    cb7c:	0000d3f0 	cmpltui	zero,zero,847
    cb80:	0000d2fc 	xorhi	zero,zero,843
    cb84:	0000d3f0 	cmpltui	zero,zero,847
    cb88:	0000d3f0 	cmpltui	zero,zero,847
    cb8c:	0000cfc0 	call	cfc <main+0x300>
    cb90:	42000204 	addi	r8,r8,8
    cb94:	d8c02417 	ldw	r3,144(sp)
    cb98:	1c07883a 	add	r3,r3,r16
    cb9c:	d8c02415 	stw	r3,144(sp)
    cba0:	003f8c06 	br	c9d4 <__alt_mem_VGA_Subsystem_Char_Buf_Subsystem_Onchip_SRAM+0xf700c9d4>
    cba4:	d9402017 	ldw	r5,128(sp)
    cba8:	d9002117 	ldw	r4,132(sp)
    cbac:	0007f400 	call	7f40 <__swsetup_r>
    cbb0:	1003c11e 	bne	r2,zero,dab8 <___vfiprintf_internal_r+0x1224>
    cbb4:	d9402017 	ldw	r5,128(sp)
    cbb8:	00c00284 	movi	r3,10
    cbbc:	2880030b 	ldhu	r2,12(r5)
    cbc0:	1080068c 	andi	r2,r2,26
    cbc4:	10ff581e 	bne	r2,r3,c928 <__alt_mem_VGA_Subsystem_Char_Buf_Subsystem_Onchip_SRAM+0xf700c928>
    cbc8:	d8c02017 	ldw	r3,128(sp)
    cbcc:	1880038f 	ldh	r2,14(r3)
    cbd0:	103f5516 	blt	r2,zero,c928 <__alt_mem_VGA_Subsystem_Char_Buf_Subsystem_Onchip_SRAM+0xf700c928>
    cbd4:	d9c02217 	ldw	r7,136(sp)
    cbd8:	d9002117 	ldw	r4,132(sp)
    cbdc:	a80d883a 	mov	r6,r21
    cbe0:	180b883a 	mov	r5,r3
    cbe4:	000ddbc0 	call	ddbc <__sbprintf>
    cbe8:	dfc03517 	ldw	ra,212(sp)
    cbec:	df003417 	ldw	fp,208(sp)
    cbf0:	ddc03317 	ldw	r23,204(sp)
    cbf4:	dd803217 	ldw	r22,200(sp)
    cbf8:	dd403117 	ldw	r21,196(sp)
    cbfc:	dd003017 	ldw	r20,192(sp)
    cc00:	dcc02f17 	ldw	r19,188(sp)
    cc04:	dc802e17 	ldw	r18,184(sp)
    cc08:	dc402d17 	ldw	r17,180(sp)
    cc0c:	dc002c17 	ldw	r16,176(sp)
    cc10:	dec03604 	addi	sp,sp,216
    cc14:	f800283a 	ret
    cc18:	0009f4c0 	call	9f4c <__sinit>
    cc1c:	003f2f06 	br	c8dc <__alt_mem_VGA_Subsystem_Char_Buf_Subsystem_Onchip_SRAM+0xf700c8dc>
    cc20:	d8c02517 	ldw	r3,148(sp)
    cc24:	d8802215 	stw	r2,136(sp)
    cc28:	00c7c83a 	sub	r3,zero,r3
    cc2c:	d8c02515 	stw	r3,148(sp)
    cc30:	8c400114 	ori	r17,r17,4
    cc34:	b0c00007 	ldb	r3,0(r22)
    cc38:	003f7306 	br	ca08 <__alt_mem_VGA_Subsystem_Char_Buf_Subsystem_Onchip_SRAM+0xf700ca08>
    cc3c:	00800c04 	movi	r2,48
    cc40:	d9402217 	ldw	r5,136(sp)
    cc44:	d8801d05 	stb	r2,116(sp)
    cc48:	00801e04 	movi	r2,120
    cc4c:	d8801d45 	stb	r2,117(sp)
    cc50:	d8001d85 	stb	zero,118(sp)
    cc54:	b811883a 	mov	r8,r23
    cc58:	28c00104 	addi	r3,r5,4
    cc5c:	2cc00017 	ldw	r19,0(r5)
    cc60:	0029883a 	mov	r20,zero
    cc64:	88800094 	ori	r2,r17,2
    cc68:	80032516 	blt	r16,zero,d900 <___vfiprintf_internal_r+0x106c>
    cc6c:	00bfdfc4 	movi	r2,-129
    cc70:	88a2703a 	and	r17,r17,r2
    cc74:	d8c02215 	stw	r3,136(sp)
    cc78:	8c400094 	ori	r17,r17,2
    cc7c:	98032a1e 	bne	r19,zero,d928 <___vfiprintf_internal_r+0x1094>
    cc80:	00800074 	movhi	r2,1
    cc84:	108c9104 	addi	r2,r2,12868
    cc88:	d8802615 	stw	r2,152(sp)
    cc8c:	002b883a 	mov	r21,zero
    cc90:	8001741e 	bne	r16,zero,d264 <___vfiprintf_internal_r+0x9d0>
    cc94:	0021883a 	mov	r16,zero
    cc98:	0029883a 	mov	r20,zero
    cc9c:	ddc01a04 	addi	r23,sp,104
    cca0:	8027883a 	mov	r19,r16
    cca4:	8500010e 	bge	r16,r20,ccac <___vfiprintf_internal_r+0x418>
    cca8:	a027883a 	mov	r19,r20
    ccac:	ad403fcc 	andi	r21,r21,255
    ccb0:	ad40201c 	xori	r21,r21,128
    ccb4:	ad7fe004 	addi	r21,r21,-128
    ccb8:	a8000126 	beq	r21,zero,ccc0 <___vfiprintf_internal_r+0x42c>
    ccbc:	9cc00044 	addi	r19,r19,1
    ccc0:	89c0008c 	andi	r7,r17,2
    ccc4:	38000126 	beq	r7,zero,cccc <___vfiprintf_internal_r+0x438>
    ccc8:	9cc00084 	addi	r19,r19,2
    cccc:	88c0210c 	andi	r3,r17,132
    ccd0:	1801dd1e 	bne	r3,zero,d448 <___vfiprintf_internal_r+0xbb4>
    ccd4:	d9402517 	ldw	r5,148(sp)
    ccd8:	2cebc83a 	sub	r21,r5,r19
    ccdc:	0541da0e 	bge	zero,r21,d448 <___vfiprintf_internal_r+0xbb4>
    cce0:	07000404 	movi	fp,16
    cce4:	d8801c17 	ldw	r2,112(sp)
    cce8:	e543be0e 	bge	fp,r21,dbe4 <___vfiprintf_internal_r+0x1350>
    ccec:	01400074 	movhi	r5,1
    ccf0:	294cf604 	addi	r5,r5,13272
    ccf4:	dc002715 	stw	r16,156(sp)
    ccf8:	d9801b17 	ldw	r6,108(sp)
    ccfc:	a821883a 	mov	r16,r21
    cd00:	d9402315 	stw	r5,140(sp)
    cd04:	028001c4 	movi	r10,7
    cd08:	d9c02915 	stw	r7,164(sp)
    cd0c:	182b883a 	mov	r21,r3
    cd10:	00000506 	br	cd28 <___vfiprintf_internal_r+0x494>
    cd14:	31000084 	addi	r4,r6,2
    cd18:	42000204 	addi	r8,r8,8
    cd1c:	180d883a 	mov	r6,r3
    cd20:	843ffc04 	addi	r16,r16,-16
    cd24:	e4000f0e 	bge	fp,r16,cd64 <___vfiprintf_internal_r+0x4d0>
    cd28:	01000074 	movhi	r4,1
    cd2c:	10800404 	addi	r2,r2,16
    cd30:	30c00044 	addi	r3,r6,1
    cd34:	210cf604 	addi	r4,r4,13272
    cd38:	41000015 	stw	r4,0(r8)
    cd3c:	47000115 	stw	fp,4(r8)
    cd40:	d8801c15 	stw	r2,112(sp)
    cd44:	d8c01b15 	stw	r3,108(sp)
    cd48:	50fff20e 	bge	r10,r3,cd14 <__alt_mem_VGA_Subsystem_Char_Buf_Subsystem_Onchip_SRAM+0xf700cd14>
    cd4c:	1001b21e 	bne	r2,zero,d418 <___vfiprintf_internal_r+0xb84>
    cd50:	843ffc04 	addi	r16,r16,-16
    cd54:	000d883a 	mov	r6,zero
    cd58:	01000044 	movi	r4,1
    cd5c:	d811883a 	mov	r8,sp
    cd60:	e43ff116 	blt	fp,r16,cd28 <__alt_mem_VGA_Subsystem_Char_Buf_Subsystem_Onchip_SRAM+0xf700cd28>
    cd64:	a807883a 	mov	r3,r21
    cd68:	d9c02917 	ldw	r7,164(sp)
    cd6c:	802b883a 	mov	r21,r16
    cd70:	dc002717 	ldw	r16,156(sp)
    cd74:	d9402317 	ldw	r5,140(sp)
    cd78:	a885883a 	add	r2,r21,r2
    cd7c:	45400115 	stw	r21,4(r8)
    cd80:	41400015 	stw	r5,0(r8)
    cd84:	d8801c15 	stw	r2,112(sp)
    cd88:	d9001b15 	stw	r4,108(sp)
    cd8c:	014001c4 	movi	r5,7
    cd90:	29026216 	blt	r5,r4,d71c <___vfiprintf_internal_r+0xe88>
    cd94:	d9801d87 	ldb	r6,118(sp)
    cd98:	42000204 	addi	r8,r8,8
    cd9c:	21400044 	addi	r5,r4,1
    cda0:	3001ae1e 	bne	r6,zero,d45c <___vfiprintf_internal_r+0xbc8>
    cda4:	3801bb26 	beq	r7,zero,d494 <___vfiprintf_internal_r+0xc00>
    cda8:	d9001d04 	addi	r4,sp,116
    cdac:	10800084 	addi	r2,r2,2
    cdb0:	41000015 	stw	r4,0(r8)
    cdb4:	01000084 	movi	r4,2
    cdb8:	41000115 	stw	r4,4(r8)
    cdbc:	d8801c15 	stw	r2,112(sp)
    cdc0:	d9401b15 	stw	r5,108(sp)
    cdc4:	010001c4 	movi	r4,7
    cdc8:	2142680e 	bge	r4,r5,d76c <___vfiprintf_internal_r+0xed8>
    cdcc:	1002b11e 	bne	r2,zero,d894 <___vfiprintf_internal_r+0x1000>
    cdd0:	01802004 	movi	r6,128
    cdd4:	01400044 	movi	r5,1
    cdd8:	0009883a 	mov	r4,zero
    cddc:	d811883a 	mov	r8,sp
    cde0:	1981ae1e 	bne	r3,r6,d49c <___vfiprintf_internal_r+0xc08>
    cde4:	d8c02517 	ldw	r3,148(sp)
    cde8:	1cf9c83a 	sub	fp,r3,r19
    cdec:	0701ab0e 	bge	zero,fp,d49c <___vfiprintf_internal_r+0xc08>
    cdf0:	05400404 	movi	r21,16
    cdf4:	af03a90e 	bge	r21,fp,dc9c <___vfiprintf_internal_r+0x1408>
    cdf8:	01400074 	movhi	r5,1
    cdfc:	294cf204 	addi	r5,r5,13256
    ce00:	d9402315 	stw	r5,140(sp)
    ce04:	01c001c4 	movi	r7,7
    ce08:	00000506 	br	ce20 <___vfiprintf_internal_r+0x58c>
    ce0c:	21800084 	addi	r6,r4,2
    ce10:	42000204 	addi	r8,r8,8
    ce14:	1809883a 	mov	r4,r3
    ce18:	e73ffc04 	addi	fp,fp,-16
    ce1c:	af000d0e 	bge	r21,fp,ce54 <___vfiprintf_internal_r+0x5c0>
    ce20:	10800404 	addi	r2,r2,16
    ce24:	20c00044 	addi	r3,r4,1
    ce28:	44800015 	stw	r18,0(r8)
    ce2c:	45400115 	stw	r21,4(r8)
    ce30:	d8801c15 	stw	r2,112(sp)
    ce34:	d8c01b15 	stw	r3,108(sp)
    ce38:	38fff40e 	bge	r7,r3,ce0c <__alt_mem_VGA_Subsystem_Char_Buf_Subsystem_Onchip_SRAM+0xf700ce0c>
    ce3c:	10022b1e 	bne	r2,zero,d6ec <___vfiprintf_internal_r+0xe58>
    ce40:	e73ffc04 	addi	fp,fp,-16
    ce44:	01800044 	movi	r6,1
    ce48:	0009883a 	mov	r4,zero
    ce4c:	d811883a 	mov	r8,sp
    ce50:	af3ff316 	blt	r21,fp,ce20 <__alt_mem_VGA_Subsystem_Char_Buf_Subsystem_Onchip_SRAM+0xf700ce20>
    ce54:	d8c02317 	ldw	r3,140(sp)
    ce58:	1705883a 	add	r2,r2,fp
    ce5c:	47000115 	stw	fp,4(r8)
    ce60:	40c00015 	stw	r3,0(r8)
    ce64:	d8801c15 	stw	r2,112(sp)
    ce68:	d9801b15 	stw	r6,108(sp)
    ce6c:	00c001c4 	movi	r3,7
    ce70:	19829416 	blt	r3,r6,d8c4 <___vfiprintf_internal_r+0x1030>
    ce74:	8521c83a 	sub	r16,r16,r20
    ce78:	42000204 	addi	r8,r8,8
    ce7c:	31400044 	addi	r5,r6,1
    ce80:	3009883a 	mov	r4,r6
    ce84:	04018716 	blt	zero,r16,d4a4 <___vfiprintf_internal_r+0xc10>
    ce88:	a085883a 	add	r2,r20,r2
    ce8c:	45c00015 	stw	r23,0(r8)
    ce90:	45000115 	stw	r20,4(r8)
    ce94:	d8801c15 	stw	r2,112(sp)
    ce98:	d9401b15 	stw	r5,108(sp)
    ce9c:	00c001c4 	movi	r3,7
    cea0:	1941c20e 	bge	r3,r5,d5ac <___vfiprintf_internal_r+0xd18>
    cea4:	1002531e 	bne	r2,zero,d7f4 <___vfiprintf_internal_r+0xf60>
    cea8:	d8001b15 	stw	zero,108(sp)
    ceac:	8c40010c 	andi	r17,r17,4
    ceb0:	88023226 	beq	r17,zero,d77c <___vfiprintf_internal_r+0xee8>
    ceb4:	d9002517 	ldw	r4,148(sp)
    ceb8:	24e3c83a 	sub	r17,r4,r19
    cebc:	04432916 	blt	zero,r17,db64 <___vfiprintf_internal_r+0x12d0>
    cec0:	d8802517 	ldw	r2,148(sp)
    cec4:	14c0010e 	bge	r2,r19,cecc <___vfiprintf_internal_r+0x638>
    cec8:	9805883a 	mov	r2,r19
    cecc:	d8c02417 	ldw	r3,144(sp)
    ced0:	1887883a 	add	r3,r3,r2
    ced4:	d8c02415 	stw	r3,144(sp)
    ced8:	d8001b15 	stw	zero,108(sp)
    cedc:	d811883a 	mov	r8,sp
    cee0:	003ea006 	br	c964 <__alt_mem_VGA_Subsystem_Char_Buf_Subsystem_Onchip_SRAM+0xf700c964>
    cee4:	8c400814 	ori	r17,r17,32
    cee8:	b0c00007 	ldb	r3,0(r22)
    ceec:	003ec606 	br	ca08 <__alt_mem_VGA_Subsystem_Char_Buf_Subsystem_Onchip_SRAM+0xf700ca08>
    cef0:	b0c00007 	ldb	r3,0(r22)
    cef4:	00801b04 	movi	r2,108
    cef8:	18832026 	beq	r3,r2,db7c <___vfiprintf_internal_r+0x12e8>
    cefc:	8c400414 	ori	r17,r17,16
    cf00:	003ec106 	br	ca08 <__alt_mem_VGA_Subsystem_Char_Buf_Subsystem_Onchip_SRAM+0xf700ca08>
    cf04:	9cc03fcc 	andi	r19,r19,255
    cf08:	b811883a 	mov	r8,r23
    cf0c:	9803981e 	bne	r19,zero,dd70 <___vfiprintf_internal_r+0x14dc>
    cf10:	8880080c 	andi	r2,r17,32
    cf14:	1002be26 	beq	r2,zero,da10 <___vfiprintf_internal_r+0x117c>
    cf18:	d9002217 	ldw	r4,136(sp)
    cf1c:	d9402417 	ldw	r5,144(sp)
    cf20:	20800017 	ldw	r2,0(r4)
    cf24:	2807d7fa 	srai	r3,r5,31
    cf28:	21000104 	addi	r4,r4,4
    cf2c:	d9002215 	stw	r4,136(sp)
    cf30:	11400015 	stw	r5,0(r2)
    cf34:	10c00115 	stw	r3,4(r2)
    cf38:	003e8a06 	br	c964 <__alt_mem_VGA_Subsystem_Char_Buf_Subsystem_Onchip_SRAM+0xf700c964>
    cf3c:	9cc03fcc 	andi	r19,r19,255
    cf40:	b811883a 	mov	r8,r23
    cf44:	9803871e 	bne	r19,zero,dd64 <___vfiprintf_internal_r+0x14d0>
    cf48:	8880080c 	andi	r2,r17,32
    cf4c:	10009a26 	beq	r2,zero,d1b8 <___vfiprintf_internal_r+0x924>
    cf50:	d9002217 	ldw	r4,136(sp)
    cf54:	d8001d85 	stb	zero,118(sp)
    cf58:	20800204 	addi	r2,r4,8
    cf5c:	24c00017 	ldw	r19,0(r4)
    cf60:	25000117 	ldw	r20,4(r4)
    cf64:	8002a416 	blt	r16,zero,d9f8 <___vfiprintf_internal_r+0x1164>
    cf68:	013fdfc4 	movi	r4,-129
    cf6c:	9d06b03a 	or	r3,r19,r20
    cf70:	d8802215 	stw	r2,136(sp)
    cf74:	8922703a 	and	r17,r17,r4
    cf78:	18009b26 	beq	r3,zero,d1e8 <___vfiprintf_internal_r+0x954>
    cf7c:	002b883a 	mov	r21,zero
    cf80:	ddc01a04 	addi	r23,sp,104
    cf84:	9806d0fa 	srli	r3,r19,3
    cf88:	a008977a 	slli	r4,r20,29
    cf8c:	a028d0fa 	srli	r20,r20,3
    cf90:	9cc001cc 	andi	r19,r19,7
    cf94:	98800c04 	addi	r2,r19,48
    cf98:	bdffffc4 	addi	r23,r23,-1
    cf9c:	20e6b03a 	or	r19,r4,r3
    cfa0:	b8800005 	stb	r2,0(r23)
    cfa4:	9d06b03a 	or	r3,r19,r20
    cfa8:	183ff61e 	bne	r3,zero,cf84 <__alt_mem_VGA_Subsystem_Char_Buf_Subsystem_Onchip_SRAM+0xf700cf84>
    cfac:	88c0004c 	andi	r3,r17,1
    cfb0:	18021f1e 	bne	r3,zero,d830 <___vfiprintf_internal_r+0xf9c>
    cfb4:	d9401e17 	ldw	r5,120(sp)
    cfb8:	2de9c83a 	sub	r20,r5,r23
    cfbc:	003f3806 	br	cca0 <__alt_mem_VGA_Subsystem_Char_Buf_Subsystem_Onchip_SRAM+0xf700cca0>
    cfc0:	9cc03fcc 	andi	r19,r19,255
    cfc4:	b811883a 	mov	r8,r23
    cfc8:	98034f1e 	bne	r19,zero,dd08 <___vfiprintf_internal_r+0x1474>
    cfcc:	00800074 	movhi	r2,1
    cfd0:	108c9104 	addi	r2,r2,12868
    cfd4:	d8802615 	stw	r2,152(sp)
    cfd8:	8880080c 	andi	r2,r17,32
    cfdc:	1000ac26 	beq	r2,zero,d290 <___vfiprintf_internal_r+0x9fc>
    cfe0:	d9002217 	ldw	r4,136(sp)
    cfe4:	24c00017 	ldw	r19,0(r4)
    cfe8:	25000117 	ldw	r20,4(r4)
    cfec:	21000204 	addi	r4,r4,8
    cff0:	d9002215 	stw	r4,136(sp)
    cff4:	8880004c 	andi	r2,r17,1
    cff8:	1001e726 	beq	r2,zero,d798 <___vfiprintf_internal_r+0xf04>
    cffc:	9d04b03a 	or	r2,r19,r20
    d000:	10025c1e 	bne	r2,zero,d974 <___vfiprintf_internal_r+0x10e0>
    d004:	d8001d85 	stb	zero,118(sp)
    d008:	80024416 	blt	r16,zero,d91c <___vfiprintf_internal_r+0x1088>
    d00c:	00bfdfc4 	movi	r2,-129
    d010:	88a2703a 	and	r17,r17,r2
    d014:	003f1d06 	br	cc8c <__alt_mem_VGA_Subsystem_Char_Buf_Subsystem_Onchip_SRAM+0xf700cc8c>
    d018:	d8c02217 	ldw	r3,136(sp)
    d01c:	04c00044 	movi	r19,1
    d020:	b811883a 	mov	r8,r23
    d024:	18800017 	ldw	r2,0(r3)
    d028:	18c00104 	addi	r3,r3,4
    d02c:	d8001d85 	stb	zero,118(sp)
    d030:	d8801005 	stb	r2,64(sp)
    d034:	d8c02215 	stw	r3,136(sp)
    d038:	9829883a 	mov	r20,r19
    d03c:	ddc01004 	addi	r23,sp,64
    d040:	0021883a 	mov	r16,zero
    d044:	003f1e06 	br	ccc0 <__alt_mem_VGA_Subsystem_Char_Buf_Subsystem_Onchip_SRAM+0xf700ccc0>
    d048:	9cc03fcc 	andi	r19,r19,255
    d04c:	b811883a 	mov	r8,r23
    d050:	9803331e 	bne	r19,zero,dd20 <___vfiprintf_internal_r+0x148c>
    d054:	8880080c 	andi	r2,r17,32
    d058:	10004826 	beq	r2,zero,d17c <___vfiprintf_internal_r+0x8e8>
    d05c:	d9002217 	ldw	r4,136(sp)
    d060:	20800117 	ldw	r2,4(r4)
    d064:	24c00017 	ldw	r19,0(r4)
    d068:	21000204 	addi	r4,r4,8
    d06c:	d9002215 	stw	r4,136(sp)
    d070:	1029883a 	mov	r20,r2
    d074:	10024c16 	blt	r2,zero,d9a8 <___vfiprintf_internal_r+0x1114>
    d078:	dd401d83 	ldbu	r21,118(sp)
    d07c:	80007116 	blt	r16,zero,d244 <___vfiprintf_internal_r+0x9b0>
    d080:	00ffdfc4 	movi	r3,-129
    d084:	9d04b03a 	or	r2,r19,r20
    d088:	88e2703a 	and	r17,r17,r3
    d08c:	1000d126 	beq	r2,zero,d3d4 <___vfiprintf_internal_r+0xb40>
    d090:	a0023526 	beq	r20,zero,d968 <___vfiprintf_internal_r+0x10d4>
    d094:	ddc01a04 	addi	r23,sp,104
    d098:	4039883a 	mov	fp,r8
    d09c:	9809883a 	mov	r4,r19
    d0a0:	a00b883a 	mov	r5,r20
    d0a4:	01800284 	movi	r6,10
    d0a8:	000f883a 	mov	r7,zero
    d0ac:	000f9480 	call	f948 <__umoddi3>
    d0b0:	10800c04 	addi	r2,r2,48
    d0b4:	bdffffc4 	addi	r23,r23,-1
    d0b8:	9809883a 	mov	r4,r19
    d0bc:	a00b883a 	mov	r5,r20
    d0c0:	b8800005 	stb	r2,0(r23)
    d0c4:	01800284 	movi	r6,10
    d0c8:	000f883a 	mov	r7,zero
    d0cc:	000f34c0 	call	f34c <__udivdi3>
    d0d0:	1027883a 	mov	r19,r2
    d0d4:	10c4b03a 	or	r2,r2,r3
    d0d8:	1829883a 	mov	r20,r3
    d0dc:	103fef1e 	bne	r2,zero,d09c <__alt_mem_VGA_Subsystem_Char_Buf_Subsystem_Onchip_SRAM+0xf700d09c>
    d0e0:	d9001e17 	ldw	r4,120(sp)
    d0e4:	e011883a 	mov	r8,fp
    d0e8:	25e9c83a 	sub	r20,r4,r23
    d0ec:	003eec06 	br	cca0 <__alt_mem_VGA_Subsystem_Char_Buf_Subsystem_Onchip_SRAM+0xf700cca0>
    d0f0:	d8802307 	ldb	r2,140(sp)
    d0f4:	1002361e 	bne	r2,zero,d9d0 <___vfiprintf_internal_r+0x113c>
    d0f8:	00c00804 	movi	r3,32
    d0fc:	d8c02305 	stb	r3,140(sp)
    d100:	04c00044 	movi	r19,1
    d104:	b0c00007 	ldb	r3,0(r22)
    d108:	003e3f06 	br	ca08 <__alt_mem_VGA_Subsystem_Char_Buf_Subsystem_Onchip_SRAM+0xf700ca08>
    d10c:	8c400054 	ori	r17,r17,1
    d110:	b0c00007 	ldb	r3,0(r22)
    d114:	003e3c06 	br	ca08 <__alt_mem_VGA_Subsystem_Char_Buf_Subsystem_Onchip_SRAM+0xf700ca08>
    d118:	8c402014 	ori	r17,r17,128
    d11c:	b0c00007 	ldb	r3,0(r22)
    d120:	003e3906 	br	ca08 <__alt_mem_VGA_Subsystem_Char_Buf_Subsystem_Onchip_SRAM+0xf700ca08>
    d124:	dc002715 	stw	r16,156(sp)
    d128:	d8002515 	stw	zero,148(sp)
    d12c:	1f3ff404 	addi	fp,r3,-48
    d130:	0009883a 	mov	r4,zero
    d134:	b021883a 	mov	r16,r22
    d138:	01400284 	movi	r5,10
    d13c:	00033480 	call	3348 <__mulsi3>
    d140:	80c00007 	ldb	r3,0(r16)
    d144:	e089883a 	add	r4,fp,r2
    d148:	b5800044 	addi	r22,r22,1
    d14c:	1f3ff404 	addi	fp,r3,-48
    d150:	b021883a 	mov	r16,r22
    d154:	af3ff82e 	bgeu	r21,fp,d138 <__alt_mem_VGA_Subsystem_Char_Buf_Subsystem_Onchip_SRAM+0xf700d138>
    d158:	d9002515 	stw	r4,148(sp)
    d15c:	dc002717 	ldw	r16,156(sp)
    d160:	003e2a06 	br	ca0c <__alt_mem_VGA_Subsystem_Char_Buf_Subsystem_Onchip_SRAM+0xf700ca0c>
    d164:	9cc03fcc 	andi	r19,r19,255
    d168:	b811883a 	mov	r8,r23
    d16c:	9802e91e 	bne	r19,zero,dd14 <___vfiprintf_internal_r+0x1480>
    d170:	8c400414 	ori	r17,r17,16
    d174:	8880080c 	andi	r2,r17,32
    d178:	103fb81e 	bne	r2,zero,d05c <__alt_mem_VGA_Subsystem_Char_Buf_Subsystem_Onchip_SRAM+0xf700d05c>
    d17c:	8880040c 	andi	r2,r17,16
    d180:	10022e26 	beq	r2,zero,da3c <___vfiprintf_internal_r+0x11a8>
    d184:	d9402217 	ldw	r5,136(sp)
    d188:	2cc00017 	ldw	r19,0(r5)
    d18c:	29400104 	addi	r5,r5,4
    d190:	d9402215 	stw	r5,136(sp)
    d194:	9829d7fa 	srai	r20,r19,31
    d198:	a005883a 	mov	r2,r20
    d19c:	003fb506 	br	d074 <__alt_mem_VGA_Subsystem_Char_Buf_Subsystem_Onchip_SRAM+0xf700d074>
    d1a0:	9cc03fcc 	andi	r19,r19,255
    d1a4:	b811883a 	mov	r8,r23
    d1a8:	9802fa1e 	bne	r19,zero,dd94 <___vfiprintf_internal_r+0x1500>
    d1ac:	8c400414 	ori	r17,r17,16
    d1b0:	8880080c 	andi	r2,r17,32
    d1b4:	103f661e 	bne	r2,zero,cf50 <__alt_mem_VGA_Subsystem_Char_Buf_Subsystem_Onchip_SRAM+0xf700cf50>
    d1b8:	8880040c 	andi	r2,r17,16
    d1bc:	10020626 	beq	r2,zero,d9d8 <___vfiprintf_internal_r+0x1144>
    d1c0:	d9402217 	ldw	r5,136(sp)
    d1c4:	d8001d85 	stb	zero,118(sp)
    d1c8:	0029883a 	mov	r20,zero
    d1cc:	28800104 	addi	r2,r5,4
    d1d0:	2cc00017 	ldw	r19,0(r5)
    d1d4:	80020816 	blt	r16,zero,d9f8 <___vfiprintf_internal_r+0x1164>
    d1d8:	00ffdfc4 	movi	r3,-129
    d1dc:	d8802215 	stw	r2,136(sp)
    d1e0:	88e2703a 	and	r17,r17,r3
    d1e4:	983f651e 	bne	r19,zero,cf7c <__alt_mem_VGA_Subsystem_Char_Buf_Subsystem_Onchip_SRAM+0xf700cf7c>
    d1e8:	002b883a 	mov	r21,zero
    d1ec:	8002cf26 	beq	r16,zero,dd2c <___vfiprintf_internal_r+0x1498>
    d1f0:	0027883a 	mov	r19,zero
    d1f4:	0029883a 	mov	r20,zero
    d1f8:	003f6106 	br	cf80 <__alt_mem_VGA_Subsystem_Char_Buf_Subsystem_Onchip_SRAM+0xf700cf80>
    d1fc:	9cc03fcc 	andi	r19,r19,255
    d200:	b811883a 	mov	r8,r23
    d204:	9802e01e 	bne	r19,zero,dd88 <___vfiprintf_internal_r+0x14f4>
    d208:	8c400414 	ori	r17,r17,16
    d20c:	8880080c 	andi	r2,r17,32
    d210:	1000641e 	bne	r2,zero,d3a4 <___vfiprintf_internal_r+0xb10>
    d214:	8880040c 	andi	r2,r17,16
    d218:	1001c81e 	bne	r2,zero,d93c <___vfiprintf_internal_r+0x10a8>
    d21c:	8880100c 	andi	r2,r17,64
    d220:	d8001d85 	stb	zero,118(sp)
    d224:	1002281e 	bne	r2,zero,dac8 <___vfiprintf_internal_r+0x1234>
    d228:	d9002217 	ldw	r4,136(sp)
    d22c:	0029883a 	mov	r20,zero
    d230:	20800104 	addi	r2,r4,4
    d234:	24c00017 	ldw	r19,0(r4)
    d238:	8001c60e 	bge	r16,zero,d954 <___vfiprintf_internal_r+0x10c0>
    d23c:	d8802215 	stw	r2,136(sp)
    d240:	002b883a 	mov	r21,zero
    d244:	9d04b03a 	or	r2,r19,r20
    d248:	103f911e 	bne	r2,zero,d090 <__alt_mem_VGA_Subsystem_Char_Buf_Subsystem_Onchip_SRAM+0xf700d090>
    d24c:	00800044 	movi	r2,1
    d250:	10803fcc 	andi	r2,r2,255
    d254:	00c00044 	movi	r3,1
    d258:	10c05f26 	beq	r2,r3,d3d8 <___vfiprintf_internal_r+0xb44>
    d25c:	00c00084 	movi	r3,2
    d260:	10ffe31e 	bne	r2,r3,d1f0 <__alt_mem_VGA_Subsystem_Char_Buf_Subsystem_Onchip_SRAM+0xf700d1f0>
    d264:	0027883a 	mov	r19,zero
    d268:	0029883a 	mov	r20,zero
    d26c:	00015106 	br	d7b4 <___vfiprintf_internal_r+0xf20>
    d270:	9cc03fcc 	andi	r19,r19,255
    d274:	b811883a 	mov	r8,r23
    d278:	9802c01e 	bne	r19,zero,dd7c <___vfiprintf_internal_r+0x14e8>
    d27c:	01400074 	movhi	r5,1
    d280:	294c8c04 	addi	r5,r5,12848
    d284:	d9402615 	stw	r5,152(sp)
    d288:	8880080c 	andi	r2,r17,32
    d28c:	103f541e 	bne	r2,zero,cfe0 <__alt_mem_VGA_Subsystem_Char_Buf_Subsystem_Onchip_SRAM+0xf700cfe0>
    d290:	8880040c 	andi	r2,r17,16
    d294:	1001f226 	beq	r2,zero,da60 <___vfiprintf_internal_r+0x11cc>
    d298:	d9402217 	ldw	r5,136(sp)
    d29c:	0029883a 	mov	r20,zero
    d2a0:	2cc00017 	ldw	r19,0(r5)
    d2a4:	29400104 	addi	r5,r5,4
    d2a8:	d9402215 	stw	r5,136(sp)
    d2ac:	003f5106 	br	cff4 <__alt_mem_VGA_Subsystem_Char_Buf_Subsystem_Onchip_SRAM+0xf700cff4>
    d2b0:	d8c02217 	ldw	r3,136(sp)
    d2b4:	b811883a 	mov	r8,r23
    d2b8:	d8001d85 	stb	zero,118(sp)
    d2bc:	1dc00017 	ldw	r23,0(r3)
    d2c0:	1f000104 	addi	fp,r3,4
    d2c4:	b8025926 	beq	r23,zero,dc2c <___vfiprintf_internal_r+0x1398>
    d2c8:	80023316 	blt	r16,zero,db98 <___vfiprintf_internal_r+0x1304>
    d2cc:	800d883a 	mov	r6,r16
    d2d0:	000b883a 	mov	r5,zero
    d2d4:	b809883a 	mov	r4,r23
    d2d8:	da002a15 	stw	r8,168(sp)
    d2dc:	000affc0 	call	affc <memchr>
    d2e0:	da002a17 	ldw	r8,168(sp)
    d2e4:	10026826 	beq	r2,zero,dc88 <___vfiprintf_internal_r+0x13f4>
    d2e8:	15e9c83a 	sub	r20,r2,r23
    d2ec:	dd401d83 	ldbu	r21,118(sp)
    d2f0:	df002215 	stw	fp,136(sp)
    d2f4:	0021883a 	mov	r16,zero
    d2f8:	003e6906 	br	cca0 <__alt_mem_VGA_Subsystem_Char_Buf_Subsystem_Onchip_SRAM+0xf700cca0>
    d2fc:	9cc03fcc 	andi	r19,r19,255
    d300:	b811883a 	mov	r8,r23
    d304:	983fc126 	beq	r19,zero,d20c <__alt_mem_VGA_Subsystem_Char_Buf_Subsystem_Onchip_SRAM+0xf700d20c>
    d308:	d8c02303 	ldbu	r3,140(sp)
    d30c:	d8c01d85 	stb	r3,118(sp)
    d310:	003fbe06 	br	d20c <__alt_mem_VGA_Subsystem_Char_Buf_Subsystem_Onchip_SRAM+0xf700d20c>
    d314:	d9002217 	ldw	r4,136(sp)
    d318:	d9402217 	ldw	r5,136(sp)
    d31c:	21000017 	ldw	r4,0(r4)
    d320:	28800104 	addi	r2,r5,4
    d324:	d9002515 	stw	r4,148(sp)
    d328:	203e3d16 	blt	r4,zero,cc20 <__alt_mem_VGA_Subsystem_Char_Buf_Subsystem_Onchip_SRAM+0xf700cc20>
    d32c:	d8802215 	stw	r2,136(sp)
    d330:	b0c00007 	ldb	r3,0(r22)
    d334:	003db406 	br	ca08 <__alt_mem_VGA_Subsystem_Char_Buf_Subsystem_Onchip_SRAM+0xf700ca08>
    d338:	00c00ac4 	movi	r3,43
    d33c:	d8c02305 	stb	r3,140(sp)
    d340:	04c00044 	movi	r19,1
    d344:	b0c00007 	ldb	r3,0(r22)
    d348:	003daf06 	br	ca08 <__alt_mem_VGA_Subsystem_Char_Buf_Subsystem_Onchip_SRAM+0xf700ca08>
    d34c:	b0c00007 	ldb	r3,0(r22)
    d350:	01000a84 	movi	r4,42
    d354:	b4000044 	addi	r16,r22,1
    d358:	19025e26 	beq	r3,r4,dcd4 <___vfiprintf_internal_r+0x1440>
    d35c:	1f3ff404 	addi	fp,r3,-48
    d360:	0009883a 	mov	r4,zero
    d364:	af025236 	bltu	r21,fp,dcb0 <___vfiprintf_internal_r+0x141c>
    d368:	01400284 	movi	r5,10
    d36c:	00033480 	call	3348 <__mulsi3>
    d370:	80c00007 	ldb	r3,0(r16)
    d374:	1709883a 	add	r4,r2,fp
    d378:	85800044 	addi	r22,r16,1
    d37c:	1f3ff404 	addi	fp,r3,-48
    d380:	b021883a 	mov	r16,r22
    d384:	af3ff82e 	bgeu	r21,fp,d368 <__alt_mem_VGA_Subsystem_Char_Buf_Subsystem_Onchip_SRAM+0xf700d368>
    d388:	2021883a 	mov	r16,r4
    d38c:	203d9f0e 	bge	r4,zero,ca0c <__alt_mem_VGA_Subsystem_Char_Buf_Subsystem_Onchip_SRAM+0xf700ca0c>
    d390:	043fffc4 	movi	r16,-1
    d394:	003d9d06 	br	ca0c <__alt_mem_VGA_Subsystem_Char_Buf_Subsystem_Onchip_SRAM+0xf700ca0c>
    d398:	8c401014 	ori	r17,r17,64
    d39c:	b0c00007 	ldb	r3,0(r22)
    d3a0:	003d9906 	br	ca08 <__alt_mem_VGA_Subsystem_Char_Buf_Subsystem_Onchip_SRAM+0xf700ca08>
    d3a4:	d9002217 	ldw	r4,136(sp)
    d3a8:	d8001d85 	stb	zero,118(sp)
    d3ac:	20c00204 	addi	r3,r4,8
    d3b0:	24c00017 	ldw	r19,0(r4)
    d3b4:	25000117 	ldw	r20,4(r4)
    d3b8:	8001e716 	blt	r16,zero,db58 <___vfiprintf_internal_r+0x12c4>
    d3bc:	013fdfc4 	movi	r4,-129
    d3c0:	9d04b03a 	or	r2,r19,r20
    d3c4:	d8c02215 	stw	r3,136(sp)
    d3c8:	8922703a 	and	r17,r17,r4
    d3cc:	002b883a 	mov	r21,zero
    d3d0:	103f2f1e 	bne	r2,zero,d090 <__alt_mem_VGA_Subsystem_Char_Buf_Subsystem_Onchip_SRAM+0xf700d090>
    d3d4:	803e2f26 	beq	r16,zero,cc94 <__alt_mem_VGA_Subsystem_Char_Buf_Subsystem_Onchip_SRAM+0xf700cc94>
    d3d8:	0027883a 	mov	r19,zero
    d3dc:	9cc00c04 	addi	r19,r19,48
    d3e0:	dcc019c5 	stb	r19,103(sp)
    d3e4:	dd002817 	ldw	r20,160(sp)
    d3e8:	ddc019c4 	addi	r23,sp,103
    d3ec:	003e2c06 	br	cca0 <__alt_mem_VGA_Subsystem_Char_Buf_Subsystem_Onchip_SRAM+0xf700cca0>
    d3f0:	9cc03fcc 	andi	r19,r19,255
    d3f4:	b811883a 	mov	r8,r23
    d3f8:	9802571e 	bne	r19,zero,dd58 <___vfiprintf_internal_r+0x14c4>
    d3fc:	18005726 	beq	r3,zero,d55c <___vfiprintf_internal_r+0xcc8>
    d400:	04c00044 	movi	r19,1
    d404:	d8c01005 	stb	r3,64(sp)
    d408:	d8001d85 	stb	zero,118(sp)
    d40c:	9829883a 	mov	r20,r19
    d410:	ddc01004 	addi	r23,sp,64
    d414:	003f0a06 	br	d040 <__alt_mem_VGA_Subsystem_Char_Buf_Subsystem_Onchip_SRAM+0xf700d040>
    d418:	d9402017 	ldw	r5,128(sp)
    d41c:	d9002117 	ldw	r4,132(sp)
    d420:	d9801a04 	addi	r6,sp,104
    d424:	da802a15 	stw	r10,168(sp)
    d428:	000c7800 	call	c780 <__sprint_r.part.0>
    d42c:	da802a17 	ldw	r10,168(sp)
    d430:	1000501e 	bne	r2,zero,d574 <___vfiprintf_internal_r+0xce0>
    d434:	d9801b17 	ldw	r6,108(sp)
    d438:	d8801c17 	ldw	r2,112(sp)
    d43c:	d811883a 	mov	r8,sp
    d440:	31000044 	addi	r4,r6,1
    d444:	003e3606 	br	cd20 <__alt_mem_VGA_Subsystem_Char_Buf_Subsystem_Onchip_SRAM+0xf700cd20>
    d448:	d9001b17 	ldw	r4,108(sp)
    d44c:	d8801c17 	ldw	r2,112(sp)
    d450:	21400044 	addi	r5,r4,1
    d454:	d9801d87 	ldb	r6,118(sp)
    d458:	303e5226 	beq	r6,zero,cda4 <__alt_mem_VGA_Subsystem_Char_Buf_Subsystem_Onchip_SRAM+0xf700cda4>
    d45c:	01800044 	movi	r6,1
    d460:	d9001d84 	addi	r4,sp,118
    d464:	1185883a 	add	r2,r2,r6
    d468:	41000015 	stw	r4,0(r8)
    d46c:	41800115 	stw	r6,4(r8)
    d470:	d8801c15 	stw	r2,112(sp)
    d474:	d9401b15 	stw	r5,108(sp)
    d478:	010001c4 	movi	r4,7
    d47c:	2140b00e 	bge	r4,r5,d740 <___vfiprintf_internal_r+0xeac>
    d480:	1000f61e 	bne	r2,zero,d85c <___vfiprintf_internal_r+0xfc8>
    d484:	3800b31e 	bne	r7,zero,d754 <___vfiprintf_internal_r+0xec0>
    d488:	0009883a 	mov	r4,zero
    d48c:	300b883a 	mov	r5,r6
    d490:	d811883a 	mov	r8,sp
    d494:	01802004 	movi	r6,128
    d498:	19be5226 	beq	r3,r6,cde4 <__alt_mem_VGA_Subsystem_Char_Buf_Subsystem_Onchip_SRAM+0xf700cde4>
    d49c:	8521c83a 	sub	r16,r16,r20
    d4a0:	043e790e 	bge	zero,r16,ce88 <__alt_mem_VGA_Subsystem_Char_Buf_Subsystem_Onchip_SRAM+0xf700ce88>
    d4a4:	05400404 	movi	r21,16
    d4a8:	ac01b00e 	bge	r21,r16,db6c <___vfiprintf_internal_r+0x12d8>
    d4ac:	01400074 	movhi	r5,1
    d4b0:	294cf204 	addi	r5,r5,13256
    d4b4:	d9402315 	stw	r5,140(sp)
    d4b8:	070001c4 	movi	fp,7
    d4bc:	00000506 	br	d4d4 <___vfiprintf_internal_r+0xc40>
    d4c0:	21400084 	addi	r5,r4,2
    d4c4:	42000204 	addi	r8,r8,8
    d4c8:	1809883a 	mov	r4,r3
    d4cc:	843ffc04 	addi	r16,r16,-16
    d4d0:	ac000d0e 	bge	r21,r16,d508 <___vfiprintf_internal_r+0xc74>
    d4d4:	10800404 	addi	r2,r2,16
    d4d8:	20c00044 	addi	r3,r4,1
    d4dc:	44800015 	stw	r18,0(r8)
    d4e0:	45400115 	stw	r21,4(r8)
    d4e4:	d8801c15 	stw	r2,112(sp)
    d4e8:	d8c01b15 	stw	r3,108(sp)
    d4ec:	e0fff40e 	bge	fp,r3,d4c0 <__alt_mem_VGA_Subsystem_Char_Buf_Subsystem_Onchip_SRAM+0xf700d4c0>
    d4f0:	1000101e 	bne	r2,zero,d534 <___vfiprintf_internal_r+0xca0>
    d4f4:	843ffc04 	addi	r16,r16,-16
    d4f8:	01400044 	movi	r5,1
    d4fc:	0009883a 	mov	r4,zero
    d500:	d811883a 	mov	r8,sp
    d504:	ac3ff316 	blt	r21,r16,d4d4 <__alt_mem_VGA_Subsystem_Char_Buf_Subsystem_Onchip_SRAM+0xf700d4d4>
    d508:	d8c02317 	ldw	r3,140(sp)
    d50c:	1405883a 	add	r2,r2,r16
    d510:	44000115 	stw	r16,4(r8)
    d514:	40c00015 	stw	r3,0(r8)
    d518:	d8801c15 	stw	r2,112(sp)
    d51c:	d9401b15 	stw	r5,108(sp)
    d520:	00c001c4 	movi	r3,7
    d524:	19401916 	blt	r3,r5,d58c <___vfiprintf_internal_r+0xcf8>
    d528:	42000204 	addi	r8,r8,8
    d52c:	29400044 	addi	r5,r5,1
    d530:	003e5506 	br	ce88 <__alt_mem_VGA_Subsystem_Char_Buf_Subsystem_Onchip_SRAM+0xf700ce88>
    d534:	d9402017 	ldw	r5,128(sp)
    d538:	d9002117 	ldw	r4,132(sp)
    d53c:	d9801a04 	addi	r6,sp,104
    d540:	000c7800 	call	c780 <__sprint_r.part.0>
    d544:	10000b1e 	bne	r2,zero,d574 <___vfiprintf_internal_r+0xce0>
    d548:	d9001b17 	ldw	r4,108(sp)
    d54c:	d8801c17 	ldw	r2,112(sp)
    d550:	d811883a 	mov	r8,sp
    d554:	21400044 	addi	r5,r4,1
    d558:	003fdc06 	br	d4cc <__alt_mem_VGA_Subsystem_Char_Buf_Subsystem_Onchip_SRAM+0xf700d4cc>
    d55c:	d8801c17 	ldw	r2,112(sp)
    d560:	10000426 	beq	r2,zero,d574 <___vfiprintf_internal_r+0xce0>
    d564:	d9402017 	ldw	r5,128(sp)
    d568:	d9002117 	ldw	r4,132(sp)
    d56c:	d9801a04 	addi	r6,sp,104
    d570:	000c7800 	call	c780 <__sprint_r.part.0>
    d574:	d9402017 	ldw	r5,128(sp)
    d578:	2880030b 	ldhu	r2,12(r5)
    d57c:	1080100c 	andi	r2,r2,64
    d580:	10014d1e 	bne	r2,zero,dab8 <___vfiprintf_internal_r+0x1224>
    d584:	d8802417 	ldw	r2,144(sp)
    d588:	003d9706 	br	cbe8 <__alt_mem_VGA_Subsystem_Char_Buf_Subsystem_Onchip_SRAM+0xf700cbe8>
    d58c:	1000d21e 	bne	r2,zero,d8d8 <___vfiprintf_internal_r+0x1044>
    d590:	00c00044 	movi	r3,1
    d594:	a005883a 	mov	r2,r20
    d598:	ddc00015 	stw	r23,0(sp)
    d59c:	dd000115 	stw	r20,4(sp)
    d5a0:	dd001c15 	stw	r20,112(sp)
    d5a4:	d8c01b15 	stw	r3,108(sp)
    d5a8:	d811883a 	mov	r8,sp
    d5ac:	42000204 	addi	r8,r8,8
    d5b0:	8c40010c 	andi	r17,r17,4
    d5b4:	88004026 	beq	r17,zero,d6b8 <___vfiprintf_internal_r+0xe24>
    d5b8:	d9002517 	ldw	r4,148(sp)
    d5bc:	24e3c83a 	sub	r17,r4,r19
    d5c0:	04403d0e 	bge	zero,r17,d6b8 <___vfiprintf_internal_r+0xe24>
    d5c4:	04000404 	movi	r16,16
    d5c8:	8441a90e 	bge	r16,r17,dc70 <___vfiprintf_internal_r+0x13dc>
    d5cc:	00c00074 	movhi	r3,1
    d5d0:	18ccf604 	addi	r3,r3,13272
    d5d4:	d9001b17 	ldw	r4,108(sp)
    d5d8:	d8c02315 	stw	r3,140(sp)
    d5dc:	050001c4 	movi	r20,7
    d5e0:	dd402117 	ldw	r21,132(sp)
    d5e4:	ddc02017 	ldw	r23,128(sp)
    d5e8:	00000506 	br	d600 <___vfiprintf_internal_r+0xd6c>
    d5ec:	21400084 	addi	r5,r4,2
    d5f0:	42000204 	addi	r8,r8,8
    d5f4:	1809883a 	mov	r4,r3
    d5f8:	8c7ffc04 	addi	r17,r17,-16
    d5fc:	84400f0e 	bge	r16,r17,d63c <___vfiprintf_internal_r+0xda8>
    d600:	01400074 	movhi	r5,1
    d604:	10800404 	addi	r2,r2,16
    d608:	20c00044 	addi	r3,r4,1
    d60c:	294cf604 	addi	r5,r5,13272
    d610:	41400015 	stw	r5,0(r8)
    d614:	44000115 	stw	r16,4(r8)
    d618:	d8801c15 	stw	r2,112(sp)
    d61c:	d8c01b15 	stw	r3,108(sp)
    d620:	a0fff20e 	bge	r20,r3,d5ec <__alt_mem_VGA_Subsystem_Char_Buf_Subsystem_Onchip_SRAM+0xf700d5ec>
    d624:	1000141e 	bne	r2,zero,d678 <___vfiprintf_internal_r+0xde4>
    d628:	8c7ffc04 	addi	r17,r17,-16
    d62c:	01400044 	movi	r5,1
    d630:	0009883a 	mov	r4,zero
    d634:	d811883a 	mov	r8,sp
    d638:	847ff116 	blt	r16,r17,d600 <__alt_mem_VGA_Subsystem_Char_Buf_Subsystem_Onchip_SRAM+0xf700d600>
    d63c:	d8c02317 	ldw	r3,140(sp)
    d640:	1445883a 	add	r2,r2,r17
    d644:	44400115 	stw	r17,4(r8)
    d648:	40c00015 	stw	r3,0(r8)
    d64c:	d8801c15 	stw	r2,112(sp)
    d650:	d9401b15 	stw	r5,108(sp)
    d654:	00c001c4 	movi	r3,7
    d658:	1940170e 	bge	r3,r5,d6b8 <___vfiprintf_internal_r+0xe24>
    d65c:	1000101e 	bne	r2,zero,d6a0 <___vfiprintf_internal_r+0xe0c>
    d660:	d8802517 	ldw	r2,148(sp)
    d664:	14c11616 	blt	r2,r19,dac0 <___vfiprintf_internal_r+0x122c>
    d668:	d9002417 	ldw	r4,144(sp)
    d66c:	2089883a 	add	r4,r4,r2
    d670:	d9002415 	stw	r4,144(sp)
    d674:	003e1806 	br	ced8 <__alt_mem_VGA_Subsystem_Char_Buf_Subsystem_Onchip_SRAM+0xf700ced8>
    d678:	d9801a04 	addi	r6,sp,104
    d67c:	b80b883a 	mov	r5,r23
    d680:	a809883a 	mov	r4,r21
    d684:	000c7800 	call	c780 <__sprint_r.part.0>
    d688:	103fba1e 	bne	r2,zero,d574 <__alt_mem_VGA_Subsystem_Char_Buf_Subsystem_Onchip_SRAM+0xf700d574>
    d68c:	d9001b17 	ldw	r4,108(sp)
    d690:	d8801c17 	ldw	r2,112(sp)
    d694:	d811883a 	mov	r8,sp
    d698:	21400044 	addi	r5,r4,1
    d69c:	003fd606 	br	d5f8 <__alt_mem_VGA_Subsystem_Char_Buf_Subsystem_Onchip_SRAM+0xf700d5f8>
    d6a0:	d9402017 	ldw	r5,128(sp)
    d6a4:	d9002117 	ldw	r4,132(sp)
    d6a8:	d9801a04 	addi	r6,sp,104
    d6ac:	000c7800 	call	c780 <__sprint_r.part.0>
    d6b0:	103fb01e 	bne	r2,zero,d574 <__alt_mem_VGA_Subsystem_Char_Buf_Subsystem_Onchip_SRAM+0xf700d574>
    d6b4:	d8801c17 	ldw	r2,112(sp)
    d6b8:	d8c02517 	ldw	r3,148(sp)
    d6bc:	1cc0010e 	bge	r3,r19,d6c4 <___vfiprintf_internal_r+0xe30>
    d6c0:	9807883a 	mov	r3,r19
    d6c4:	d9002417 	ldw	r4,144(sp)
    d6c8:	20c9883a 	add	r4,r4,r3
    d6cc:	d9002415 	stw	r4,144(sp)
    d6d0:	103e0126 	beq	r2,zero,ced8 <__alt_mem_VGA_Subsystem_Char_Buf_Subsystem_Onchip_SRAM+0xf700ced8>
    d6d4:	d9402017 	ldw	r5,128(sp)
    d6d8:	d9002117 	ldw	r4,132(sp)
    d6dc:	d9801a04 	addi	r6,sp,104
    d6e0:	000c7800 	call	c780 <__sprint_r.part.0>
    d6e4:	103dfc26 	beq	r2,zero,ced8 <__alt_mem_VGA_Subsystem_Char_Buf_Subsystem_Onchip_SRAM+0xf700ced8>
    d6e8:	003fa206 	br	d574 <__alt_mem_VGA_Subsystem_Char_Buf_Subsystem_Onchip_SRAM+0xf700d574>
    d6ec:	d9402017 	ldw	r5,128(sp)
    d6f0:	d9002117 	ldw	r4,132(sp)
    d6f4:	d9801a04 	addi	r6,sp,104
    d6f8:	d9c02b15 	stw	r7,172(sp)
    d6fc:	000c7800 	call	c780 <__sprint_r.part.0>
    d700:	d9c02b17 	ldw	r7,172(sp)
    d704:	103f9b1e 	bne	r2,zero,d574 <__alt_mem_VGA_Subsystem_Char_Buf_Subsystem_Onchip_SRAM+0xf700d574>
    d708:	d9001b17 	ldw	r4,108(sp)
    d70c:	d8801c17 	ldw	r2,112(sp)
    d710:	d811883a 	mov	r8,sp
    d714:	21800044 	addi	r6,r4,1
    d718:	003dbf06 	br	ce18 <__alt_mem_VGA_Subsystem_Char_Buf_Subsystem_Onchip_SRAM+0xf700ce18>
    d71c:	1000d81e 	bne	r2,zero,da80 <___vfiprintf_internal_r+0x11ec>
    d720:	d9001d87 	ldb	r4,118(sp)
    d724:	20000a26 	beq	r4,zero,d750 <___vfiprintf_internal_r+0xebc>
    d728:	00800044 	movi	r2,1
    d72c:	d9001d84 	addi	r4,sp,118
    d730:	100b883a 	mov	r5,r2
    d734:	d9000015 	stw	r4,0(sp)
    d738:	d8800115 	stw	r2,4(sp)
    d73c:	d811883a 	mov	r8,sp
    d740:	2809883a 	mov	r4,r5
    d744:	42000204 	addi	r8,r8,8
    d748:	29400044 	addi	r5,r5,1
    d74c:	003d9506 	br	cda4 <__alt_mem_VGA_Subsystem_Char_Buf_Subsystem_Onchip_SRAM+0xf700cda4>
    d750:	3800fd26 	beq	r7,zero,db48 <___vfiprintf_internal_r+0x12b4>
    d754:	00800084 	movi	r2,2
    d758:	d9001d04 	addi	r4,sp,116
    d75c:	d9000015 	stw	r4,0(sp)
    d760:	d8800115 	stw	r2,4(sp)
    d764:	01400044 	movi	r5,1
    d768:	d811883a 	mov	r8,sp
    d76c:	2809883a 	mov	r4,r5
    d770:	42000204 	addi	r8,r8,8
    d774:	29400044 	addi	r5,r5,1
    d778:	003f4606 	br	d494 <__alt_mem_VGA_Subsystem_Char_Buf_Subsystem_Onchip_SRAM+0xf700d494>
    d77c:	d8802517 	ldw	r2,148(sp)
    d780:	14c0010e 	bge	r2,r19,d788 <___vfiprintf_internal_r+0xef4>
    d784:	9805883a 	mov	r2,r19
    d788:	d9402417 	ldw	r5,144(sp)
    d78c:	288b883a 	add	r5,r5,r2
    d790:	d9402415 	stw	r5,144(sp)
    d794:	003dd006 	br	ced8 <__alt_mem_VGA_Subsystem_Char_Buf_Subsystem_Onchip_SRAM+0xf700ced8>
    d798:	d8001d85 	stb	zero,118(sp)
    d79c:	80005d16 	blt	r16,zero,d914 <___vfiprintf_internal_r+0x1080>
    d7a0:	00ffdfc4 	movi	r3,-129
    d7a4:	9d04b03a 	or	r2,r19,r20
    d7a8:	88e2703a 	and	r17,r17,r3
    d7ac:	103d3726 	beq	r2,zero,cc8c <__alt_mem_VGA_Subsystem_Char_Buf_Subsystem_Onchip_SRAM+0xf700cc8c>
    d7b0:	002b883a 	mov	r21,zero
    d7b4:	d9002617 	ldw	r4,152(sp)
    d7b8:	ddc01a04 	addi	r23,sp,104
    d7bc:	988003cc 	andi	r2,r19,15
    d7c0:	a006973a 	slli	r3,r20,28
    d7c4:	2085883a 	add	r2,r4,r2
    d7c8:	9826d13a 	srli	r19,r19,4
    d7cc:	10800003 	ldbu	r2,0(r2)
    d7d0:	a028d13a 	srli	r20,r20,4
    d7d4:	bdffffc4 	addi	r23,r23,-1
    d7d8:	1ce6b03a 	or	r19,r3,r19
    d7dc:	b8800005 	stb	r2,0(r23)
    d7e0:	9d04b03a 	or	r2,r19,r20
    d7e4:	103ff51e 	bne	r2,zero,d7bc <__alt_mem_VGA_Subsystem_Char_Buf_Subsystem_Onchip_SRAM+0xf700d7bc>
    d7e8:	d8801e17 	ldw	r2,120(sp)
    d7ec:	15e9c83a 	sub	r20,r2,r23
    d7f0:	003d2b06 	br	cca0 <__alt_mem_VGA_Subsystem_Char_Buf_Subsystem_Onchip_SRAM+0xf700cca0>
    d7f4:	d9402017 	ldw	r5,128(sp)
    d7f8:	d9002117 	ldw	r4,132(sp)
    d7fc:	d9801a04 	addi	r6,sp,104
    d800:	000c7800 	call	c780 <__sprint_r.part.0>
    d804:	103f5b1e 	bne	r2,zero,d574 <__alt_mem_VGA_Subsystem_Char_Buf_Subsystem_Onchip_SRAM+0xf700d574>
    d808:	d8801c17 	ldw	r2,112(sp)
    d80c:	d811883a 	mov	r8,sp
    d810:	003f6706 	br	d5b0 <__alt_mem_VGA_Subsystem_Char_Buf_Subsystem_Onchip_SRAM+0xf700d5b0>
    d814:	d9402017 	ldw	r5,128(sp)
    d818:	d9002117 	ldw	r4,132(sp)
    d81c:	d9801a04 	addi	r6,sp,104
    d820:	000c7800 	call	c780 <__sprint_r.part.0>
    d824:	103f531e 	bne	r2,zero,d574 <__alt_mem_VGA_Subsystem_Char_Buf_Subsystem_Onchip_SRAM+0xf700d574>
    d828:	d811883a 	mov	r8,sp
    d82c:	003cd906 	br	cb94 <__alt_mem_VGA_Subsystem_Char_Buf_Subsystem_Onchip_SRAM+0xf700cb94>
    d830:	10803fcc 	andi	r2,r2,255
    d834:	1080201c 	xori	r2,r2,128
    d838:	10bfe004 	addi	r2,r2,-128
    d83c:	00c00c04 	movi	r3,48
    d840:	10ffe926 	beq	r2,r3,d7e8 <__alt_mem_VGA_Subsystem_Char_Buf_Subsystem_Onchip_SRAM+0xf700d7e8>
    d844:	b8ffffc5 	stb	r3,-1(r23)
    d848:	d8c01e17 	ldw	r3,120(sp)
    d84c:	b8bfffc4 	addi	r2,r23,-1
    d850:	102f883a 	mov	r23,r2
    d854:	18a9c83a 	sub	r20,r3,r2
    d858:	003d1106 	br	cca0 <__alt_mem_VGA_Subsystem_Char_Buf_Subsystem_Onchip_SRAM+0xf700cca0>
    d85c:	d9402017 	ldw	r5,128(sp)
    d860:	d9002117 	ldw	r4,132(sp)
    d864:	d9801a04 	addi	r6,sp,104
    d868:	d8c02a15 	stw	r3,168(sp)
    d86c:	d9c02b15 	stw	r7,172(sp)
    d870:	000c7800 	call	c780 <__sprint_r.part.0>
    d874:	d8c02a17 	ldw	r3,168(sp)
    d878:	d9c02b17 	ldw	r7,172(sp)
    d87c:	103f3d1e 	bne	r2,zero,d574 <__alt_mem_VGA_Subsystem_Char_Buf_Subsystem_Onchip_SRAM+0xf700d574>
    d880:	d9001b17 	ldw	r4,108(sp)
    d884:	d8801c17 	ldw	r2,112(sp)
    d888:	d811883a 	mov	r8,sp
    d88c:	21400044 	addi	r5,r4,1
    d890:	003d4406 	br	cda4 <__alt_mem_VGA_Subsystem_Char_Buf_Subsystem_Onchip_SRAM+0xf700cda4>
    d894:	d9402017 	ldw	r5,128(sp)
    d898:	d9002117 	ldw	r4,132(sp)
    d89c:	d9801a04 	addi	r6,sp,104
    d8a0:	d8c02a15 	stw	r3,168(sp)
    d8a4:	000c7800 	call	c780 <__sprint_r.part.0>
    d8a8:	d8c02a17 	ldw	r3,168(sp)
    d8ac:	103f311e 	bne	r2,zero,d574 <__alt_mem_VGA_Subsystem_Char_Buf_Subsystem_Onchip_SRAM+0xf700d574>
    d8b0:	d9001b17 	ldw	r4,108(sp)
    d8b4:	d8801c17 	ldw	r2,112(sp)
    d8b8:	d811883a 	mov	r8,sp
    d8bc:	21400044 	addi	r5,r4,1
    d8c0:	003ef406 	br	d494 <__alt_mem_VGA_Subsystem_Char_Buf_Subsystem_Onchip_SRAM+0xf700d494>
    d8c4:	1000bd1e 	bne	r2,zero,dbbc <___vfiprintf_internal_r+0x1328>
    d8c8:	01400044 	movi	r5,1
    d8cc:	0009883a 	mov	r4,zero
    d8d0:	d811883a 	mov	r8,sp
    d8d4:	003ef106 	br	d49c <__alt_mem_VGA_Subsystem_Char_Buf_Subsystem_Onchip_SRAM+0xf700d49c>
    d8d8:	d9402017 	ldw	r5,128(sp)
    d8dc:	d9002117 	ldw	r4,132(sp)
    d8e0:	d9801a04 	addi	r6,sp,104
    d8e4:	000c7800 	call	c780 <__sprint_r.part.0>
    d8e8:	103f221e 	bne	r2,zero,d574 <__alt_mem_VGA_Subsystem_Char_Buf_Subsystem_Onchip_SRAM+0xf700d574>
    d8ec:	d9401b17 	ldw	r5,108(sp)
    d8f0:	d8801c17 	ldw	r2,112(sp)
    d8f4:	d811883a 	mov	r8,sp
    d8f8:	29400044 	addi	r5,r5,1
    d8fc:	003d6206 	br	ce88 <__alt_mem_VGA_Subsystem_Char_Buf_Subsystem_Onchip_SRAM+0xf700ce88>
    d900:	01400074 	movhi	r5,1
    d904:	294c9104 	addi	r5,r5,12868
    d908:	d9402615 	stw	r5,152(sp)
    d90c:	d8c02215 	stw	r3,136(sp)
    d910:	1023883a 	mov	r17,r2
    d914:	9d04b03a 	or	r2,r19,r20
    d918:	103fa51e 	bne	r2,zero,d7b0 <__alt_mem_VGA_Subsystem_Char_Buf_Subsystem_Onchip_SRAM+0xf700d7b0>
    d91c:	002b883a 	mov	r21,zero
    d920:	00800084 	movi	r2,2
    d924:	003e4a06 	br	d250 <__alt_mem_VGA_Subsystem_Char_Buf_Subsystem_Onchip_SRAM+0xf700d250>
    d928:	01400074 	movhi	r5,1
    d92c:	294c9104 	addi	r5,r5,12868
    d930:	002b883a 	mov	r21,zero
    d934:	d9402615 	stw	r5,152(sp)
    d938:	003f9e06 	br	d7b4 <__alt_mem_VGA_Subsystem_Char_Buf_Subsystem_Onchip_SRAM+0xf700d7b4>
    d93c:	d9402217 	ldw	r5,136(sp)
    d940:	d8001d85 	stb	zero,118(sp)
    d944:	0029883a 	mov	r20,zero
    d948:	28800104 	addi	r2,r5,4
    d94c:	2cc00017 	ldw	r19,0(r5)
    d950:	803e3a16 	blt	r16,zero,d23c <__alt_mem_VGA_Subsystem_Char_Buf_Subsystem_Onchip_SRAM+0xf700d23c>
    d954:	00ffdfc4 	movi	r3,-129
    d958:	d8802215 	stw	r2,136(sp)
    d95c:	88e2703a 	and	r17,r17,r3
    d960:	002b883a 	mov	r21,zero
    d964:	983e9b26 	beq	r19,zero,d3d4 <__alt_mem_VGA_Subsystem_Char_Buf_Subsystem_Onchip_SRAM+0xf700d3d4>
    d968:	00800244 	movi	r2,9
    d96c:	14fdc936 	bltu	r2,r19,d094 <__alt_mem_VGA_Subsystem_Char_Buf_Subsystem_Onchip_SRAM+0xf700d094>
    d970:	003e9a06 	br	d3dc <__alt_mem_VGA_Subsystem_Char_Buf_Subsystem_Onchip_SRAM+0xf700d3dc>
    d974:	00800c04 	movi	r2,48
    d978:	d8c01d45 	stb	r3,117(sp)
    d97c:	d8801d05 	stb	r2,116(sp)
    d980:	d8001d85 	stb	zero,118(sp)
    d984:	88c00094 	ori	r3,r17,2
    d988:	80009c16 	blt	r16,zero,dbfc <___vfiprintf_internal_r+0x1368>
    d98c:	00bfdfc4 	movi	r2,-129
    d990:	88a2703a 	and	r17,r17,r2
    d994:	8c400094 	ori	r17,r17,2
    d998:	002b883a 	mov	r21,zero
    d99c:	003f8506 	br	d7b4 <__alt_mem_VGA_Subsystem_Char_Buf_Subsystem_Onchip_SRAM+0xf700d7b4>
    d9a0:	b029883a 	mov	r20,r22
    d9a4:	003c0b06 	br	c9d4 <__alt_mem_VGA_Subsystem_Char_Buf_Subsystem_Onchip_SRAM+0xf700c9d4>
    d9a8:	04e7c83a 	sub	r19,zero,r19
    d9ac:	05400b44 	movi	r21,45
    d9b0:	9804c03a 	cmpne	r2,r19,zero
    d9b4:	0529c83a 	sub	r20,zero,r20
    d9b8:	dd401d85 	stb	r21,118(sp)
    d9bc:	a0a9c83a 	sub	r20,r20,r2
    d9c0:	80009716 	blt	r16,zero,dc20 <___vfiprintf_internal_r+0x138c>
    d9c4:	00bfdfc4 	movi	r2,-129
    d9c8:	88a2703a 	and	r17,r17,r2
    d9cc:	003db006 	br	d090 <__alt_mem_VGA_Subsystem_Char_Buf_Subsystem_Onchip_SRAM+0xf700d090>
    d9d0:	b0c00007 	ldb	r3,0(r22)
    d9d4:	003c0c06 	br	ca08 <__alt_mem_VGA_Subsystem_Char_Buf_Subsystem_Onchip_SRAM+0xf700ca08>
    d9d8:	8880100c 	andi	r2,r17,64
    d9dc:	d8001d85 	stb	zero,118(sp)
    d9e0:	1000461e 	bne	r2,zero,dafc <___vfiprintf_internal_r+0x1268>
    d9e4:	d9002217 	ldw	r4,136(sp)
    d9e8:	0029883a 	mov	r20,zero
    d9ec:	20800104 	addi	r2,r4,4
    d9f0:	24c00017 	ldw	r19,0(r4)
    d9f4:	803df80e 	bge	r16,zero,d1d8 <__alt_mem_VGA_Subsystem_Char_Buf_Subsystem_Onchip_SRAM+0xf700d1d8>
    d9f8:	9d06b03a 	or	r3,r19,r20
    d9fc:	d8802215 	stw	r2,136(sp)
    da00:	183d5e1e 	bne	r3,zero,cf7c <__alt_mem_VGA_Subsystem_Char_Buf_Subsystem_Onchip_SRAM+0xf700cf7c>
    da04:	002b883a 	mov	r21,zero
    da08:	0005883a 	mov	r2,zero
    da0c:	003e1006 	br	d250 <__alt_mem_VGA_Subsystem_Char_Buf_Subsystem_Onchip_SRAM+0xf700d250>
    da10:	8880040c 	andi	r2,r17,16
    da14:	1000321e 	bne	r2,zero,dae0 <___vfiprintf_internal_r+0x124c>
    da18:	8c40100c 	andi	r17,r17,64
    da1c:	88008d26 	beq	r17,zero,dc54 <___vfiprintf_internal_r+0x13c0>
    da20:	d9402217 	ldw	r5,136(sp)
    da24:	d8c02417 	ldw	r3,144(sp)
    da28:	28800017 	ldw	r2,0(r5)
    da2c:	29400104 	addi	r5,r5,4
    da30:	d9402215 	stw	r5,136(sp)
    da34:	10c0000d 	sth	r3,0(r2)
    da38:	003bca06 	br	c964 <__alt_mem_VGA_Subsystem_Char_Buf_Subsystem_Onchip_SRAM+0xf700c964>
    da3c:	8880100c 	andi	r2,r17,64
    da40:	10003a26 	beq	r2,zero,db2c <___vfiprintf_internal_r+0x1298>
    da44:	d8802217 	ldw	r2,136(sp)
    da48:	14c0000f 	ldh	r19,0(r2)
    da4c:	10800104 	addi	r2,r2,4
    da50:	d8802215 	stw	r2,136(sp)
    da54:	9829d7fa 	srai	r20,r19,31
    da58:	a005883a 	mov	r2,r20
    da5c:	003d8506 	br	d074 <__alt_mem_VGA_Subsystem_Char_Buf_Subsystem_Onchip_SRAM+0xf700d074>
    da60:	8880100c 	andi	r2,r17,64
    da64:	10002b26 	beq	r2,zero,db14 <___vfiprintf_internal_r+0x1280>
    da68:	d8802217 	ldw	r2,136(sp)
    da6c:	0029883a 	mov	r20,zero
    da70:	14c0000b 	ldhu	r19,0(r2)
    da74:	10800104 	addi	r2,r2,4
    da78:	d8802215 	stw	r2,136(sp)
    da7c:	003d5d06 	br	cff4 <__alt_mem_VGA_Subsystem_Char_Buf_Subsystem_Onchip_SRAM+0xf700cff4>
    da80:	d9402017 	ldw	r5,128(sp)
    da84:	d9002117 	ldw	r4,132(sp)
    da88:	d9801a04 	addi	r6,sp,104
    da8c:	d8c02a15 	stw	r3,168(sp)
    da90:	d9c02b15 	stw	r7,172(sp)
    da94:	000c7800 	call	c780 <__sprint_r.part.0>
    da98:	d8c02a17 	ldw	r3,168(sp)
    da9c:	d9c02b17 	ldw	r7,172(sp)
    daa0:	103eb41e 	bne	r2,zero,d574 <__alt_mem_VGA_Subsystem_Char_Buf_Subsystem_Onchip_SRAM+0xf700d574>
    daa4:	d9001b17 	ldw	r4,108(sp)
    daa8:	d8801c17 	ldw	r2,112(sp)
    daac:	d811883a 	mov	r8,sp
    dab0:	21400044 	addi	r5,r4,1
    dab4:	003e6706 	br	d454 <__alt_mem_VGA_Subsystem_Char_Buf_Subsystem_Onchip_SRAM+0xf700d454>
    dab8:	00bfffc4 	movi	r2,-1
    dabc:	003c4a06 	br	cbe8 <__alt_mem_VGA_Subsystem_Char_Buf_Subsystem_Onchip_SRAM+0xf700cbe8>
    dac0:	9805883a 	mov	r2,r19
    dac4:	003ee806 	br	d668 <__alt_mem_VGA_Subsystem_Char_Buf_Subsystem_Onchip_SRAM+0xf700d668>
    dac8:	d8c02217 	ldw	r3,136(sp)
    dacc:	0029883a 	mov	r20,zero
    dad0:	18800104 	addi	r2,r3,4
    dad4:	1cc0000b 	ldhu	r19,0(r3)
    dad8:	803f9e0e 	bge	r16,zero,d954 <__alt_mem_VGA_Subsystem_Char_Buf_Subsystem_Onchip_SRAM+0xf700d954>
    dadc:	003dd706 	br	d23c <__alt_mem_VGA_Subsystem_Char_Buf_Subsystem_Onchip_SRAM+0xf700d23c>
    dae0:	d8c02217 	ldw	r3,136(sp)
    dae4:	d9002417 	ldw	r4,144(sp)
    dae8:	18800017 	ldw	r2,0(r3)
    daec:	18c00104 	addi	r3,r3,4
    daf0:	d8c02215 	stw	r3,136(sp)
    daf4:	11000015 	stw	r4,0(r2)
    daf8:	003b9a06 	br	c964 <__alt_mem_VGA_Subsystem_Char_Buf_Subsystem_Onchip_SRAM+0xf700c964>
    dafc:	d8c02217 	ldw	r3,136(sp)
    db00:	0029883a 	mov	r20,zero
    db04:	18800104 	addi	r2,r3,4
    db08:	1cc0000b 	ldhu	r19,0(r3)
    db0c:	803db20e 	bge	r16,zero,d1d8 <__alt_mem_VGA_Subsystem_Char_Buf_Subsystem_Onchip_SRAM+0xf700d1d8>
    db10:	003fb906 	br	d9f8 <__alt_mem_VGA_Subsystem_Char_Buf_Subsystem_Onchip_SRAM+0xf700d9f8>
    db14:	d9002217 	ldw	r4,136(sp)
    db18:	0029883a 	mov	r20,zero
    db1c:	24c00017 	ldw	r19,0(r4)
    db20:	21000104 	addi	r4,r4,4
    db24:	d9002215 	stw	r4,136(sp)
    db28:	003d3206 	br	cff4 <__alt_mem_VGA_Subsystem_Char_Buf_Subsystem_Onchip_SRAM+0xf700cff4>
    db2c:	d8c02217 	ldw	r3,136(sp)
    db30:	1cc00017 	ldw	r19,0(r3)
    db34:	18c00104 	addi	r3,r3,4
    db38:	d8c02215 	stw	r3,136(sp)
    db3c:	9829d7fa 	srai	r20,r19,31
    db40:	a005883a 	mov	r2,r20
    db44:	003d4b06 	br	d074 <__alt_mem_VGA_Subsystem_Char_Buf_Subsystem_Onchip_SRAM+0xf700d074>
    db48:	0009883a 	mov	r4,zero
    db4c:	01400044 	movi	r5,1
    db50:	d811883a 	mov	r8,sp
    db54:	003e4f06 	br	d494 <__alt_mem_VGA_Subsystem_Char_Buf_Subsystem_Onchip_SRAM+0xf700d494>
    db58:	d8c02215 	stw	r3,136(sp)
    db5c:	002b883a 	mov	r21,zero
    db60:	003db806 	br	d244 <__alt_mem_VGA_Subsystem_Char_Buf_Subsystem_Onchip_SRAM+0xf700d244>
    db64:	d811883a 	mov	r8,sp
    db68:	003e9606 	br	d5c4 <__alt_mem_VGA_Subsystem_Char_Buf_Subsystem_Onchip_SRAM+0xf700d5c4>
    db6c:	01000074 	movhi	r4,1
    db70:	210cf204 	addi	r4,r4,13256
    db74:	d9002315 	stw	r4,140(sp)
    db78:	003e6306 	br	d508 <__alt_mem_VGA_Subsystem_Char_Buf_Subsystem_Onchip_SRAM+0xf700d508>
    db7c:	b0c00043 	ldbu	r3,1(r22)
    db80:	8c400814 	ori	r17,r17,32
    db84:	b5800044 	addi	r22,r22,1
    db88:	18c03fcc 	andi	r3,r3,255
    db8c:	18c0201c 	xori	r3,r3,128
    db90:	18ffe004 	addi	r3,r3,-128
    db94:	003b9c06 	br	ca08 <__alt_mem_VGA_Subsystem_Char_Buf_Subsystem_Onchip_SRAM+0xf700ca08>
    db98:	b809883a 	mov	r4,r23
    db9c:	da002a15 	stw	r8,168(sp)
    dba0:	000c6e80 	call	c6e8 <strlen>
    dba4:	1029883a 	mov	r20,r2
    dba8:	dd401d83 	ldbu	r21,118(sp)
    dbac:	df002215 	stw	fp,136(sp)
    dbb0:	0021883a 	mov	r16,zero
    dbb4:	da002a17 	ldw	r8,168(sp)
    dbb8:	003c3906 	br	cca0 <__alt_mem_VGA_Subsystem_Char_Buf_Subsystem_Onchip_SRAM+0xf700cca0>
    dbbc:	d9402017 	ldw	r5,128(sp)
    dbc0:	d9002117 	ldw	r4,132(sp)
    dbc4:	d9801a04 	addi	r6,sp,104
    dbc8:	000c7800 	call	c780 <__sprint_r.part.0>
    dbcc:	103e691e 	bne	r2,zero,d574 <__alt_mem_VGA_Subsystem_Char_Buf_Subsystem_Onchip_SRAM+0xf700d574>
    dbd0:	d9001b17 	ldw	r4,108(sp)
    dbd4:	d8801c17 	ldw	r2,112(sp)
    dbd8:	d811883a 	mov	r8,sp
    dbdc:	21400044 	addi	r5,r4,1
    dbe0:	003e2e06 	br	d49c <__alt_mem_VGA_Subsystem_Char_Buf_Subsystem_Onchip_SRAM+0xf700d49c>
    dbe4:	01000074 	movhi	r4,1
    dbe8:	210cf604 	addi	r4,r4,13272
    dbec:	d9002315 	stw	r4,140(sp)
    dbf0:	d9001b17 	ldw	r4,108(sp)
    dbf4:	21000044 	addi	r4,r4,1
    dbf8:	003c5e06 	br	cd74 <__alt_mem_VGA_Subsystem_Char_Buf_Subsystem_Onchip_SRAM+0xf700cd74>
    dbfc:	002b883a 	mov	r21,zero
    dc00:	00800084 	movi	r2,2
    dc04:	10803fcc 	andi	r2,r2,255
    dc08:	01000044 	movi	r4,1
    dc0c:	11002b26 	beq	r2,r4,dcbc <___vfiprintf_internal_r+0x1428>
    dc10:	01000084 	movi	r4,2
    dc14:	11002b1e 	bne	r2,r4,dcc4 <___vfiprintf_internal_r+0x1430>
    dc18:	1823883a 	mov	r17,r3
    dc1c:	003ee506 	br	d7b4 <__alt_mem_VGA_Subsystem_Char_Buf_Subsystem_Onchip_SRAM+0xf700d7b4>
    dc20:	8807883a 	mov	r3,r17
    dc24:	00800044 	movi	r2,1
    dc28:	003ff606 	br	dc04 <__alt_mem_VGA_Subsystem_Char_Buf_Subsystem_Onchip_SRAM+0xf700dc04>
    dc2c:	00800184 	movi	r2,6
    dc30:	1400012e 	bgeu	r2,r16,dc38 <___vfiprintf_internal_r+0x13a4>
    dc34:	1021883a 	mov	r16,r2
    dc38:	8029883a 	mov	r20,r16
    dc3c:	8027883a 	mov	r19,r16
    dc40:	80002216 	blt	r16,zero,dccc <___vfiprintf_internal_r+0x1438>
    dc44:	05c00074 	movhi	r23,1
    dc48:	df002215 	stw	fp,136(sp)
    dc4c:	bdcc9604 	addi	r23,r23,12888
    dc50:	003cfb06 	br	d040 <__alt_mem_VGA_Subsystem_Char_Buf_Subsystem_Onchip_SRAM+0xf700d040>
    dc54:	d9002217 	ldw	r4,136(sp)
    dc58:	d9402417 	ldw	r5,144(sp)
    dc5c:	20800017 	ldw	r2,0(r4)
    dc60:	21000104 	addi	r4,r4,4
    dc64:	d9002215 	stw	r4,136(sp)
    dc68:	11400015 	stw	r5,0(r2)
    dc6c:	003b3d06 	br	c964 <__alt_mem_VGA_Subsystem_Char_Buf_Subsystem_Onchip_SRAM+0xf700c964>
    dc70:	01400074 	movhi	r5,1
    dc74:	294cf604 	addi	r5,r5,13272
    dc78:	d9402315 	stw	r5,140(sp)
    dc7c:	d9401b17 	ldw	r5,108(sp)
    dc80:	29400044 	addi	r5,r5,1
    dc84:	003e6d06 	br	d63c <__alt_mem_VGA_Subsystem_Char_Buf_Subsystem_Onchip_SRAM+0xf700d63c>
    dc88:	8029883a 	mov	r20,r16
    dc8c:	dd401d83 	ldbu	r21,118(sp)
    dc90:	df002215 	stw	fp,136(sp)
    dc94:	0021883a 	mov	r16,zero
    dc98:	003c0106 	br	cca0 <__alt_mem_VGA_Subsystem_Char_Buf_Subsystem_Onchip_SRAM+0xf700cca0>
    dc9c:	00c00074 	movhi	r3,1
    dca0:	18ccf204 	addi	r3,r3,13256
    dca4:	d8c02315 	stw	r3,140(sp)
    dca8:	280d883a 	mov	r6,r5
    dcac:	003c6906 	br	ce54 <__alt_mem_VGA_Subsystem_Char_Buf_Subsystem_Onchip_SRAM+0xf700ce54>
    dcb0:	802d883a 	mov	r22,r16
    dcb4:	0021883a 	mov	r16,zero
    dcb8:	003b5406 	br	ca0c <__alt_mem_VGA_Subsystem_Char_Buf_Subsystem_Onchip_SRAM+0xf700ca0c>
    dcbc:	1823883a 	mov	r17,r3
    dcc0:	003cf306 	br	d090 <__alt_mem_VGA_Subsystem_Char_Buf_Subsystem_Onchip_SRAM+0xf700d090>
    dcc4:	1823883a 	mov	r17,r3
    dcc8:	003cad06 	br	cf80 <__alt_mem_VGA_Subsystem_Char_Buf_Subsystem_Onchip_SRAM+0xf700cf80>
    dccc:	0027883a 	mov	r19,zero
    dcd0:	003fdc06 	br	dc44 <__alt_mem_VGA_Subsystem_Char_Buf_Subsystem_Onchip_SRAM+0xf700dc44>
    dcd4:	d9402217 	ldw	r5,136(sp)
    dcd8:	8005883a 	mov	r2,r16
    dcdc:	b0c00043 	ldbu	r3,1(r22)
    dce0:	2c000017 	ldw	r16,0(r5)
    dce4:	29000104 	addi	r4,r5,4
    dce8:	d9002215 	stw	r4,136(sp)
    dcec:	102d883a 	mov	r22,r2
    dcf0:	803fa50e 	bge	r16,zero,db88 <__alt_mem_VGA_Subsystem_Char_Buf_Subsystem_Onchip_SRAM+0xf700db88>
    dcf4:	18c03fcc 	andi	r3,r3,255
    dcf8:	18c0201c 	xori	r3,r3,128
    dcfc:	043fffc4 	movi	r16,-1
    dd00:	18ffe004 	addi	r3,r3,-128
    dd04:	003b4006 	br	ca08 <__alt_mem_VGA_Subsystem_Char_Buf_Subsystem_Onchip_SRAM+0xf700ca08>
    dd08:	d9402303 	ldbu	r5,140(sp)
    dd0c:	d9401d85 	stb	r5,118(sp)
    dd10:	003cae06 	br	cfcc <__alt_mem_VGA_Subsystem_Char_Buf_Subsystem_Onchip_SRAM+0xf700cfcc>
    dd14:	d8c02303 	ldbu	r3,140(sp)
    dd18:	d8c01d85 	stb	r3,118(sp)
    dd1c:	003d1406 	br	d170 <__alt_mem_VGA_Subsystem_Char_Buf_Subsystem_Onchip_SRAM+0xf700d170>
    dd20:	d8c02303 	ldbu	r3,140(sp)
    dd24:	d8c01d85 	stb	r3,118(sp)
    dd28:	003cca06 	br	d054 <__alt_mem_VGA_Subsystem_Char_Buf_Subsystem_Onchip_SRAM+0xf700d054>
    dd2c:	8880004c 	andi	r2,r17,1
    dd30:	002b883a 	mov	r21,zero
    dd34:	10000526 	beq	r2,zero,dd4c <___vfiprintf_internal_r+0x14b8>
    dd38:	00800c04 	movi	r2,48
    dd3c:	d88019c5 	stb	r2,103(sp)
    dd40:	dd002817 	ldw	r20,160(sp)
    dd44:	ddc019c4 	addi	r23,sp,103
    dd48:	003bd506 	br	cca0 <__alt_mem_VGA_Subsystem_Char_Buf_Subsystem_Onchip_SRAM+0xf700cca0>
    dd4c:	0029883a 	mov	r20,zero
    dd50:	ddc01a04 	addi	r23,sp,104
    dd54:	003bd206 	br	cca0 <__alt_mem_VGA_Subsystem_Char_Buf_Subsystem_Onchip_SRAM+0xf700cca0>
    dd58:	d9002303 	ldbu	r4,140(sp)
    dd5c:	d9001d85 	stb	r4,118(sp)
    dd60:	003da606 	br	d3fc <__alt_mem_VGA_Subsystem_Char_Buf_Subsystem_Onchip_SRAM+0xf700d3fc>
    dd64:	d8c02303 	ldbu	r3,140(sp)
    dd68:	d8c01d85 	stb	r3,118(sp)
    dd6c:	003c7606 	br	cf48 <__alt_mem_VGA_Subsystem_Char_Buf_Subsystem_Onchip_SRAM+0xf700cf48>
    dd70:	d8c02303 	ldbu	r3,140(sp)
    dd74:	d8c01d85 	stb	r3,118(sp)
    dd78:	003c6506 	br	cf10 <__alt_mem_VGA_Subsystem_Char_Buf_Subsystem_Onchip_SRAM+0xf700cf10>
    dd7c:	d9002303 	ldbu	r4,140(sp)
    dd80:	d9001d85 	stb	r4,118(sp)
    dd84:	003d3d06 	br	d27c <__alt_mem_VGA_Subsystem_Char_Buf_Subsystem_Onchip_SRAM+0xf700d27c>
    dd88:	d8c02303 	ldbu	r3,140(sp)
    dd8c:	d8c01d85 	stb	r3,118(sp)
    dd90:	003d1d06 	br	d208 <__alt_mem_VGA_Subsystem_Char_Buf_Subsystem_Onchip_SRAM+0xf700d208>
    dd94:	d8c02303 	ldbu	r3,140(sp)
    dd98:	d8c01d85 	stb	r3,118(sp)
    dd9c:	003d0306 	br	d1ac <__alt_mem_VGA_Subsystem_Char_Buf_Subsystem_Onchip_SRAM+0xf700d1ac>

0000dda0 <__vfiprintf_internal>:
    dda0:	00800074 	movhi	r2,1
    dda4:	10941104 	addi	r2,r2,20548
    dda8:	300f883a 	mov	r7,r6
    ddac:	280d883a 	mov	r6,r5
    ddb0:	200b883a 	mov	r5,r4
    ddb4:	11000017 	ldw	r4,0(r2)
    ddb8:	000c8941 	jmpi	c894 <___vfiprintf_internal_r>

0000ddbc <__sbprintf>:
    ddbc:	2880030b 	ldhu	r2,12(r5)
    ddc0:	2ac01917 	ldw	r11,100(r5)
    ddc4:	2a80038b 	ldhu	r10,14(r5)
    ddc8:	2a400717 	ldw	r9,28(r5)
    ddcc:	2a000917 	ldw	r8,36(r5)
    ddd0:	defee204 	addi	sp,sp,-1144
    ddd4:	00c10004 	movi	r3,1024
    ddd8:	dc011a15 	stw	r16,1128(sp)
    dddc:	10bfff4c 	andi	r2,r2,65533
    dde0:	2821883a 	mov	r16,r5
    dde4:	d8cb883a 	add	r5,sp,r3
    dde8:	dc811c15 	stw	r18,1136(sp)
    ddec:	dc411b15 	stw	r17,1132(sp)
    ddf0:	dfc11d15 	stw	ra,1140(sp)
    ddf4:	2025883a 	mov	r18,r4
    ddf8:	d881030d 	sth	r2,1036(sp)
    ddfc:	dac11915 	stw	r11,1124(sp)
    de00:	da81038d 	sth	r10,1038(sp)
    de04:	da410715 	stw	r9,1052(sp)
    de08:	da010915 	stw	r8,1060(sp)
    de0c:	dec10015 	stw	sp,1024(sp)
    de10:	dec10415 	stw	sp,1040(sp)
    de14:	d8c10215 	stw	r3,1032(sp)
    de18:	d8c10515 	stw	r3,1044(sp)
    de1c:	d8010615 	stw	zero,1048(sp)
    de20:	000c8940 	call	c894 <___vfiprintf_internal_r>
    de24:	1023883a 	mov	r17,r2
    de28:	10000416 	blt	r2,zero,de3c <__sbprintf+0x80>
    de2c:	d9410004 	addi	r5,sp,1024
    de30:	9009883a 	mov	r4,r18
    de34:	0009b600 	call	9b60 <_fflush_r>
    de38:	10000d1e 	bne	r2,zero,de70 <__sbprintf+0xb4>
    de3c:	d881030b 	ldhu	r2,1036(sp)
    de40:	1080100c 	andi	r2,r2,64
    de44:	10000326 	beq	r2,zero,de54 <__sbprintf+0x98>
    de48:	8080030b 	ldhu	r2,12(r16)
    de4c:	10801014 	ori	r2,r2,64
    de50:	8080030d 	sth	r2,12(r16)
    de54:	8805883a 	mov	r2,r17
    de58:	dfc11d17 	ldw	ra,1140(sp)
    de5c:	dc811c17 	ldw	r18,1136(sp)
    de60:	dc411b17 	ldw	r17,1132(sp)
    de64:	dc011a17 	ldw	r16,1128(sp)
    de68:	dec11e04 	addi	sp,sp,1144
    de6c:	f800283a 	ret
    de70:	047fffc4 	movi	r17,-1
    de74:	003ff106 	br	de3c <__alt_mem_VGA_Subsystem_Char_Buf_Subsystem_Onchip_SRAM+0xf700de3c>

0000de78 <_write_r>:
    de78:	defffd04 	addi	sp,sp,-12
    de7c:	2805883a 	mov	r2,r5
    de80:	dc000015 	stw	r16,0(sp)
    de84:	04000074 	movhi	r16,1
    de88:	dc400115 	stw	r17,4(sp)
    de8c:	300b883a 	mov	r5,r6
    de90:	841b2504 	addi	r16,r16,27796
    de94:	2023883a 	mov	r17,r4
    de98:	380d883a 	mov	r6,r7
    de9c:	1009883a 	mov	r4,r2
    dea0:	dfc00215 	stw	ra,8(sp)
    dea4:	80000015 	stw	zero,0(r16)
    dea8:	00108c40 	call	108c4 <write>
    deac:	00ffffc4 	movi	r3,-1
    deb0:	10c00526 	beq	r2,r3,dec8 <_write_r+0x50>
    deb4:	dfc00217 	ldw	ra,8(sp)
    deb8:	dc400117 	ldw	r17,4(sp)
    debc:	dc000017 	ldw	r16,0(sp)
    dec0:	dec00304 	addi	sp,sp,12
    dec4:	f800283a 	ret
    dec8:	80c00017 	ldw	r3,0(r16)
    decc:	183ff926 	beq	r3,zero,deb4 <__alt_mem_VGA_Subsystem_Char_Buf_Subsystem_Onchip_SRAM+0xf700deb4>
    ded0:	88c00015 	stw	r3,0(r17)
    ded4:	003ff706 	br	deb4 <__alt_mem_VGA_Subsystem_Char_Buf_Subsystem_Onchip_SRAM+0xf700deb4>

0000ded8 <_close_r>:
    ded8:	defffd04 	addi	sp,sp,-12
    dedc:	dc000015 	stw	r16,0(sp)
    dee0:	04000074 	movhi	r16,1
    dee4:	dc400115 	stw	r17,4(sp)
    dee8:	841b2504 	addi	r16,r16,27796
    deec:	2023883a 	mov	r17,r4
    def0:	2809883a 	mov	r4,r5
    def4:	dfc00215 	stw	ra,8(sp)
    def8:	80000015 	stw	zero,0(r16)
    defc:	001003c0 	call	1003c <close>
    df00:	00ffffc4 	movi	r3,-1
    df04:	10c00526 	beq	r2,r3,df1c <_close_r+0x44>
    df08:	dfc00217 	ldw	ra,8(sp)
    df0c:	dc400117 	ldw	r17,4(sp)
    df10:	dc000017 	ldw	r16,0(sp)
    df14:	dec00304 	addi	sp,sp,12
    df18:	f800283a 	ret
    df1c:	80c00017 	ldw	r3,0(r16)
    df20:	183ff926 	beq	r3,zero,df08 <__alt_mem_VGA_Subsystem_Char_Buf_Subsystem_Onchip_SRAM+0xf700df08>
    df24:	88c00015 	stw	r3,0(r17)
    df28:	003ff706 	br	df08 <__alt_mem_VGA_Subsystem_Char_Buf_Subsystem_Onchip_SRAM+0xf700df08>

0000df2c <_calloc_r>:
    df2c:	defffe04 	addi	sp,sp,-8
    df30:	2805883a 	mov	r2,r5
    df34:	dc000015 	stw	r16,0(sp)
    df38:	300b883a 	mov	r5,r6
    df3c:	2021883a 	mov	r16,r4
    df40:	1009883a 	mov	r4,r2
    df44:	dfc00115 	stw	ra,4(sp)
    df48:	00033480 	call	3348 <__mulsi3>
    df4c:	100b883a 	mov	r5,r2
    df50:	8009883a 	mov	r4,r16
    df54:	000a7f00 	call	a7f0 <_malloc_r>
    df58:	10002926 	beq	r2,zero,e000 <_calloc_r+0xd4>
    df5c:	11bfff17 	ldw	r6,-4(r2)
    df60:	1021883a 	mov	r16,r2
    df64:	00bfff04 	movi	r2,-4
    df68:	308c703a 	and	r6,r6,r2
    df6c:	00c00904 	movi	r3,36
    df70:	308d883a 	add	r6,r6,r2
    df74:	19801636 	bltu	r3,r6,dfd0 <_calloc_r+0xa4>
    df78:	008004c4 	movi	r2,19
    df7c:	11800b2e 	bgeu	r2,r6,dfac <_calloc_r+0x80>
    df80:	80000015 	stw	zero,0(r16)
    df84:	80000115 	stw	zero,4(r16)
    df88:	008006c4 	movi	r2,27
    df8c:	11801a2e 	bgeu	r2,r6,dff8 <_calloc_r+0xcc>
    df90:	80000215 	stw	zero,8(r16)
    df94:	80000315 	stw	zero,12(r16)
    df98:	30c0151e 	bne	r6,r3,dff0 <_calloc_r+0xc4>
    df9c:	80000415 	stw	zero,16(r16)
    dfa0:	80800604 	addi	r2,r16,24
    dfa4:	80000515 	stw	zero,20(r16)
    dfa8:	00000106 	br	dfb0 <_calloc_r+0x84>
    dfac:	8005883a 	mov	r2,r16
    dfb0:	10000015 	stw	zero,0(r2)
    dfb4:	10000115 	stw	zero,4(r2)
    dfb8:	10000215 	stw	zero,8(r2)
    dfbc:	8005883a 	mov	r2,r16
    dfc0:	dfc00117 	ldw	ra,4(sp)
    dfc4:	dc000017 	ldw	r16,0(sp)
    dfc8:	dec00204 	addi	sp,sp,8
    dfcc:	f800283a 	ret
    dfd0:	000b883a 	mov	r5,zero
    dfd4:	8009883a 	mov	r4,r16
    dfd8:	000b2280 	call	b228 <memset>
    dfdc:	8005883a 	mov	r2,r16
    dfe0:	dfc00117 	ldw	ra,4(sp)
    dfe4:	dc000017 	ldw	r16,0(sp)
    dfe8:	dec00204 	addi	sp,sp,8
    dfec:	f800283a 	ret
    dff0:	80800404 	addi	r2,r16,16
    dff4:	003fee06 	br	dfb0 <__alt_mem_VGA_Subsystem_Char_Buf_Subsystem_Onchip_SRAM+0xf700dfb0>
    dff8:	80800204 	addi	r2,r16,8
    dffc:	003fec06 	br	dfb0 <__alt_mem_VGA_Subsystem_Char_Buf_Subsystem_Onchip_SRAM+0xf700dfb0>
    e000:	0005883a 	mov	r2,zero
    e004:	003fee06 	br	dfc0 <__alt_mem_VGA_Subsystem_Char_Buf_Subsystem_Onchip_SRAM+0xf700dfc0>

0000e008 <_fclose_r>:
    e008:	28003926 	beq	r5,zero,e0f0 <_fclose_r+0xe8>
    e00c:	defffc04 	addi	sp,sp,-16
    e010:	dc400115 	stw	r17,4(sp)
    e014:	dc000015 	stw	r16,0(sp)
    e018:	dfc00315 	stw	ra,12(sp)
    e01c:	dc800215 	stw	r18,8(sp)
    e020:	2023883a 	mov	r17,r4
    e024:	2821883a 	mov	r16,r5
    e028:	20000226 	beq	r4,zero,e034 <_fclose_r+0x2c>
    e02c:	20800e17 	ldw	r2,56(r4)
    e030:	10002726 	beq	r2,zero,e0d0 <_fclose_r+0xc8>
    e034:	8080030f 	ldh	r2,12(r16)
    e038:	1000071e 	bne	r2,zero,e058 <_fclose_r+0x50>
    e03c:	0005883a 	mov	r2,zero
    e040:	dfc00317 	ldw	ra,12(sp)
    e044:	dc800217 	ldw	r18,8(sp)
    e048:	dc400117 	ldw	r17,4(sp)
    e04c:	dc000017 	ldw	r16,0(sp)
    e050:	dec00404 	addi	sp,sp,16
    e054:	f800283a 	ret
    e058:	800b883a 	mov	r5,r16
    e05c:	8809883a 	mov	r4,r17
    e060:	00099440 	call	9944 <__sflush_r>
    e064:	1025883a 	mov	r18,r2
    e068:	80800b17 	ldw	r2,44(r16)
    e06c:	10000426 	beq	r2,zero,e080 <_fclose_r+0x78>
    e070:	81400717 	ldw	r5,28(r16)
    e074:	8809883a 	mov	r4,r17
    e078:	103ee83a 	callr	r2
    e07c:	10001616 	blt	r2,zero,e0d8 <_fclose_r+0xd0>
    e080:	8080030b 	ldhu	r2,12(r16)
    e084:	1080200c 	andi	r2,r2,128
    e088:	1000151e 	bne	r2,zero,e0e0 <_fclose_r+0xd8>
    e08c:	81400c17 	ldw	r5,48(r16)
    e090:	28000526 	beq	r5,zero,e0a8 <_fclose_r+0xa0>
    e094:	80801004 	addi	r2,r16,64
    e098:	28800226 	beq	r5,r2,e0a4 <_fclose_r+0x9c>
    e09c:	8809883a 	mov	r4,r17
    e0a0:	000a0c00 	call	a0c0 <_free_r>
    e0a4:	80000c15 	stw	zero,48(r16)
    e0a8:	81401117 	ldw	r5,68(r16)
    e0ac:	28000326 	beq	r5,zero,e0bc <_fclose_r+0xb4>
    e0b0:	8809883a 	mov	r4,r17
    e0b4:	000a0c00 	call	a0c0 <_free_r>
    e0b8:	80001115 	stw	zero,68(r16)
    e0bc:	0009f5c0 	call	9f5c <__sfp_lock_acquire>
    e0c0:	8000030d 	sth	zero,12(r16)
    e0c4:	0009f600 	call	9f60 <__sfp_lock_release>
    e0c8:	9005883a 	mov	r2,r18
    e0cc:	003fdc06 	br	e040 <__alt_mem_VGA_Subsystem_Char_Buf_Subsystem_Onchip_SRAM+0xf700e040>
    e0d0:	0009f4c0 	call	9f4c <__sinit>
    e0d4:	003fd706 	br	e034 <__alt_mem_VGA_Subsystem_Char_Buf_Subsystem_Onchip_SRAM+0xf700e034>
    e0d8:	04bfffc4 	movi	r18,-1
    e0dc:	003fe806 	br	e080 <__alt_mem_VGA_Subsystem_Char_Buf_Subsystem_Onchip_SRAM+0xf700e080>
    e0e0:	81400417 	ldw	r5,16(r16)
    e0e4:	8809883a 	mov	r4,r17
    e0e8:	000a0c00 	call	a0c0 <_free_r>
    e0ec:	003fe706 	br	e08c <__alt_mem_VGA_Subsystem_Char_Buf_Subsystem_Onchip_SRAM+0xf700e08c>
    e0f0:	0005883a 	mov	r2,zero
    e0f4:	f800283a 	ret

0000e0f8 <fclose>:
    e0f8:	00800074 	movhi	r2,1
    e0fc:	10941104 	addi	r2,r2,20548
    e100:	200b883a 	mov	r5,r4
    e104:	11000017 	ldw	r4,0(r2)
    e108:	000e0081 	jmpi	e008 <_fclose_r>

0000e10c <__fputwc>:
    e10c:	defff804 	addi	sp,sp,-32
    e110:	dcc00415 	stw	r19,16(sp)
    e114:	dc800315 	stw	r18,12(sp)
    e118:	dc000115 	stw	r16,4(sp)
    e11c:	dfc00715 	stw	ra,28(sp)
    e120:	dd400615 	stw	r21,24(sp)
    e124:	dd000515 	stw	r20,20(sp)
    e128:	dc400215 	stw	r17,8(sp)
    e12c:	2027883a 	mov	r19,r4
    e130:	2825883a 	mov	r18,r5
    e134:	3021883a 	mov	r16,r6
    e138:	000a5e00 	call	a5e0 <__locale_mb_cur_max>
    e13c:	00c00044 	movi	r3,1
    e140:	10c03e26 	beq	r2,r3,e23c <__fputwc+0x130>
    e144:	81c01704 	addi	r7,r16,92
    e148:	900d883a 	mov	r6,r18
    e14c:	d80b883a 	mov	r5,sp
    e150:	9809883a 	mov	r4,r19
    e154:	000f1640 	call	f164 <_wcrtomb_r>
    e158:	1029883a 	mov	r20,r2
    e15c:	00bfffc4 	movi	r2,-1
    e160:	a0802026 	beq	r20,r2,e1e4 <__fputwc+0xd8>
    e164:	d9400003 	ldbu	r5,0(sp)
    e168:	a0001c26 	beq	r20,zero,e1dc <__fputwc+0xd0>
    e16c:	0023883a 	mov	r17,zero
    e170:	05400284 	movi	r21,10
    e174:	00000906 	br	e19c <__fputwc+0x90>
    e178:	80800017 	ldw	r2,0(r16)
    e17c:	11400005 	stb	r5,0(r2)
    e180:	80c00017 	ldw	r3,0(r16)
    e184:	18c00044 	addi	r3,r3,1
    e188:	80c00015 	stw	r3,0(r16)
    e18c:	8c400044 	addi	r17,r17,1
    e190:	dc45883a 	add	r2,sp,r17
    e194:	8d00112e 	bgeu	r17,r20,e1dc <__fputwc+0xd0>
    e198:	11400003 	ldbu	r5,0(r2)
    e19c:	80c00217 	ldw	r3,8(r16)
    e1a0:	18ffffc4 	addi	r3,r3,-1
    e1a4:	80c00215 	stw	r3,8(r16)
    e1a8:	183ff30e 	bge	r3,zero,e178 <__alt_mem_VGA_Subsystem_Char_Buf_Subsystem_Onchip_SRAM+0xf700e178>
    e1ac:	80800617 	ldw	r2,24(r16)
    e1b0:	18801916 	blt	r3,r2,e218 <__fputwc+0x10c>
    e1b4:	80800017 	ldw	r2,0(r16)
    e1b8:	11400005 	stb	r5,0(r2)
    e1bc:	80800017 	ldw	r2,0(r16)
    e1c0:	10c00003 	ldbu	r3,0(r2)
    e1c4:	10800044 	addi	r2,r2,1
    e1c8:	1d402326 	beq	r3,r21,e258 <__fputwc+0x14c>
    e1cc:	80800015 	stw	r2,0(r16)
    e1d0:	8c400044 	addi	r17,r17,1
    e1d4:	dc45883a 	add	r2,sp,r17
    e1d8:	8d3fef36 	bltu	r17,r20,e198 <__alt_mem_VGA_Subsystem_Char_Buf_Subsystem_Onchip_SRAM+0xf700e198>
    e1dc:	9005883a 	mov	r2,r18
    e1e0:	00000406 	br	e1f4 <__fputwc+0xe8>
    e1e4:	80c0030b 	ldhu	r3,12(r16)
    e1e8:	a005883a 	mov	r2,r20
    e1ec:	18c01014 	ori	r3,r3,64
    e1f0:	80c0030d 	sth	r3,12(r16)
    e1f4:	dfc00717 	ldw	ra,28(sp)
    e1f8:	dd400617 	ldw	r21,24(sp)
    e1fc:	dd000517 	ldw	r20,20(sp)
    e200:	dcc00417 	ldw	r19,16(sp)
    e204:	dc800317 	ldw	r18,12(sp)
    e208:	dc400217 	ldw	r17,8(sp)
    e20c:	dc000117 	ldw	r16,4(sp)
    e210:	dec00804 	addi	sp,sp,32
    e214:	f800283a 	ret
    e218:	800d883a 	mov	r6,r16
    e21c:	29403fcc 	andi	r5,r5,255
    e220:	9809883a 	mov	r4,r19
    e224:	000f00c0 	call	f00c <__swbuf_r>
    e228:	10bfffe0 	cmpeqi	r2,r2,-1
    e22c:	10803fcc 	andi	r2,r2,255
    e230:	103fd626 	beq	r2,zero,e18c <__alt_mem_VGA_Subsystem_Char_Buf_Subsystem_Onchip_SRAM+0xf700e18c>
    e234:	00bfffc4 	movi	r2,-1
    e238:	003fee06 	br	e1f4 <__alt_mem_VGA_Subsystem_Char_Buf_Subsystem_Onchip_SRAM+0xf700e1f4>
    e23c:	90ffffc4 	addi	r3,r18,-1
    e240:	01003f84 	movi	r4,254
    e244:	20ffbf36 	bltu	r4,r3,e144 <__alt_mem_VGA_Subsystem_Char_Buf_Subsystem_Onchip_SRAM+0xf700e144>
    e248:	900b883a 	mov	r5,r18
    e24c:	dc800005 	stb	r18,0(sp)
    e250:	1029883a 	mov	r20,r2
    e254:	003fc506 	br	e16c <__alt_mem_VGA_Subsystem_Char_Buf_Subsystem_Onchip_SRAM+0xf700e16c>
    e258:	800d883a 	mov	r6,r16
    e25c:	a80b883a 	mov	r5,r21
    e260:	9809883a 	mov	r4,r19
    e264:	000f00c0 	call	f00c <__swbuf_r>
    e268:	10bfffe0 	cmpeqi	r2,r2,-1
    e26c:	003fef06 	br	e22c <__alt_mem_VGA_Subsystem_Char_Buf_Subsystem_Onchip_SRAM+0xf700e22c>

0000e270 <_fputwc_r>:
    e270:	3080030b 	ldhu	r2,12(r6)
    e274:	10c8000c 	andi	r3,r2,8192
    e278:	1800051e 	bne	r3,zero,e290 <_fputwc_r+0x20>
    e27c:	30c01917 	ldw	r3,100(r6)
    e280:	10880014 	ori	r2,r2,8192
    e284:	3080030d 	sth	r2,12(r6)
    e288:	18880014 	ori	r2,r3,8192
    e28c:	30801915 	stw	r2,100(r6)
    e290:	000e10c1 	jmpi	e10c <__fputwc>

0000e294 <fputwc>:
    e294:	00800074 	movhi	r2,1
    e298:	defffc04 	addi	sp,sp,-16
    e29c:	10941104 	addi	r2,r2,20548
    e2a0:	dc000115 	stw	r16,4(sp)
    e2a4:	14000017 	ldw	r16,0(r2)
    e2a8:	dc400215 	stw	r17,8(sp)
    e2ac:	dfc00315 	stw	ra,12(sp)
    e2b0:	2023883a 	mov	r17,r4
    e2b4:	80000226 	beq	r16,zero,e2c0 <fputwc+0x2c>
    e2b8:	80800e17 	ldw	r2,56(r16)
    e2bc:	10001026 	beq	r2,zero,e300 <fputwc+0x6c>
    e2c0:	2880030b 	ldhu	r2,12(r5)
    e2c4:	10c8000c 	andi	r3,r2,8192
    e2c8:	1800051e 	bne	r3,zero,e2e0 <fputwc+0x4c>
    e2cc:	28c01917 	ldw	r3,100(r5)
    e2d0:	10880014 	ori	r2,r2,8192
    e2d4:	2880030d 	sth	r2,12(r5)
    e2d8:	18880014 	ori	r2,r3,8192
    e2dc:	28801915 	stw	r2,100(r5)
    e2e0:	280d883a 	mov	r6,r5
    e2e4:	8009883a 	mov	r4,r16
    e2e8:	880b883a 	mov	r5,r17
    e2ec:	dfc00317 	ldw	ra,12(sp)
    e2f0:	dc400217 	ldw	r17,8(sp)
    e2f4:	dc000117 	ldw	r16,4(sp)
    e2f8:	dec00404 	addi	sp,sp,16
    e2fc:	000e10c1 	jmpi	e10c <__fputwc>
    e300:	8009883a 	mov	r4,r16
    e304:	d9400015 	stw	r5,0(sp)
    e308:	0009f4c0 	call	9f4c <__sinit>
    e30c:	d9400017 	ldw	r5,0(sp)
    e310:	003feb06 	br	e2c0 <__alt_mem_VGA_Subsystem_Char_Buf_Subsystem_Onchip_SRAM+0xf700e2c0>

0000e314 <_fstat_r>:
    e314:	defffd04 	addi	sp,sp,-12
    e318:	2805883a 	mov	r2,r5
    e31c:	dc000015 	stw	r16,0(sp)
    e320:	04000074 	movhi	r16,1
    e324:	dc400115 	stw	r17,4(sp)
    e328:	841b2504 	addi	r16,r16,27796
    e32c:	2023883a 	mov	r17,r4
    e330:	300b883a 	mov	r5,r6
    e334:	1009883a 	mov	r4,r2
    e338:	dfc00215 	stw	ra,8(sp)
    e33c:	80000015 	stw	zero,0(r16)
    e340:	001017c0 	call	1017c <fstat>
    e344:	00ffffc4 	movi	r3,-1
    e348:	10c00526 	beq	r2,r3,e360 <_fstat_r+0x4c>
    e34c:	dfc00217 	ldw	ra,8(sp)
    e350:	dc400117 	ldw	r17,4(sp)
    e354:	dc000017 	ldw	r16,0(sp)
    e358:	dec00304 	addi	sp,sp,12
    e35c:	f800283a 	ret
    e360:	80c00017 	ldw	r3,0(r16)
    e364:	183ff926 	beq	r3,zero,e34c <__alt_mem_VGA_Subsystem_Char_Buf_Subsystem_Onchip_SRAM+0xf700e34c>
    e368:	88c00015 	stw	r3,0(r17)
    e36c:	003ff706 	br	e34c <__alt_mem_VGA_Subsystem_Char_Buf_Subsystem_Onchip_SRAM+0xf700e34c>

0000e370 <__sfvwrite_r>:
    e370:	30800217 	ldw	r2,8(r6)
    e374:	10006726 	beq	r2,zero,e514 <__sfvwrite_r+0x1a4>
    e378:	28c0030b 	ldhu	r3,12(r5)
    e37c:	defff404 	addi	sp,sp,-48
    e380:	dd400715 	stw	r21,28(sp)
    e384:	dd000615 	stw	r20,24(sp)
    e388:	dc000215 	stw	r16,8(sp)
    e38c:	dfc00b15 	stw	ra,44(sp)
    e390:	df000a15 	stw	fp,40(sp)
    e394:	ddc00915 	stw	r23,36(sp)
    e398:	dd800815 	stw	r22,32(sp)
    e39c:	dcc00515 	stw	r19,20(sp)
    e3a0:	dc800415 	stw	r18,16(sp)
    e3a4:	dc400315 	stw	r17,12(sp)
    e3a8:	1880020c 	andi	r2,r3,8
    e3ac:	2821883a 	mov	r16,r5
    e3b0:	202b883a 	mov	r21,r4
    e3b4:	3029883a 	mov	r20,r6
    e3b8:	10002726 	beq	r2,zero,e458 <__sfvwrite_r+0xe8>
    e3bc:	28800417 	ldw	r2,16(r5)
    e3c0:	10002526 	beq	r2,zero,e458 <__sfvwrite_r+0xe8>
    e3c4:	1880008c 	andi	r2,r3,2
    e3c8:	a4400017 	ldw	r17,0(r20)
    e3cc:	10002a26 	beq	r2,zero,e478 <__sfvwrite_r+0x108>
    e3d0:	05a00034 	movhi	r22,32768
    e3d4:	0027883a 	mov	r19,zero
    e3d8:	0025883a 	mov	r18,zero
    e3dc:	b5bf0004 	addi	r22,r22,-1024
    e3e0:	980d883a 	mov	r6,r19
    e3e4:	a809883a 	mov	r4,r21
    e3e8:	90004626 	beq	r18,zero,e504 <__sfvwrite_r+0x194>
    e3ec:	900f883a 	mov	r7,r18
    e3f0:	b480022e 	bgeu	r22,r18,e3fc <__sfvwrite_r+0x8c>
    e3f4:	01e00034 	movhi	r7,32768
    e3f8:	39ff0004 	addi	r7,r7,-1024
    e3fc:	80800917 	ldw	r2,36(r16)
    e400:	81400717 	ldw	r5,28(r16)
    e404:	103ee83a 	callr	r2
    e408:	00805a0e 	bge	zero,r2,e574 <__sfvwrite_r+0x204>
    e40c:	a0c00217 	ldw	r3,8(r20)
    e410:	98a7883a 	add	r19,r19,r2
    e414:	90a5c83a 	sub	r18,r18,r2
    e418:	1885c83a 	sub	r2,r3,r2
    e41c:	a0800215 	stw	r2,8(r20)
    e420:	103fef1e 	bne	r2,zero,e3e0 <__alt_mem_VGA_Subsystem_Char_Buf_Subsystem_Onchip_SRAM+0xf700e3e0>
    e424:	0005883a 	mov	r2,zero
    e428:	dfc00b17 	ldw	ra,44(sp)
    e42c:	df000a17 	ldw	fp,40(sp)
    e430:	ddc00917 	ldw	r23,36(sp)
    e434:	dd800817 	ldw	r22,32(sp)
    e438:	dd400717 	ldw	r21,28(sp)
    e43c:	dd000617 	ldw	r20,24(sp)
    e440:	dcc00517 	ldw	r19,20(sp)
    e444:	dc800417 	ldw	r18,16(sp)
    e448:	dc400317 	ldw	r17,12(sp)
    e44c:	dc000217 	ldw	r16,8(sp)
    e450:	dec00c04 	addi	sp,sp,48
    e454:	f800283a 	ret
    e458:	800b883a 	mov	r5,r16
    e45c:	a809883a 	mov	r4,r21
    e460:	0007f400 	call	7f40 <__swsetup_r>
    e464:	1000ee1e 	bne	r2,zero,e820 <__sfvwrite_r+0x4b0>
    e468:	80c0030b 	ldhu	r3,12(r16)
    e46c:	a4400017 	ldw	r17,0(r20)
    e470:	1880008c 	andi	r2,r3,2
    e474:	103fd61e 	bne	r2,zero,e3d0 <__alt_mem_VGA_Subsystem_Char_Buf_Subsystem_Onchip_SRAM+0xf700e3d0>
    e478:	1880004c 	andi	r2,r3,1
    e47c:	1000421e 	bne	r2,zero,e588 <__sfvwrite_r+0x218>
    e480:	0039883a 	mov	fp,zero
    e484:	0025883a 	mov	r18,zero
    e488:	90001a26 	beq	r18,zero,e4f4 <__sfvwrite_r+0x184>
    e48c:	1880800c 	andi	r2,r3,512
    e490:	84c00217 	ldw	r19,8(r16)
    e494:	10002126 	beq	r2,zero,e51c <__sfvwrite_r+0x1ac>
    e498:	982f883a 	mov	r23,r19
    e49c:	94c09636 	bltu	r18,r19,e6f8 <__sfvwrite_r+0x388>
    e4a0:	1881200c 	andi	r2,r3,1152
    e4a4:	1000a11e 	bne	r2,zero,e72c <__sfvwrite_r+0x3bc>
    e4a8:	81000017 	ldw	r4,0(r16)
    e4ac:	b80d883a 	mov	r6,r23
    e4b0:	e00b883a 	mov	r5,fp
    e4b4:	000e8ec0 	call	e8ec <memmove>
    e4b8:	80c00217 	ldw	r3,8(r16)
    e4bc:	81000017 	ldw	r4,0(r16)
    e4c0:	9005883a 	mov	r2,r18
    e4c4:	1ce7c83a 	sub	r19,r3,r19
    e4c8:	25cf883a 	add	r7,r4,r23
    e4cc:	84c00215 	stw	r19,8(r16)
    e4d0:	81c00015 	stw	r7,0(r16)
    e4d4:	a0c00217 	ldw	r3,8(r20)
    e4d8:	e0b9883a 	add	fp,fp,r2
    e4dc:	90a5c83a 	sub	r18,r18,r2
    e4e0:	18a7c83a 	sub	r19,r3,r2
    e4e4:	a4c00215 	stw	r19,8(r20)
    e4e8:	983fce26 	beq	r19,zero,e424 <__alt_mem_VGA_Subsystem_Char_Buf_Subsystem_Onchip_SRAM+0xf700e424>
    e4ec:	80c0030b 	ldhu	r3,12(r16)
    e4f0:	903fe61e 	bne	r18,zero,e48c <__alt_mem_VGA_Subsystem_Char_Buf_Subsystem_Onchip_SRAM+0xf700e48c>
    e4f4:	8f000017 	ldw	fp,0(r17)
    e4f8:	8c800117 	ldw	r18,4(r17)
    e4fc:	8c400204 	addi	r17,r17,8
    e500:	003fe106 	br	e488 <__alt_mem_VGA_Subsystem_Char_Buf_Subsystem_Onchip_SRAM+0xf700e488>
    e504:	8cc00017 	ldw	r19,0(r17)
    e508:	8c800117 	ldw	r18,4(r17)
    e50c:	8c400204 	addi	r17,r17,8
    e510:	003fb306 	br	e3e0 <__alt_mem_VGA_Subsystem_Char_Buf_Subsystem_Onchip_SRAM+0xf700e3e0>
    e514:	0005883a 	mov	r2,zero
    e518:	f800283a 	ret
    e51c:	81000017 	ldw	r4,0(r16)
    e520:	80800417 	ldw	r2,16(r16)
    e524:	11005a36 	bltu	r2,r4,e690 <__sfvwrite_r+0x320>
    e528:	85c00517 	ldw	r23,20(r16)
    e52c:	95c05836 	bltu	r18,r23,e690 <__sfvwrite_r+0x320>
    e530:	00a00034 	movhi	r2,32768
    e534:	10bfffc4 	addi	r2,r2,-1
    e538:	9009883a 	mov	r4,r18
    e53c:	1480012e 	bgeu	r2,r18,e544 <__sfvwrite_r+0x1d4>
    e540:	1009883a 	mov	r4,r2
    e544:	b80b883a 	mov	r5,r23
    e548:	00031940 	call	3194 <__divsi3>
    e54c:	b80b883a 	mov	r5,r23
    e550:	1009883a 	mov	r4,r2
    e554:	00033480 	call	3348 <__mulsi3>
    e558:	81400717 	ldw	r5,28(r16)
    e55c:	80c00917 	ldw	r3,36(r16)
    e560:	100f883a 	mov	r7,r2
    e564:	e00d883a 	mov	r6,fp
    e568:	a809883a 	mov	r4,r21
    e56c:	183ee83a 	callr	r3
    e570:	00bfd816 	blt	zero,r2,e4d4 <__alt_mem_VGA_Subsystem_Char_Buf_Subsystem_Onchip_SRAM+0xf700e4d4>
    e574:	8080030b 	ldhu	r2,12(r16)
    e578:	10801014 	ori	r2,r2,64
    e57c:	8080030d 	sth	r2,12(r16)
    e580:	00bfffc4 	movi	r2,-1
    e584:	003fa806 	br	e428 <__alt_mem_VGA_Subsystem_Char_Buf_Subsystem_Onchip_SRAM+0xf700e428>
    e588:	0027883a 	mov	r19,zero
    e58c:	0011883a 	mov	r8,zero
    e590:	0039883a 	mov	fp,zero
    e594:	0025883a 	mov	r18,zero
    e598:	90001f26 	beq	r18,zero,e618 <__sfvwrite_r+0x2a8>
    e59c:	40005a26 	beq	r8,zero,e708 <__sfvwrite_r+0x398>
    e5a0:	982d883a 	mov	r22,r19
    e5a4:	94c0012e 	bgeu	r18,r19,e5ac <__sfvwrite_r+0x23c>
    e5a8:	902d883a 	mov	r22,r18
    e5ac:	81000017 	ldw	r4,0(r16)
    e5b0:	80800417 	ldw	r2,16(r16)
    e5b4:	b02f883a 	mov	r23,r22
    e5b8:	81c00517 	ldw	r7,20(r16)
    e5bc:	1100032e 	bgeu	r2,r4,e5cc <__sfvwrite_r+0x25c>
    e5c0:	80c00217 	ldw	r3,8(r16)
    e5c4:	38c7883a 	add	r3,r7,r3
    e5c8:	1d801816 	blt	r3,r22,e62c <__sfvwrite_r+0x2bc>
    e5cc:	b1c03e16 	blt	r22,r7,e6c8 <__sfvwrite_r+0x358>
    e5d0:	80800917 	ldw	r2,36(r16)
    e5d4:	81400717 	ldw	r5,28(r16)
    e5d8:	e00d883a 	mov	r6,fp
    e5dc:	da000115 	stw	r8,4(sp)
    e5e0:	a809883a 	mov	r4,r21
    e5e4:	103ee83a 	callr	r2
    e5e8:	102f883a 	mov	r23,r2
    e5ec:	da000117 	ldw	r8,4(sp)
    e5f0:	00bfe00e 	bge	zero,r2,e574 <__alt_mem_VGA_Subsystem_Char_Buf_Subsystem_Onchip_SRAM+0xf700e574>
    e5f4:	9de7c83a 	sub	r19,r19,r23
    e5f8:	98001f26 	beq	r19,zero,e678 <__sfvwrite_r+0x308>
    e5fc:	a0800217 	ldw	r2,8(r20)
    e600:	e5f9883a 	add	fp,fp,r23
    e604:	95e5c83a 	sub	r18,r18,r23
    e608:	15efc83a 	sub	r23,r2,r23
    e60c:	a5c00215 	stw	r23,8(r20)
    e610:	b83f8426 	beq	r23,zero,e424 <__alt_mem_VGA_Subsystem_Char_Buf_Subsystem_Onchip_SRAM+0xf700e424>
    e614:	903fe11e 	bne	r18,zero,e59c <__alt_mem_VGA_Subsystem_Char_Buf_Subsystem_Onchip_SRAM+0xf700e59c>
    e618:	8f000017 	ldw	fp,0(r17)
    e61c:	8c800117 	ldw	r18,4(r17)
    e620:	0011883a 	mov	r8,zero
    e624:	8c400204 	addi	r17,r17,8
    e628:	003fdb06 	br	e598 <__alt_mem_VGA_Subsystem_Char_Buf_Subsystem_Onchip_SRAM+0xf700e598>
    e62c:	180d883a 	mov	r6,r3
    e630:	e00b883a 	mov	r5,fp
    e634:	da000115 	stw	r8,4(sp)
    e638:	d8c00015 	stw	r3,0(sp)
    e63c:	000e8ec0 	call	e8ec <memmove>
    e640:	d8c00017 	ldw	r3,0(sp)
    e644:	80800017 	ldw	r2,0(r16)
    e648:	800b883a 	mov	r5,r16
    e64c:	a809883a 	mov	r4,r21
    e650:	10c5883a 	add	r2,r2,r3
    e654:	80800015 	stw	r2,0(r16)
    e658:	d8c00015 	stw	r3,0(sp)
    e65c:	0009b600 	call	9b60 <_fflush_r>
    e660:	d8c00017 	ldw	r3,0(sp)
    e664:	da000117 	ldw	r8,4(sp)
    e668:	103fc21e 	bne	r2,zero,e574 <__alt_mem_VGA_Subsystem_Char_Buf_Subsystem_Onchip_SRAM+0xf700e574>
    e66c:	182f883a 	mov	r23,r3
    e670:	9de7c83a 	sub	r19,r19,r23
    e674:	983fe11e 	bne	r19,zero,e5fc <__alt_mem_VGA_Subsystem_Char_Buf_Subsystem_Onchip_SRAM+0xf700e5fc>
    e678:	800b883a 	mov	r5,r16
    e67c:	a809883a 	mov	r4,r21
    e680:	0009b600 	call	9b60 <_fflush_r>
    e684:	103fbb1e 	bne	r2,zero,e574 <__alt_mem_VGA_Subsystem_Char_Buf_Subsystem_Onchip_SRAM+0xf700e574>
    e688:	0011883a 	mov	r8,zero
    e68c:	003fdb06 	br	e5fc <__alt_mem_VGA_Subsystem_Char_Buf_Subsystem_Onchip_SRAM+0xf700e5fc>
    e690:	94c0012e 	bgeu	r18,r19,e698 <__sfvwrite_r+0x328>
    e694:	9027883a 	mov	r19,r18
    e698:	980d883a 	mov	r6,r19
    e69c:	e00b883a 	mov	r5,fp
    e6a0:	000e8ec0 	call	e8ec <memmove>
    e6a4:	80800217 	ldw	r2,8(r16)
    e6a8:	80c00017 	ldw	r3,0(r16)
    e6ac:	14c5c83a 	sub	r2,r2,r19
    e6b0:	1cc7883a 	add	r3,r3,r19
    e6b4:	80800215 	stw	r2,8(r16)
    e6b8:	80c00015 	stw	r3,0(r16)
    e6bc:	10004326 	beq	r2,zero,e7cc <__sfvwrite_r+0x45c>
    e6c0:	9805883a 	mov	r2,r19
    e6c4:	003f8306 	br	e4d4 <__alt_mem_VGA_Subsystem_Char_Buf_Subsystem_Onchip_SRAM+0xf700e4d4>
    e6c8:	b00d883a 	mov	r6,r22
    e6cc:	e00b883a 	mov	r5,fp
    e6d0:	da000115 	stw	r8,4(sp)
    e6d4:	000e8ec0 	call	e8ec <memmove>
    e6d8:	80800217 	ldw	r2,8(r16)
    e6dc:	80c00017 	ldw	r3,0(r16)
    e6e0:	da000117 	ldw	r8,4(sp)
    e6e4:	1585c83a 	sub	r2,r2,r22
    e6e8:	1dad883a 	add	r22,r3,r22
    e6ec:	80800215 	stw	r2,8(r16)
    e6f0:	85800015 	stw	r22,0(r16)
    e6f4:	003fbf06 	br	e5f4 <__alt_mem_VGA_Subsystem_Char_Buf_Subsystem_Onchip_SRAM+0xf700e5f4>
    e6f8:	81000017 	ldw	r4,0(r16)
    e6fc:	9027883a 	mov	r19,r18
    e700:	902f883a 	mov	r23,r18
    e704:	003f6906 	br	e4ac <__alt_mem_VGA_Subsystem_Char_Buf_Subsystem_Onchip_SRAM+0xf700e4ac>
    e708:	900d883a 	mov	r6,r18
    e70c:	01400284 	movi	r5,10
    e710:	e009883a 	mov	r4,fp
    e714:	000affc0 	call	affc <memchr>
    e718:	10003e26 	beq	r2,zero,e814 <__sfvwrite_r+0x4a4>
    e71c:	10800044 	addi	r2,r2,1
    e720:	1727c83a 	sub	r19,r2,fp
    e724:	02000044 	movi	r8,1
    e728:	003f9d06 	br	e5a0 <__alt_mem_VGA_Subsystem_Char_Buf_Subsystem_Onchip_SRAM+0xf700e5a0>
    e72c:	80800517 	ldw	r2,20(r16)
    e730:	81400417 	ldw	r5,16(r16)
    e734:	81c00017 	ldw	r7,0(r16)
    e738:	10a7883a 	add	r19,r2,r2
    e73c:	9885883a 	add	r2,r19,r2
    e740:	1026d7fa 	srli	r19,r2,31
    e744:	396dc83a 	sub	r22,r7,r5
    e748:	b1000044 	addi	r4,r22,1
    e74c:	9885883a 	add	r2,r19,r2
    e750:	1027d07a 	srai	r19,r2,1
    e754:	2485883a 	add	r2,r4,r18
    e758:	980d883a 	mov	r6,r19
    e75c:	9880022e 	bgeu	r19,r2,e768 <__sfvwrite_r+0x3f8>
    e760:	1027883a 	mov	r19,r2
    e764:	100d883a 	mov	r6,r2
    e768:	18c1000c 	andi	r3,r3,1024
    e76c:	18001c26 	beq	r3,zero,e7e0 <__sfvwrite_r+0x470>
    e770:	300b883a 	mov	r5,r6
    e774:	a809883a 	mov	r4,r21
    e778:	000a7f00 	call	a7f0 <_malloc_r>
    e77c:	102f883a 	mov	r23,r2
    e780:	10002926 	beq	r2,zero,e828 <__sfvwrite_r+0x4b8>
    e784:	81400417 	ldw	r5,16(r16)
    e788:	b00d883a 	mov	r6,r22
    e78c:	1009883a 	mov	r4,r2
    e790:	000b0e00 	call	b0e0 <memcpy>
    e794:	8080030b 	ldhu	r2,12(r16)
    e798:	00fedfc4 	movi	r3,-1153
    e79c:	10c4703a 	and	r2,r2,r3
    e7a0:	10802014 	ori	r2,r2,128
    e7a4:	8080030d 	sth	r2,12(r16)
    e7a8:	bd89883a 	add	r4,r23,r22
    e7ac:	9d8fc83a 	sub	r7,r19,r22
    e7b0:	85c00415 	stw	r23,16(r16)
    e7b4:	84c00515 	stw	r19,20(r16)
    e7b8:	81000015 	stw	r4,0(r16)
    e7bc:	9027883a 	mov	r19,r18
    e7c0:	81c00215 	stw	r7,8(r16)
    e7c4:	902f883a 	mov	r23,r18
    e7c8:	003f3806 	br	e4ac <__alt_mem_VGA_Subsystem_Char_Buf_Subsystem_Onchip_SRAM+0xf700e4ac>
    e7cc:	800b883a 	mov	r5,r16
    e7d0:	a809883a 	mov	r4,r21
    e7d4:	0009b600 	call	9b60 <_fflush_r>
    e7d8:	103fb926 	beq	r2,zero,e6c0 <__alt_mem_VGA_Subsystem_Char_Buf_Subsystem_Onchip_SRAM+0xf700e6c0>
    e7dc:	003f6506 	br	e574 <__alt_mem_VGA_Subsystem_Char_Buf_Subsystem_Onchip_SRAM+0xf700e574>
    e7e0:	a809883a 	mov	r4,r21
    e7e4:	000eaa80 	call	eaa8 <_realloc_r>
    e7e8:	102f883a 	mov	r23,r2
    e7ec:	103fee1e 	bne	r2,zero,e7a8 <__alt_mem_VGA_Subsystem_Char_Buf_Subsystem_Onchip_SRAM+0xf700e7a8>
    e7f0:	81400417 	ldw	r5,16(r16)
    e7f4:	a809883a 	mov	r4,r21
    e7f8:	000a0c00 	call	a0c0 <_free_r>
    e7fc:	8080030b 	ldhu	r2,12(r16)
    e800:	00ffdfc4 	movi	r3,-129
    e804:	1884703a 	and	r2,r3,r2
    e808:	00c00304 	movi	r3,12
    e80c:	a8c00015 	stw	r3,0(r21)
    e810:	003f5906 	br	e578 <__alt_mem_VGA_Subsystem_Char_Buf_Subsystem_Onchip_SRAM+0xf700e578>
    e814:	94c00044 	addi	r19,r18,1
    e818:	02000044 	movi	r8,1
    e81c:	003f6006 	br	e5a0 <__alt_mem_VGA_Subsystem_Char_Buf_Subsystem_Onchip_SRAM+0xf700e5a0>
    e820:	00bfffc4 	movi	r2,-1
    e824:	003f0006 	br	e428 <__alt_mem_VGA_Subsystem_Char_Buf_Subsystem_Onchip_SRAM+0xf700e428>
    e828:	00800304 	movi	r2,12
    e82c:	a8800015 	stw	r2,0(r21)
    e830:	8080030b 	ldhu	r2,12(r16)
    e834:	003f5006 	br	e578 <__alt_mem_VGA_Subsystem_Char_Buf_Subsystem_Onchip_SRAM+0xf700e578>

0000e838 <_isatty_r>:
    e838:	defffd04 	addi	sp,sp,-12
    e83c:	dc000015 	stw	r16,0(sp)
    e840:	04000074 	movhi	r16,1
    e844:	dc400115 	stw	r17,4(sp)
    e848:	841b2504 	addi	r16,r16,27796
    e84c:	2023883a 	mov	r17,r4
    e850:	2809883a 	mov	r4,r5
    e854:	dfc00215 	stw	ra,8(sp)
    e858:	80000015 	stw	zero,0(r16)
    e85c:	00102700 	call	10270 <isatty>
    e860:	00ffffc4 	movi	r3,-1
    e864:	10c00526 	beq	r2,r3,e87c <_isatty_r+0x44>
    e868:	dfc00217 	ldw	ra,8(sp)
    e86c:	dc400117 	ldw	r17,4(sp)
    e870:	dc000017 	ldw	r16,0(sp)
    e874:	dec00304 	addi	sp,sp,12
    e878:	f800283a 	ret
    e87c:	80c00017 	ldw	r3,0(r16)
    e880:	183ff926 	beq	r3,zero,e868 <__alt_mem_VGA_Subsystem_Char_Buf_Subsystem_Onchip_SRAM+0xf700e868>
    e884:	88c00015 	stw	r3,0(r17)
    e888:	003ff706 	br	e868 <__alt_mem_VGA_Subsystem_Char_Buf_Subsystem_Onchip_SRAM+0xf700e868>

0000e88c <_lseek_r>:
    e88c:	defffd04 	addi	sp,sp,-12
    e890:	2805883a 	mov	r2,r5
    e894:	dc000015 	stw	r16,0(sp)
    e898:	04000074 	movhi	r16,1
    e89c:	dc400115 	stw	r17,4(sp)
    e8a0:	300b883a 	mov	r5,r6
    e8a4:	841b2504 	addi	r16,r16,27796
    e8a8:	2023883a 	mov	r17,r4
    e8ac:	380d883a 	mov	r6,r7
    e8b0:	1009883a 	mov	r4,r2
    e8b4:	dfc00215 	stw	ra,8(sp)
    e8b8:	80000015 	stw	zero,0(r16)
    e8bc:	00104440 	call	10444 <lseek>
    e8c0:	00ffffc4 	movi	r3,-1
    e8c4:	10c00526 	beq	r2,r3,e8dc <_lseek_r+0x50>
    e8c8:	dfc00217 	ldw	ra,8(sp)
    e8cc:	dc400117 	ldw	r17,4(sp)
    e8d0:	dc000017 	ldw	r16,0(sp)
    e8d4:	dec00304 	addi	sp,sp,12
    e8d8:	f800283a 	ret
    e8dc:	80c00017 	ldw	r3,0(r16)
    e8e0:	183ff926 	beq	r3,zero,e8c8 <__alt_mem_VGA_Subsystem_Char_Buf_Subsystem_Onchip_SRAM+0xf700e8c8>
    e8e4:	88c00015 	stw	r3,0(r17)
    e8e8:	003ff706 	br	e8c8 <__alt_mem_VGA_Subsystem_Char_Buf_Subsystem_Onchip_SRAM+0xf700e8c8>

0000e8ec <memmove>:
    e8ec:	2005883a 	mov	r2,r4
    e8f0:	29000b2e 	bgeu	r5,r4,e920 <memmove+0x34>
    e8f4:	298f883a 	add	r7,r5,r6
    e8f8:	21c0092e 	bgeu	r4,r7,e920 <memmove+0x34>
    e8fc:	2187883a 	add	r3,r4,r6
    e900:	198bc83a 	sub	r5,r3,r6
    e904:	30004826 	beq	r6,zero,ea28 <memmove+0x13c>
    e908:	39ffffc4 	addi	r7,r7,-1
    e90c:	39000003 	ldbu	r4,0(r7)
    e910:	18ffffc4 	addi	r3,r3,-1
    e914:	19000005 	stb	r4,0(r3)
    e918:	28fffb1e 	bne	r5,r3,e908 <__alt_mem_VGA_Subsystem_Char_Buf_Subsystem_Onchip_SRAM+0xf700e908>
    e91c:	f800283a 	ret
    e920:	00c003c4 	movi	r3,15
    e924:	1980412e 	bgeu	r3,r6,ea2c <memmove+0x140>
    e928:	2886b03a 	or	r3,r5,r2
    e92c:	18c000cc 	andi	r3,r3,3
    e930:	1800401e 	bne	r3,zero,ea34 <memmove+0x148>
    e934:	33fffc04 	addi	r15,r6,-16
    e938:	781ed13a 	srli	r15,r15,4
    e93c:	28c00104 	addi	r3,r5,4
    e940:	13400104 	addi	r13,r2,4
    e944:	781c913a 	slli	r14,r15,4
    e948:	2b000204 	addi	r12,r5,8
    e94c:	12c00204 	addi	r11,r2,8
    e950:	73800504 	addi	r14,r14,20
    e954:	2a800304 	addi	r10,r5,12
    e958:	12400304 	addi	r9,r2,12
    e95c:	2b9d883a 	add	r14,r5,r14
    e960:	2811883a 	mov	r8,r5
    e964:	100f883a 	mov	r7,r2
    e968:	41000017 	ldw	r4,0(r8)
    e96c:	39c00404 	addi	r7,r7,16
    e970:	18c00404 	addi	r3,r3,16
    e974:	393ffc15 	stw	r4,-16(r7)
    e978:	193ffc17 	ldw	r4,-16(r3)
    e97c:	6b400404 	addi	r13,r13,16
    e980:	5ac00404 	addi	r11,r11,16
    e984:	693ffc15 	stw	r4,-16(r13)
    e988:	61000017 	ldw	r4,0(r12)
    e98c:	4a400404 	addi	r9,r9,16
    e990:	42000404 	addi	r8,r8,16
    e994:	593ffc15 	stw	r4,-16(r11)
    e998:	51000017 	ldw	r4,0(r10)
    e99c:	63000404 	addi	r12,r12,16
    e9a0:	52800404 	addi	r10,r10,16
    e9a4:	493ffc15 	stw	r4,-16(r9)
    e9a8:	1bbfef1e 	bne	r3,r14,e968 <__alt_mem_VGA_Subsystem_Char_Buf_Subsystem_Onchip_SRAM+0xf700e968>
    e9ac:	79000044 	addi	r4,r15,1
    e9b0:	2008913a 	slli	r4,r4,4
    e9b4:	328003cc 	andi	r10,r6,15
    e9b8:	02c000c4 	movi	r11,3
    e9bc:	1107883a 	add	r3,r2,r4
    e9c0:	290b883a 	add	r5,r5,r4
    e9c4:	5a801e2e 	bgeu	r11,r10,ea40 <memmove+0x154>
    e9c8:	1813883a 	mov	r9,r3
    e9cc:	2811883a 	mov	r8,r5
    e9d0:	500f883a 	mov	r7,r10
    e9d4:	41000017 	ldw	r4,0(r8)
    e9d8:	4a400104 	addi	r9,r9,4
    e9dc:	39ffff04 	addi	r7,r7,-4
    e9e0:	493fff15 	stw	r4,-4(r9)
    e9e4:	42000104 	addi	r8,r8,4
    e9e8:	59fffa36 	bltu	r11,r7,e9d4 <__alt_mem_VGA_Subsystem_Char_Buf_Subsystem_Onchip_SRAM+0xf700e9d4>
    e9ec:	513fff04 	addi	r4,r10,-4
    e9f0:	2008d0ba 	srli	r4,r4,2
    e9f4:	318000cc 	andi	r6,r6,3
    e9f8:	21000044 	addi	r4,r4,1
    e9fc:	2109883a 	add	r4,r4,r4
    ea00:	2109883a 	add	r4,r4,r4
    ea04:	1907883a 	add	r3,r3,r4
    ea08:	290b883a 	add	r5,r5,r4
    ea0c:	30000b26 	beq	r6,zero,ea3c <memmove+0x150>
    ea10:	198d883a 	add	r6,r3,r6
    ea14:	29c00003 	ldbu	r7,0(r5)
    ea18:	18c00044 	addi	r3,r3,1
    ea1c:	29400044 	addi	r5,r5,1
    ea20:	19ffffc5 	stb	r7,-1(r3)
    ea24:	19bffb1e 	bne	r3,r6,ea14 <__alt_mem_VGA_Subsystem_Char_Buf_Subsystem_Onchip_SRAM+0xf700ea14>
    ea28:	f800283a 	ret
    ea2c:	1007883a 	mov	r3,r2
    ea30:	003ff606 	br	ea0c <__alt_mem_VGA_Subsystem_Char_Buf_Subsystem_Onchip_SRAM+0xf700ea0c>
    ea34:	1007883a 	mov	r3,r2
    ea38:	003ff506 	br	ea10 <__alt_mem_VGA_Subsystem_Char_Buf_Subsystem_Onchip_SRAM+0xf700ea10>
    ea3c:	f800283a 	ret
    ea40:	500d883a 	mov	r6,r10
    ea44:	003ff106 	br	ea0c <__alt_mem_VGA_Subsystem_Char_Buf_Subsystem_Onchip_SRAM+0xf700ea0c>

0000ea48 <_read_r>:
    ea48:	defffd04 	addi	sp,sp,-12
    ea4c:	2805883a 	mov	r2,r5
    ea50:	dc000015 	stw	r16,0(sp)
    ea54:	04000074 	movhi	r16,1
    ea58:	dc400115 	stw	r17,4(sp)
    ea5c:	300b883a 	mov	r5,r6
    ea60:	841b2504 	addi	r16,r16,27796
    ea64:	2023883a 	mov	r17,r4
    ea68:	380d883a 	mov	r6,r7
    ea6c:	1009883a 	mov	r4,r2
    ea70:	dfc00215 	stw	ra,8(sp)
    ea74:	80000015 	stw	zero,0(r16)
    ea78:	00106200 	call	10620 <read>
    ea7c:	00ffffc4 	movi	r3,-1
    ea80:	10c00526 	beq	r2,r3,ea98 <_read_r+0x50>
    ea84:	dfc00217 	ldw	ra,8(sp)
    ea88:	dc400117 	ldw	r17,4(sp)
    ea8c:	dc000017 	ldw	r16,0(sp)
    ea90:	dec00304 	addi	sp,sp,12
    ea94:	f800283a 	ret
    ea98:	80c00017 	ldw	r3,0(r16)
    ea9c:	183ff926 	beq	r3,zero,ea84 <__alt_mem_VGA_Subsystem_Char_Buf_Subsystem_Onchip_SRAM+0xf700ea84>
    eaa0:	88c00015 	stw	r3,0(r17)
    eaa4:	003ff706 	br	ea84 <__alt_mem_VGA_Subsystem_Char_Buf_Subsystem_Onchip_SRAM+0xf700ea84>

0000eaa8 <_realloc_r>:
    eaa8:	defff604 	addi	sp,sp,-40
    eaac:	dc800215 	stw	r18,8(sp)
    eab0:	dfc00915 	stw	ra,36(sp)
    eab4:	df000815 	stw	fp,32(sp)
    eab8:	ddc00715 	stw	r23,28(sp)
    eabc:	dd800615 	stw	r22,24(sp)
    eac0:	dd400515 	stw	r21,20(sp)
    eac4:	dd000415 	stw	r20,16(sp)
    eac8:	dcc00315 	stw	r19,12(sp)
    eacc:	dc400115 	stw	r17,4(sp)
    ead0:	dc000015 	stw	r16,0(sp)
    ead4:	3025883a 	mov	r18,r6
    ead8:	2800b726 	beq	r5,zero,edb8 <_realloc_r+0x310>
    eadc:	282b883a 	mov	r21,r5
    eae0:	2029883a 	mov	r20,r4
    eae4:	001059c0 	call	1059c <__malloc_lock>
    eae8:	a8bfff17 	ldw	r2,-4(r21)
    eaec:	043fff04 	movi	r16,-4
    eaf0:	90c002c4 	addi	r3,r18,11
    eaf4:	01000584 	movi	r4,22
    eaf8:	acfffe04 	addi	r19,r21,-8
    eafc:	1420703a 	and	r16,r2,r16
    eb00:	20c0332e 	bgeu	r4,r3,ebd0 <_realloc_r+0x128>
    eb04:	047ffe04 	movi	r17,-8
    eb08:	1c62703a 	and	r17,r3,r17
    eb0c:	8807883a 	mov	r3,r17
    eb10:	88005816 	blt	r17,zero,ec74 <_realloc_r+0x1cc>
    eb14:	8c805736 	bltu	r17,r18,ec74 <_realloc_r+0x1cc>
    eb18:	80c0300e 	bge	r16,r3,ebdc <_realloc_r+0x134>
    eb1c:	07000074 	movhi	fp,1
    eb20:	e70e4d04 	addi	fp,fp,14644
    eb24:	e1c00217 	ldw	r7,8(fp)
    eb28:	9c09883a 	add	r4,r19,r16
    eb2c:	22000117 	ldw	r8,4(r4)
    eb30:	21c06326 	beq	r4,r7,ecc0 <_realloc_r+0x218>
    eb34:	017fff84 	movi	r5,-2
    eb38:	414a703a 	and	r5,r8,r5
    eb3c:	214b883a 	add	r5,r4,r5
    eb40:	29800117 	ldw	r6,4(r5)
    eb44:	3180004c 	andi	r6,r6,1
    eb48:	30003f26 	beq	r6,zero,ec48 <_realloc_r+0x1a0>
    eb4c:	1080004c 	andi	r2,r2,1
    eb50:	10008326 	beq	r2,zero,ed60 <_realloc_r+0x2b8>
    eb54:	900b883a 	mov	r5,r18
    eb58:	a009883a 	mov	r4,r20
    eb5c:	000a7f00 	call	a7f0 <_malloc_r>
    eb60:	1025883a 	mov	r18,r2
    eb64:	10011e26 	beq	r2,zero,efe0 <_realloc_r+0x538>
    eb68:	a93fff17 	ldw	r4,-4(r21)
    eb6c:	10fffe04 	addi	r3,r2,-8
    eb70:	00bfff84 	movi	r2,-2
    eb74:	2084703a 	and	r2,r4,r2
    eb78:	9885883a 	add	r2,r19,r2
    eb7c:	1880ee26 	beq	r3,r2,ef38 <_realloc_r+0x490>
    eb80:	81bfff04 	addi	r6,r16,-4
    eb84:	00800904 	movi	r2,36
    eb88:	1180b836 	bltu	r2,r6,ee6c <_realloc_r+0x3c4>
    eb8c:	00c004c4 	movi	r3,19
    eb90:	19809636 	bltu	r3,r6,edec <_realloc_r+0x344>
    eb94:	9005883a 	mov	r2,r18
    eb98:	a807883a 	mov	r3,r21
    eb9c:	19000017 	ldw	r4,0(r3)
    eba0:	11000015 	stw	r4,0(r2)
    eba4:	19000117 	ldw	r4,4(r3)
    eba8:	11000115 	stw	r4,4(r2)
    ebac:	18c00217 	ldw	r3,8(r3)
    ebb0:	10c00215 	stw	r3,8(r2)
    ebb4:	a80b883a 	mov	r5,r21
    ebb8:	a009883a 	mov	r4,r20
    ebbc:	000a0c00 	call	a0c0 <_free_r>
    ebc0:	a009883a 	mov	r4,r20
    ebc4:	00105c00 	call	105c0 <__malloc_unlock>
    ebc8:	9005883a 	mov	r2,r18
    ebcc:	00001206 	br	ec18 <_realloc_r+0x170>
    ebd0:	00c00404 	movi	r3,16
    ebd4:	1823883a 	mov	r17,r3
    ebd8:	003fce06 	br	eb14 <__alt_mem_VGA_Subsystem_Char_Buf_Subsystem_Onchip_SRAM+0xf700eb14>
    ebdc:	a825883a 	mov	r18,r21
    ebe0:	8445c83a 	sub	r2,r16,r17
    ebe4:	00c003c4 	movi	r3,15
    ebe8:	18802636 	bltu	r3,r2,ec84 <_realloc_r+0x1dc>
    ebec:	99800117 	ldw	r6,4(r19)
    ebf0:	9c07883a 	add	r3,r19,r16
    ebf4:	3180004c 	andi	r6,r6,1
    ebf8:	3420b03a 	or	r16,r6,r16
    ebfc:	9c000115 	stw	r16,4(r19)
    ec00:	18800117 	ldw	r2,4(r3)
    ec04:	10800054 	ori	r2,r2,1
    ec08:	18800115 	stw	r2,4(r3)
    ec0c:	a009883a 	mov	r4,r20
    ec10:	00105c00 	call	105c0 <__malloc_unlock>
    ec14:	9005883a 	mov	r2,r18
    ec18:	dfc00917 	ldw	ra,36(sp)
    ec1c:	df000817 	ldw	fp,32(sp)
    ec20:	ddc00717 	ldw	r23,28(sp)
    ec24:	dd800617 	ldw	r22,24(sp)
    ec28:	dd400517 	ldw	r21,20(sp)
    ec2c:	dd000417 	ldw	r20,16(sp)
    ec30:	dcc00317 	ldw	r19,12(sp)
    ec34:	dc800217 	ldw	r18,8(sp)
    ec38:	dc400117 	ldw	r17,4(sp)
    ec3c:	dc000017 	ldw	r16,0(sp)
    ec40:	dec00a04 	addi	sp,sp,40
    ec44:	f800283a 	ret
    ec48:	017fff04 	movi	r5,-4
    ec4c:	414a703a 	and	r5,r8,r5
    ec50:	814d883a 	add	r6,r16,r5
    ec54:	30c01f16 	blt	r6,r3,ecd4 <_realloc_r+0x22c>
    ec58:	20800317 	ldw	r2,12(r4)
    ec5c:	20c00217 	ldw	r3,8(r4)
    ec60:	a825883a 	mov	r18,r21
    ec64:	3021883a 	mov	r16,r6
    ec68:	18800315 	stw	r2,12(r3)
    ec6c:	10c00215 	stw	r3,8(r2)
    ec70:	003fdb06 	br	ebe0 <__alt_mem_VGA_Subsystem_Char_Buf_Subsystem_Onchip_SRAM+0xf700ebe0>
    ec74:	00800304 	movi	r2,12
    ec78:	a0800015 	stw	r2,0(r20)
    ec7c:	0005883a 	mov	r2,zero
    ec80:	003fe506 	br	ec18 <__alt_mem_VGA_Subsystem_Char_Buf_Subsystem_Onchip_SRAM+0xf700ec18>
    ec84:	98c00117 	ldw	r3,4(r19)
    ec88:	9c4b883a 	add	r5,r19,r17
    ec8c:	11000054 	ori	r4,r2,1
    ec90:	18c0004c 	andi	r3,r3,1
    ec94:	1c62b03a 	or	r17,r3,r17
    ec98:	9c400115 	stw	r17,4(r19)
    ec9c:	29000115 	stw	r4,4(r5)
    eca0:	2885883a 	add	r2,r5,r2
    eca4:	10c00117 	ldw	r3,4(r2)
    eca8:	29400204 	addi	r5,r5,8
    ecac:	a009883a 	mov	r4,r20
    ecb0:	18c00054 	ori	r3,r3,1
    ecb4:	10c00115 	stw	r3,4(r2)
    ecb8:	000a0c00 	call	a0c0 <_free_r>
    ecbc:	003fd306 	br	ec0c <__alt_mem_VGA_Subsystem_Char_Buf_Subsystem_Onchip_SRAM+0xf700ec0c>
    ecc0:	017fff04 	movi	r5,-4
    ecc4:	414a703a 	and	r5,r8,r5
    ecc8:	89800404 	addi	r6,r17,16
    eccc:	8151883a 	add	r8,r16,r5
    ecd0:	4180590e 	bge	r8,r6,ee38 <_realloc_r+0x390>
    ecd4:	1080004c 	andi	r2,r2,1
    ecd8:	103f9e1e 	bne	r2,zero,eb54 <__alt_mem_VGA_Subsystem_Char_Buf_Subsystem_Onchip_SRAM+0xf700eb54>
    ecdc:	adbffe17 	ldw	r22,-8(r21)
    ece0:	00bfff04 	movi	r2,-4
    ece4:	9dadc83a 	sub	r22,r19,r22
    ece8:	b1800117 	ldw	r6,4(r22)
    ecec:	3084703a 	and	r2,r6,r2
    ecf0:	20002026 	beq	r4,zero,ed74 <_realloc_r+0x2cc>
    ecf4:	80af883a 	add	r23,r16,r2
    ecf8:	b96f883a 	add	r23,r23,r5
    ecfc:	21c05f26 	beq	r4,r7,ee7c <_realloc_r+0x3d4>
    ed00:	b8c01c16 	blt	r23,r3,ed74 <_realloc_r+0x2cc>
    ed04:	20800317 	ldw	r2,12(r4)
    ed08:	20c00217 	ldw	r3,8(r4)
    ed0c:	81bfff04 	addi	r6,r16,-4
    ed10:	01000904 	movi	r4,36
    ed14:	18800315 	stw	r2,12(r3)
    ed18:	10c00215 	stw	r3,8(r2)
    ed1c:	b0c00217 	ldw	r3,8(r22)
    ed20:	b0800317 	ldw	r2,12(r22)
    ed24:	b4800204 	addi	r18,r22,8
    ed28:	18800315 	stw	r2,12(r3)
    ed2c:	10c00215 	stw	r3,8(r2)
    ed30:	21801b36 	bltu	r4,r6,eda0 <_realloc_r+0x2f8>
    ed34:	008004c4 	movi	r2,19
    ed38:	1180352e 	bgeu	r2,r6,ee10 <_realloc_r+0x368>
    ed3c:	a8800017 	ldw	r2,0(r21)
    ed40:	b0800215 	stw	r2,8(r22)
    ed44:	a8800117 	ldw	r2,4(r21)
    ed48:	b0800315 	stw	r2,12(r22)
    ed4c:	008006c4 	movi	r2,27
    ed50:	11807f36 	bltu	r2,r6,ef50 <_realloc_r+0x4a8>
    ed54:	b0800404 	addi	r2,r22,16
    ed58:	ad400204 	addi	r21,r21,8
    ed5c:	00002d06 	br	ee14 <_realloc_r+0x36c>
    ed60:	adbffe17 	ldw	r22,-8(r21)
    ed64:	00bfff04 	movi	r2,-4
    ed68:	9dadc83a 	sub	r22,r19,r22
    ed6c:	b1000117 	ldw	r4,4(r22)
    ed70:	2084703a 	and	r2,r4,r2
    ed74:	b03f7726 	beq	r22,zero,eb54 <__alt_mem_VGA_Subsystem_Char_Buf_Subsystem_Onchip_SRAM+0xf700eb54>
    ed78:	80af883a 	add	r23,r16,r2
    ed7c:	b8ff7516 	blt	r23,r3,eb54 <__alt_mem_VGA_Subsystem_Char_Buf_Subsystem_Onchip_SRAM+0xf700eb54>
    ed80:	b0800317 	ldw	r2,12(r22)
    ed84:	b0c00217 	ldw	r3,8(r22)
    ed88:	81bfff04 	addi	r6,r16,-4
    ed8c:	01000904 	movi	r4,36
    ed90:	18800315 	stw	r2,12(r3)
    ed94:	10c00215 	stw	r3,8(r2)
    ed98:	b4800204 	addi	r18,r22,8
    ed9c:	21bfe52e 	bgeu	r4,r6,ed34 <__alt_mem_VGA_Subsystem_Char_Buf_Subsystem_Onchip_SRAM+0xf700ed34>
    eda0:	a80b883a 	mov	r5,r21
    eda4:	9009883a 	mov	r4,r18
    eda8:	000e8ec0 	call	e8ec <memmove>
    edac:	b821883a 	mov	r16,r23
    edb0:	b027883a 	mov	r19,r22
    edb4:	003f8a06 	br	ebe0 <__alt_mem_VGA_Subsystem_Char_Buf_Subsystem_Onchip_SRAM+0xf700ebe0>
    edb8:	300b883a 	mov	r5,r6
    edbc:	dfc00917 	ldw	ra,36(sp)
    edc0:	df000817 	ldw	fp,32(sp)
    edc4:	ddc00717 	ldw	r23,28(sp)
    edc8:	dd800617 	ldw	r22,24(sp)
    edcc:	dd400517 	ldw	r21,20(sp)
    edd0:	dd000417 	ldw	r20,16(sp)
    edd4:	dcc00317 	ldw	r19,12(sp)
    edd8:	dc800217 	ldw	r18,8(sp)
    eddc:	dc400117 	ldw	r17,4(sp)
    ede0:	dc000017 	ldw	r16,0(sp)
    ede4:	dec00a04 	addi	sp,sp,40
    ede8:	000a7f01 	jmpi	a7f0 <_malloc_r>
    edec:	a8c00017 	ldw	r3,0(r21)
    edf0:	90c00015 	stw	r3,0(r18)
    edf4:	a8c00117 	ldw	r3,4(r21)
    edf8:	90c00115 	stw	r3,4(r18)
    edfc:	00c006c4 	movi	r3,27
    ee00:	19804536 	bltu	r3,r6,ef18 <_realloc_r+0x470>
    ee04:	90800204 	addi	r2,r18,8
    ee08:	a8c00204 	addi	r3,r21,8
    ee0c:	003f6306 	br	eb9c <__alt_mem_VGA_Subsystem_Char_Buf_Subsystem_Onchip_SRAM+0xf700eb9c>
    ee10:	9005883a 	mov	r2,r18
    ee14:	a8c00017 	ldw	r3,0(r21)
    ee18:	b821883a 	mov	r16,r23
    ee1c:	b027883a 	mov	r19,r22
    ee20:	10c00015 	stw	r3,0(r2)
    ee24:	a8c00117 	ldw	r3,4(r21)
    ee28:	10c00115 	stw	r3,4(r2)
    ee2c:	a8c00217 	ldw	r3,8(r21)
    ee30:	10c00215 	stw	r3,8(r2)
    ee34:	003f6a06 	br	ebe0 <__alt_mem_VGA_Subsystem_Char_Buf_Subsystem_Onchip_SRAM+0xf700ebe0>
    ee38:	9c67883a 	add	r19,r19,r17
    ee3c:	4445c83a 	sub	r2,r8,r17
    ee40:	e4c00215 	stw	r19,8(fp)
    ee44:	10800054 	ori	r2,r2,1
    ee48:	98800115 	stw	r2,4(r19)
    ee4c:	a8bfff17 	ldw	r2,-4(r21)
    ee50:	a009883a 	mov	r4,r20
    ee54:	1080004c 	andi	r2,r2,1
    ee58:	1462b03a 	or	r17,r2,r17
    ee5c:	ac7fff15 	stw	r17,-4(r21)
    ee60:	00105c00 	call	105c0 <__malloc_unlock>
    ee64:	a805883a 	mov	r2,r21
    ee68:	003f6b06 	br	ec18 <__alt_mem_VGA_Subsystem_Char_Buf_Subsystem_Onchip_SRAM+0xf700ec18>
    ee6c:	a80b883a 	mov	r5,r21
    ee70:	9009883a 	mov	r4,r18
    ee74:	000e8ec0 	call	e8ec <memmove>
    ee78:	003f4e06 	br	ebb4 <__alt_mem_VGA_Subsystem_Char_Buf_Subsystem_Onchip_SRAM+0xf700ebb4>
    ee7c:	89000404 	addi	r4,r17,16
    ee80:	b93fbc16 	blt	r23,r4,ed74 <__alt_mem_VGA_Subsystem_Char_Buf_Subsystem_Onchip_SRAM+0xf700ed74>
    ee84:	b0800317 	ldw	r2,12(r22)
    ee88:	b0c00217 	ldw	r3,8(r22)
    ee8c:	81bfff04 	addi	r6,r16,-4
    ee90:	01000904 	movi	r4,36
    ee94:	18800315 	stw	r2,12(r3)
    ee98:	10c00215 	stw	r3,8(r2)
    ee9c:	b4800204 	addi	r18,r22,8
    eea0:	21804336 	bltu	r4,r6,efb0 <_realloc_r+0x508>
    eea4:	008004c4 	movi	r2,19
    eea8:	11803f2e 	bgeu	r2,r6,efa8 <_realloc_r+0x500>
    eeac:	a8800017 	ldw	r2,0(r21)
    eeb0:	b0800215 	stw	r2,8(r22)
    eeb4:	a8800117 	ldw	r2,4(r21)
    eeb8:	b0800315 	stw	r2,12(r22)
    eebc:	008006c4 	movi	r2,27
    eec0:	11803f36 	bltu	r2,r6,efc0 <_realloc_r+0x518>
    eec4:	b0800404 	addi	r2,r22,16
    eec8:	ad400204 	addi	r21,r21,8
    eecc:	a8c00017 	ldw	r3,0(r21)
    eed0:	10c00015 	stw	r3,0(r2)
    eed4:	a8c00117 	ldw	r3,4(r21)
    eed8:	10c00115 	stw	r3,4(r2)
    eedc:	a8c00217 	ldw	r3,8(r21)
    eee0:	10c00215 	stw	r3,8(r2)
    eee4:	b447883a 	add	r3,r22,r17
    eee8:	bc45c83a 	sub	r2,r23,r17
    eeec:	e0c00215 	stw	r3,8(fp)
    eef0:	10800054 	ori	r2,r2,1
    eef4:	18800115 	stw	r2,4(r3)
    eef8:	b0800117 	ldw	r2,4(r22)
    eefc:	a009883a 	mov	r4,r20
    ef00:	1080004c 	andi	r2,r2,1
    ef04:	1462b03a 	or	r17,r2,r17
    ef08:	b4400115 	stw	r17,4(r22)
    ef0c:	00105c00 	call	105c0 <__malloc_unlock>
    ef10:	9005883a 	mov	r2,r18
    ef14:	003f4006 	br	ec18 <__alt_mem_VGA_Subsystem_Char_Buf_Subsystem_Onchip_SRAM+0xf700ec18>
    ef18:	a8c00217 	ldw	r3,8(r21)
    ef1c:	90c00215 	stw	r3,8(r18)
    ef20:	a8c00317 	ldw	r3,12(r21)
    ef24:	90c00315 	stw	r3,12(r18)
    ef28:	30801126 	beq	r6,r2,ef70 <_realloc_r+0x4c8>
    ef2c:	90800404 	addi	r2,r18,16
    ef30:	a8c00404 	addi	r3,r21,16
    ef34:	003f1906 	br	eb9c <__alt_mem_VGA_Subsystem_Char_Buf_Subsystem_Onchip_SRAM+0xf700eb9c>
    ef38:	90ffff17 	ldw	r3,-4(r18)
    ef3c:	00bfff04 	movi	r2,-4
    ef40:	a825883a 	mov	r18,r21
    ef44:	1884703a 	and	r2,r3,r2
    ef48:	80a1883a 	add	r16,r16,r2
    ef4c:	003f2406 	br	ebe0 <__alt_mem_VGA_Subsystem_Char_Buf_Subsystem_Onchip_SRAM+0xf700ebe0>
    ef50:	a8800217 	ldw	r2,8(r21)
    ef54:	b0800415 	stw	r2,16(r22)
    ef58:	a8800317 	ldw	r2,12(r21)
    ef5c:	b0800515 	stw	r2,20(r22)
    ef60:	31000a26 	beq	r6,r4,ef8c <_realloc_r+0x4e4>
    ef64:	b0800604 	addi	r2,r22,24
    ef68:	ad400404 	addi	r21,r21,16
    ef6c:	003fa906 	br	ee14 <__alt_mem_VGA_Subsystem_Char_Buf_Subsystem_Onchip_SRAM+0xf700ee14>
    ef70:	a9000417 	ldw	r4,16(r21)
    ef74:	90800604 	addi	r2,r18,24
    ef78:	a8c00604 	addi	r3,r21,24
    ef7c:	91000415 	stw	r4,16(r18)
    ef80:	a9000517 	ldw	r4,20(r21)
    ef84:	91000515 	stw	r4,20(r18)
    ef88:	003f0406 	br	eb9c <__alt_mem_VGA_Subsystem_Char_Buf_Subsystem_Onchip_SRAM+0xf700eb9c>
    ef8c:	a8c00417 	ldw	r3,16(r21)
    ef90:	ad400604 	addi	r21,r21,24
    ef94:	b0800804 	addi	r2,r22,32
    ef98:	b0c00615 	stw	r3,24(r22)
    ef9c:	a8ffff17 	ldw	r3,-4(r21)
    efa0:	b0c00715 	stw	r3,28(r22)
    efa4:	003f9b06 	br	ee14 <__alt_mem_VGA_Subsystem_Char_Buf_Subsystem_Onchip_SRAM+0xf700ee14>
    efa8:	9005883a 	mov	r2,r18
    efac:	003fc706 	br	eecc <__alt_mem_VGA_Subsystem_Char_Buf_Subsystem_Onchip_SRAM+0xf700eecc>
    efb0:	a80b883a 	mov	r5,r21
    efb4:	9009883a 	mov	r4,r18
    efb8:	000e8ec0 	call	e8ec <memmove>
    efbc:	003fc906 	br	eee4 <__alt_mem_VGA_Subsystem_Char_Buf_Subsystem_Onchip_SRAM+0xf700eee4>
    efc0:	a8800217 	ldw	r2,8(r21)
    efc4:	b0800415 	stw	r2,16(r22)
    efc8:	a8800317 	ldw	r2,12(r21)
    efcc:	b0800515 	stw	r2,20(r22)
    efd0:	31000726 	beq	r6,r4,eff0 <_realloc_r+0x548>
    efd4:	b0800604 	addi	r2,r22,24
    efd8:	ad400404 	addi	r21,r21,16
    efdc:	003fbb06 	br	eecc <__alt_mem_VGA_Subsystem_Char_Buf_Subsystem_Onchip_SRAM+0xf700eecc>
    efe0:	a009883a 	mov	r4,r20
    efe4:	00105c00 	call	105c0 <__malloc_unlock>
    efe8:	0005883a 	mov	r2,zero
    efec:	003f0a06 	br	ec18 <__alt_mem_VGA_Subsystem_Char_Buf_Subsystem_Onchip_SRAM+0xf700ec18>
    eff0:	a8c00417 	ldw	r3,16(r21)
    eff4:	ad400604 	addi	r21,r21,24
    eff8:	b0800804 	addi	r2,r22,32
    effc:	b0c00615 	stw	r3,24(r22)
    f000:	a8ffff17 	ldw	r3,-4(r21)
    f004:	b0c00715 	stw	r3,28(r22)
    f008:	003fb006 	br	eecc <__alt_mem_VGA_Subsystem_Char_Buf_Subsystem_Onchip_SRAM+0xf700eecc>

0000f00c <__swbuf_r>:
    f00c:	defffb04 	addi	sp,sp,-20
    f010:	dcc00315 	stw	r19,12(sp)
    f014:	dc800215 	stw	r18,8(sp)
    f018:	dc000015 	stw	r16,0(sp)
    f01c:	dfc00415 	stw	ra,16(sp)
    f020:	dc400115 	stw	r17,4(sp)
    f024:	2025883a 	mov	r18,r4
    f028:	2827883a 	mov	r19,r5
    f02c:	3021883a 	mov	r16,r6
    f030:	20000226 	beq	r4,zero,f03c <__swbuf_r+0x30>
    f034:	20800e17 	ldw	r2,56(r4)
    f038:	10004226 	beq	r2,zero,f144 <__swbuf_r+0x138>
    f03c:	80800617 	ldw	r2,24(r16)
    f040:	8100030b 	ldhu	r4,12(r16)
    f044:	80800215 	stw	r2,8(r16)
    f048:	2080020c 	andi	r2,r4,8
    f04c:	10003626 	beq	r2,zero,f128 <__swbuf_r+0x11c>
    f050:	80c00417 	ldw	r3,16(r16)
    f054:	18003426 	beq	r3,zero,f128 <__swbuf_r+0x11c>
    f058:	2088000c 	andi	r2,r4,8192
    f05c:	9c403fcc 	andi	r17,r19,255
    f060:	10001a26 	beq	r2,zero,f0cc <__swbuf_r+0xc0>
    f064:	80800017 	ldw	r2,0(r16)
    f068:	81000517 	ldw	r4,20(r16)
    f06c:	10c7c83a 	sub	r3,r2,r3
    f070:	1900200e 	bge	r3,r4,f0f4 <__swbuf_r+0xe8>
    f074:	18c00044 	addi	r3,r3,1
    f078:	81000217 	ldw	r4,8(r16)
    f07c:	11400044 	addi	r5,r2,1
    f080:	81400015 	stw	r5,0(r16)
    f084:	213fffc4 	addi	r4,r4,-1
    f088:	81000215 	stw	r4,8(r16)
    f08c:	14c00005 	stb	r19,0(r2)
    f090:	80800517 	ldw	r2,20(r16)
    f094:	10c01e26 	beq	r2,r3,f110 <__swbuf_r+0x104>
    f098:	8080030b 	ldhu	r2,12(r16)
    f09c:	1080004c 	andi	r2,r2,1
    f0a0:	10000226 	beq	r2,zero,f0ac <__swbuf_r+0xa0>
    f0a4:	00800284 	movi	r2,10
    f0a8:	88801926 	beq	r17,r2,f110 <__swbuf_r+0x104>
    f0ac:	8805883a 	mov	r2,r17
    f0b0:	dfc00417 	ldw	ra,16(sp)
    f0b4:	dcc00317 	ldw	r19,12(sp)
    f0b8:	dc800217 	ldw	r18,8(sp)
    f0bc:	dc400117 	ldw	r17,4(sp)
    f0c0:	dc000017 	ldw	r16,0(sp)
    f0c4:	dec00504 	addi	sp,sp,20
    f0c8:	f800283a 	ret
    f0cc:	81401917 	ldw	r5,100(r16)
    f0d0:	00b7ffc4 	movi	r2,-8193
    f0d4:	21080014 	ori	r4,r4,8192
    f0d8:	2884703a 	and	r2,r5,r2
    f0dc:	80801915 	stw	r2,100(r16)
    f0e0:	80800017 	ldw	r2,0(r16)
    f0e4:	8100030d 	sth	r4,12(r16)
    f0e8:	81000517 	ldw	r4,20(r16)
    f0ec:	10c7c83a 	sub	r3,r2,r3
    f0f0:	193fe016 	blt	r3,r4,f074 <__alt_mem_VGA_Subsystem_Char_Buf_Subsystem_Onchip_SRAM+0xf700f074>
    f0f4:	800b883a 	mov	r5,r16
    f0f8:	9009883a 	mov	r4,r18
    f0fc:	0009b600 	call	9b60 <_fflush_r>
    f100:	1000071e 	bne	r2,zero,f120 <__swbuf_r+0x114>
    f104:	80800017 	ldw	r2,0(r16)
    f108:	00c00044 	movi	r3,1
    f10c:	003fda06 	br	f078 <__alt_mem_VGA_Subsystem_Char_Buf_Subsystem_Onchip_SRAM+0xf700f078>
    f110:	800b883a 	mov	r5,r16
    f114:	9009883a 	mov	r4,r18
    f118:	0009b600 	call	9b60 <_fflush_r>
    f11c:	103fe326 	beq	r2,zero,f0ac <__alt_mem_VGA_Subsystem_Char_Buf_Subsystem_Onchip_SRAM+0xf700f0ac>
    f120:	00bfffc4 	movi	r2,-1
    f124:	003fe206 	br	f0b0 <__alt_mem_VGA_Subsystem_Char_Buf_Subsystem_Onchip_SRAM+0xf700f0b0>
    f128:	800b883a 	mov	r5,r16
    f12c:	9009883a 	mov	r4,r18
    f130:	0007f400 	call	7f40 <__swsetup_r>
    f134:	103ffa1e 	bne	r2,zero,f120 <__alt_mem_VGA_Subsystem_Char_Buf_Subsystem_Onchip_SRAM+0xf700f120>
    f138:	8100030b 	ldhu	r4,12(r16)
    f13c:	80c00417 	ldw	r3,16(r16)
    f140:	003fc506 	br	f058 <__alt_mem_VGA_Subsystem_Char_Buf_Subsystem_Onchip_SRAM+0xf700f058>
    f144:	0009f4c0 	call	9f4c <__sinit>
    f148:	003fbc06 	br	f03c <__alt_mem_VGA_Subsystem_Char_Buf_Subsystem_Onchip_SRAM+0xf700f03c>

0000f14c <__swbuf>:
    f14c:	00800074 	movhi	r2,1
    f150:	10941104 	addi	r2,r2,20548
    f154:	280d883a 	mov	r6,r5
    f158:	200b883a 	mov	r5,r4
    f15c:	11000017 	ldw	r4,0(r2)
    f160:	000f00c1 	jmpi	f00c <__swbuf_r>

0000f164 <_wcrtomb_r>:
    f164:	defff604 	addi	sp,sp,-40
    f168:	00800074 	movhi	r2,1
    f16c:	dc800815 	stw	r18,32(sp)
    f170:	dc400715 	stw	r17,28(sp)
    f174:	dc000615 	stw	r16,24(sp)
    f178:	10941504 	addi	r2,r2,20564
    f17c:	dfc00915 	stw	ra,36(sp)
    f180:	2021883a 	mov	r16,r4
    f184:	3823883a 	mov	r17,r7
    f188:	14800017 	ldw	r18,0(r2)
    f18c:	28001426 	beq	r5,zero,f1e0 <_wcrtomb_r+0x7c>
    f190:	d9400415 	stw	r5,16(sp)
    f194:	d9800515 	stw	r6,20(sp)
    f198:	000a5d40 	call	a5d4 <__locale_charset>
    f19c:	d9800517 	ldw	r6,20(sp)
    f1a0:	d9400417 	ldw	r5,16(sp)
    f1a4:	100f883a 	mov	r7,r2
    f1a8:	dc400015 	stw	r17,0(sp)
    f1ac:	8009883a 	mov	r4,r16
    f1b0:	903ee83a 	callr	r18
    f1b4:	00ffffc4 	movi	r3,-1
    f1b8:	10c0031e 	bne	r2,r3,f1c8 <_wcrtomb_r+0x64>
    f1bc:	88000015 	stw	zero,0(r17)
    f1c0:	00c02284 	movi	r3,138
    f1c4:	80c00015 	stw	r3,0(r16)
    f1c8:	dfc00917 	ldw	ra,36(sp)
    f1cc:	dc800817 	ldw	r18,32(sp)
    f1d0:	dc400717 	ldw	r17,28(sp)
    f1d4:	dc000617 	ldw	r16,24(sp)
    f1d8:	dec00a04 	addi	sp,sp,40
    f1dc:	f800283a 	ret
    f1e0:	000a5d40 	call	a5d4 <__locale_charset>
    f1e4:	100f883a 	mov	r7,r2
    f1e8:	dc400015 	stw	r17,0(sp)
    f1ec:	000d883a 	mov	r6,zero
    f1f0:	d9400104 	addi	r5,sp,4
    f1f4:	8009883a 	mov	r4,r16
    f1f8:	903ee83a 	callr	r18
    f1fc:	003fed06 	br	f1b4 <__alt_mem_VGA_Subsystem_Char_Buf_Subsystem_Onchip_SRAM+0xf700f1b4>

0000f200 <wcrtomb>:
    f200:	defff604 	addi	sp,sp,-40
    f204:	00800074 	movhi	r2,1
    f208:	dc800615 	stw	r18,24(sp)
    f20c:	dc400515 	stw	r17,20(sp)
    f210:	10941104 	addi	r2,r2,20548
    f214:	dfc00915 	stw	ra,36(sp)
    f218:	dd000815 	stw	r20,32(sp)
    f21c:	dcc00715 	stw	r19,28(sp)
    f220:	dc000415 	stw	r16,16(sp)
    f224:	3025883a 	mov	r18,r6
    f228:	14400017 	ldw	r17,0(r2)
    f22c:	20001926 	beq	r4,zero,f294 <wcrtomb+0x94>
    f230:	00800074 	movhi	r2,1
    f234:	10941504 	addi	r2,r2,20564
    f238:	15000017 	ldw	r20,0(r2)
    f23c:	2021883a 	mov	r16,r4
    f240:	2827883a 	mov	r19,r5
    f244:	000a5d40 	call	a5d4 <__locale_charset>
    f248:	100f883a 	mov	r7,r2
    f24c:	dc800015 	stw	r18,0(sp)
    f250:	980d883a 	mov	r6,r19
    f254:	800b883a 	mov	r5,r16
    f258:	8809883a 	mov	r4,r17
    f25c:	a03ee83a 	callr	r20
    f260:	00ffffc4 	movi	r3,-1
    f264:	10c0031e 	bne	r2,r3,f274 <wcrtomb+0x74>
    f268:	90000015 	stw	zero,0(r18)
    f26c:	00c02284 	movi	r3,138
    f270:	88c00015 	stw	r3,0(r17)
    f274:	dfc00917 	ldw	ra,36(sp)
    f278:	dd000817 	ldw	r20,32(sp)
    f27c:	dcc00717 	ldw	r19,28(sp)
    f280:	dc800617 	ldw	r18,24(sp)
    f284:	dc400517 	ldw	r17,20(sp)
    f288:	dc000417 	ldw	r16,16(sp)
    f28c:	dec00a04 	addi	sp,sp,40
    f290:	f800283a 	ret
    f294:	00800074 	movhi	r2,1
    f298:	10941504 	addi	r2,r2,20564
    f29c:	14000017 	ldw	r16,0(r2)
    f2a0:	000a5d40 	call	a5d4 <__locale_charset>
    f2a4:	100f883a 	mov	r7,r2
    f2a8:	dc800015 	stw	r18,0(sp)
    f2ac:	000d883a 	mov	r6,zero
    f2b0:	d9400104 	addi	r5,sp,4
    f2b4:	8809883a 	mov	r4,r17
    f2b8:	803ee83a 	callr	r16
    f2bc:	003fe806 	br	f260 <__alt_mem_VGA_Subsystem_Char_Buf_Subsystem_Onchip_SRAM+0xf700f260>

0000f2c0 <__ascii_wctomb>:
    f2c0:	28000526 	beq	r5,zero,f2d8 <__ascii_wctomb+0x18>
    f2c4:	00803fc4 	movi	r2,255
    f2c8:	11800536 	bltu	r2,r6,f2e0 <__ascii_wctomb+0x20>
    f2cc:	29800005 	stb	r6,0(r5)
    f2d0:	00800044 	movi	r2,1
    f2d4:	f800283a 	ret
    f2d8:	0005883a 	mov	r2,zero
    f2dc:	f800283a 	ret
    f2e0:	00802284 	movi	r2,138
    f2e4:	20800015 	stw	r2,0(r4)
    f2e8:	00bfffc4 	movi	r2,-1
    f2ec:	f800283a 	ret

0000f2f0 <_wctomb_r>:
    f2f0:	00800074 	movhi	r2,1
    f2f4:	defff904 	addi	sp,sp,-28
    f2f8:	10941504 	addi	r2,r2,20564
    f2fc:	dfc00615 	stw	ra,24(sp)
    f300:	dc400515 	stw	r17,20(sp)
    f304:	dc000415 	stw	r16,16(sp)
    f308:	3823883a 	mov	r17,r7
    f30c:	14000017 	ldw	r16,0(r2)
    f310:	d9000115 	stw	r4,4(sp)
    f314:	d9400215 	stw	r5,8(sp)
    f318:	d9800315 	stw	r6,12(sp)
    f31c:	000a5d40 	call	a5d4 <__locale_charset>
    f320:	d9800317 	ldw	r6,12(sp)
    f324:	d9400217 	ldw	r5,8(sp)
    f328:	d9000117 	ldw	r4,4(sp)
    f32c:	100f883a 	mov	r7,r2
    f330:	dc400015 	stw	r17,0(sp)
    f334:	803ee83a 	callr	r16
    f338:	dfc00617 	ldw	ra,24(sp)
    f33c:	dc400517 	ldw	r17,20(sp)
    f340:	dc000417 	ldw	r16,16(sp)
    f344:	dec00704 	addi	sp,sp,28
    f348:	f800283a 	ret

0000f34c <__udivdi3>:
    f34c:	defff404 	addi	sp,sp,-48
    f350:	dcc00515 	stw	r19,20(sp)
    f354:	dc000215 	stw	r16,8(sp)
    f358:	dfc00b15 	stw	ra,44(sp)
    f35c:	df000a15 	stw	fp,40(sp)
    f360:	ddc00915 	stw	r23,36(sp)
    f364:	dd800815 	stw	r22,32(sp)
    f368:	dd400715 	stw	r21,28(sp)
    f36c:	dd000615 	stw	r20,24(sp)
    f370:	dc800415 	stw	r18,16(sp)
    f374:	dc400315 	stw	r17,12(sp)
    f378:	2027883a 	mov	r19,r4
    f37c:	2821883a 	mov	r16,r5
    f380:	3800461e 	bne	r7,zero,f49c <__udivdi3+0x150>
    f384:	3023883a 	mov	r17,r6
    f388:	2025883a 	mov	r18,r4
    f38c:	2980572e 	bgeu	r5,r6,f4ec <__udivdi3+0x1a0>
    f390:	00bfffd4 	movui	r2,65535
    f394:	282d883a 	mov	r22,r5
    f398:	1180b236 	bltu	r2,r6,f664 <__udivdi3+0x318>
    f39c:	00803fc4 	movi	r2,255
    f3a0:	1185803a 	cmpltu	r2,r2,r6
    f3a4:	100490fa 	slli	r2,r2,3
    f3a8:	3086d83a 	srl	r3,r6,r2
    f3ac:	01000074 	movhi	r4,1
    f3b0:	210c4804 	addi	r4,r4,12576
    f3b4:	20c7883a 	add	r3,r4,r3
    f3b8:	18c00003 	ldbu	r3,0(r3)
    f3bc:	1885883a 	add	r2,r3,r2
    f3c0:	00c00804 	movi	r3,32
    f3c4:	1887c83a 	sub	r3,r3,r2
    f3c8:	18000526 	beq	r3,zero,f3e0 <__udivdi3+0x94>
    f3cc:	80e0983a 	sll	r16,r16,r3
    f3d0:	9884d83a 	srl	r2,r19,r2
    f3d4:	30e2983a 	sll	r17,r6,r3
    f3d8:	98e4983a 	sll	r18,r19,r3
    f3dc:	142cb03a 	or	r22,r2,r16
    f3e0:	882ad43a 	srli	r21,r17,16
    f3e4:	b009883a 	mov	r4,r22
    f3e8:	8d3fffcc 	andi	r20,r17,65535
    f3ec:	a80b883a 	mov	r5,r21
    f3f0:	00032f00 	call	32f0 <__umodsi3>
    f3f4:	b009883a 	mov	r4,r22
    f3f8:	a80b883a 	mov	r5,r21
    f3fc:	1027883a 	mov	r19,r2
    f400:	000328c0 	call	328c <__udivsi3>
    f404:	100b883a 	mov	r5,r2
    f408:	a009883a 	mov	r4,r20
    f40c:	102d883a 	mov	r22,r2
    f410:	00033480 	call	3348 <__mulsi3>
    f414:	9826943a 	slli	r19,r19,16
    f418:	9006d43a 	srli	r3,r18,16
    f41c:	1cc6b03a 	or	r3,r3,r19
    f420:	1880052e 	bgeu	r3,r2,f438 <__udivdi3+0xec>
    f424:	1c47883a 	add	r3,r3,r17
    f428:	b13fffc4 	addi	r4,r22,-1
    f42c:	1c400136 	bltu	r3,r17,f434 <__udivdi3+0xe8>
    f430:	18814236 	bltu	r3,r2,f93c <__udivdi3+0x5f0>
    f434:	202d883a 	mov	r22,r4
    f438:	18a1c83a 	sub	r16,r3,r2
    f43c:	8009883a 	mov	r4,r16
    f440:	a80b883a 	mov	r5,r21
    f444:	00032f00 	call	32f0 <__umodsi3>
    f448:	1027883a 	mov	r19,r2
    f44c:	8009883a 	mov	r4,r16
    f450:	a80b883a 	mov	r5,r21
    f454:	9826943a 	slli	r19,r19,16
    f458:	000328c0 	call	328c <__udivsi3>
    f45c:	100b883a 	mov	r5,r2
    f460:	a009883a 	mov	r4,r20
    f464:	94bfffcc 	andi	r18,r18,65535
    f468:	1021883a 	mov	r16,r2
    f46c:	94e4b03a 	or	r18,r18,r19
    f470:	00033480 	call	3348 <__mulsi3>
    f474:	9080052e 	bgeu	r18,r2,f48c <__udivdi3+0x140>
    f478:	8ca5883a 	add	r18,r17,r18
    f47c:	80ffffc4 	addi	r3,r16,-1
    f480:	94410c36 	bltu	r18,r17,f8b4 <__udivdi3+0x568>
    f484:	90810b2e 	bgeu	r18,r2,f8b4 <__udivdi3+0x568>
    f488:	843fff84 	addi	r16,r16,-2
    f48c:	b004943a 	slli	r2,r22,16
    f490:	0007883a 	mov	r3,zero
    f494:	1404b03a 	or	r2,r2,r16
    f498:	00005e06 	br	f614 <__udivdi3+0x2c8>
    f49c:	29c05b36 	bltu	r5,r7,f60c <__udivdi3+0x2c0>
    f4a0:	00bfffd4 	movui	r2,65535
    f4a4:	11c0672e 	bgeu	r2,r7,f644 <__udivdi3+0x2f8>
    f4a8:	00804034 	movhi	r2,256
    f4ac:	10bfffc4 	addi	r2,r2,-1
    f4b0:	11c10a36 	bltu	r2,r7,f8dc <__udivdi3+0x590>
    f4b4:	00800404 	movi	r2,16
    f4b8:	3886d83a 	srl	r3,r7,r2
    f4bc:	01000074 	movhi	r4,1
    f4c0:	210c4804 	addi	r4,r4,12576
    f4c4:	20c7883a 	add	r3,r4,r3
    f4c8:	18c00003 	ldbu	r3,0(r3)
    f4cc:	05c00804 	movi	r23,32
    f4d0:	1885883a 	add	r2,r3,r2
    f4d4:	b8afc83a 	sub	r23,r23,r2
    f4d8:	b800671e 	bne	r23,zero,f678 <__udivdi3+0x32c>
    f4dc:	3c010536 	bltu	r7,r16,f8f4 <__udivdi3+0x5a8>
    f4e0:	9985403a 	cmpgeu	r2,r19,r6
    f4e4:	0007883a 	mov	r3,zero
    f4e8:	00004a06 	br	f614 <__udivdi3+0x2c8>
    f4ec:	3000041e 	bne	r6,zero,f500 <__udivdi3+0x1b4>
    f4f0:	000b883a 	mov	r5,zero
    f4f4:	01000044 	movi	r4,1
    f4f8:	000328c0 	call	328c <__udivsi3>
    f4fc:	1023883a 	mov	r17,r2
    f500:	00bfffd4 	movui	r2,65535
    f504:	1440532e 	bgeu	r2,r17,f654 <__udivdi3+0x308>
    f508:	00804034 	movhi	r2,256
    f50c:	10bfffc4 	addi	r2,r2,-1
    f510:	1440f436 	bltu	r2,r17,f8e4 <__udivdi3+0x598>
    f514:	00800404 	movi	r2,16
    f518:	8886d83a 	srl	r3,r17,r2
    f51c:	01000074 	movhi	r4,1
    f520:	210c4804 	addi	r4,r4,12576
    f524:	20c7883a 	add	r3,r4,r3
    f528:	18c00003 	ldbu	r3,0(r3)
    f52c:	1885883a 	add	r2,r3,r2
    f530:	00c00804 	movi	r3,32
    f534:	1887c83a 	sub	r3,r3,r2
    f538:	1800a51e 	bne	r3,zero,f7d0 <__udivdi3+0x484>
    f53c:	882ad43a 	srli	r21,r17,16
    f540:	8461c83a 	sub	r16,r16,r17
    f544:	8d3fffcc 	andi	r20,r17,65535
    f548:	00c00044 	movi	r3,1
    f54c:	a80b883a 	mov	r5,r21
    f550:	8009883a 	mov	r4,r16
    f554:	d8c00115 	stw	r3,4(sp)
    f558:	00032f00 	call	32f0 <__umodsi3>
    f55c:	a80b883a 	mov	r5,r21
    f560:	8009883a 	mov	r4,r16
    f564:	1027883a 	mov	r19,r2
    f568:	000328c0 	call	328c <__udivsi3>
    f56c:	a00b883a 	mov	r5,r20
    f570:	1009883a 	mov	r4,r2
    f574:	102d883a 	mov	r22,r2
    f578:	00033480 	call	3348 <__mulsi3>
    f57c:	9826943a 	slli	r19,r19,16
    f580:	900ed43a 	srli	r7,r18,16
    f584:	d8c00117 	ldw	r3,4(sp)
    f588:	3cceb03a 	or	r7,r7,r19
    f58c:	3880052e 	bgeu	r7,r2,f5a4 <__udivdi3+0x258>
    f590:	3c4f883a 	add	r7,r7,r17
    f594:	b13fffc4 	addi	r4,r22,-1
    f598:	3c400136 	bltu	r7,r17,f5a0 <__udivdi3+0x254>
    f59c:	3880e436 	bltu	r7,r2,f930 <__udivdi3+0x5e4>
    f5a0:	202d883a 	mov	r22,r4
    f5a4:	38a1c83a 	sub	r16,r7,r2
    f5a8:	8009883a 	mov	r4,r16
    f5ac:	a80b883a 	mov	r5,r21
    f5b0:	d8c00115 	stw	r3,4(sp)
    f5b4:	00032f00 	call	32f0 <__umodsi3>
    f5b8:	1027883a 	mov	r19,r2
    f5bc:	8009883a 	mov	r4,r16
    f5c0:	a80b883a 	mov	r5,r21
    f5c4:	9826943a 	slli	r19,r19,16
    f5c8:	000328c0 	call	328c <__udivsi3>
    f5cc:	a00b883a 	mov	r5,r20
    f5d0:	1009883a 	mov	r4,r2
    f5d4:	94bfffcc 	andi	r18,r18,65535
    f5d8:	1021883a 	mov	r16,r2
    f5dc:	94e4b03a 	or	r18,r18,r19
    f5e0:	00033480 	call	3348 <__mulsi3>
    f5e4:	d8c00117 	ldw	r3,4(sp)
    f5e8:	9080052e 	bgeu	r18,r2,f600 <__udivdi3+0x2b4>
    f5ec:	8ca5883a 	add	r18,r17,r18
    f5f0:	813fffc4 	addi	r4,r16,-1
    f5f4:	9440ad36 	bltu	r18,r17,f8ac <__udivdi3+0x560>
    f5f8:	9080ac2e 	bgeu	r18,r2,f8ac <__udivdi3+0x560>
    f5fc:	843fff84 	addi	r16,r16,-2
    f600:	b004943a 	slli	r2,r22,16
    f604:	1404b03a 	or	r2,r2,r16
    f608:	00000206 	br	f614 <__udivdi3+0x2c8>
    f60c:	0007883a 	mov	r3,zero
    f610:	0005883a 	mov	r2,zero
    f614:	dfc00b17 	ldw	ra,44(sp)
    f618:	df000a17 	ldw	fp,40(sp)
    f61c:	ddc00917 	ldw	r23,36(sp)
    f620:	dd800817 	ldw	r22,32(sp)
    f624:	dd400717 	ldw	r21,28(sp)
    f628:	dd000617 	ldw	r20,24(sp)
    f62c:	dcc00517 	ldw	r19,20(sp)
    f630:	dc800417 	ldw	r18,16(sp)
    f634:	dc400317 	ldw	r17,12(sp)
    f638:	dc000217 	ldw	r16,8(sp)
    f63c:	dec00c04 	addi	sp,sp,48
    f640:	f800283a 	ret
    f644:	00803fc4 	movi	r2,255
    f648:	11c5803a 	cmpltu	r2,r2,r7
    f64c:	100490fa 	slli	r2,r2,3
    f650:	003f9906 	br	f4b8 <__alt_mem_VGA_Subsystem_Char_Buf_Subsystem_Onchip_SRAM+0xf700f4b8>
    f654:	00803fc4 	movi	r2,255
    f658:	1445803a 	cmpltu	r2,r2,r17
    f65c:	100490fa 	slli	r2,r2,3
    f660:	003fad06 	br	f518 <__alt_mem_VGA_Subsystem_Char_Buf_Subsystem_Onchip_SRAM+0xf700f518>
    f664:	00804034 	movhi	r2,256
    f668:	10bfffc4 	addi	r2,r2,-1
    f66c:	11809f36 	bltu	r2,r6,f8ec <__udivdi3+0x5a0>
    f670:	00800404 	movi	r2,16
    f674:	003f4c06 	br	f3a8 <__alt_mem_VGA_Subsystem_Char_Buf_Subsystem_Onchip_SRAM+0xf700f3a8>
    f678:	3dce983a 	sll	r7,r7,r23
    f67c:	30b8d83a 	srl	fp,r6,r2
    f680:	80a2d83a 	srl	r17,r16,r2
    f684:	35cc983a 	sll	r6,r6,r23
    f688:	3f38b03a 	or	fp,r7,fp
    f68c:	e024d43a 	srli	r18,fp,16
    f690:	9884d83a 	srl	r2,r19,r2
    f694:	85e0983a 	sll	r16,r16,r23
    f698:	8809883a 	mov	r4,r17
    f69c:	900b883a 	mov	r5,r18
    f6a0:	d9800015 	stw	r6,0(sp)
    f6a4:	1420b03a 	or	r16,r2,r16
    f6a8:	00032f00 	call	32f0 <__umodsi3>
    f6ac:	900b883a 	mov	r5,r18
    f6b0:	8809883a 	mov	r4,r17
    f6b4:	1029883a 	mov	r20,r2
    f6b8:	e5bfffcc 	andi	r22,fp,65535
    f6bc:	000328c0 	call	328c <__udivsi3>
    f6c0:	100b883a 	mov	r5,r2
    f6c4:	b009883a 	mov	r4,r22
    f6c8:	102b883a 	mov	r21,r2
    f6cc:	00033480 	call	3348 <__mulsi3>
    f6d0:	a028943a 	slli	r20,r20,16
    f6d4:	8006d43a 	srli	r3,r16,16
    f6d8:	1d06b03a 	or	r3,r3,r20
    f6dc:	1880042e 	bgeu	r3,r2,f6f0 <__udivdi3+0x3a4>
    f6e0:	1f07883a 	add	r3,r3,fp
    f6e4:	a93fffc4 	addi	r4,r21,-1
    f6e8:	1f00892e 	bgeu	r3,fp,f910 <__udivdi3+0x5c4>
    f6ec:	202b883a 	mov	r21,r4
    f6f0:	18a3c83a 	sub	r17,r3,r2
    f6f4:	8809883a 	mov	r4,r17
    f6f8:	900b883a 	mov	r5,r18
    f6fc:	00032f00 	call	32f0 <__umodsi3>
    f700:	1029883a 	mov	r20,r2
    f704:	8809883a 	mov	r4,r17
    f708:	900b883a 	mov	r5,r18
    f70c:	a028943a 	slli	r20,r20,16
    f710:	000328c0 	call	328c <__udivsi3>
    f714:	100b883a 	mov	r5,r2
    f718:	b009883a 	mov	r4,r22
    f71c:	843fffcc 	andi	r16,r16,65535
    f720:	1023883a 	mov	r17,r2
    f724:	8520b03a 	or	r16,r16,r20
    f728:	00033480 	call	3348 <__mulsi3>
    f72c:	8080042e 	bgeu	r16,r2,f740 <__udivdi3+0x3f4>
    f730:	8721883a 	add	r16,r16,fp
    f734:	88ffffc4 	addi	r3,r17,-1
    f738:	8700712e 	bgeu	r16,fp,f900 <__udivdi3+0x5b4>
    f73c:	1823883a 	mov	r17,r3
    f740:	a80e943a 	slli	r7,r21,16
    f744:	d8c00017 	ldw	r3,0(sp)
    f748:	80a1c83a 	sub	r16,r16,r2
    f74c:	3c64b03a 	or	r18,r7,r17
    f750:	1d3fffcc 	andi	r20,r3,65535
    f754:	9022d43a 	srli	r17,r18,16
    f758:	95bfffcc 	andi	r22,r18,65535
    f75c:	a00b883a 	mov	r5,r20
    f760:	b009883a 	mov	r4,r22
    f764:	182ad43a 	srli	r21,r3,16
    f768:	00033480 	call	3348 <__mulsi3>
    f76c:	a00b883a 	mov	r5,r20
    f770:	8809883a 	mov	r4,r17
    f774:	1039883a 	mov	fp,r2
    f778:	00033480 	call	3348 <__mulsi3>
    f77c:	8809883a 	mov	r4,r17
    f780:	a80b883a 	mov	r5,r21
    f784:	1029883a 	mov	r20,r2
    f788:	00033480 	call	3348 <__mulsi3>
    f78c:	a80b883a 	mov	r5,r21
    f790:	b009883a 	mov	r4,r22
    f794:	1023883a 	mov	r17,r2
    f798:	00033480 	call	3348 <__mulsi3>
    f79c:	e006d43a 	srli	r3,fp,16
    f7a0:	1505883a 	add	r2,r2,r20
    f7a4:	1887883a 	add	r3,r3,r2
    f7a8:	1d00022e 	bgeu	r3,r20,f7b4 <__udivdi3+0x468>
    f7ac:	00800074 	movhi	r2,1
    f7b0:	88a3883a 	add	r17,r17,r2
    f7b4:	1804d43a 	srli	r2,r3,16
    f7b8:	1463883a 	add	r17,r2,r17
    f7bc:	84404436 	bltu	r16,r17,f8d0 <__udivdi3+0x584>
    f7c0:	84403e26 	beq	r16,r17,f8bc <__udivdi3+0x570>
    f7c4:	9005883a 	mov	r2,r18
    f7c8:	0007883a 	mov	r3,zero
    f7cc:	003f9106 	br	f614 <__alt_mem_VGA_Subsystem_Char_Buf_Subsystem_Onchip_SRAM+0xf700f614>
    f7d0:	88e2983a 	sll	r17,r17,r3
    f7d4:	80aed83a 	srl	r23,r16,r2
    f7d8:	80e0983a 	sll	r16,r16,r3
    f7dc:	882ad43a 	srli	r21,r17,16
    f7e0:	9884d83a 	srl	r2,r19,r2
    f7e4:	b809883a 	mov	r4,r23
    f7e8:	a80b883a 	mov	r5,r21
    f7ec:	98e4983a 	sll	r18,r19,r3
    f7f0:	142cb03a 	or	r22,r2,r16
    f7f4:	00032f00 	call	32f0 <__umodsi3>
    f7f8:	b809883a 	mov	r4,r23
    f7fc:	a80b883a 	mov	r5,r21
    f800:	1027883a 	mov	r19,r2
    f804:	8d3fffcc 	andi	r20,r17,65535
    f808:	000328c0 	call	328c <__udivsi3>
    f80c:	a009883a 	mov	r4,r20
    f810:	100b883a 	mov	r5,r2
    f814:	102f883a 	mov	r23,r2
    f818:	00033480 	call	3348 <__mulsi3>
    f81c:	9826943a 	slli	r19,r19,16
    f820:	b008d43a 	srli	r4,r22,16
    f824:	24c8b03a 	or	r4,r4,r19
    f828:	2080062e 	bgeu	r4,r2,f844 <__udivdi3+0x4f8>
    f82c:	2449883a 	add	r4,r4,r17
    f830:	b8ffffc4 	addi	r3,r23,-1
    f834:	24403c36 	bltu	r4,r17,f928 <__udivdi3+0x5dc>
    f838:	20803b2e 	bgeu	r4,r2,f928 <__udivdi3+0x5dc>
    f83c:	bdffff84 	addi	r23,r23,-2
    f840:	2449883a 	add	r4,r4,r17
    f844:	20a1c83a 	sub	r16,r4,r2
    f848:	a80b883a 	mov	r5,r21
    f84c:	8009883a 	mov	r4,r16
    f850:	00032f00 	call	32f0 <__umodsi3>
    f854:	a80b883a 	mov	r5,r21
    f858:	8009883a 	mov	r4,r16
    f85c:	1027883a 	mov	r19,r2
    f860:	000328c0 	call	328c <__udivsi3>
    f864:	a009883a 	mov	r4,r20
    f868:	100b883a 	mov	r5,r2
    f86c:	9826943a 	slli	r19,r19,16
    f870:	1039883a 	mov	fp,r2
    f874:	00033480 	call	3348 <__mulsi3>
    f878:	b13fffcc 	andi	r4,r22,65535
    f87c:	24c8b03a 	or	r4,r4,r19
    f880:	2080062e 	bgeu	r4,r2,f89c <__udivdi3+0x550>
    f884:	2449883a 	add	r4,r4,r17
    f888:	e0ffffc4 	addi	r3,fp,-1
    f88c:	24402436 	bltu	r4,r17,f920 <__udivdi3+0x5d4>
    f890:	2080232e 	bgeu	r4,r2,f920 <__udivdi3+0x5d4>
    f894:	e73fff84 	addi	fp,fp,-2
    f898:	2449883a 	add	r4,r4,r17
    f89c:	b82e943a 	slli	r23,r23,16
    f8a0:	20a1c83a 	sub	r16,r4,r2
    f8a4:	bf06b03a 	or	r3,r23,fp
    f8a8:	003f2806 	br	f54c <__alt_mem_VGA_Subsystem_Char_Buf_Subsystem_Onchip_SRAM+0xf700f54c>
    f8ac:	2021883a 	mov	r16,r4
    f8b0:	003f5306 	br	f600 <__alt_mem_VGA_Subsystem_Char_Buf_Subsystem_Onchip_SRAM+0xf700f600>
    f8b4:	1821883a 	mov	r16,r3
    f8b8:	003ef406 	br	f48c <__alt_mem_VGA_Subsystem_Char_Buf_Subsystem_Onchip_SRAM+0xf700f48c>
    f8bc:	1806943a 	slli	r3,r3,16
    f8c0:	9de6983a 	sll	r19,r19,r23
    f8c4:	e73fffcc 	andi	fp,fp,65535
    f8c8:	1f07883a 	add	r3,r3,fp
    f8cc:	98ffbd2e 	bgeu	r19,r3,f7c4 <__alt_mem_VGA_Subsystem_Char_Buf_Subsystem_Onchip_SRAM+0xf700f7c4>
    f8d0:	90bfffc4 	addi	r2,r18,-1
    f8d4:	0007883a 	mov	r3,zero
    f8d8:	003f4e06 	br	f614 <__alt_mem_VGA_Subsystem_Char_Buf_Subsystem_Onchip_SRAM+0xf700f614>
    f8dc:	00800604 	movi	r2,24
    f8e0:	003ef506 	br	f4b8 <__alt_mem_VGA_Subsystem_Char_Buf_Subsystem_Onchip_SRAM+0xf700f4b8>
    f8e4:	00800604 	movi	r2,24
    f8e8:	003f0b06 	br	f518 <__alt_mem_VGA_Subsystem_Char_Buf_Subsystem_Onchip_SRAM+0xf700f518>
    f8ec:	00800604 	movi	r2,24
    f8f0:	003ead06 	br	f3a8 <__alt_mem_VGA_Subsystem_Char_Buf_Subsystem_Onchip_SRAM+0xf700f3a8>
    f8f4:	0007883a 	mov	r3,zero
    f8f8:	00800044 	movi	r2,1
    f8fc:	003f4506 	br	f614 <__alt_mem_VGA_Subsystem_Char_Buf_Subsystem_Onchip_SRAM+0xf700f614>
    f900:	80bf8e2e 	bgeu	r16,r2,f73c <__alt_mem_VGA_Subsystem_Char_Buf_Subsystem_Onchip_SRAM+0xf700f73c>
    f904:	8c7fff84 	addi	r17,r17,-2
    f908:	8721883a 	add	r16,r16,fp
    f90c:	003f8c06 	br	f740 <__alt_mem_VGA_Subsystem_Char_Buf_Subsystem_Onchip_SRAM+0xf700f740>
    f910:	18bf762e 	bgeu	r3,r2,f6ec <__alt_mem_VGA_Subsystem_Char_Buf_Subsystem_Onchip_SRAM+0xf700f6ec>
    f914:	ad7fff84 	addi	r21,r21,-2
    f918:	1f07883a 	add	r3,r3,fp
    f91c:	003f7406 	br	f6f0 <__alt_mem_VGA_Subsystem_Char_Buf_Subsystem_Onchip_SRAM+0xf700f6f0>
    f920:	1839883a 	mov	fp,r3
    f924:	003fdd06 	br	f89c <__alt_mem_VGA_Subsystem_Char_Buf_Subsystem_Onchip_SRAM+0xf700f89c>
    f928:	182f883a 	mov	r23,r3
    f92c:	003fc506 	br	f844 <__alt_mem_VGA_Subsystem_Char_Buf_Subsystem_Onchip_SRAM+0xf700f844>
    f930:	b5bfff84 	addi	r22,r22,-2
    f934:	3c4f883a 	add	r7,r7,r17
    f938:	003f1a06 	br	f5a4 <__alt_mem_VGA_Subsystem_Char_Buf_Subsystem_Onchip_SRAM+0xf700f5a4>
    f93c:	b5bfff84 	addi	r22,r22,-2
    f940:	1c47883a 	add	r3,r3,r17
    f944:	003ebc06 	br	f438 <__alt_mem_VGA_Subsystem_Char_Buf_Subsystem_Onchip_SRAM+0xf700f438>

0000f948 <__umoddi3>:
    f948:	defff304 	addi	sp,sp,-52
    f94c:	df000b15 	stw	fp,44(sp)
    f950:	dc400415 	stw	r17,16(sp)
    f954:	dc000315 	stw	r16,12(sp)
    f958:	dfc00c15 	stw	ra,48(sp)
    f95c:	ddc00a15 	stw	r23,40(sp)
    f960:	dd800915 	stw	r22,36(sp)
    f964:	dd400815 	stw	r21,32(sp)
    f968:	dd000715 	stw	r20,28(sp)
    f96c:	dcc00615 	stw	r19,24(sp)
    f970:	dc800515 	stw	r18,20(sp)
    f974:	2021883a 	mov	r16,r4
    f978:	2823883a 	mov	r17,r5
    f97c:	2839883a 	mov	fp,r5
    f980:	3800401e 	bne	r7,zero,fa84 <__umoddi3+0x13c>
    f984:	3027883a 	mov	r19,r6
    f988:	2029883a 	mov	r20,r4
    f98c:	2980552e 	bgeu	r5,r6,fae4 <__umoddi3+0x19c>
    f990:	00bfffd4 	movui	r2,65535
    f994:	1180a236 	bltu	r2,r6,fc20 <__umoddi3+0x2d8>
    f998:	01003fc4 	movi	r4,255
    f99c:	2189803a 	cmpltu	r4,r4,r6
    f9a0:	200890fa 	slli	r4,r4,3
    f9a4:	3104d83a 	srl	r2,r6,r4
    f9a8:	00c00074 	movhi	r3,1
    f9ac:	18cc4804 	addi	r3,r3,12576
    f9b0:	1885883a 	add	r2,r3,r2
    f9b4:	10c00003 	ldbu	r3,0(r2)
    f9b8:	00800804 	movi	r2,32
    f9bc:	1909883a 	add	r4,r3,r4
    f9c0:	1125c83a 	sub	r18,r2,r4
    f9c4:	90000526 	beq	r18,zero,f9dc <__umoddi3+0x94>
    f9c8:	8ca2983a 	sll	r17,r17,r18
    f9cc:	8108d83a 	srl	r4,r16,r4
    f9d0:	34a6983a 	sll	r19,r6,r18
    f9d4:	84a8983a 	sll	r20,r16,r18
    f9d8:	2478b03a 	or	fp,r4,r17
    f9dc:	982cd43a 	srli	r22,r19,16
    f9e0:	e009883a 	mov	r4,fp
    f9e4:	9dffffcc 	andi	r23,r19,65535
    f9e8:	b00b883a 	mov	r5,r22
    f9ec:	00032f00 	call	32f0 <__umodsi3>
    f9f0:	b00b883a 	mov	r5,r22
    f9f4:	e009883a 	mov	r4,fp
    f9f8:	102b883a 	mov	r21,r2
    f9fc:	000328c0 	call	328c <__udivsi3>
    fa00:	100b883a 	mov	r5,r2
    fa04:	b809883a 	mov	r4,r23
    fa08:	00033480 	call	3348 <__mulsi3>
    fa0c:	a82a943a 	slli	r21,r21,16
    fa10:	a006d43a 	srli	r3,r20,16
    fa14:	1d46b03a 	or	r3,r3,r21
    fa18:	1880032e 	bgeu	r3,r2,fa28 <__umoddi3+0xe0>
    fa1c:	1cc7883a 	add	r3,r3,r19
    fa20:	1cc00136 	bltu	r3,r19,fa28 <__umoddi3+0xe0>
    fa24:	18813136 	bltu	r3,r2,feec <__umoddi3+0x5a4>
    fa28:	18a1c83a 	sub	r16,r3,r2
    fa2c:	b00b883a 	mov	r5,r22
    fa30:	8009883a 	mov	r4,r16
    fa34:	00032f00 	call	32f0 <__umodsi3>
    fa38:	b00b883a 	mov	r5,r22
    fa3c:	8009883a 	mov	r4,r16
    fa40:	1023883a 	mov	r17,r2
    fa44:	000328c0 	call	328c <__udivsi3>
    fa48:	100b883a 	mov	r5,r2
    fa4c:	b809883a 	mov	r4,r23
    fa50:	8822943a 	slli	r17,r17,16
    fa54:	00033480 	call	3348 <__mulsi3>
    fa58:	a0ffffcc 	andi	r3,r20,65535
    fa5c:	1c46b03a 	or	r3,r3,r17
    fa60:	1880042e 	bgeu	r3,r2,fa74 <__umoddi3+0x12c>
    fa64:	1cc7883a 	add	r3,r3,r19
    fa68:	1cc00236 	bltu	r3,r19,fa74 <__umoddi3+0x12c>
    fa6c:	1880012e 	bgeu	r3,r2,fa74 <__umoddi3+0x12c>
    fa70:	1cc7883a 	add	r3,r3,r19
    fa74:	1885c83a 	sub	r2,r3,r2
    fa78:	1484d83a 	srl	r2,r2,r18
    fa7c:	0007883a 	mov	r3,zero
    fa80:	00005306 	br	fbd0 <__umoddi3+0x288>
    fa84:	29c05036 	bltu	r5,r7,fbc8 <__umoddi3+0x280>
    fa88:	00bfffd4 	movui	r2,65535
    fa8c:	11c05c2e 	bgeu	r2,r7,fc00 <__umoddi3+0x2b8>
    fa90:	00804034 	movhi	r2,256
    fa94:	10bfffc4 	addi	r2,r2,-1
    fa98:	11c10636 	bltu	r2,r7,feb4 <__umoddi3+0x56c>
    fa9c:	01000404 	movi	r4,16
    faa0:	3904d83a 	srl	r2,r7,r4
    faa4:	00c00074 	movhi	r3,1
    faa8:	18cc4804 	addi	r3,r3,12576
    faac:	1885883a 	add	r2,r3,r2
    fab0:	14c00003 	ldbu	r19,0(r2)
    fab4:	00c00804 	movi	r3,32
    fab8:	9927883a 	add	r19,r19,r4
    fabc:	1ce9c83a 	sub	r20,r3,r19
    fac0:	a0005c1e 	bne	r20,zero,fc34 <__umoddi3+0x2ec>
    fac4:	3c400136 	bltu	r7,r17,facc <__umoddi3+0x184>
    fac8:	81810a36 	bltu	r16,r6,fef4 <__umoddi3+0x5ac>
    facc:	8185c83a 	sub	r2,r16,r6
    fad0:	89e3c83a 	sub	r17,r17,r7
    fad4:	8089803a 	cmpltu	r4,r16,r2
    fad8:	8939c83a 	sub	fp,r17,r4
    fadc:	e007883a 	mov	r3,fp
    fae0:	00003b06 	br	fbd0 <__umoddi3+0x288>
    fae4:	3000041e 	bne	r6,zero,faf8 <__umoddi3+0x1b0>
    fae8:	000b883a 	mov	r5,zero
    faec:	01000044 	movi	r4,1
    faf0:	000328c0 	call	328c <__udivsi3>
    faf4:	1027883a 	mov	r19,r2
    faf8:	00bfffd4 	movui	r2,65535
    fafc:	14c0442e 	bgeu	r2,r19,fc10 <__umoddi3+0x2c8>
    fb00:	00804034 	movhi	r2,256
    fb04:	10bfffc4 	addi	r2,r2,-1
    fb08:	14c0ec36 	bltu	r2,r19,febc <__umoddi3+0x574>
    fb0c:	00800404 	movi	r2,16
    fb10:	9886d83a 	srl	r3,r19,r2
    fb14:	01000074 	movhi	r4,1
    fb18:	210c4804 	addi	r4,r4,12576
    fb1c:	20c7883a 	add	r3,r4,r3
    fb20:	18c00003 	ldbu	r3,0(r3)
    fb24:	1887883a 	add	r3,r3,r2
    fb28:	00800804 	movi	r2,32
    fb2c:	10e5c83a 	sub	r18,r2,r3
    fb30:	9000ab1e 	bne	r18,zero,fde0 <__umoddi3+0x498>
    fb34:	982cd43a 	srli	r22,r19,16
    fb38:	8ce3c83a 	sub	r17,r17,r19
    fb3c:	9dffffcc 	andi	r23,r19,65535
    fb40:	b00b883a 	mov	r5,r22
    fb44:	8809883a 	mov	r4,r17
    fb48:	00032f00 	call	32f0 <__umodsi3>
    fb4c:	b00b883a 	mov	r5,r22
    fb50:	8809883a 	mov	r4,r17
    fb54:	102b883a 	mov	r21,r2
    fb58:	000328c0 	call	328c <__udivsi3>
    fb5c:	b80b883a 	mov	r5,r23
    fb60:	1009883a 	mov	r4,r2
    fb64:	00033480 	call	3348 <__mulsi3>
    fb68:	a82a943a 	slli	r21,r21,16
    fb6c:	a006d43a 	srli	r3,r20,16
    fb70:	1d46b03a 	or	r3,r3,r21
    fb74:	1880042e 	bgeu	r3,r2,fb88 <__umoddi3+0x240>
    fb78:	1cc7883a 	add	r3,r3,r19
    fb7c:	1cc00236 	bltu	r3,r19,fb88 <__umoddi3+0x240>
    fb80:	1880012e 	bgeu	r3,r2,fb88 <__umoddi3+0x240>
    fb84:	1cc7883a 	add	r3,r3,r19
    fb88:	18a1c83a 	sub	r16,r3,r2
    fb8c:	b00b883a 	mov	r5,r22
    fb90:	8009883a 	mov	r4,r16
    fb94:	00032f00 	call	32f0 <__umodsi3>
    fb98:	1023883a 	mov	r17,r2
    fb9c:	b00b883a 	mov	r5,r22
    fba0:	8009883a 	mov	r4,r16
    fba4:	000328c0 	call	328c <__udivsi3>
    fba8:	8822943a 	slli	r17,r17,16
    fbac:	b80b883a 	mov	r5,r23
    fbb0:	1009883a 	mov	r4,r2
    fbb4:	00033480 	call	3348 <__mulsi3>
    fbb8:	a53fffcc 	andi	r20,r20,65535
    fbbc:	a446b03a 	or	r3,r20,r17
    fbc0:	18bfac2e 	bgeu	r3,r2,fa74 <__alt_mem_VGA_Subsystem_Char_Buf_Subsystem_Onchip_SRAM+0xf700fa74>
    fbc4:	003fa706 	br	fa64 <__alt_mem_VGA_Subsystem_Char_Buf_Subsystem_Onchip_SRAM+0xf700fa64>
    fbc8:	2005883a 	mov	r2,r4
    fbcc:	2807883a 	mov	r3,r5
    fbd0:	dfc00c17 	ldw	ra,48(sp)
    fbd4:	df000b17 	ldw	fp,44(sp)
    fbd8:	ddc00a17 	ldw	r23,40(sp)
    fbdc:	dd800917 	ldw	r22,36(sp)
    fbe0:	dd400817 	ldw	r21,32(sp)
    fbe4:	dd000717 	ldw	r20,28(sp)
    fbe8:	dcc00617 	ldw	r19,24(sp)
    fbec:	dc800517 	ldw	r18,20(sp)
    fbf0:	dc400417 	ldw	r17,16(sp)
    fbf4:	dc000317 	ldw	r16,12(sp)
    fbf8:	dec00d04 	addi	sp,sp,52
    fbfc:	f800283a 	ret
    fc00:	04c03fc4 	movi	r19,255
    fc04:	99c9803a 	cmpltu	r4,r19,r7
    fc08:	200890fa 	slli	r4,r4,3
    fc0c:	003fa406 	br	faa0 <__alt_mem_VGA_Subsystem_Char_Buf_Subsystem_Onchip_SRAM+0xf700faa0>
    fc10:	00803fc4 	movi	r2,255
    fc14:	14c5803a 	cmpltu	r2,r2,r19
    fc18:	100490fa 	slli	r2,r2,3
    fc1c:	003fbc06 	br	fb10 <__alt_mem_VGA_Subsystem_Char_Buf_Subsystem_Onchip_SRAM+0xf700fb10>
    fc20:	00804034 	movhi	r2,256
    fc24:	10bfffc4 	addi	r2,r2,-1
    fc28:	1180a636 	bltu	r2,r6,fec4 <__umoddi3+0x57c>
    fc2c:	01000404 	movi	r4,16
    fc30:	003f5c06 	br	f9a4 <__alt_mem_VGA_Subsystem_Char_Buf_Subsystem_Onchip_SRAM+0xf700f9a4>
    fc34:	3d0e983a 	sll	r7,r7,r20
    fc38:	34ead83a 	srl	r21,r6,r19
    fc3c:	8cc6d83a 	srl	r3,r17,r19
    fc40:	8d10983a 	sll	r8,r17,r20
    fc44:	3d6ab03a 	or	r21,r7,r21
    fc48:	a82cd43a 	srli	r22,r21,16
    fc4c:	84e2d83a 	srl	r17,r16,r19
    fc50:	1809883a 	mov	r4,r3
    fc54:	b00b883a 	mov	r5,r22
    fc58:	8a22b03a 	or	r17,r17,r8
    fc5c:	3524983a 	sll	r18,r6,r20
    fc60:	dc400015 	stw	r17,0(sp)
    fc64:	d8c00115 	stw	r3,4(sp)
    fc68:	00032f00 	call	32f0 <__umodsi3>
    fc6c:	d8c00117 	ldw	r3,4(sp)
    fc70:	b00b883a 	mov	r5,r22
    fc74:	1039883a 	mov	fp,r2
    fc78:	1809883a 	mov	r4,r3
    fc7c:	000328c0 	call	328c <__udivsi3>
    fc80:	adffffcc 	andi	r23,r21,65535
    fc84:	100b883a 	mov	r5,r2
    fc88:	b809883a 	mov	r4,r23
    fc8c:	1023883a 	mov	r17,r2
    fc90:	00033480 	call	3348 <__mulsi3>
    fc94:	d9400017 	ldw	r5,0(sp)
    fc98:	e008943a 	slli	r4,fp,16
    fc9c:	8520983a 	sll	r16,r16,r20
    fca0:	2806d43a 	srli	r3,r5,16
    fca4:	1906b03a 	or	r3,r3,r4
    fca8:	1880042e 	bgeu	r3,r2,fcbc <__umoddi3+0x374>
    fcac:	1d47883a 	add	r3,r3,r21
    fcb0:	893fffc4 	addi	r4,r17,-1
    fcb4:	1d40892e 	bgeu	r3,r21,fedc <__umoddi3+0x594>
    fcb8:	2023883a 	mov	r17,r4
    fcbc:	18b9c83a 	sub	fp,r3,r2
    fcc0:	b00b883a 	mov	r5,r22
    fcc4:	e009883a 	mov	r4,fp
    fcc8:	00032f00 	call	32f0 <__umodsi3>
    fccc:	b00b883a 	mov	r5,r22
    fcd0:	e009883a 	mov	r4,fp
    fcd4:	d8800215 	stw	r2,8(sp)
    fcd8:	000328c0 	call	328c <__udivsi3>
    fcdc:	100b883a 	mov	r5,r2
    fce0:	b809883a 	mov	r4,r23
    fce4:	102d883a 	mov	r22,r2
    fce8:	00033480 	call	3348 <__mulsi3>
    fcec:	d9800217 	ldw	r6,8(sp)
    fcf0:	d8c00017 	ldw	r3,0(sp)
    fcf4:	300c943a 	slli	r6,r6,16
    fcf8:	1a3fffcc 	andi	r8,r3,65535
    fcfc:	4190b03a 	or	r8,r8,r6
    fd00:	4080042e 	bgeu	r8,r2,fd14 <__umoddi3+0x3cc>
    fd04:	4551883a 	add	r8,r8,r21
    fd08:	b0ffffc4 	addi	r3,r22,-1
    fd0c:	45406f2e 	bgeu	r8,r21,fecc <__umoddi3+0x584>
    fd10:	182d883a 	mov	r22,r3
    fd14:	880e943a 	slli	r7,r17,16
    fd18:	9006d43a 	srli	r3,r18,16
    fd1c:	91bfffcc 	andi	r6,r18,65535
    fd20:	3dacb03a 	or	r22,r7,r22
    fd24:	b02ed43a 	srli	r23,r22,16
    fd28:	b5bfffcc 	andi	r22,r22,65535
    fd2c:	300b883a 	mov	r5,r6
    fd30:	b009883a 	mov	r4,r22
    fd34:	40a3c83a 	sub	r17,r8,r2
    fd38:	d8c00115 	stw	r3,4(sp)
    fd3c:	d9800215 	stw	r6,8(sp)
    fd40:	00033480 	call	3348 <__mulsi3>
    fd44:	d9800217 	ldw	r6,8(sp)
    fd48:	b809883a 	mov	r4,r23
    fd4c:	1039883a 	mov	fp,r2
    fd50:	300b883a 	mov	r5,r6
    fd54:	00033480 	call	3348 <__mulsi3>
    fd58:	d8c00117 	ldw	r3,4(sp)
    fd5c:	b809883a 	mov	r4,r23
    fd60:	d8800215 	stw	r2,8(sp)
    fd64:	180b883a 	mov	r5,r3
    fd68:	00033480 	call	3348 <__mulsi3>
    fd6c:	d8c00117 	ldw	r3,4(sp)
    fd70:	b009883a 	mov	r4,r22
    fd74:	102f883a 	mov	r23,r2
    fd78:	180b883a 	mov	r5,r3
    fd7c:	00033480 	call	3348 <__mulsi3>
    fd80:	d9800217 	ldw	r6,8(sp)
    fd84:	e006d43a 	srli	r3,fp,16
    fd88:	1185883a 	add	r2,r2,r6
    fd8c:	1885883a 	add	r2,r3,r2
    fd90:	1180022e 	bgeu	r2,r6,fd9c <__umoddi3+0x454>
    fd94:	00c00074 	movhi	r3,1
    fd98:	b8ef883a 	add	r23,r23,r3
    fd9c:	1006d43a 	srli	r3,r2,16
    fda0:	1004943a 	slli	r2,r2,16
    fda4:	e73fffcc 	andi	fp,fp,65535
    fda8:	1dc7883a 	add	r3,r3,r23
    fdac:	1739883a 	add	fp,r2,fp
    fdb0:	88c03a36 	bltu	r17,r3,fe9c <__umoddi3+0x554>
    fdb4:	88c05126 	beq	r17,r3,fefc <__umoddi3+0x5b4>
    fdb8:	88c9c83a 	sub	r4,r17,r3
    fdbc:	e00f883a 	mov	r7,fp
    fdc0:	81cfc83a 	sub	r7,r16,r7
    fdc4:	81c7803a 	cmpltu	r3,r16,r7
    fdc8:	20c7c83a 	sub	r3,r4,r3
    fdcc:	1cc4983a 	sll	r2,r3,r19
    fdd0:	3d0ed83a 	srl	r7,r7,r20
    fdd4:	1d06d83a 	srl	r3,r3,r20
    fdd8:	11c4b03a 	or	r2,r2,r7
    fddc:	003f7c06 	br	fbd0 <__alt_mem_VGA_Subsystem_Char_Buf_Subsystem_Onchip_SRAM+0xf700fbd0>
    fde0:	9ca6983a 	sll	r19,r19,r18
    fde4:	88f8d83a 	srl	fp,r17,r3
    fde8:	80c4d83a 	srl	r2,r16,r3
    fdec:	982cd43a 	srli	r22,r19,16
    fdf0:	8ca2983a 	sll	r17,r17,r18
    fdf4:	e009883a 	mov	r4,fp
    fdf8:	b00b883a 	mov	r5,r22
    fdfc:	146ab03a 	or	r21,r2,r17
    fe00:	00032f00 	call	32f0 <__umodsi3>
    fe04:	b00b883a 	mov	r5,r22
    fe08:	e009883a 	mov	r4,fp
    fe0c:	1029883a 	mov	r20,r2
    fe10:	9dffffcc 	andi	r23,r19,65535
    fe14:	000328c0 	call	328c <__udivsi3>
    fe18:	b809883a 	mov	r4,r23
    fe1c:	100b883a 	mov	r5,r2
    fe20:	00033480 	call	3348 <__mulsi3>
    fe24:	a008943a 	slli	r4,r20,16
    fe28:	a806d43a 	srli	r3,r21,16
    fe2c:	84a8983a 	sll	r20,r16,r18
    fe30:	1906b03a 	or	r3,r3,r4
    fe34:	1880042e 	bgeu	r3,r2,fe48 <__umoddi3+0x500>
    fe38:	1cc7883a 	add	r3,r3,r19
    fe3c:	1cc00236 	bltu	r3,r19,fe48 <__umoddi3+0x500>
    fe40:	1880012e 	bgeu	r3,r2,fe48 <__umoddi3+0x500>
    fe44:	1cc7883a 	add	r3,r3,r19
    fe48:	18a3c83a 	sub	r17,r3,r2
    fe4c:	b00b883a 	mov	r5,r22
    fe50:	8809883a 	mov	r4,r17
    fe54:	00032f00 	call	32f0 <__umodsi3>
    fe58:	b00b883a 	mov	r5,r22
    fe5c:	8809883a 	mov	r4,r17
    fe60:	1021883a 	mov	r16,r2
    fe64:	000328c0 	call	328c <__udivsi3>
    fe68:	100b883a 	mov	r5,r2
    fe6c:	b809883a 	mov	r4,r23
    fe70:	8020943a 	slli	r16,r16,16
    fe74:	00033480 	call	3348 <__mulsi3>
    fe78:	a8ffffcc 	andi	r3,r21,65535
    fe7c:	1c06b03a 	or	r3,r3,r16
    fe80:	1880042e 	bgeu	r3,r2,fe94 <__umoddi3+0x54c>
    fe84:	1cc7883a 	add	r3,r3,r19
    fe88:	1cc00236 	bltu	r3,r19,fe94 <__umoddi3+0x54c>
    fe8c:	1880012e 	bgeu	r3,r2,fe94 <__umoddi3+0x54c>
    fe90:	1cc7883a 	add	r3,r3,r19
    fe94:	18a3c83a 	sub	r17,r3,r2
    fe98:	003f2906 	br	fb40 <__alt_mem_VGA_Subsystem_Char_Buf_Subsystem_Onchip_SRAM+0xf700fb40>
    fe9c:	e48fc83a 	sub	r7,fp,r18
    fea0:	1d49c83a 	sub	r4,r3,r21
    fea4:	e1f9803a 	cmpltu	fp,fp,r7
    fea8:	2739c83a 	sub	fp,r4,fp
    feac:	8f09c83a 	sub	r4,r17,fp
    feb0:	003fc306 	br	fdc0 <__alt_mem_VGA_Subsystem_Char_Buf_Subsystem_Onchip_SRAM+0xf700fdc0>
    feb4:	01000604 	movi	r4,24
    feb8:	003ef906 	br	faa0 <__alt_mem_VGA_Subsystem_Char_Buf_Subsystem_Onchip_SRAM+0xf700faa0>
    febc:	00800604 	movi	r2,24
    fec0:	003f1306 	br	fb10 <__alt_mem_VGA_Subsystem_Char_Buf_Subsystem_Onchip_SRAM+0xf700fb10>
    fec4:	01000604 	movi	r4,24
    fec8:	003eb606 	br	f9a4 <__alt_mem_VGA_Subsystem_Char_Buf_Subsystem_Onchip_SRAM+0xf700f9a4>
    fecc:	40bf902e 	bgeu	r8,r2,fd10 <__alt_mem_VGA_Subsystem_Char_Buf_Subsystem_Onchip_SRAM+0xf700fd10>
    fed0:	b5bfff84 	addi	r22,r22,-2
    fed4:	4551883a 	add	r8,r8,r21
    fed8:	003f8e06 	br	fd14 <__alt_mem_VGA_Subsystem_Char_Buf_Subsystem_Onchip_SRAM+0xf700fd14>
    fedc:	18bf762e 	bgeu	r3,r2,fcb8 <__alt_mem_VGA_Subsystem_Char_Buf_Subsystem_Onchip_SRAM+0xf700fcb8>
    fee0:	8c7fff84 	addi	r17,r17,-2
    fee4:	1d47883a 	add	r3,r3,r21
    fee8:	003f7406 	br	fcbc <__alt_mem_VGA_Subsystem_Char_Buf_Subsystem_Onchip_SRAM+0xf700fcbc>
    feec:	1cc7883a 	add	r3,r3,r19
    fef0:	003ecd06 	br	fa28 <__alt_mem_VGA_Subsystem_Char_Buf_Subsystem_Onchip_SRAM+0xf700fa28>
    fef4:	8005883a 	mov	r2,r16
    fef8:	003ef806 	br	fadc <__alt_mem_VGA_Subsystem_Char_Buf_Subsystem_Onchip_SRAM+0xf700fadc>
    fefc:	873fe736 	bltu	r16,fp,fe9c <__alt_mem_VGA_Subsystem_Char_Buf_Subsystem_Onchip_SRAM+0xf700fe9c>
    ff00:	e00f883a 	mov	r7,fp
    ff04:	0009883a 	mov	r4,zero
    ff08:	003fad06 	br	fdc0 <__alt_mem_VGA_Subsystem_Char_Buf_Subsystem_Onchip_SRAM+0xf700fdc0>

0000ff0c <__ledf2>:
    ff0c:	2804d53a 	srli	r2,r5,20
    ff10:	3810d53a 	srli	r8,r7,20
    ff14:	00c00434 	movhi	r3,16
    ff18:	18ffffc4 	addi	r3,r3,-1
    ff1c:	1081ffcc 	andi	r2,r2,2047
    ff20:	0241ffc4 	movi	r9,2047
    ff24:	28d4703a 	and	r10,r5,r3
    ff28:	4201ffcc 	andi	r8,r8,2047
    ff2c:	38c6703a 	and	r3,r7,r3
    ff30:	280ad7fa 	srli	r5,r5,31
    ff34:	380ed7fa 	srli	r7,r7,31
    ff38:	12401f26 	beq	r2,r9,ffb8 <__ledf2+0xac>
    ff3c:	0241ffc4 	movi	r9,2047
    ff40:	42401426 	beq	r8,r9,ff94 <__ledf2+0x88>
    ff44:	1000091e 	bne	r2,zero,ff6c <__ledf2+0x60>
    ff48:	2296b03a 	or	r11,r4,r10
    ff4c:	5813003a 	cmpeq	r9,r11,zero
    ff50:	29403fcc 	andi	r5,r5,255
    ff54:	40000a1e 	bne	r8,zero,ff80 <__ledf2+0x74>
    ff58:	30d8b03a 	or	r12,r6,r3
    ff5c:	6000081e 	bne	r12,zero,ff80 <__ledf2+0x74>
    ff60:	0005883a 	mov	r2,zero
    ff64:	5800111e 	bne	r11,zero,ffac <__ledf2+0xa0>
    ff68:	f800283a 	ret
    ff6c:	29403fcc 	andi	r5,r5,255
    ff70:	40000c1e 	bne	r8,zero,ffa4 <__ledf2+0x98>
    ff74:	30d2b03a 	or	r9,r6,r3
    ff78:	48000c26 	beq	r9,zero,ffac <__ledf2+0xa0>
    ff7c:	0013883a 	mov	r9,zero
    ff80:	39c03fcc 	andi	r7,r7,255
    ff84:	48000826 	beq	r9,zero,ffa8 <__ledf2+0x9c>
    ff88:	38001126 	beq	r7,zero,ffd0 <__ledf2+0xc4>
    ff8c:	00800044 	movi	r2,1
    ff90:	f800283a 	ret
    ff94:	30d2b03a 	or	r9,r6,r3
    ff98:	483fea26 	beq	r9,zero,ff44 <__alt_mem_VGA_Subsystem_Char_Buf_Subsystem_Onchip_SRAM+0xf700ff44>
    ff9c:	00800084 	movi	r2,2
    ffa0:	f800283a 	ret
    ffa4:	39c03fcc 	andi	r7,r7,255
    ffa8:	39400726 	beq	r7,r5,ffc8 <__ledf2+0xbc>
    ffac:	2800081e 	bne	r5,zero,ffd0 <__ledf2+0xc4>
    ffb0:	00800044 	movi	r2,1
    ffb4:	f800283a 	ret
    ffb8:	2292b03a 	or	r9,r4,r10
    ffbc:	483fdf26 	beq	r9,zero,ff3c <__alt_mem_VGA_Subsystem_Char_Buf_Subsystem_Onchip_SRAM+0xf700ff3c>
    ffc0:	00800084 	movi	r2,2
    ffc4:	f800283a 	ret
    ffc8:	4080030e 	bge	r8,r2,ffd8 <__ledf2+0xcc>
    ffcc:	383fef26 	beq	r7,zero,ff8c <__alt_mem_VGA_Subsystem_Char_Buf_Subsystem_Onchip_SRAM+0xf700ff8c>
    ffd0:	00bfffc4 	movi	r2,-1
    ffd4:	f800283a 	ret
    ffd8:	123feb16 	blt	r2,r8,ff88 <__alt_mem_VGA_Subsystem_Char_Buf_Subsystem_Onchip_SRAM+0xf700ff88>
    ffdc:	1abff336 	bltu	r3,r10,ffac <__alt_mem_VGA_Subsystem_Char_Buf_Subsystem_Onchip_SRAM+0xf700ffac>
    ffe0:	50c00326 	beq	r10,r3,fff0 <__ledf2+0xe4>
    ffe4:	50c0042e 	bgeu	r10,r3,fff8 <__ledf2+0xec>
    ffe8:	283fe81e 	bne	r5,zero,ff8c <__alt_mem_VGA_Subsystem_Char_Buf_Subsystem_Onchip_SRAM+0xf700ff8c>
    ffec:	003ff806 	br	ffd0 <__alt_mem_VGA_Subsystem_Char_Buf_Subsystem_Onchip_SRAM+0xf700ffd0>
    fff0:	313fee36 	bltu	r6,r4,ffac <__alt_mem_VGA_Subsystem_Char_Buf_Subsystem_Onchip_SRAM+0xf700ffac>
    fff4:	21bffc36 	bltu	r4,r6,ffe8 <__alt_mem_VGA_Subsystem_Char_Buf_Subsystem_Onchip_SRAM+0xf700ffe8>
    fff8:	0005883a 	mov	r2,zero
    fffc:	f800283a 	ret

00010000 <alt_get_errno>:
#undef errno

extern int errno;

static ALT_INLINE int* alt_get_errno(void)
{
   10000:	defffe04 	addi	sp,sp,-8
   10004:	dfc00115 	stw	ra,4(sp)
   10008:	df000015 	stw	fp,0(sp)
   1000c:	d839883a 	mov	fp,sp
  return ((alt_errno) ? alt_errno() : &errno);
   10010:	d0a00b17 	ldw	r2,-32724(gp)
   10014:	10000326 	beq	r2,zero,10024 <alt_get_errno+0x24>
   10018:	d0a00b17 	ldw	r2,-32724(gp)
   1001c:	103ee83a 	callr	r2
   10020:	00000106 	br	10028 <alt_get_errno+0x28>
   10024:	d0a71504 	addi	r2,gp,-25516
}
   10028:	e037883a 	mov	sp,fp
   1002c:	dfc00117 	ldw	ra,4(sp)
   10030:	df000017 	ldw	fp,0(sp)
   10034:	dec00204 	addi	sp,sp,8
   10038:	f800283a 	ret

0001003c <close>:
 *
 * ALT_CLOSE is mapped onto the close() system call in alt_syscall.h
 */
 
int ALT_CLOSE (int fildes)
{
   1003c:	defffb04 	addi	sp,sp,-20
   10040:	dfc00415 	stw	ra,16(sp)
   10044:	df000315 	stw	fp,12(sp)
   10048:	df000304 	addi	fp,sp,12
   1004c:	e13fff15 	stw	r4,-4(fp)
   * A common error case is that when the file descriptor was created, the call
   * to open() failed resulting in a negative file descriptor. This is trapped
   * below so that we don't try and process an invalid file descriptor.
   */

  fd = (fildes < 0) ? NULL : &alt_fd_list[fildes];
   10050:	e0bfff17 	ldw	r2,-4(fp)
   10054:	10000816 	blt	r2,zero,10078 <close+0x3c>
   10058:	01400304 	movi	r5,12
   1005c:	e13fff17 	ldw	r4,-4(fp)
   10060:	00033480 	call	3348 <__mulsi3>
   10064:	1007883a 	mov	r3,r2
   10068:	00800074 	movhi	r2,1
   1006c:	108f5904 	addi	r2,r2,15716
   10070:	1885883a 	add	r2,r3,r2
   10074:	00000106 	br	1007c <close+0x40>
   10078:	0005883a 	mov	r2,zero
   1007c:	e0bffd15 	stw	r2,-12(fp)

  if (fd)
   10080:	e0bffd17 	ldw	r2,-12(fp)
   10084:	10001926 	beq	r2,zero,100ec <close+0xb0>
    /*
     * If the associated file system/device has a close function, call it so 
     * that any necessary cleanup code can run.
     */

    rval = (fd->dev->close) ? fd->dev->close(fd) : 0;
   10088:	e0bffd17 	ldw	r2,-12(fp)
   1008c:	10800017 	ldw	r2,0(r2)
   10090:	10800417 	ldw	r2,16(r2)
   10094:	10000626 	beq	r2,zero,100b0 <close+0x74>
   10098:	e0bffd17 	ldw	r2,-12(fp)
   1009c:	10800017 	ldw	r2,0(r2)
   100a0:	10800417 	ldw	r2,16(r2)
   100a4:	e13ffd17 	ldw	r4,-12(fp)
   100a8:	103ee83a 	callr	r2
   100ac:	00000106 	br	100b4 <close+0x78>
   100b0:	0005883a 	mov	r2,zero
   100b4:	e0bffe15 	stw	r2,-8(fp)

    /* Free the file descriptor structure and return. */

    alt_release_fd (fildes);
   100b8:	e13fff17 	ldw	r4,-4(fp)
   100bc:	00107240 	call	10724 <alt_release_fd>
    if (rval < 0)
   100c0:	e0bffe17 	ldw	r2,-8(fp)
   100c4:	1000070e 	bge	r2,zero,100e4 <close+0xa8>
    {
      ALT_ERRNO = -rval;
   100c8:	00100000 	call	10000 <alt_get_errno>
   100cc:	1007883a 	mov	r3,r2
   100d0:	e0bffe17 	ldw	r2,-8(fp)
   100d4:	0085c83a 	sub	r2,zero,r2
   100d8:	18800015 	stw	r2,0(r3)
      return -1;
   100dc:	00bfffc4 	movi	r2,-1
   100e0:	00000706 	br	10100 <close+0xc4>
    }
    return 0;
   100e4:	0005883a 	mov	r2,zero
   100e8:	00000506 	br	10100 <close+0xc4>
  }
  else
  {
    ALT_ERRNO = EBADFD;
   100ec:	00100000 	call	10000 <alt_get_errno>
   100f0:	1007883a 	mov	r3,r2
   100f4:	00801444 	movi	r2,81
   100f8:	18800015 	stw	r2,0(r3)
    return -1;
   100fc:	00bfffc4 	movi	r2,-1
  }
}
   10100:	e037883a 	mov	sp,fp
   10104:	dfc00117 	ldw	ra,4(sp)
   10108:	df000017 	ldw	fp,0(sp)
   1010c:	dec00204 	addi	sp,sp,8
   10110:	f800283a 	ret

00010114 <alt_dev_null_write>:
 * by the alt_dev_null device. It simple discards all data passed to it, and
 * indicates that the data has been successfully transmitted.
 */

static int alt_dev_null_write (alt_fd* fd, const char* ptr, int len)
{
   10114:	defffc04 	addi	sp,sp,-16
   10118:	df000315 	stw	fp,12(sp)
   1011c:	df000304 	addi	fp,sp,12
   10120:	e13ffd15 	stw	r4,-12(fp)
   10124:	e17ffe15 	stw	r5,-8(fp)
   10128:	e1bfff15 	stw	r6,-4(fp)
  return len;
   1012c:	e0bfff17 	ldw	r2,-4(fp)
}
   10130:	e037883a 	mov	sp,fp
   10134:	df000017 	ldw	fp,0(sp)
   10138:	dec00104 	addi	sp,sp,4
   1013c:	f800283a 	ret

00010140 <alt_get_errno>:
#undef errno

extern int errno;

static ALT_INLINE int* alt_get_errno(void)
{
   10140:	defffe04 	addi	sp,sp,-8
   10144:	dfc00115 	stw	ra,4(sp)
   10148:	df000015 	stw	fp,0(sp)
   1014c:	d839883a 	mov	fp,sp
  return ((alt_errno) ? alt_errno() : &errno);
   10150:	d0a00b17 	ldw	r2,-32724(gp)
   10154:	10000326 	beq	r2,zero,10164 <alt_get_errno+0x24>
   10158:	d0a00b17 	ldw	r2,-32724(gp)
   1015c:	103ee83a 	callr	r2
   10160:	00000106 	br	10168 <alt_get_errno+0x28>
   10164:	d0a71504 	addi	r2,gp,-25516
}
   10168:	e037883a 	mov	sp,fp
   1016c:	dfc00117 	ldw	ra,4(sp)
   10170:	df000017 	ldw	fp,0(sp)
   10174:	dec00204 	addi	sp,sp,8
   10178:	f800283a 	ret

0001017c <fstat>:
}

#else /* !ALT_USE_DIRECT_DRIVERS */

int ALT_FSTAT (int file, struct stat *st)
{
   1017c:	defffb04 	addi	sp,sp,-20
   10180:	dfc00415 	stw	ra,16(sp)
   10184:	df000315 	stw	fp,12(sp)
   10188:	df000304 	addi	fp,sp,12
   1018c:	e13ffe15 	stw	r4,-8(fp)
   10190:	e17fff15 	stw	r5,-4(fp)
   * A common error case is that when the file descriptor was created, the call
   * to open() failed resulting in a negative file descriptor. This is trapped
   * below so that we don't try and process an invalid file descriptor.
   */

  fd = (file < 0) ? NULL : &alt_fd_list[file];
   10194:	e0bffe17 	ldw	r2,-8(fp)
   10198:	10000816 	blt	r2,zero,101bc <fstat+0x40>
   1019c:	01400304 	movi	r5,12
   101a0:	e13ffe17 	ldw	r4,-8(fp)
   101a4:	00033480 	call	3348 <__mulsi3>
   101a8:	1007883a 	mov	r3,r2
   101ac:	00800074 	movhi	r2,1
   101b0:	108f5904 	addi	r2,r2,15716
   101b4:	1885883a 	add	r2,r3,r2
   101b8:	00000106 	br	101c0 <fstat+0x44>
   101bc:	0005883a 	mov	r2,zero
   101c0:	e0bffd15 	stw	r2,-12(fp)
  
  if (fd)
   101c4:	e0bffd17 	ldw	r2,-12(fp)
   101c8:	10001026 	beq	r2,zero,1020c <fstat+0x90>
  {
    /* Call the drivers fstat() function to fill out the "st" structure. */

    if (fd->dev->fstat)
   101cc:	e0bffd17 	ldw	r2,-12(fp)
   101d0:	10800017 	ldw	r2,0(r2)
   101d4:	10800817 	ldw	r2,32(r2)
   101d8:	10000726 	beq	r2,zero,101f8 <fstat+0x7c>
    {
      return fd->dev->fstat(fd, st);
   101dc:	e0bffd17 	ldw	r2,-12(fp)
   101e0:	10800017 	ldw	r2,0(r2)
   101e4:	10800817 	ldw	r2,32(r2)
   101e8:	e17fff17 	ldw	r5,-4(fp)
   101ec:	e13ffd17 	ldw	r4,-12(fp)
   101f0:	103ee83a 	callr	r2
   101f4:	00000a06 	br	10220 <fstat+0xa4>
     * device.
     */
 
    else
    {
      st->st_mode = _IFCHR;
   101f8:	e0bfff17 	ldw	r2,-4(fp)
   101fc:	00c80004 	movi	r3,8192
   10200:	10c00115 	stw	r3,4(r2)
      return 0;
   10204:	0005883a 	mov	r2,zero
   10208:	00000506 	br	10220 <fstat+0xa4>
    }
  }
  else
  {
    ALT_ERRNO = EBADFD;
   1020c:	00101400 	call	10140 <alt_get_errno>
   10210:	1007883a 	mov	r3,r2
   10214:	00801444 	movi	r2,81
   10218:	18800015 	stw	r2,0(r3)
    return -1;
   1021c:	00bfffc4 	movi	r2,-1
  }
}
   10220:	e037883a 	mov	sp,fp
   10224:	dfc00117 	ldw	ra,4(sp)
   10228:	df000017 	ldw	fp,0(sp)
   1022c:	dec00204 	addi	sp,sp,8
   10230:	f800283a 	ret

00010234 <alt_get_errno>:
#undef errno

extern int errno;

static ALT_INLINE int* alt_get_errno(void)
{
   10234:	defffe04 	addi	sp,sp,-8
   10238:	dfc00115 	stw	ra,4(sp)
   1023c:	df000015 	stw	fp,0(sp)
   10240:	d839883a 	mov	fp,sp
  return ((alt_errno) ? alt_errno() : &errno);
   10244:	d0a00b17 	ldw	r2,-32724(gp)
   10248:	10000326 	beq	r2,zero,10258 <alt_get_errno+0x24>
   1024c:	d0a00b17 	ldw	r2,-32724(gp)
   10250:	103ee83a 	callr	r2
   10254:	00000106 	br	1025c <alt_get_errno+0x28>
   10258:	d0a71504 	addi	r2,gp,-25516
}
   1025c:	e037883a 	mov	sp,fp
   10260:	dfc00117 	ldw	ra,4(sp)
   10264:	df000017 	ldw	fp,0(sp)
   10268:	dec00204 	addi	sp,sp,8
   1026c:	f800283a 	ret

00010270 <isatty>:
 *
 * ALT_ISATTY is mapped onto the isatty() system call in alt_syscall.h
 */
 
int ALT_ISATTY (int file)
{
   10270:	deffed04 	addi	sp,sp,-76
   10274:	dfc01215 	stw	ra,72(sp)
   10278:	df001115 	stw	fp,68(sp)
   1027c:	df001104 	addi	fp,sp,68
   10280:	e13fff15 	stw	r4,-4(fp)
   * A common error case is that when the file descriptor was created, the call
   * to open() failed resulting in a negative file descriptor. This is trapped
   * below so that we don't try and process an invalid file descriptor.
   */

  fd = (file < 0) ? NULL : &alt_fd_list[file];
   10284:	e0bfff17 	ldw	r2,-4(fp)
   10288:	10000816 	blt	r2,zero,102ac <isatty+0x3c>
   1028c:	01400304 	movi	r5,12
   10290:	e13fff17 	ldw	r4,-4(fp)
   10294:	00033480 	call	3348 <__mulsi3>
   10298:	1007883a 	mov	r3,r2
   1029c:	00800074 	movhi	r2,1
   102a0:	108f5904 	addi	r2,r2,15716
   102a4:	1885883a 	add	r2,r3,r2
   102a8:	00000106 	br	102b0 <isatty+0x40>
   102ac:	0005883a 	mov	r2,zero
   102b0:	e0bfef15 	stw	r2,-68(fp)
  
  if (fd)
   102b4:	e0bfef17 	ldw	r2,-68(fp)
   102b8:	10000e26 	beq	r2,zero,102f4 <isatty+0x84>
    /*
     * If a device driver does not provide an fstat() function, then it is 
     * treated as a terminal device by default.
     */

    if (!fd->dev->fstat)
   102bc:	e0bfef17 	ldw	r2,-68(fp)
   102c0:	10800017 	ldw	r2,0(r2)
   102c4:	10800817 	ldw	r2,32(r2)
   102c8:	1000021e 	bne	r2,zero,102d4 <isatty+0x64>
    {
      return 1;
   102cc:	00800044 	movi	r2,1
   102d0:	00000d06 	br	10308 <isatty+0x98>
     * this is called so that the device can identify itself.
     */ 

    else
    {
      fstat (file, &stat);
   102d4:	e0bff004 	addi	r2,fp,-64
   102d8:	100b883a 	mov	r5,r2
   102dc:	e13fff17 	ldw	r4,-4(fp)
   102e0:	001017c0 	call	1017c <fstat>
      return (stat.st_mode == _IFCHR) ? 1 : 0;
   102e4:	e0bff117 	ldw	r2,-60(fp)
   102e8:	10880020 	cmpeqi	r2,r2,8192
   102ec:	10803fcc 	andi	r2,r2,255
   102f0:	00000506 	br	10308 <isatty+0x98>
    }
  }
  else
  {
    ALT_ERRNO = EBADFD;
   102f4:	00102340 	call	10234 <alt_get_errno>
   102f8:	1007883a 	mov	r3,r2
   102fc:	00801444 	movi	r2,81
   10300:	18800015 	stw	r2,0(r3)
    return 0;
   10304:	0005883a 	mov	r2,zero
  }
}
   10308:	e037883a 	mov	sp,fp
   1030c:	dfc00117 	ldw	ra,4(sp)
   10310:	df000017 	ldw	fp,0(sp)
   10314:	dec00204 	addi	sp,sp,8
   10318:	f800283a 	ret

0001031c <alt_load_section>:
 */

static void ALT_INLINE alt_load_section (alt_u32* from, 
                                         alt_u32* to, 
                                         alt_u32* end)
{
   1031c:	defffc04 	addi	sp,sp,-16
   10320:	df000315 	stw	fp,12(sp)
   10324:	df000304 	addi	fp,sp,12
   10328:	e13ffd15 	stw	r4,-12(fp)
   1032c:	e17ffe15 	stw	r5,-8(fp)
   10330:	e1bfff15 	stw	r6,-4(fp)
  if (to != from)
   10334:	e0fffe17 	ldw	r3,-8(fp)
   10338:	e0bffd17 	ldw	r2,-12(fp)
   1033c:	18800c26 	beq	r3,r2,10370 <alt_load_section+0x54>
  {
    while( to != end )
   10340:	00000806 	br	10364 <alt_load_section+0x48>
    {
      *to++ = *from++;
   10344:	e0bffe17 	ldw	r2,-8(fp)
   10348:	10c00104 	addi	r3,r2,4
   1034c:	e0fffe15 	stw	r3,-8(fp)
   10350:	e0fffd17 	ldw	r3,-12(fp)
   10354:	19000104 	addi	r4,r3,4
   10358:	e13ffd15 	stw	r4,-12(fp)
   1035c:	18c00017 	ldw	r3,0(r3)
   10360:	10c00015 	stw	r3,0(r2)
                                         alt_u32* to, 
                                         alt_u32* end)
{
  if (to != from)
  {
    while( to != end )
   10364:	e0fffe17 	ldw	r3,-8(fp)
   10368:	e0bfff17 	ldw	r2,-4(fp)
   1036c:	18bff51e 	bne	r3,r2,10344 <__alt_mem_VGA_Subsystem_Char_Buf_Subsystem_Onchip_SRAM+0xf7010344>
    {
      *to++ = *from++;
    }
  }
}
   10370:	0001883a 	nop
   10374:	e037883a 	mov	sp,fp
   10378:	df000017 	ldw	fp,0(sp)
   1037c:	dec00104 	addi	sp,sp,4
   10380:	f800283a 	ret

00010384 <alt_load>:
 * there is no bootloader, so this application is responsible for loading to
 * RAM any sections that are required.
 */  

void alt_load (void)
{
   10384:	defffe04 	addi	sp,sp,-8
   10388:	dfc00115 	stw	ra,4(sp)
   1038c:	df000015 	stw	fp,0(sp)
   10390:	d839883a 	mov	fp,sp
  /* 
   * Copy the .rwdata section. 
   */

  alt_load_section (&__flash_rwdata_start, 
   10394:	01800074 	movhi	r6,1
   10398:	31942004 	addi	r6,r6,20608
   1039c:	01400074 	movhi	r5,1
   103a0:	294d2604 	addi	r5,r5,13464
   103a4:	01000074 	movhi	r4,1
   103a8:	21142004 	addi	r4,r4,20608
   103ac:	001031c0 	call	1031c <alt_load_section>

  /*
   * Copy the exception handler.
   */

  alt_load_section (&__flash_exceptions_start, 
   103b0:	01800034 	movhi	r6,0
   103b4:	31808c04 	addi	r6,r6,560
   103b8:	01400034 	movhi	r5,0
   103bc:	29400804 	addi	r5,r5,32
   103c0:	01000034 	movhi	r4,0
   103c4:	21000804 	addi	r4,r4,32
   103c8:	001031c0 	call	1031c <alt_load_section>

  /*
   * Copy the .rodata section.
   */

  alt_load_section (&__flash_rodata_start, 
   103cc:	01800074 	movhi	r6,1
   103d0:	318d2604 	addi	r6,r6,13464
   103d4:	01400074 	movhi	r5,1
   103d8:	294bcb04 	addi	r5,r5,12076
   103dc:	01000074 	movhi	r4,1
   103e0:	210bcb04 	addi	r4,r4,12076
   103e4:	001031c0 	call	1031c <alt_load_section>
  
  /*
   * Now ensure that the caches are in synch.
   */
  
  alt_dcache_flush_all();
   103e8:	0011e740 	call	11e74 <alt_dcache_flush_all>
  alt_icache_flush_all();
   103ec:	00120340 	call	12034 <alt_icache_flush_all>
}
   103f0:	0001883a 	nop
   103f4:	e037883a 	mov	sp,fp
   103f8:	dfc00117 	ldw	ra,4(sp)
   103fc:	df000017 	ldw	fp,0(sp)
   10400:	dec00204 	addi	sp,sp,8
   10404:	f800283a 	ret

00010408 <alt_get_errno>:
#undef errno

extern int errno;

static ALT_INLINE int* alt_get_errno(void)
{
   10408:	defffe04 	addi	sp,sp,-8
   1040c:	dfc00115 	stw	ra,4(sp)
   10410:	df000015 	stw	fp,0(sp)
   10414:	d839883a 	mov	fp,sp
  return ((alt_errno) ? alt_errno() : &errno);
   10418:	d0a00b17 	ldw	r2,-32724(gp)
   1041c:	10000326 	beq	r2,zero,1042c <alt_get_errno+0x24>
   10420:	d0a00b17 	ldw	r2,-32724(gp)
   10424:	103ee83a 	callr	r2
   10428:	00000106 	br	10430 <alt_get_errno+0x28>
   1042c:	d0a71504 	addi	r2,gp,-25516
}
   10430:	e037883a 	mov	sp,fp
   10434:	dfc00117 	ldw	ra,4(sp)
   10438:	df000017 	ldw	fp,0(sp)
   1043c:	dec00204 	addi	sp,sp,8
   10440:	f800283a 	ret

00010444 <lseek>:
 * ALT_LSEEK is mapped onto the lseek() system call in alt_syscall.h
 *
 */

off_t ALT_LSEEK (int file, off_t ptr, int dir)
{
   10444:	defff904 	addi	sp,sp,-28
   10448:	dfc00615 	stw	ra,24(sp)
   1044c:	df000515 	stw	fp,20(sp)
   10450:	df000504 	addi	fp,sp,20
   10454:	e13ffd15 	stw	r4,-12(fp)
   10458:	e17ffe15 	stw	r5,-8(fp)
   1045c:	e1bfff15 	stw	r6,-4(fp)
  alt_fd* fd;
  off_t   rc = 0; 
   10460:	e03ffb15 	stw	zero,-20(fp)
   * A common error case is that when the file descriptor was created, the call
   * to open() failed resulting in a negative file descriptor. This is trapped
   * below so that we don't try and process an invalid file descriptor.
   */

  fd = (file < 0) ? NULL : &alt_fd_list[file];
   10464:	e0bffd17 	ldw	r2,-12(fp)
   10468:	10000816 	blt	r2,zero,1048c <lseek+0x48>
   1046c:	01400304 	movi	r5,12
   10470:	e13ffd17 	ldw	r4,-12(fp)
   10474:	00033480 	call	3348 <__mulsi3>
   10478:	1007883a 	mov	r3,r2
   1047c:	00800074 	movhi	r2,1
   10480:	108f5904 	addi	r2,r2,15716
   10484:	1885883a 	add	r2,r3,r2
   10488:	00000106 	br	10490 <lseek+0x4c>
   1048c:	0005883a 	mov	r2,zero
   10490:	e0bffc15 	stw	r2,-16(fp)
  
  if (fd) 
   10494:	e0bffc17 	ldw	r2,-16(fp)
   10498:	10001026 	beq	r2,zero,104dc <lseek+0x98>
    /*
     * If the device driver provides an implementation of the lseek() function,
     * then call that to process the request.
     */
 
    if (fd->dev->lseek)
   1049c:	e0bffc17 	ldw	r2,-16(fp)
   104a0:	10800017 	ldw	r2,0(r2)
   104a4:	10800717 	ldw	r2,28(r2)
   104a8:	10000926 	beq	r2,zero,104d0 <lseek+0x8c>
    {
      rc = fd->dev->lseek(fd, ptr, dir);
   104ac:	e0bffc17 	ldw	r2,-16(fp)
   104b0:	10800017 	ldw	r2,0(r2)
   104b4:	10800717 	ldw	r2,28(r2)
   104b8:	e1bfff17 	ldw	r6,-4(fp)
   104bc:	e17ffe17 	ldw	r5,-8(fp)
   104c0:	e13ffc17 	ldw	r4,-16(fp)
   104c4:	103ee83a 	callr	r2
   104c8:	e0bffb15 	stw	r2,-20(fp)
   104cc:	00000506 	br	104e4 <lseek+0xa0>
     * Otherwise return an error.
     */

    else
    {
      rc = -ENOTSUP;
   104d0:	00bfde84 	movi	r2,-134
   104d4:	e0bffb15 	stw	r2,-20(fp)
   104d8:	00000206 	br	104e4 <lseek+0xa0>
    }
  }
  else  
  {
    rc = -EBADFD;
   104dc:	00bfebc4 	movi	r2,-81
   104e0:	e0bffb15 	stw	r2,-20(fp)
  }

  if (rc < 0)
   104e4:	e0bffb17 	ldw	r2,-20(fp)
   104e8:	1000070e 	bge	r2,zero,10508 <lseek+0xc4>
  {
    ALT_ERRNO = -rc;
   104ec:	00104080 	call	10408 <alt_get_errno>
   104f0:	1007883a 	mov	r3,r2
   104f4:	e0bffb17 	ldw	r2,-20(fp)
   104f8:	0085c83a 	sub	r2,zero,r2
   104fc:	18800015 	stw	r2,0(r3)
    rc = -1;
   10500:	00bfffc4 	movi	r2,-1
   10504:	e0bffb15 	stw	r2,-20(fp)
  }

  return rc;
   10508:	e0bffb17 	ldw	r2,-20(fp)
}
   1050c:	e037883a 	mov	sp,fp
   10510:	dfc00117 	ldw	ra,4(sp)
   10514:	df000017 	ldw	fp,0(sp)
   10518:	dec00204 	addi	sp,sp,8
   1051c:	f800283a 	ret

00010520 <alt_main>:
 * devices/filesystems/components in the system; and call the entry point for
 * the users application, i.e. main().
 */

void alt_main (void)
{
   10520:	defffd04 	addi	sp,sp,-12
   10524:	dfc00215 	stw	ra,8(sp)
   10528:	df000115 	stw	fp,4(sp)
   1052c:	df000104 	addi	fp,sp,4
#endif

  /* ALT LOG - please see HAL/sys/alt_log_printf.h for details */
  ALT_LOG_PRINT_BOOT("[alt_main.c] Entering alt_main, calling alt_irq_init.\r\n");
  /* Initialize the interrupt controller. */
  alt_irq_init (NULL);
   10530:	0009883a 	mov	r4,zero
   10534:	00109f80 	call	109f8 <alt_irq_init>

  /* Initialize the operating system */
  ALT_LOG_PRINT_BOOT("[alt_main.c] Done alt_irq_init, calling alt_os_init.\r\n");
  ALT_OS_INIT();
   10538:	0001883a 	nop
  ALT_LOG_PRINT_BOOT("[alt_main.c] Done OS Init, calling alt_sem_create.\r\n");
  ALT_SEM_CREATE (&alt_fd_list_lock, 1);

  /* Initialize the device drivers/software components. */
  ALT_LOG_PRINT_BOOT("[alt_main.c] Calling alt_sys_init.\r\n");
  alt_sys_init();
   1053c:	0010a300 	call	10a30 <alt_sys_init>
   * devices be present (not equal to /dev/null) and if direct drivers
   * aren't being used.
   */

    ALT_LOG_PRINT_BOOT("[alt_main.c] Redirecting IO.\r\n");
    alt_io_redirect(ALT_STDOUT, ALT_STDIN, ALT_STDERR);
   10540:	01800074 	movhi	r6,1
   10544:	318cfd04 	addi	r6,r6,13300
   10548:	01400074 	movhi	r5,1
   1054c:	294cfd04 	addi	r5,r5,13300
   10550:	01000074 	movhi	r4,1
   10554:	210cfd04 	addi	r4,r4,13300
   10558:	00123d80 	call	123d8 <alt_io_redirect>
  /* 
   * Call the C++ constructors 
   */

  ALT_LOG_PRINT_BOOT("[alt_main.c] Calling C++ constructors.\r\n");
  _do_ctors ();
   1055c:	0011f740 	call	11f74 <_do_ctors>
   * redefined as _exit()). This is in the interest of reducing code footprint,
   * in that the atexit() overhead is removed when it's not needed.
   */

  ALT_LOG_PRINT_BOOT("[alt_main.c] Calling atexit.\r\n");
  atexit (_do_dtors);
   10560:	01000074 	movhi	r4,1
   10564:	2107f504 	addi	r4,r4,8148
   10568:	0012b980 	call	12b98 <atexit>
  ALT_LOG_PRINT_BOOT("[alt_main.c] Calling main.\r\n");

#ifdef ALT_NO_EXIT
  main (alt_argc, alt_argv, alt_envp);
#else
  result = main (alt_argc, alt_argv, alt_envp);
   1056c:	d0a71617 	ldw	r2,-25512(gp)
   10570:	d0e71717 	ldw	r3,-25508(gp)
   10574:	d1271817 	ldw	r4,-25504(gp)
   10578:	200d883a 	mov	r6,r4
   1057c:	180b883a 	mov	r5,r3
   10580:	1009883a 	mov	r4,r2
   10584:	00009fc0 	call	9fc <main>
   10588:	e0bfff15 	stw	r2,-4(fp)
  close(STDOUT_FILENO);
   1058c:	01000044 	movi	r4,1
   10590:	001003c0 	call	1003c <close>
  exit (result);
   10594:	e13fff17 	ldw	r4,-4(fp)
   10598:	0012bac0 	call	12bac <exit>

0001059c <__malloc_lock>:
 * configuration is single threaded, so there is nothing to do here. Note that 
 * this requires that malloc is never called by an interrupt service routine.
 */

void __malloc_lock ( struct _reent *_r )
{
   1059c:	defffe04 	addi	sp,sp,-8
   105a0:	df000115 	stw	fp,4(sp)
   105a4:	df000104 	addi	fp,sp,4
   105a8:	e13fff15 	stw	r4,-4(fp)
}
   105ac:	0001883a 	nop
   105b0:	e037883a 	mov	sp,fp
   105b4:	df000017 	ldw	fp,0(sp)
   105b8:	dec00104 	addi	sp,sp,4
   105bc:	f800283a 	ret

000105c0 <__malloc_unlock>:
/*
 *
 */

void __malloc_unlock ( struct _reent *_r )
{
   105c0:	defffe04 	addi	sp,sp,-8
   105c4:	df000115 	stw	fp,4(sp)
   105c8:	df000104 	addi	fp,sp,4
   105cc:	e13fff15 	stw	r4,-4(fp)
}
   105d0:	0001883a 	nop
   105d4:	e037883a 	mov	sp,fp
   105d8:	df000017 	ldw	fp,0(sp)
   105dc:	dec00104 	addi	sp,sp,4
   105e0:	f800283a 	ret

000105e4 <alt_get_errno>:
#undef errno

extern int errno;

static ALT_INLINE int* alt_get_errno(void)
{
   105e4:	defffe04 	addi	sp,sp,-8
   105e8:	dfc00115 	stw	ra,4(sp)
   105ec:	df000015 	stw	fp,0(sp)
   105f0:	d839883a 	mov	fp,sp
  return ((alt_errno) ? alt_errno() : &errno);
   105f4:	d0a00b17 	ldw	r2,-32724(gp)
   105f8:	10000326 	beq	r2,zero,10608 <alt_get_errno+0x24>
   105fc:	d0a00b17 	ldw	r2,-32724(gp)
   10600:	103ee83a 	callr	r2
   10604:	00000106 	br	1060c <alt_get_errno+0x28>
   10608:	d0a71504 	addi	r2,gp,-25516
}
   1060c:	e037883a 	mov	sp,fp
   10610:	dfc00117 	ldw	ra,4(sp)
   10614:	df000017 	ldw	fp,0(sp)
   10618:	dec00204 	addi	sp,sp,8
   1061c:	f800283a 	ret

00010620 <read>:
}

#else /* !ALT_USE_DIRECT_DRIVERS */

int ALT_READ (int file, void *ptr, size_t len)
{
   10620:	defff904 	addi	sp,sp,-28
   10624:	dfc00615 	stw	ra,24(sp)
   10628:	df000515 	stw	fp,20(sp)
   1062c:	df000504 	addi	fp,sp,20
   10630:	e13ffd15 	stw	r4,-12(fp)
   10634:	e17ffe15 	stw	r5,-8(fp)
   10638:	e1bfff15 	stw	r6,-4(fp)
   * A common error case is that when the file descriptor was created, the call
   * to open() failed resulting in a negative file descriptor. This is trapped
   * below so that we don't try and process an invalid file descriptor.
   */

  fd = (file < 0) ? NULL : &alt_fd_list[file];
   1063c:	e0bffd17 	ldw	r2,-12(fp)
   10640:	10000816 	blt	r2,zero,10664 <read+0x44>
   10644:	01400304 	movi	r5,12
   10648:	e13ffd17 	ldw	r4,-12(fp)
   1064c:	00033480 	call	3348 <__mulsi3>
   10650:	1007883a 	mov	r3,r2
   10654:	00800074 	movhi	r2,1
   10658:	108f5904 	addi	r2,r2,15716
   1065c:	1885883a 	add	r2,r3,r2
   10660:	00000106 	br	10668 <read+0x48>
   10664:	0005883a 	mov	r2,zero
   10668:	e0bffb15 	stw	r2,-20(fp)
  
  if (fd)
   1066c:	e0bffb17 	ldw	r2,-20(fp)
   10670:	10002226 	beq	r2,zero,106fc <read+0xdc>
     * If the file has not been opened with read access, or if the driver does
     * not provide an implementation of read(), generate an error. Otherwise
     * call the drivers read() function to process the request.
     */

    if (((fd->fd_flags & O_ACCMODE) != O_WRONLY) && 
   10674:	e0bffb17 	ldw	r2,-20(fp)
   10678:	10800217 	ldw	r2,8(r2)
   1067c:	108000cc 	andi	r2,r2,3
   10680:	10800060 	cmpeqi	r2,r2,1
   10684:	1000181e 	bne	r2,zero,106e8 <read+0xc8>
        (fd->dev->read))
   10688:	e0bffb17 	ldw	r2,-20(fp)
   1068c:	10800017 	ldw	r2,0(r2)
   10690:	10800517 	ldw	r2,20(r2)
     * If the file has not been opened with read access, or if the driver does
     * not provide an implementation of read(), generate an error. Otherwise
     * call the drivers read() function to process the request.
     */

    if (((fd->fd_flags & O_ACCMODE) != O_WRONLY) && 
   10694:	10001426 	beq	r2,zero,106e8 <read+0xc8>
        (fd->dev->read))
      {
        if ((rval = fd->dev->read(fd, ptr, len)) < 0)
   10698:	e0bffb17 	ldw	r2,-20(fp)
   1069c:	10800017 	ldw	r2,0(r2)
   106a0:	10800517 	ldw	r2,20(r2)
   106a4:	e0ffff17 	ldw	r3,-4(fp)
   106a8:	180d883a 	mov	r6,r3
   106ac:	e17ffe17 	ldw	r5,-8(fp)
   106b0:	e13ffb17 	ldw	r4,-20(fp)
   106b4:	103ee83a 	callr	r2
   106b8:	e0bffc15 	stw	r2,-16(fp)
   106bc:	e0bffc17 	ldw	r2,-16(fp)
   106c0:	1000070e 	bge	r2,zero,106e0 <read+0xc0>
        {
          ALT_ERRNO = -rval;
   106c4:	00105e40 	call	105e4 <alt_get_errno>
   106c8:	1007883a 	mov	r3,r2
   106cc:	e0bffc17 	ldw	r2,-16(fp)
   106d0:	0085c83a 	sub	r2,zero,r2
   106d4:	18800015 	stw	r2,0(r3)
          return -1;
   106d8:	00bfffc4 	movi	r2,-1
   106dc:	00000c06 	br	10710 <read+0xf0>
        }
        return rval;
   106e0:	e0bffc17 	ldw	r2,-16(fp)
   106e4:	00000a06 	br	10710 <read+0xf0>
      }
      else
      {
        ALT_ERRNO = EACCES;
   106e8:	00105e40 	call	105e4 <alt_get_errno>
   106ec:	1007883a 	mov	r3,r2
   106f0:	00800344 	movi	r2,13
   106f4:	18800015 	stw	r2,0(r3)
   106f8:	00000406 	br	1070c <read+0xec>
      }
    }
  else
  {
    ALT_ERRNO = EBADFD;
   106fc:	00105e40 	call	105e4 <alt_get_errno>
   10700:	1007883a 	mov	r3,r2
   10704:	00801444 	movi	r2,81
   10708:	18800015 	stw	r2,0(r3)
  }
  return -1;
   1070c:	00bfffc4 	movi	r2,-1
}
   10710:	e037883a 	mov	sp,fp
   10714:	dfc00117 	ldw	ra,4(sp)
   10718:	df000017 	ldw	fp,0(sp)
   1071c:	dec00204 	addi	sp,sp,8
   10720:	f800283a 	ret

00010724 <alt_release_fd>:
 * File descriptors correcponding to standard in, standard out and standard 
 * error cannont be released backed to the pool. They are always reserved.
 */

void alt_release_fd (int fd)
{
   10724:	defffc04 	addi	sp,sp,-16
   10728:	dfc00315 	stw	ra,12(sp)
   1072c:	df000215 	stw	fp,8(sp)
   10730:	dc000115 	stw	r16,4(sp)
   10734:	df000204 	addi	fp,sp,8
   10738:	e13ffe15 	stw	r4,-8(fp)
  if (fd > 2)
   1073c:	e0bffe17 	ldw	r2,-8(fp)
   10740:	108000d0 	cmplti	r2,r2,3
   10744:	1000111e 	bne	r2,zero,1078c <alt_release_fd+0x68>
  {
    alt_fd_list[fd].fd_flags = 0;
   10748:	04000074 	movhi	r16,1
   1074c:	840f5904 	addi	r16,r16,15716
   10750:	e0bffe17 	ldw	r2,-8(fp)
   10754:	01400304 	movi	r5,12
   10758:	1009883a 	mov	r4,r2
   1075c:	00033480 	call	3348 <__mulsi3>
   10760:	8085883a 	add	r2,r16,r2
   10764:	10800204 	addi	r2,r2,8
   10768:	10000015 	stw	zero,0(r2)
    alt_fd_list[fd].dev      = 0;
   1076c:	04000074 	movhi	r16,1
   10770:	840f5904 	addi	r16,r16,15716
   10774:	e0bffe17 	ldw	r2,-8(fp)
   10778:	01400304 	movi	r5,12
   1077c:	1009883a 	mov	r4,r2
   10780:	00033480 	call	3348 <__mulsi3>
   10784:	8085883a 	add	r2,r16,r2
   10788:	10000015 	stw	zero,0(r2)
  }
}
   1078c:	0001883a 	nop
   10790:	e6ffff04 	addi	sp,fp,-4
   10794:	dfc00217 	ldw	ra,8(sp)
   10798:	df000117 	ldw	fp,4(sp)
   1079c:	dc000017 	ldw	r16,0(sp)
   107a0:	dec00304 	addi	sp,sp,12
   107a4:	f800283a 	ret

000107a8 <sbrk>:
#endif
 
caddr_t ALT_SBRK (int incr) __attribute__ ((no_instrument_function ));

caddr_t ALT_SBRK (int incr)
{ 
   107a8:	defff904 	addi	sp,sp,-28
   107ac:	df000615 	stw	fp,24(sp)
   107b0:	df000604 	addi	fp,sp,24
   107b4:	e13fff15 	stw	r4,-4(fp)
static ALT_INLINE alt_irq_context ALT_ALWAYS_INLINE 
       alt_irq_disable_all (void)
{
  alt_irq_context context;

  NIOS2_READ_STATUS (context);
   107b8:	0005303a 	rdctl	r2,status
   107bc:	e0bffe15 	stw	r2,-8(fp)

  NIOS2_WRITE_STATUS (context & ~NIOS2_STATUS_PIE_MSK);
   107c0:	e0fffe17 	ldw	r3,-8(fp)
   107c4:	00bfff84 	movi	r2,-2
   107c8:	1884703a 	and	r2,r3,r2
   107cc:	1001703a 	wrctl	status,r2
  
  return context;
   107d0:	e0bffe17 	ldw	r2,-8(fp)
  alt_irq_context context;
  char *prev_heap_end; 

  context = alt_irq_disable_all();
   107d4:	e0bffb15 	stw	r2,-20(fp)

  /* Always return data aligned on a word boundary */
  heap_end = (char *)(((unsigned int)heap_end + 3) & ~3);
   107d8:	d0a00c17 	ldw	r2,-32720(gp)
   107dc:	10c000c4 	addi	r3,r2,3
   107e0:	00bfff04 	movi	r2,-4
   107e4:	1884703a 	and	r2,r3,r2
   107e8:	d0a00c15 	stw	r2,-32720(gp)
  if (((heap_end + incr) - __alt_heap_start) > ALT_MAX_HEAP_BYTES) {
    alt_irq_enable_all(context);
    return (caddr_t)-1;
  }
#else
  if ((heap_end + incr) > __alt_heap_limit) {
   107ec:	d0e00c17 	ldw	r3,-32720(gp)
   107f0:	e0bfff17 	ldw	r2,-4(fp)
   107f4:	1887883a 	add	r3,r3,r2
   107f8:	00810034 	movhi	r2,1024
   107fc:	10800004 	addi	r2,r2,0
   10800:	10c0062e 	bgeu	r2,r3,1081c <sbrk+0x74>
   10804:	e0bffb17 	ldw	r2,-20(fp)
   10808:	e0bffa15 	stw	r2,-24(fp)
  status &= ~NIOS2_STATUS_PIE_MSK;
  status |= (context & NIOS2_STATUS_PIE_MSK);
  
  NIOS2_WRITE_STATUS (status);
#else
  NIOS2_WRITE_STATUS (context);
   1080c:	e0bffa17 	ldw	r2,-24(fp)
   10810:	1001703a 	wrctl	status,r2
    alt_irq_enable_all(context);
    return (caddr_t)-1;
   10814:	00bfffc4 	movi	r2,-1
   10818:	00000b06 	br	10848 <sbrk+0xa0>
  }
#endif

  prev_heap_end = heap_end; 
   1081c:	d0a00c17 	ldw	r2,-32720(gp)
   10820:	e0bffd15 	stw	r2,-12(fp)
  heap_end += incr; 
   10824:	d0e00c17 	ldw	r3,-32720(gp)
   10828:	e0bfff17 	ldw	r2,-4(fp)
   1082c:	1885883a 	add	r2,r3,r2
   10830:	d0a00c15 	stw	r2,-32720(gp)
   10834:	e0bffb17 	ldw	r2,-20(fp)
   10838:	e0bffc15 	stw	r2,-16(fp)
   1083c:	e0bffc17 	ldw	r2,-16(fp)
   10840:	1001703a 	wrctl	status,r2

#endif

  alt_irq_enable_all(context);

  return (caddr_t) prev_heap_end; 
   10844:	e0bffd17 	ldw	r2,-12(fp)
} 
   10848:	e037883a 	mov	sp,fp
   1084c:	df000017 	ldw	fp,0(sp)
   10850:	dec00104 	addi	sp,sp,4
   10854:	f800283a 	ret

00010858 <usleep>:
#if defined (__GNUC__) && __GNUC__ >= 4
int ALT_USLEEP (useconds_t us)
#else
unsigned int ALT_USLEEP (unsigned int us)
#endif
{
   10858:	defffd04 	addi	sp,sp,-12
   1085c:	dfc00215 	stw	ra,8(sp)
   10860:	df000115 	stw	fp,4(sp)
   10864:	df000104 	addi	fp,sp,4
   10868:	e13fff15 	stw	r4,-4(fp)
  return alt_busy_sleep(us);
   1086c:	e13fff17 	ldw	r4,-4(fp)
   10870:	0011d1c0 	call	11d1c <alt_busy_sleep>
}
   10874:	e037883a 	mov	sp,fp
   10878:	dfc00117 	ldw	ra,4(sp)
   1087c:	df000017 	ldw	fp,0(sp)
   10880:	dec00204 	addi	sp,sp,8
   10884:	f800283a 	ret

00010888 <alt_get_errno>:
#undef errno

extern int errno;

static ALT_INLINE int* alt_get_errno(void)
{
   10888:	defffe04 	addi	sp,sp,-8
   1088c:	dfc00115 	stw	ra,4(sp)
   10890:	df000015 	stw	fp,0(sp)
   10894:	d839883a 	mov	fp,sp
  return ((alt_errno) ? alt_errno() : &errno);
   10898:	d0a00b17 	ldw	r2,-32724(gp)
   1089c:	10000326 	beq	r2,zero,108ac <alt_get_errno+0x24>
   108a0:	d0a00b17 	ldw	r2,-32724(gp)
   108a4:	103ee83a 	callr	r2
   108a8:	00000106 	br	108b0 <alt_get_errno+0x28>
   108ac:	d0a71504 	addi	r2,gp,-25516
}
   108b0:	e037883a 	mov	sp,fp
   108b4:	dfc00117 	ldw	ra,4(sp)
   108b8:	df000017 	ldw	fp,0(sp)
   108bc:	dec00204 	addi	sp,sp,8
   108c0:	f800283a 	ret

000108c4 <write>:
}

#else /* !ALT_USE_DIRECT_DRIVERS */

int ALT_WRITE (int file, const void *ptr, size_t len)
{
   108c4:	defff904 	addi	sp,sp,-28
   108c8:	dfc00615 	stw	ra,24(sp)
   108cc:	df000515 	stw	fp,20(sp)
   108d0:	df000504 	addi	fp,sp,20
   108d4:	e13ffd15 	stw	r4,-12(fp)
   108d8:	e17ffe15 	stw	r5,-8(fp)
   108dc:	e1bfff15 	stw	r6,-4(fp)
   * A common error case is that when the file descriptor was created, the call
   * to open() failed resulting in a negative file descriptor. This is trapped
   * below so that we don't try and process an invalid file descriptor.
   */

  fd = (file < 0) ? NULL : &alt_fd_list[file];
   108e0:	e0bffd17 	ldw	r2,-12(fp)
   108e4:	10000816 	blt	r2,zero,10908 <write+0x44>
   108e8:	01400304 	movi	r5,12
   108ec:	e13ffd17 	ldw	r4,-12(fp)
   108f0:	00033480 	call	3348 <__mulsi3>
   108f4:	1007883a 	mov	r3,r2
   108f8:	00800074 	movhi	r2,1
   108fc:	108f5904 	addi	r2,r2,15716
   10900:	1885883a 	add	r2,r3,r2
   10904:	00000106 	br	1090c <write+0x48>
   10908:	0005883a 	mov	r2,zero
   1090c:	e0bffb15 	stw	r2,-20(fp)
  
  if (fd)
   10910:	e0bffb17 	ldw	r2,-20(fp)
   10914:	10002126 	beq	r2,zero,1099c <write+0xd8>
     * If the file has not been opened with write access, or if the driver does
     * not provide an implementation of write(), generate an error. Otherwise
     * call the drivers write() function to process the request.
     */

    if (((fd->fd_flags & O_ACCMODE) != O_RDONLY) && fd->dev->write)
   10918:	e0bffb17 	ldw	r2,-20(fp)
   1091c:	10800217 	ldw	r2,8(r2)
   10920:	108000cc 	andi	r2,r2,3
   10924:	10001826 	beq	r2,zero,10988 <write+0xc4>
   10928:	e0bffb17 	ldw	r2,-20(fp)
   1092c:	10800017 	ldw	r2,0(r2)
   10930:	10800617 	ldw	r2,24(r2)
   10934:	10001426 	beq	r2,zero,10988 <write+0xc4>
    {
      
      /* ALT_LOG - see altera_hal/HAL/inc/sys/alt_log_printf.h */
      ALT_LOG_WRITE_FUNCTION(ptr,len);

      if ((rval = fd->dev->write(fd, ptr, len)) < 0)
   10938:	e0bffb17 	ldw	r2,-20(fp)
   1093c:	10800017 	ldw	r2,0(r2)
   10940:	10800617 	ldw	r2,24(r2)
   10944:	e0ffff17 	ldw	r3,-4(fp)
   10948:	180d883a 	mov	r6,r3
   1094c:	e17ffe17 	ldw	r5,-8(fp)
   10950:	e13ffb17 	ldw	r4,-20(fp)
   10954:	103ee83a 	callr	r2
   10958:	e0bffc15 	stw	r2,-16(fp)
   1095c:	e0bffc17 	ldw	r2,-16(fp)
   10960:	1000070e 	bge	r2,zero,10980 <write+0xbc>
      {
        ALT_ERRNO = -rval;
   10964:	00108880 	call	10888 <alt_get_errno>
   10968:	1007883a 	mov	r3,r2
   1096c:	e0bffc17 	ldw	r2,-16(fp)
   10970:	0085c83a 	sub	r2,zero,r2
   10974:	18800015 	stw	r2,0(r3)
        return -1;
   10978:	00bfffc4 	movi	r2,-1
   1097c:	00000c06 	br	109b0 <write+0xec>
      }
      return rval;
   10980:	e0bffc17 	ldw	r2,-16(fp)
   10984:	00000a06 	br	109b0 <write+0xec>
    }
    else
    {
      ALT_ERRNO = EACCES;
   10988:	00108880 	call	10888 <alt_get_errno>
   1098c:	1007883a 	mov	r3,r2
   10990:	00800344 	movi	r2,13
   10994:	18800015 	stw	r2,0(r3)
   10998:	00000406 	br	109ac <write+0xe8>
    }
  }
  else  
  {
    ALT_ERRNO = EBADFD;
   1099c:	00108880 	call	10888 <alt_get_errno>
   109a0:	1007883a 	mov	r3,r2
   109a4:	00801444 	movi	r2,81
   109a8:	18800015 	stw	r2,0(r3)
  }
  return -1;
   109ac:	00bfffc4 	movi	r2,-1
}
   109b0:	e037883a 	mov	sp,fp
   109b4:	dfc00117 	ldw	ra,4(sp)
   109b8:	df000017 	ldw	fp,0(sp)
   109bc:	dec00204 	addi	sp,sp,8
   109c0:	f800283a 	ret

000109c4 <alt_dev_reg>:
 */

extern int alt_fs_reg  (alt_dev* dev); 

static ALT_INLINE int alt_dev_reg (alt_dev* dev)
{
   109c4:	defffd04 	addi	sp,sp,-12
   109c8:	dfc00215 	stw	ra,8(sp)
   109cc:	df000115 	stw	fp,4(sp)
   109d0:	df000104 	addi	fp,sp,4
   109d4:	e13fff15 	stw	r4,-4(fp)
  extern alt_llist alt_dev_list;

  return alt_dev_llist_insert ((alt_dev_llist*) dev, &alt_dev_list);
   109d8:	d1600804 	addi	r5,gp,-32736
   109dc:	e13fff17 	ldw	r4,-4(fp)
   109e0:	0011ed00 	call	11ed0 <alt_dev_llist_insert>
}
   109e4:	e037883a 	mov	sp,fp
   109e8:	dfc00117 	ldw	ra,4(sp)
   109ec:	df000017 	ldw	fp,0(sp)
   109f0:	dec00204 	addi	sp,sp,8
   109f4:	f800283a 	ret

000109f8 <alt_irq_init>:
 * The "base" parameter is ignored and only
 * present for backwards-compatibility.
 */

void alt_irq_init ( const void* base )
{
   109f8:	defffd04 	addi	sp,sp,-12
   109fc:	dfc00215 	stw	ra,8(sp)
   10a00:	df000115 	stw	fp,4(sp)
   10a04:	df000104 	addi	fp,sp,4
   10a08:	e13fff15 	stw	r4,-4(fp)
    ALTERA_NIOS2_GEN2_IRQ_INIT ( NIOS2, Nios2);
   10a0c:	001287c0 	call	1287c <altera_nios2_gen2_irq_init>
 * alt_irq_cpu_enable_interrupts() enables the CPU to start taking interrupts.
 */
static ALT_INLINE void ALT_ALWAYS_INLINE 
       alt_irq_cpu_enable_interrupts (void)
{
    NIOS2_WRITE_STATUS(NIOS2_STATUS_PIE_MSK
   10a10:	00800044 	movi	r2,1
   10a14:	1001703a 	wrctl	status,r2
    alt_irq_cpu_enable_interrupts();
}
   10a18:	0001883a 	nop
   10a1c:	e037883a 	mov	sp,fp
   10a20:	dfc00117 	ldw	ra,4(sp)
   10a24:	df000017 	ldw	fp,0(sp)
   10a28:	dec00204 	addi	sp,sp,8
   10a2c:	f800283a 	ret

00010a30 <alt_sys_init>:
 * Initialize the non-interrupt controller devices.
 * Called after alt_irq_init().
 */

void alt_sys_init( void )
{
   10a30:	defffc04 	addi	sp,sp,-16
   10a34:	dfc00315 	stw	ra,12(sp)
   10a38:	df000215 	stw	fp,8(sp)
   10a3c:	df000204 	addi	fp,sp,8
    ALTERA_AVALON_TIMER_INIT ( INTERVAL_TIMER, Interval_Timer);
   10a40:	01c00204 	movi	r7,8
   10a44:	000d883a 	mov	r6,zero
   10a48:	000b883a 	mov	r5,zero
   10a4c:	013fc834 	movhi	r4,65312
   10a50:	21080004 	addi	r4,r4,8192
   10a54:	0011b740 	call	11b74 <alt_avalon_timer_sc_init>
    ALTERA_AVALON_TIMER_INIT ( INTERVAL_TIMER_2, Interval_Timer_2);
    ALTERA_AVALON_JTAG_UART_INIT ( JTAG_UART, JTAG_UART);
   10a58:	01800204 	movi	r6,8
   10a5c:	000b883a 	mov	r5,zero
   10a60:	01000074 	movhi	r4,1
   10a64:	210fc304 	addi	r4,r4,16140
   10a68:	00111f80 	call	111f8 <altera_avalon_jtag_uart_init>
   10a6c:	01000074 	movhi	r4,1
   10a70:	210fb904 	addi	r4,r4,16100
   10a74:	00109c40 	call	109c4 <alt_dev_reg>
    ALTERA_AVALON_SYSID_QSYS_INIT ( SYSID, SysID);
   10a78:	0001883a 	nop
    ALTERA_UP_AVALON_VIDEO_DMA_CONTROLLER_INIT ( VGA_SUBSYSTEM_CHAR_BUF_SUBSYSTEM_CHAR_BUF_DMA, VGA_Subsystem_Char_Buf_Subsystem_Char_Buf_DMA);
   10a7c:	00800074 	movhi	r2,1
   10a80:	1093d104 	addi	r2,r2,20292
   10a84:	10800a17 	ldw	r2,40(r2)
   10a88:	10800017 	ldw	r2,0(r2)
   10a8c:	1007883a 	mov	r3,r2
   10a90:	00800074 	movhi	r2,1
   10a94:	1093d104 	addi	r2,r2,20292
   10a98:	10c00b15 	stw	r3,44(r2)
   10a9c:	00800074 	movhi	r2,1
   10aa0:	1093d104 	addi	r2,r2,20292
   10aa4:	10800a17 	ldw	r2,40(r2)
   10aa8:	10800104 	addi	r2,r2,4
   10aac:	10800017 	ldw	r2,0(r2)
   10ab0:	1007883a 	mov	r3,r2
   10ab4:	00800074 	movhi	r2,1
   10ab8:	1093d104 	addi	r2,r2,20292
   10abc:	10c00c15 	stw	r3,48(r2)
   10ac0:	00800074 	movhi	r2,1
   10ac4:	1093d104 	addi	r2,r2,20292
   10ac8:	10800a17 	ldw	r2,40(r2)
   10acc:	10800204 	addi	r2,r2,8
   10ad0:	10800017 	ldw	r2,0(r2)
   10ad4:	10ffffcc 	andi	r3,r2,65535
   10ad8:	00800074 	movhi	r2,1
   10adc:	1093d104 	addi	r2,r2,20292
   10ae0:	10c01115 	stw	r3,68(r2)
   10ae4:	00800074 	movhi	r2,1
   10ae8:	1093d104 	addi	r2,r2,20292
   10aec:	10800a17 	ldw	r2,40(r2)
   10af0:	10800204 	addi	r2,r2,8
   10af4:	10800017 	ldw	r2,0(r2)
   10af8:	1006d43a 	srli	r3,r2,16
   10afc:	00800074 	movhi	r2,1
   10b00:	1093d104 	addi	r2,r2,20292
   10b04:	10c01215 	stw	r3,72(r2)
   10b08:	00800074 	movhi	r2,1
   10b0c:	1093d104 	addi	r2,r2,20292
   10b10:	10800a17 	ldw	r2,40(r2)
   10b14:	10800304 	addi	r2,r2,12
   10b18:	10800017 	ldw	r2,0(r2)
   10b1c:	1005d07a 	srai	r2,r2,1
   10b20:	10c0004c 	andi	r3,r2,1
   10b24:	00800074 	movhi	r2,1
   10b28:	1093d104 	addi	r2,r2,20292
   10b2c:	10c00d15 	stw	r3,52(r2)
   10b30:	00800074 	movhi	r2,1
   10b34:	1093d104 	addi	r2,r2,20292
   10b38:	10800a17 	ldw	r2,40(r2)
   10b3c:	10800304 	addi	r2,r2,12
   10b40:	10800017 	ldw	r2,0(r2)
   10b44:	1005d23a 	srai	r2,r2,8
   10b48:	108003cc 	andi	r2,r2,15
   10b4c:	10800044 	addi	r2,r2,1
   10b50:	1007883a 	mov	r3,r2
   10b54:	00800074 	movhi	r2,1
   10b58:	1093d104 	addi	r2,r2,20292
   10b5c:	10c00e15 	stw	r3,56(r2)
   10b60:	00800074 	movhi	r2,1
   10b64:	1093d104 	addi	r2,r2,20292
   10b68:	10800a17 	ldw	r2,40(r2)
   10b6c:	10800304 	addi	r2,r2,12
   10b70:	10800017 	ldw	r2,0(r2)
   10b74:	1005d1ba 	srai	r2,r2,6
   10b78:	108000cc 	andi	r2,r2,3
   10b7c:	10800044 	addi	r2,r2,1
   10b80:	1007883a 	mov	r3,r2
   10b84:	00800074 	movhi	r2,1
   10b88:	1093d104 	addi	r2,r2,20292
   10b8c:	10c00f15 	stw	r3,60(r2)
   10b90:	00800074 	movhi	r2,1
   10b94:	1093d104 	addi	r2,r2,20292
   10b98:	10800e17 	ldw	r2,56(r2)
   10b9c:	1007883a 	mov	r3,r2
   10ba0:	00800074 	movhi	r2,1
   10ba4:	1093d104 	addi	r2,r2,20292
   10ba8:	10800f17 	ldw	r2,60(r2)
   10bac:	100b883a 	mov	r5,r2
   10bb0:	1809883a 	mov	r4,r3
   10bb4:	00033480 	call	3348 <__mulsi3>
   10bb8:	e0bffe05 	stb	r2,-8(fp)
   10bbc:	e0bffe03 	ldbu	r2,-8(fp)
   10bc0:	10800268 	cmpgeui	r2,r2,9
   10bc4:	1000051e 	bne	r2,zero,10bdc <alt_sys_init+0x1ac>
   10bc8:	00800074 	movhi	r2,1
   10bcc:	1093d104 	addi	r2,r2,20292
   10bd0:	00c00044 	movi	r3,1
   10bd4:	10c01015 	stw	r3,64(r2)
   10bd8:	00000c06 	br	10c0c <alt_sys_init+0x1dc>
   10bdc:	e0bffe03 	ldbu	r2,-8(fp)
   10be0:	10800468 	cmpgeui	r2,r2,17
   10be4:	1000051e 	bne	r2,zero,10bfc <alt_sys_init+0x1cc>
   10be8:	00800074 	movhi	r2,1
   10bec:	1093d104 	addi	r2,r2,20292
   10bf0:	00c00084 	movi	r3,2
   10bf4:	10c01015 	stw	r3,64(r2)
   10bf8:	00000406 	br	10c0c <alt_sys_init+0x1dc>
   10bfc:	00800074 	movhi	r2,1
   10c00:	1093d104 	addi	r2,r2,20292
   10c04:	00c00104 	movi	r3,4
   10c08:	10c01015 	stw	r3,64(r2)
   10c0c:	00800074 	movhi	r2,1
   10c10:	1093d104 	addi	r2,r2,20292
   10c14:	10800a17 	ldw	r2,40(r2)
   10c18:	10800304 	addi	r2,r2,12
   10c1c:	10800017 	ldw	r2,0(r2)
   10c20:	1005d43a 	srai	r2,r2,16
   10c24:	e0bffe45 	stb	r2,-7(fp)
   10c28:	00800074 	movhi	r2,1
   10c2c:	1093d104 	addi	r2,r2,20292
   10c30:	10800a17 	ldw	r2,40(r2)
   10c34:	10800304 	addi	r2,r2,12
   10c38:	10800017 	ldw	r2,0(r2)
   10c3c:	1004d63a 	srli	r2,r2,24
   10c40:	e0bffe85 	stb	r2,-6(fp)
   10c44:	00800074 	movhi	r2,1
   10c48:	1093d104 	addi	r2,r2,20292
   10c4c:	10801017 	ldw	r2,64(r2)
   10c50:	10800058 	cmpnei	r2,r2,1
   10c54:	1000041e 	bne	r2,zero,10c68 <alt_sys_init+0x238>
   10c58:	00800074 	movhi	r2,1
   10c5c:	1093d104 	addi	r2,r2,20292
   10c60:	10001315 	stw	zero,76(r2)
   10c64:	00000e06 	br	10ca0 <alt_sys_init+0x270>
   10c68:	00800074 	movhi	r2,1
   10c6c:	1093d104 	addi	r2,r2,20292
   10c70:	10801017 	ldw	r2,64(r2)
   10c74:	10800098 	cmpnei	r2,r2,2
   10c78:	1000051e 	bne	r2,zero,10c90 <alt_sys_init+0x260>
   10c7c:	00800074 	movhi	r2,1
   10c80:	1093d104 	addi	r2,r2,20292
   10c84:	00c00044 	movi	r3,1
   10c88:	10c01315 	stw	r3,76(r2)
   10c8c:	00000406 	br	10ca0 <alt_sys_init+0x270>
   10c90:	00800074 	movhi	r2,1
   10c94:	1093d104 	addi	r2,r2,20292
   10c98:	00c00084 	movi	r3,2
   10c9c:	10c01315 	stw	r3,76(r2)
   10ca0:	e0bffe43 	ldbu	r2,-7(fp)
   10ca4:	00c00804 	movi	r3,32
   10ca8:	1885c83a 	sub	r2,r3,r2
   10cac:	00ffffc4 	movi	r3,-1
   10cb0:	1886d83a 	srl	r3,r3,r2
   10cb4:	00800074 	movhi	r2,1
   10cb8:	1093d104 	addi	r2,r2,20292
   10cbc:	10c01415 	stw	r3,80(r2)
   10cc0:	e0fffe43 	ldbu	r3,-7(fp)
   10cc4:	00800074 	movhi	r2,1
   10cc8:	1093d104 	addi	r2,r2,20292
   10ccc:	10801317 	ldw	r2,76(r2)
   10cd0:	1887883a 	add	r3,r3,r2
   10cd4:	00800074 	movhi	r2,1
   10cd8:	1093d104 	addi	r2,r2,20292
   10cdc:	10c01515 	stw	r3,84(r2)
   10ce0:	e0bffe83 	ldbu	r2,-6(fp)
   10ce4:	00c00804 	movi	r3,32
   10ce8:	1885c83a 	sub	r2,r3,r2
   10cec:	00ffffc4 	movi	r3,-1
   10cf0:	1886d83a 	srl	r3,r3,r2
   10cf4:	00800074 	movhi	r2,1
   10cf8:	1093d104 	addi	r2,r2,20292
   10cfc:	10c01615 	stw	r3,88(r2)
   10d00:	01000074 	movhi	r4,1
   10d04:	2113d104 	addi	r4,r4,20292
   10d08:	00109c40 	call	109c4 <alt_dev_reg>
    ALTERA_UP_AVALON_VIDEO_DMA_CONTROLLER_INIT ( VGA_SUBSYSTEM_VGA_PIXEL_DMA, VGA_Subsystem_VGA_Pixel_DMA);
   10d0c:	00800074 	movhi	r2,1
   10d10:	1093e804 	addi	r2,r2,20384
   10d14:	10800a17 	ldw	r2,40(r2)
   10d18:	10800017 	ldw	r2,0(r2)
   10d1c:	1007883a 	mov	r3,r2
   10d20:	00800074 	movhi	r2,1
   10d24:	1093e804 	addi	r2,r2,20384
   10d28:	10c00b15 	stw	r3,44(r2)
   10d2c:	00800074 	movhi	r2,1
   10d30:	1093e804 	addi	r2,r2,20384
   10d34:	10800a17 	ldw	r2,40(r2)
   10d38:	10800104 	addi	r2,r2,4
   10d3c:	10800017 	ldw	r2,0(r2)
   10d40:	1007883a 	mov	r3,r2
   10d44:	00800074 	movhi	r2,1
   10d48:	1093e804 	addi	r2,r2,20384
   10d4c:	10c00c15 	stw	r3,48(r2)
   10d50:	00800074 	movhi	r2,1
   10d54:	1093e804 	addi	r2,r2,20384
   10d58:	10800a17 	ldw	r2,40(r2)
   10d5c:	10800204 	addi	r2,r2,8
   10d60:	10800017 	ldw	r2,0(r2)
   10d64:	10ffffcc 	andi	r3,r2,65535
   10d68:	00800074 	movhi	r2,1
   10d6c:	1093e804 	addi	r2,r2,20384
   10d70:	10c01115 	stw	r3,68(r2)
   10d74:	00800074 	movhi	r2,1
   10d78:	1093e804 	addi	r2,r2,20384
   10d7c:	10800a17 	ldw	r2,40(r2)
   10d80:	10800204 	addi	r2,r2,8
   10d84:	10800017 	ldw	r2,0(r2)
   10d88:	1006d43a 	srli	r3,r2,16
   10d8c:	00800074 	movhi	r2,1
   10d90:	1093e804 	addi	r2,r2,20384
   10d94:	10c01215 	stw	r3,72(r2)
   10d98:	00800074 	movhi	r2,1
   10d9c:	1093e804 	addi	r2,r2,20384
   10da0:	10800a17 	ldw	r2,40(r2)
   10da4:	10800304 	addi	r2,r2,12
   10da8:	10800017 	ldw	r2,0(r2)
   10dac:	1005d07a 	srai	r2,r2,1
   10db0:	10c0004c 	andi	r3,r2,1
   10db4:	00800074 	movhi	r2,1
   10db8:	1093e804 	addi	r2,r2,20384
   10dbc:	10c00d15 	stw	r3,52(r2)
   10dc0:	00800074 	movhi	r2,1
   10dc4:	1093e804 	addi	r2,r2,20384
   10dc8:	10800a17 	ldw	r2,40(r2)
   10dcc:	10800304 	addi	r2,r2,12
   10dd0:	10800017 	ldw	r2,0(r2)
   10dd4:	1005d23a 	srai	r2,r2,8
   10dd8:	108003cc 	andi	r2,r2,15
   10ddc:	10800044 	addi	r2,r2,1
   10de0:	1007883a 	mov	r3,r2
   10de4:	00800074 	movhi	r2,1
   10de8:	1093e804 	addi	r2,r2,20384
   10dec:	10c00e15 	stw	r3,56(r2)
   10df0:	00800074 	movhi	r2,1
   10df4:	1093e804 	addi	r2,r2,20384
   10df8:	10800a17 	ldw	r2,40(r2)
   10dfc:	10800304 	addi	r2,r2,12
   10e00:	10800017 	ldw	r2,0(r2)
   10e04:	1005d1ba 	srai	r2,r2,6
   10e08:	108000cc 	andi	r2,r2,3
   10e0c:	10800044 	addi	r2,r2,1
   10e10:	1007883a 	mov	r3,r2
   10e14:	00800074 	movhi	r2,1
   10e18:	1093e804 	addi	r2,r2,20384
   10e1c:	10c00f15 	stw	r3,60(r2)
   10e20:	00800074 	movhi	r2,1
   10e24:	1093e804 	addi	r2,r2,20384
   10e28:	10800e17 	ldw	r2,56(r2)
   10e2c:	1007883a 	mov	r3,r2
   10e30:	00800074 	movhi	r2,1
   10e34:	1093e804 	addi	r2,r2,20384
   10e38:	10800f17 	ldw	r2,60(r2)
   10e3c:	100b883a 	mov	r5,r2
   10e40:	1809883a 	mov	r4,r3
   10e44:	00033480 	call	3348 <__mulsi3>
   10e48:	e0bffec5 	stb	r2,-5(fp)
   10e4c:	e0bffec3 	ldbu	r2,-5(fp)
   10e50:	10800268 	cmpgeui	r2,r2,9
   10e54:	1000051e 	bne	r2,zero,10e6c <alt_sys_init+0x43c>
   10e58:	00800074 	movhi	r2,1
   10e5c:	1093e804 	addi	r2,r2,20384
   10e60:	00c00044 	movi	r3,1
   10e64:	10c01015 	stw	r3,64(r2)
   10e68:	00000c06 	br	10e9c <alt_sys_init+0x46c>
   10e6c:	e0bffec3 	ldbu	r2,-5(fp)
   10e70:	10800468 	cmpgeui	r2,r2,17
   10e74:	1000051e 	bne	r2,zero,10e8c <alt_sys_init+0x45c>
   10e78:	00800074 	movhi	r2,1
   10e7c:	1093e804 	addi	r2,r2,20384
   10e80:	00c00084 	movi	r3,2
   10e84:	10c01015 	stw	r3,64(r2)
   10e88:	00000406 	br	10e9c <alt_sys_init+0x46c>
   10e8c:	00800074 	movhi	r2,1
   10e90:	1093e804 	addi	r2,r2,20384
   10e94:	00c00104 	movi	r3,4
   10e98:	10c01015 	stw	r3,64(r2)
   10e9c:	00800074 	movhi	r2,1
   10ea0:	1093e804 	addi	r2,r2,20384
   10ea4:	10800a17 	ldw	r2,40(r2)
   10ea8:	10800304 	addi	r2,r2,12
   10eac:	10800017 	ldw	r2,0(r2)
   10eb0:	1005d43a 	srai	r2,r2,16
   10eb4:	e0bfff05 	stb	r2,-4(fp)
   10eb8:	00800074 	movhi	r2,1
   10ebc:	1093e804 	addi	r2,r2,20384
   10ec0:	10800a17 	ldw	r2,40(r2)
   10ec4:	10800304 	addi	r2,r2,12
   10ec8:	10800017 	ldw	r2,0(r2)
   10ecc:	1004d63a 	srli	r2,r2,24
   10ed0:	e0bfff45 	stb	r2,-3(fp)
   10ed4:	00800074 	movhi	r2,1
   10ed8:	1093e804 	addi	r2,r2,20384
   10edc:	10801017 	ldw	r2,64(r2)
   10ee0:	10800058 	cmpnei	r2,r2,1
   10ee4:	1000041e 	bne	r2,zero,10ef8 <alt_sys_init+0x4c8>
   10ee8:	00800074 	movhi	r2,1
   10eec:	1093e804 	addi	r2,r2,20384
   10ef0:	10001315 	stw	zero,76(r2)
   10ef4:	00000e06 	br	10f30 <alt_sys_init+0x500>
   10ef8:	00800074 	movhi	r2,1
   10efc:	1093e804 	addi	r2,r2,20384
   10f00:	10801017 	ldw	r2,64(r2)
   10f04:	10800098 	cmpnei	r2,r2,2
   10f08:	1000051e 	bne	r2,zero,10f20 <alt_sys_init+0x4f0>
   10f0c:	00800074 	movhi	r2,1
   10f10:	1093e804 	addi	r2,r2,20384
   10f14:	00c00044 	movi	r3,1
   10f18:	10c01315 	stw	r3,76(r2)
   10f1c:	00000406 	br	10f30 <alt_sys_init+0x500>
   10f20:	00800074 	movhi	r2,1
   10f24:	1093e804 	addi	r2,r2,20384
   10f28:	00c00084 	movi	r3,2
   10f2c:	10c01315 	stw	r3,76(r2)
   10f30:	e0bfff03 	ldbu	r2,-4(fp)
   10f34:	00c00804 	movi	r3,32
   10f38:	1885c83a 	sub	r2,r3,r2
   10f3c:	00ffffc4 	movi	r3,-1
   10f40:	1886d83a 	srl	r3,r3,r2
   10f44:	00800074 	movhi	r2,1
   10f48:	1093e804 	addi	r2,r2,20384
   10f4c:	10c01415 	stw	r3,80(r2)
   10f50:	e0ffff03 	ldbu	r3,-4(fp)
   10f54:	00800074 	movhi	r2,1
   10f58:	1093e804 	addi	r2,r2,20384
   10f5c:	10801317 	ldw	r2,76(r2)
   10f60:	1887883a 	add	r3,r3,r2
   10f64:	00800074 	movhi	r2,1
   10f68:	1093e804 	addi	r2,r2,20384
   10f6c:	10c01515 	stw	r3,84(r2)
   10f70:	e0bfff43 	ldbu	r2,-3(fp)
   10f74:	00c00804 	movi	r3,32
   10f78:	1885c83a 	sub	r2,r3,r2
   10f7c:	00ffffc4 	movi	r3,-1
   10f80:	1886d83a 	srl	r3,r3,r2
   10f84:	00800074 	movhi	r2,1
   10f88:	1093e804 	addi	r2,r2,20384
   10f8c:	10c01615 	stw	r3,88(r2)
   10f90:	01000074 	movhi	r4,1
   10f94:	2113e804 	addi	r4,r4,20384
   10f98:	00109c40 	call	109c4 <alt_dev_reg>
    ALTERA_UP_AVALON_VIDEO_RGB_RESAMPLER_INIT ( VGA_SUBSYSTEM_VGA_PIXEL_RGB_RESAMPLER, VGA_Subsystem_VGA_Pixel_RGB_Resampler);
   10f9c:	00800074 	movhi	r2,1
   10fa0:	1093ff04 	addi	r2,r2,20476
   10fa4:	10800a17 	ldw	r2,40(r2)
   10fa8:	10800017 	ldw	r2,0(r2)
   10fac:	10c003cc 	andi	r3,r2,15
   10fb0:	00800074 	movhi	r2,1
   10fb4:	1093ff04 	addi	r2,r2,20476
   10fb8:	10c00b15 	stw	r3,44(r2)
   10fbc:	00800074 	movhi	r2,1
   10fc0:	1093ff04 	addi	r2,r2,20476
   10fc4:	10800a17 	ldw	r2,40(r2)
   10fc8:	10800017 	ldw	r2,0(r2)
   10fcc:	1005d13a 	srai	r2,r2,4
   10fd0:	10c0004c 	andi	r3,r2,1
   10fd4:	00800074 	movhi	r2,1
   10fd8:	1093ff04 	addi	r2,r2,20476
   10fdc:	10c00c15 	stw	r3,48(r2)
   10fe0:	00800074 	movhi	r2,1
   10fe4:	1093ff04 	addi	r2,r2,20476
   10fe8:	10800a17 	ldw	r2,40(r2)
   10fec:	10800017 	ldw	r2,0(r2)
   10ff0:	1005d17a 	srai	r2,r2,5
   10ff4:	10c0004c 	andi	r3,r2,1
   10ff8:	00800074 	movhi	r2,1
   10ffc:	1093ff04 	addi	r2,r2,20476
   11000:	10c00d15 	stw	r3,52(r2)
   11004:	00800074 	movhi	r2,1
   11008:	1093ff04 	addi	r2,r2,20476
   1100c:	10800a17 	ldw	r2,40(r2)
   11010:	10800017 	ldw	r2,0(r2)
   11014:	1005d43a 	srai	r2,r2,16
   11018:	10c003cc 	andi	r3,r2,15
   1101c:	00800074 	movhi	r2,1
   11020:	1093ff04 	addi	r2,r2,20476
   11024:	10c00e15 	stw	r3,56(r2)
   11028:	00800074 	movhi	r2,1
   1102c:	1093ff04 	addi	r2,r2,20476
   11030:	10800a17 	ldw	r2,40(r2)
   11034:	10800017 	ldw	r2,0(r2)
   11038:	1005d53a 	srai	r2,r2,20
   1103c:	10c0004c 	andi	r3,r2,1
   11040:	00800074 	movhi	r2,1
   11044:	1093ff04 	addi	r2,r2,20476
   11048:	10c00f15 	stw	r3,60(r2)
   1104c:	00800074 	movhi	r2,1
   11050:	1093ff04 	addi	r2,r2,20476
   11054:	10800a17 	ldw	r2,40(r2)
   11058:	10800017 	ldw	r2,0(r2)
   1105c:	1005d57a 	srai	r2,r2,21
   11060:	10c0004c 	andi	r3,r2,1
   11064:	00800074 	movhi	r2,1
   11068:	1093ff04 	addi	r2,r2,20476
   1106c:	10c01015 	stw	r3,64(r2)
   11070:	01000074 	movhi	r4,1
   11074:	2113ff04 	addi	r4,r4,20476
   11078:	00109c40 	call	109c4 <alt_dev_reg>
}
   1107c:	0001883a 	nop
   11080:	e037883a 	mov	sp,fp
   11084:	dfc00117 	ldw	ra,4(sp)
   11088:	df000017 	ldw	fp,0(sp)
   1108c:	dec00204 	addi	sp,sp,8
   11090:	f800283a 	ret

00011094 <altera_avalon_jtag_uart_read_fd>:
 *
 */

int 
altera_avalon_jtag_uart_read_fd(alt_fd* fd, char* buffer, int space)
{
   11094:	defffa04 	addi	sp,sp,-24
   11098:	dfc00515 	stw	ra,20(sp)
   1109c:	df000415 	stw	fp,16(sp)
   110a0:	df000404 	addi	fp,sp,16
   110a4:	e13ffd15 	stw	r4,-12(fp)
   110a8:	e17ffe15 	stw	r5,-8(fp)
   110ac:	e1bfff15 	stw	r6,-4(fp)
    altera_avalon_jtag_uart_dev* dev = (altera_avalon_jtag_uart_dev*) fd->dev; 
   110b0:	e0bffd17 	ldw	r2,-12(fp)
   110b4:	10800017 	ldw	r2,0(r2)
   110b8:	e0bffc15 	stw	r2,-16(fp)

    return altera_avalon_jtag_uart_read(&dev->state, buffer, space,
   110bc:	e0bffc17 	ldw	r2,-16(fp)
   110c0:	10c00a04 	addi	r3,r2,40
   110c4:	e0bffd17 	ldw	r2,-12(fp)
   110c8:	10800217 	ldw	r2,8(r2)
   110cc:	100f883a 	mov	r7,r2
   110d0:	e1bfff17 	ldw	r6,-4(fp)
   110d4:	e17ffe17 	ldw	r5,-8(fp)
   110d8:	1809883a 	mov	r4,r3
   110dc:	00116bc0 	call	116bc <altera_avalon_jtag_uart_read>
      fd->fd_flags);
}
   110e0:	e037883a 	mov	sp,fp
   110e4:	dfc00117 	ldw	ra,4(sp)
   110e8:	df000017 	ldw	fp,0(sp)
   110ec:	dec00204 	addi	sp,sp,8
   110f0:	f800283a 	ret

000110f4 <altera_avalon_jtag_uart_write_fd>:

int 
altera_avalon_jtag_uart_write_fd(alt_fd* fd, const char* buffer, int space)
{
   110f4:	defffa04 	addi	sp,sp,-24
   110f8:	dfc00515 	stw	ra,20(sp)
   110fc:	df000415 	stw	fp,16(sp)
   11100:	df000404 	addi	fp,sp,16
   11104:	e13ffd15 	stw	r4,-12(fp)
   11108:	e17ffe15 	stw	r5,-8(fp)
   1110c:	e1bfff15 	stw	r6,-4(fp)
    altera_avalon_jtag_uart_dev* dev = (altera_avalon_jtag_uart_dev*) fd->dev; 
   11110:	e0bffd17 	ldw	r2,-12(fp)
   11114:	10800017 	ldw	r2,0(r2)
   11118:	e0bffc15 	stw	r2,-16(fp)

    return altera_avalon_jtag_uart_write(&dev->state, buffer, space,
   1111c:	e0bffc17 	ldw	r2,-16(fp)
   11120:	10c00a04 	addi	r3,r2,40
   11124:	e0bffd17 	ldw	r2,-12(fp)
   11128:	10800217 	ldw	r2,8(r2)
   1112c:	100f883a 	mov	r7,r2
   11130:	e1bfff17 	ldw	r6,-4(fp)
   11134:	e17ffe17 	ldw	r5,-8(fp)
   11138:	1809883a 	mov	r4,r3
   1113c:	00118d80 	call	118d8 <altera_avalon_jtag_uart_write>
      fd->fd_flags);
}
   11140:	e037883a 	mov	sp,fp
   11144:	dfc00117 	ldw	ra,4(sp)
   11148:	df000017 	ldw	fp,0(sp)
   1114c:	dec00204 	addi	sp,sp,8
   11150:	f800283a 	ret

00011154 <altera_avalon_jtag_uart_close_fd>:

#ifndef ALTERA_AVALON_JTAG_UART_SMALL

int 
altera_avalon_jtag_uart_close_fd(alt_fd* fd)
{
   11154:	defffc04 	addi	sp,sp,-16
   11158:	dfc00315 	stw	ra,12(sp)
   1115c:	df000215 	stw	fp,8(sp)
   11160:	df000204 	addi	fp,sp,8
   11164:	e13fff15 	stw	r4,-4(fp)
    altera_avalon_jtag_uart_dev* dev = (altera_avalon_jtag_uart_dev*) fd->dev; 
   11168:	e0bfff17 	ldw	r2,-4(fp)
   1116c:	10800017 	ldw	r2,0(r2)
   11170:	e0bffe15 	stw	r2,-8(fp)

    return altera_avalon_jtag_uart_close(&dev->state, fd->fd_flags);
   11174:	e0bffe17 	ldw	r2,-8(fp)
   11178:	10c00a04 	addi	r3,r2,40
   1117c:	e0bfff17 	ldw	r2,-4(fp)
   11180:	10800217 	ldw	r2,8(r2)
   11184:	100b883a 	mov	r5,r2
   11188:	1809883a 	mov	r4,r3
   1118c:	00115640 	call	11564 <altera_avalon_jtag_uart_close>
}
   11190:	e037883a 	mov	sp,fp
   11194:	dfc00117 	ldw	ra,4(sp)
   11198:	df000017 	ldw	fp,0(sp)
   1119c:	dec00204 	addi	sp,sp,8
   111a0:	f800283a 	ret

000111a4 <altera_avalon_jtag_uart_ioctl_fd>:

int 
altera_avalon_jtag_uart_ioctl_fd(alt_fd* fd, int req, void* arg)
{
   111a4:	defffa04 	addi	sp,sp,-24
   111a8:	dfc00515 	stw	ra,20(sp)
   111ac:	df000415 	stw	fp,16(sp)
   111b0:	df000404 	addi	fp,sp,16
   111b4:	e13ffd15 	stw	r4,-12(fp)
   111b8:	e17ffe15 	stw	r5,-8(fp)
   111bc:	e1bfff15 	stw	r6,-4(fp)
    altera_avalon_jtag_uart_dev* dev = (altera_avalon_jtag_uart_dev*) fd->dev;
   111c0:	e0bffd17 	ldw	r2,-12(fp)
   111c4:	10800017 	ldw	r2,0(r2)
   111c8:	e0bffc15 	stw	r2,-16(fp)

    return altera_avalon_jtag_uart_ioctl(&dev->state, req, arg);
   111cc:	e0bffc17 	ldw	r2,-16(fp)
   111d0:	10800a04 	addi	r2,r2,40
   111d4:	e1bfff17 	ldw	r6,-4(fp)
   111d8:	e17ffe17 	ldw	r5,-8(fp)
   111dc:	1009883a 	mov	r4,r2
   111e0:	00115cc0 	call	115cc <altera_avalon_jtag_uart_ioctl>
}
   111e4:	e037883a 	mov	sp,fp
   111e8:	dfc00117 	ldw	ra,4(sp)
   111ec:	df000017 	ldw	fp,0(sp)
   111f0:	dec00204 	addi	sp,sp,8
   111f4:	f800283a 	ret

000111f8 <altera_avalon_jtag_uart_init>:
 * Return 1 on sucessful IRQ register and 0 on failure.
 */

void altera_avalon_jtag_uart_init(altera_avalon_jtag_uart_state* sp, 
                                  int irq_controller_id, int irq)
{
   111f8:	defffa04 	addi	sp,sp,-24
   111fc:	dfc00515 	stw	ra,20(sp)
   11200:	df000415 	stw	fp,16(sp)
   11204:	df000404 	addi	fp,sp,16
   11208:	e13ffd15 	stw	r4,-12(fp)
   1120c:	e17ffe15 	stw	r5,-8(fp)
   11210:	e1bfff15 	stw	r6,-4(fp)
  ALT_FLAG_CREATE(&sp->events, 0);
  ALT_SEM_CREATE(&sp->read_lock, 1);
  ALT_SEM_CREATE(&sp->write_lock, 1);

  /* enable read interrupts at the device */
  sp->irq_enable = ALTERA_AVALON_JTAG_UART_CONTROL_RE_MSK;
   11214:	e0bffd17 	ldw	r2,-12(fp)
   11218:	00c00044 	movi	r3,1
   1121c:	10c00815 	stw	r3,32(r2)

  IOWR_ALTERA_AVALON_JTAG_UART_CONTROL(sp->base, sp->irq_enable); 
   11220:	e0bffd17 	ldw	r2,-12(fp)
   11224:	10800017 	ldw	r2,0(r2)
   11228:	10800104 	addi	r2,r2,4
   1122c:	1007883a 	mov	r3,r2
   11230:	e0bffd17 	ldw	r2,-12(fp)
   11234:	10800817 	ldw	r2,32(r2)
   11238:	18800035 	stwio	r2,0(r3)
  
  /* register the interrupt handler */
#ifdef ALT_ENHANCED_INTERRUPT_API_PRESENT
  alt_ic_isr_register(irq_controller_id, irq, altera_avalon_jtag_uart_irq, 
   1123c:	e0bffe17 	ldw	r2,-8(fp)
   11240:	e0ffff17 	ldw	r3,-4(fp)
   11244:	d8000015 	stw	zero,0(sp)
   11248:	e1fffd17 	ldw	r7,-12(fp)
   1124c:	01800074 	movhi	r6,1
   11250:	3184ae04 	addi	r6,r6,4792
   11254:	180b883a 	mov	r5,r3
   11258:	1009883a 	mov	r4,r2
   1125c:	00120540 	call	12054 <alt_ic_isr_register>
#else
  alt_irq_register(irq, sp, altera_avalon_jtag_uart_irq);
#endif  

  /* Register an alarm to go off every second to check for presence of host */
  sp->host_inactive = 0;
   11260:	e0bffd17 	ldw	r2,-12(fp)
   11264:	10000915 	stw	zero,36(r2)

  if (alt_alarm_start(&sp->alarm, alt_ticks_per_second(), 
   11268:	e0bffd17 	ldw	r2,-12(fp)
   1126c:	10800204 	addi	r2,r2,8
 * Obtain the system clock rate in ticks/s. 
 */

static ALT_INLINE alt_u32 ALT_ALWAYS_INLINE alt_ticks_per_second (void)
{
  return _alt_tick_rate;
   11270:	d0e71a17 	ldw	r3,-25496(gp)
   11274:	e1fffd17 	ldw	r7,-12(fp)
   11278:	01800074 	movhi	r6,1
   1127c:	31853104 	addi	r6,r6,5316
   11280:	180b883a 	mov	r5,r3
   11284:	1009883a 	mov	r4,r2
   11288:	0011bf00 	call	11bf0 <alt_alarm_start>
   1128c:	1000040e 	bge	r2,zero,112a0 <altera_avalon_jtag_uart_init+0xa8>
    &altera_avalon_jtag_uart_timeout, sp) < 0)
  {
    /* If we can't set the alarm then record "don't know if host present" 
     * and behave as though the host is present.
     */
    sp->timeout = INT_MAX;
   11290:	e0fffd17 	ldw	r3,-12(fp)
   11294:	00a00034 	movhi	r2,32768
   11298:	10bfffc4 	addi	r2,r2,-1
   1129c:	18800115 	stw	r2,4(r3)
  }

  /* ALT_LOG - see altera_hal/HAL/inc/sys/alt_log_printf.h */ 
  ALT_LOG_JTAG_UART_ALARM_REGISTER(sp, sp->base);
}
   112a0:	0001883a 	nop
   112a4:	e037883a 	mov	sp,fp
   112a8:	dfc00117 	ldw	ra,4(sp)
   112ac:	df000017 	ldw	fp,0(sp)
   112b0:	dec00204 	addi	sp,sp,8
   112b4:	f800283a 	ret

000112b8 <altera_avalon_jtag_uart_irq>:
#ifdef ALT_ENHANCED_INTERRUPT_API_PRESENT
static void altera_avalon_jtag_uart_irq(void* context)
#else
static void altera_avalon_jtag_uart_irq(void* context, alt_u32 id)
#endif
{
   112b8:	defff804 	addi	sp,sp,-32
   112bc:	df000715 	stw	fp,28(sp)
   112c0:	df000704 	addi	fp,sp,28
   112c4:	e13fff15 	stw	r4,-4(fp)
  altera_avalon_jtag_uart_state* sp = (altera_avalon_jtag_uart_state*) context;
   112c8:	e0bfff17 	ldw	r2,-4(fp)
   112cc:	e0bffb15 	stw	r2,-20(fp)
  unsigned int base = sp->base;
   112d0:	e0bffb17 	ldw	r2,-20(fp)
   112d4:	10800017 	ldw	r2,0(r2)
   112d8:	e0bffc15 	stw	r2,-16(fp)
  /* ALT_LOG - see altera_hal/HAL/inc/sys/alt_log_printf.h */ 
  ALT_LOG_JTAG_UART_ISR_FUNCTION(base, sp);

  for ( ; ; )
  {
    unsigned int control = IORD_ALTERA_AVALON_JTAG_UART_CONTROL(base);
   112dc:	e0bffc17 	ldw	r2,-16(fp)
   112e0:	10800104 	addi	r2,r2,4
   112e4:	10800037 	ldwio	r2,0(r2)
   112e8:	e0bffd15 	stw	r2,-12(fp)

    /* Return once nothing more to do */
    if ((control & (ALTERA_AVALON_JTAG_UART_CONTROL_RI_MSK | ALTERA_AVALON_JTAG_UART_CONTROL_WI_MSK)) == 0)
   112ec:	e0bffd17 	ldw	r2,-12(fp)
   112f0:	1080c00c 	andi	r2,r2,768
   112f4:	10006d26 	beq	r2,zero,114ac <altera_avalon_jtag_uart_irq+0x1f4>
      break;

    if (control & ALTERA_AVALON_JTAG_UART_CONTROL_RI_MSK)
   112f8:	e0bffd17 	ldw	r2,-12(fp)
   112fc:	1080400c 	andi	r2,r2,256
   11300:	10003526 	beq	r2,zero,113d8 <altera_avalon_jtag_uart_irq+0x120>
    {
      /* process a read irq.  Start by assuming that there is data in the
       * receive FIFO (otherwise why would we have been interrupted?)
       */
      unsigned int data = 1 << ALTERA_AVALON_JTAG_UART_DATA_RAVAIL_OFST;
   11304:	00800074 	movhi	r2,1
   11308:	e0bff915 	stw	r2,-28(fp)
      for ( ; ; )
      {
        /* Check whether there is space in the buffer.  If not then we must not
         * read any characters from the buffer as they will be lost.
         */
        unsigned int next = (sp->rx_in + 1) % ALTERA_AVALON_JTAG_UART_BUF_LEN;
   1130c:	e0bffb17 	ldw	r2,-20(fp)
   11310:	10800a17 	ldw	r2,40(r2)
   11314:	10800044 	addi	r2,r2,1
   11318:	1081ffcc 	andi	r2,r2,2047
   1131c:	e0bffe15 	stw	r2,-8(fp)
        if (next == sp->rx_out)
   11320:	e0bffb17 	ldw	r2,-20(fp)
   11324:	10c00b17 	ldw	r3,44(r2)
   11328:	e0bffe17 	ldw	r2,-8(fp)
   1132c:	18801526 	beq	r3,r2,11384 <altera_avalon_jtag_uart_irq+0xcc>
          break;

        /* Try to remove a character from the FIFO and find out whether there
         * are any more characters remaining.
         */
        data = IORD_ALTERA_AVALON_JTAG_UART_DATA(base);
   11330:	e0bffc17 	ldw	r2,-16(fp)
   11334:	10800037 	ldwio	r2,0(r2)
   11338:	e0bff915 	stw	r2,-28(fp)
        
        if ((data & ALTERA_AVALON_JTAG_UART_DATA_RVALID_MSK) == 0)
   1133c:	e0bff917 	ldw	r2,-28(fp)
   11340:	10a0000c 	andi	r2,r2,32768
   11344:	10001126 	beq	r2,zero,1138c <altera_avalon_jtag_uart_irq+0xd4>
          break;

        sp->rx_buf[sp->rx_in] = (data & ALTERA_AVALON_JTAG_UART_DATA_DATA_MSK) >> ALTERA_AVALON_JTAG_UART_DATA_DATA_OFST;
   11348:	e0bffb17 	ldw	r2,-20(fp)
   1134c:	10800a17 	ldw	r2,40(r2)
   11350:	e0fff917 	ldw	r3,-28(fp)
   11354:	1809883a 	mov	r4,r3
   11358:	e0fffb17 	ldw	r3,-20(fp)
   1135c:	1885883a 	add	r2,r3,r2
   11360:	10800e04 	addi	r2,r2,56
   11364:	11000005 	stb	r4,0(r2)
        sp->rx_in = (sp->rx_in + 1) % ALTERA_AVALON_JTAG_UART_BUF_LEN;
   11368:	e0bffb17 	ldw	r2,-20(fp)
   1136c:	10800a17 	ldw	r2,40(r2)
   11370:	10800044 	addi	r2,r2,1
   11374:	10c1ffcc 	andi	r3,r2,2047
   11378:	e0bffb17 	ldw	r2,-20(fp)
   1137c:	10c00a15 	stw	r3,40(r2)

        /* Post an event to notify jtag_uart_read that a character has been read */
        ALT_FLAG_POST (sp->events, ALT_JTAG_UART_READ_RDY, OS_FLAG_SET);
      }
   11380:	003fe206 	br	1130c <__alt_mem_VGA_Subsystem_Char_Buf_Subsystem_Onchip_SRAM+0xf701130c>
        /* Check whether there is space in the buffer.  If not then we must not
         * read any characters from the buffer as they will be lost.
         */
        unsigned int next = (sp->rx_in + 1) % ALTERA_AVALON_JTAG_UART_BUF_LEN;
        if (next == sp->rx_out)
          break;
   11384:	0001883a 	nop
   11388:	00000106 	br	11390 <altera_avalon_jtag_uart_irq+0xd8>
         * are any more characters remaining.
         */
        data = IORD_ALTERA_AVALON_JTAG_UART_DATA(base);
        
        if ((data & ALTERA_AVALON_JTAG_UART_DATA_RVALID_MSK) == 0)
          break;
   1138c:	0001883a 	nop

        /* Post an event to notify jtag_uart_read that a character has been read */
        ALT_FLAG_POST (sp->events, ALT_JTAG_UART_READ_RDY, OS_FLAG_SET);
      }

      if (data & ALTERA_AVALON_JTAG_UART_DATA_RAVAIL_MSK)
   11390:	e0bff917 	ldw	r2,-28(fp)
   11394:	10bfffec 	andhi	r2,r2,65535
   11398:	10000f26 	beq	r2,zero,113d8 <altera_avalon_jtag_uart_irq+0x120>
      {
        /* If there is still data available here then the buffer is full 
         * so turn off receive interrupts until some space becomes available.
         */
        sp->irq_enable &= ~ALTERA_AVALON_JTAG_UART_CONTROL_RE_MSK;
   1139c:	e0bffb17 	ldw	r2,-20(fp)
   113a0:	10c00817 	ldw	r3,32(r2)
   113a4:	00bfff84 	movi	r2,-2
   113a8:	1886703a 	and	r3,r3,r2
   113ac:	e0bffb17 	ldw	r2,-20(fp)
   113b0:	10c00815 	stw	r3,32(r2)
        IOWR_ALTERA_AVALON_JTAG_UART_CONTROL(base, sp->irq_enable);
   113b4:	e0bffc17 	ldw	r2,-16(fp)
   113b8:	10800104 	addi	r2,r2,4
   113bc:	1007883a 	mov	r3,r2
   113c0:	e0bffb17 	ldw	r2,-20(fp)
   113c4:	10800817 	ldw	r2,32(r2)
   113c8:	18800035 	stwio	r2,0(r3)
        
        /* Dummy read to ensure IRQ is cleared prior to ISR completion */
        IORD_ALTERA_AVALON_JTAG_UART_CONTROL(base);
   113cc:	e0bffc17 	ldw	r2,-16(fp)
   113d0:	10800104 	addi	r2,r2,4
   113d4:	10800037 	ldwio	r2,0(r2)
      }
    }

    if (control & ALTERA_AVALON_JTAG_UART_CONTROL_WI_MSK)
   113d8:	e0bffd17 	ldw	r2,-12(fp)
   113dc:	1080800c 	andi	r2,r2,512
   113e0:	103fbe26 	beq	r2,zero,112dc <__alt_mem_VGA_Subsystem_Char_Buf_Subsystem_Onchip_SRAM+0xf70112dc>
    {
      /* process a write irq */
      unsigned int space = (control & ALTERA_AVALON_JTAG_UART_CONTROL_WSPACE_MSK) >> ALTERA_AVALON_JTAG_UART_CONTROL_WSPACE_OFST;
   113e4:	e0bffd17 	ldw	r2,-12(fp)
   113e8:	1004d43a 	srli	r2,r2,16
   113ec:	e0bffa15 	stw	r2,-24(fp)

      while (space > 0 && sp->tx_out != sp->tx_in)
   113f0:	00001406 	br	11444 <altera_avalon_jtag_uart_irq+0x18c>
      {
        IOWR_ALTERA_AVALON_JTAG_UART_DATA(base, sp->tx_buf[sp->tx_out]);
   113f4:	e0bffc17 	ldw	r2,-16(fp)
   113f8:	e0fffb17 	ldw	r3,-20(fp)
   113fc:	18c00d17 	ldw	r3,52(r3)
   11400:	e13ffb17 	ldw	r4,-20(fp)
   11404:	20c7883a 	add	r3,r4,r3
   11408:	18c20e04 	addi	r3,r3,2104
   1140c:	18c00003 	ldbu	r3,0(r3)
   11410:	18c03fcc 	andi	r3,r3,255
   11414:	18c0201c 	xori	r3,r3,128
   11418:	18ffe004 	addi	r3,r3,-128
   1141c:	10c00035 	stwio	r3,0(r2)

        sp->tx_out = (sp->tx_out + 1) % ALTERA_AVALON_JTAG_UART_BUF_LEN;
   11420:	e0bffb17 	ldw	r2,-20(fp)
   11424:	10800d17 	ldw	r2,52(r2)
   11428:	10800044 	addi	r2,r2,1
   1142c:	10c1ffcc 	andi	r3,r2,2047
   11430:	e0bffb17 	ldw	r2,-20(fp)
   11434:	10c00d15 	stw	r3,52(r2)

        /* Post an event to notify jtag_uart_write that a character has been written */
        ALT_FLAG_POST (sp->events, ALT_JTAG_UART_WRITE_RDY, OS_FLAG_SET);

        space--;
   11438:	e0bffa17 	ldw	r2,-24(fp)
   1143c:	10bfffc4 	addi	r2,r2,-1
   11440:	e0bffa15 	stw	r2,-24(fp)
    if (control & ALTERA_AVALON_JTAG_UART_CONTROL_WI_MSK)
    {
      /* process a write irq */
      unsigned int space = (control & ALTERA_AVALON_JTAG_UART_CONTROL_WSPACE_MSK) >> ALTERA_AVALON_JTAG_UART_CONTROL_WSPACE_OFST;

      while (space > 0 && sp->tx_out != sp->tx_in)
   11444:	e0bffa17 	ldw	r2,-24(fp)
   11448:	10000526 	beq	r2,zero,11460 <altera_avalon_jtag_uart_irq+0x1a8>
   1144c:	e0bffb17 	ldw	r2,-20(fp)
   11450:	10c00d17 	ldw	r3,52(r2)
   11454:	e0bffb17 	ldw	r2,-20(fp)
   11458:	10800c17 	ldw	r2,48(r2)
   1145c:	18bfe51e 	bne	r3,r2,113f4 <__alt_mem_VGA_Subsystem_Char_Buf_Subsystem_Onchip_SRAM+0xf70113f4>
        ALT_FLAG_POST (sp->events, ALT_JTAG_UART_WRITE_RDY, OS_FLAG_SET);

        space--;
      }

      if (space > 0)
   11460:	e0bffa17 	ldw	r2,-24(fp)
   11464:	103f9d26 	beq	r2,zero,112dc <__alt_mem_VGA_Subsystem_Char_Buf_Subsystem_Onchip_SRAM+0xf70112dc>
      {
        /* If we don't have any more data available then turn off the TX interrupt */
        sp->irq_enable &= ~ALTERA_AVALON_JTAG_UART_CONTROL_WE_MSK;
   11468:	e0bffb17 	ldw	r2,-20(fp)
   1146c:	10c00817 	ldw	r3,32(r2)
   11470:	00bfff44 	movi	r2,-3
   11474:	1886703a 	and	r3,r3,r2
   11478:	e0bffb17 	ldw	r2,-20(fp)
   1147c:	10c00815 	stw	r3,32(r2)
        IOWR_ALTERA_AVALON_JTAG_UART_CONTROL(sp->base, sp->irq_enable);
   11480:	e0bffb17 	ldw	r2,-20(fp)
   11484:	10800017 	ldw	r2,0(r2)
   11488:	10800104 	addi	r2,r2,4
   1148c:	1007883a 	mov	r3,r2
   11490:	e0bffb17 	ldw	r2,-20(fp)
   11494:	10800817 	ldw	r2,32(r2)
   11498:	18800035 	stwio	r2,0(r3)
        
        /* Dummy read to ensure IRQ is cleared prior to ISR completion */
        IORD_ALTERA_AVALON_JTAG_UART_CONTROL(base);
   1149c:	e0bffc17 	ldw	r2,-16(fp)
   114a0:	10800104 	addi	r2,r2,4
   114a4:	10800037 	ldwio	r2,0(r2)
      }
    }
  }
   114a8:	003f8c06 	br	112dc <__alt_mem_VGA_Subsystem_Char_Buf_Subsystem_Onchip_SRAM+0xf70112dc>
  {
    unsigned int control = IORD_ALTERA_AVALON_JTAG_UART_CONTROL(base);

    /* Return once nothing more to do */
    if ((control & (ALTERA_AVALON_JTAG_UART_CONTROL_RI_MSK | ALTERA_AVALON_JTAG_UART_CONTROL_WI_MSK)) == 0)
      break;
   114ac:	0001883a 	nop
        /* Dummy read to ensure IRQ is cleared prior to ISR completion */
        IORD_ALTERA_AVALON_JTAG_UART_CONTROL(base);
      }
    }
  }
}
   114b0:	0001883a 	nop
   114b4:	e037883a 	mov	sp,fp
   114b8:	df000017 	ldw	fp,0(sp)
   114bc:	dec00104 	addi	sp,sp,4
   114c0:	f800283a 	ret

000114c4 <altera_avalon_jtag_uart_timeout>:
 * Timeout routine is called every second
 */

static alt_u32 
altera_avalon_jtag_uart_timeout(void* context) 
{
   114c4:	defff804 	addi	sp,sp,-32
   114c8:	df000715 	stw	fp,28(sp)
   114cc:	df000704 	addi	fp,sp,28
   114d0:	e13ffb15 	stw	r4,-20(fp)
  altera_avalon_jtag_uart_state* sp = (altera_avalon_jtag_uart_state *) context;
   114d4:	e0bffb17 	ldw	r2,-20(fp)
   114d8:	e0bff915 	stw	r2,-28(fp)

  unsigned int control = IORD_ALTERA_AVALON_JTAG_UART_CONTROL(sp->base);
   114dc:	e0bff917 	ldw	r2,-28(fp)
   114e0:	10800017 	ldw	r2,0(r2)
   114e4:	10800104 	addi	r2,r2,4
   114e8:	10800037 	ldwio	r2,0(r2)
   114ec:	e0bffa15 	stw	r2,-24(fp)

  if (control & ALTERA_AVALON_JTAG_UART_CONTROL_AC_MSK)
   114f0:	e0bffa17 	ldw	r2,-24(fp)
   114f4:	1081000c 	andi	r2,r2,1024
   114f8:	10000b26 	beq	r2,zero,11528 <altera_avalon_jtag_uart_timeout+0x64>
  {
    IOWR_ALTERA_AVALON_JTAG_UART_CONTROL(sp->base, sp->irq_enable | ALTERA_AVALON_JTAG_UART_CONTROL_AC_MSK);
   114fc:	e0bff917 	ldw	r2,-28(fp)
   11500:	10800017 	ldw	r2,0(r2)
   11504:	10800104 	addi	r2,r2,4
   11508:	1007883a 	mov	r3,r2
   1150c:	e0bff917 	ldw	r2,-28(fp)
   11510:	10800817 	ldw	r2,32(r2)
   11514:	10810014 	ori	r2,r2,1024
   11518:	18800035 	stwio	r2,0(r3)
    sp->host_inactive = 0;
   1151c:	e0bff917 	ldw	r2,-28(fp)
   11520:	10000915 	stw	zero,36(r2)
   11524:	00000a06 	br	11550 <altera_avalon_jtag_uart_timeout+0x8c>
  }
  else if (sp->host_inactive < INT_MAX - 2) {
   11528:	e0bff917 	ldw	r2,-28(fp)
   1152c:	10c00917 	ldw	r3,36(r2)
   11530:	00a00034 	movhi	r2,32768
   11534:	10bfff04 	addi	r2,r2,-4
   11538:	10c00536 	bltu	r2,r3,11550 <altera_avalon_jtag_uart_timeout+0x8c>
    sp->host_inactive++;
   1153c:	e0bff917 	ldw	r2,-28(fp)
   11540:	10800917 	ldw	r2,36(r2)
   11544:	10c00044 	addi	r3,r2,1
   11548:	e0bff917 	ldw	r2,-28(fp)
   1154c:	10c00915 	stw	r3,36(r2)
   11550:	d0a71a17 	ldw	r2,-25496(gp)
      ALT_FLAG_POST (sp->events, ALT_JTAG_UART_TIMEOUT, OS_FLAG_SET);
    }
  }

  return alt_ticks_per_second();
}
   11554:	e037883a 	mov	sp,fp
   11558:	df000017 	ldw	fp,0(sp)
   1155c:	dec00104 	addi	sp,sp,4
   11560:	f800283a 	ret

00011564 <altera_avalon_jtag_uart_close>:
 * The close routine is not implemented for the small driver; instead it will
 * map to null. This is because the small driver simply waits while characters
 * are transmitted; there is no interrupt-serviced buffer to empty 
 */
int altera_avalon_jtag_uart_close(altera_avalon_jtag_uart_state* sp, int flags)
{
   11564:	defffd04 	addi	sp,sp,-12
   11568:	df000215 	stw	fp,8(sp)
   1156c:	df000204 	addi	fp,sp,8
   11570:	e13ffe15 	stw	r4,-8(fp)
   11574:	e17fff15 	stw	r5,-4(fp)
  /* 
   * Wait for all transmit data to be emptied by the JTAG UART ISR, or
   * for a host-inactivity timeout, in which case transmit data will be lost
   */
  while ( (sp->tx_out != sp->tx_in) && (sp->host_inactive < sp->timeout) ) {
   11578:	00000506 	br	11590 <altera_avalon_jtag_uart_close+0x2c>
    if (flags & O_NONBLOCK) {
   1157c:	e0bfff17 	ldw	r2,-4(fp)
   11580:	1090000c 	andi	r2,r2,16384
   11584:	10000226 	beq	r2,zero,11590 <altera_avalon_jtag_uart_close+0x2c>
      return -EWOULDBLOCK; 
   11588:	00bffd44 	movi	r2,-11
   1158c:	00000b06 	br	115bc <altera_avalon_jtag_uart_close+0x58>
{
  /* 
   * Wait for all transmit data to be emptied by the JTAG UART ISR, or
   * for a host-inactivity timeout, in which case transmit data will be lost
   */
  while ( (sp->tx_out != sp->tx_in) && (sp->host_inactive < sp->timeout) ) {
   11590:	e0bffe17 	ldw	r2,-8(fp)
   11594:	10c00d17 	ldw	r3,52(r2)
   11598:	e0bffe17 	ldw	r2,-8(fp)
   1159c:	10800c17 	ldw	r2,48(r2)
   115a0:	18800526 	beq	r3,r2,115b8 <altera_avalon_jtag_uart_close+0x54>
   115a4:	e0bffe17 	ldw	r2,-8(fp)
   115a8:	10c00917 	ldw	r3,36(r2)
   115ac:	e0bffe17 	ldw	r2,-8(fp)
   115b0:	10800117 	ldw	r2,4(r2)
   115b4:	18bff136 	bltu	r3,r2,1157c <__alt_mem_VGA_Subsystem_Char_Buf_Subsystem_Onchip_SRAM+0xf701157c>
    if (flags & O_NONBLOCK) {
      return -EWOULDBLOCK; 
    }
  }

  return 0;
   115b8:	0005883a 	mov	r2,zero
}
   115bc:	e037883a 	mov	sp,fp
   115c0:	df000017 	ldw	fp,0(sp)
   115c4:	dec00104 	addi	sp,sp,4
   115c8:	f800283a 	ret

000115cc <altera_avalon_jtag_uart_ioctl>:
/* ----------------------------------------------------------- */

int 
altera_avalon_jtag_uart_ioctl(altera_avalon_jtag_uart_state* sp, int req,
  void* arg)
{
   115cc:	defffa04 	addi	sp,sp,-24
   115d0:	df000515 	stw	fp,20(sp)
   115d4:	df000504 	addi	fp,sp,20
   115d8:	e13ffd15 	stw	r4,-12(fp)
   115dc:	e17ffe15 	stw	r5,-8(fp)
   115e0:	e1bfff15 	stw	r6,-4(fp)
  int rc = -ENOTTY;
   115e4:	00bff9c4 	movi	r2,-25
   115e8:	e0bffb15 	stw	r2,-20(fp)

  switch (req)
   115ec:	e0bffe17 	ldw	r2,-8(fp)
   115f0:	10da8060 	cmpeqi	r3,r2,27137
   115f4:	1800031e 	bne	r3,zero,11604 <altera_avalon_jtag_uart_ioctl+0x38>
   115f8:	109a80a0 	cmpeqi	r2,r2,27138
   115fc:	1000181e 	bne	r2,zero,11660 <altera_avalon_jtag_uart_ioctl+0x94>
      rc = 0;
    }
    break;

  default:
    break;
   11600:	00002906 	br	116a8 <altera_avalon_jtag_uart_ioctl+0xdc>

  switch (req)
  {
  case TIOCSTIMEOUT:
    /* Set the time to wait until assuming host is not connected */
    if (sp->timeout != INT_MAX)
   11604:	e0bffd17 	ldw	r2,-12(fp)
   11608:	10c00117 	ldw	r3,4(r2)
   1160c:	00a00034 	movhi	r2,32768
   11610:	10bfffc4 	addi	r2,r2,-1
   11614:	18802126 	beq	r3,r2,1169c <altera_avalon_jtag_uart_ioctl+0xd0>
    {
      int timeout = *((int *)arg);
   11618:	e0bfff17 	ldw	r2,-4(fp)
   1161c:	10800017 	ldw	r2,0(r2)
   11620:	e0bffc15 	stw	r2,-16(fp)
      sp->timeout = (timeout >= 2 && timeout < INT_MAX) ? timeout : INT_MAX - 1;
   11624:	e0bffc17 	ldw	r2,-16(fp)
   11628:	10800090 	cmplti	r2,r2,2
   1162c:	1000061e 	bne	r2,zero,11648 <altera_avalon_jtag_uart_ioctl+0x7c>
   11630:	e0fffc17 	ldw	r3,-16(fp)
   11634:	00a00034 	movhi	r2,32768
   11638:	10bfffc4 	addi	r2,r2,-1
   1163c:	18800226 	beq	r3,r2,11648 <altera_avalon_jtag_uart_ioctl+0x7c>
   11640:	e0bffc17 	ldw	r2,-16(fp)
   11644:	00000206 	br	11650 <altera_avalon_jtag_uart_ioctl+0x84>
   11648:	00a00034 	movhi	r2,32768
   1164c:	10bfff84 	addi	r2,r2,-2
   11650:	e0fffd17 	ldw	r3,-12(fp)
   11654:	18800115 	stw	r2,4(r3)
      rc = 0;
   11658:	e03ffb15 	stw	zero,-20(fp)
    }
    break;
   1165c:	00000f06 	br	1169c <altera_avalon_jtag_uart_ioctl+0xd0>

  case TIOCGCONNECTED:
    /* Find out whether host is connected */
    if (sp->timeout != INT_MAX)
   11660:	e0bffd17 	ldw	r2,-12(fp)
   11664:	10c00117 	ldw	r3,4(r2)
   11668:	00a00034 	movhi	r2,32768
   1166c:	10bfffc4 	addi	r2,r2,-1
   11670:	18800c26 	beq	r3,r2,116a4 <altera_avalon_jtag_uart_ioctl+0xd8>
    {
      *((int *)arg) = (sp->host_inactive < sp->timeout) ? 1 : 0;
   11674:	e0bffd17 	ldw	r2,-12(fp)
   11678:	10c00917 	ldw	r3,36(r2)
   1167c:	e0bffd17 	ldw	r2,-12(fp)
   11680:	10800117 	ldw	r2,4(r2)
   11684:	1885803a 	cmpltu	r2,r3,r2
   11688:	10c03fcc 	andi	r3,r2,255
   1168c:	e0bfff17 	ldw	r2,-4(fp)
   11690:	10c00015 	stw	r3,0(r2)
      rc = 0;
   11694:	e03ffb15 	stw	zero,-20(fp)
    }
    break;
   11698:	00000206 	br	116a4 <altera_avalon_jtag_uart_ioctl+0xd8>
    {
      int timeout = *((int *)arg);
      sp->timeout = (timeout >= 2 && timeout < INT_MAX) ? timeout : INT_MAX - 1;
      rc = 0;
    }
    break;
   1169c:	0001883a 	nop
   116a0:	00000106 	br	116a8 <altera_avalon_jtag_uart_ioctl+0xdc>
    if (sp->timeout != INT_MAX)
    {
      *((int *)arg) = (sp->host_inactive < sp->timeout) ? 1 : 0;
      rc = 0;
    }
    break;
   116a4:	0001883a 	nop

  default:
    break;
  }

  return rc;
   116a8:	e0bffb17 	ldw	r2,-20(fp)
}
   116ac:	e037883a 	mov	sp,fp
   116b0:	df000017 	ldw	fp,0(sp)
   116b4:	dec00104 	addi	sp,sp,4
   116b8:	f800283a 	ret

000116bc <altera_avalon_jtag_uart_read>:
/* ----------------------------------------------------------- */

int 
altera_avalon_jtag_uart_read(altera_avalon_jtag_uart_state* sp, 
  char * buffer, int space, int flags)
{
   116bc:	defff304 	addi	sp,sp,-52
   116c0:	dfc00c15 	stw	ra,48(sp)
   116c4:	df000b15 	stw	fp,44(sp)
   116c8:	df000b04 	addi	fp,sp,44
   116cc:	e13ffc15 	stw	r4,-16(fp)
   116d0:	e17ffd15 	stw	r5,-12(fp)
   116d4:	e1bffe15 	stw	r6,-8(fp)
   116d8:	e1ffff15 	stw	r7,-4(fp)
  char * ptr = buffer;
   116dc:	e0bffd17 	ldw	r2,-12(fp)
   116e0:	e0bff515 	stw	r2,-44(fp)
   * When running in a multi threaded environment, obtain the "read_lock"
   * semaphore. This ensures that reading from the device is thread-safe.
   */
  ALT_SEM_PEND (sp->read_lock, 0);

  while (space > 0)
   116e4:	00004706 	br	11804 <altera_avalon_jtag_uart_read+0x148>
    unsigned int in, out;

    /* Read as much data as possible */
    do
    {
      in  = sp->rx_in;
   116e8:	e0bffc17 	ldw	r2,-16(fp)
   116ec:	10800a17 	ldw	r2,40(r2)
   116f0:	e0bff715 	stw	r2,-36(fp)
      out = sp->rx_out;
   116f4:	e0bffc17 	ldw	r2,-16(fp)
   116f8:	10800b17 	ldw	r2,44(r2)
   116fc:	e0bff815 	stw	r2,-32(fp)

      if (in >= out)
   11700:	e0fff717 	ldw	r3,-36(fp)
   11704:	e0bff817 	ldw	r2,-32(fp)
   11708:	18800536 	bltu	r3,r2,11720 <altera_avalon_jtag_uart_read+0x64>
        n = in - out;
   1170c:	e0fff717 	ldw	r3,-36(fp)
   11710:	e0bff817 	ldw	r2,-32(fp)
   11714:	1885c83a 	sub	r2,r3,r2
   11718:	e0bff615 	stw	r2,-40(fp)
   1171c:	00000406 	br	11730 <altera_avalon_jtag_uart_read+0x74>
      else
        n = ALTERA_AVALON_JTAG_UART_BUF_LEN - out;
   11720:	00c20004 	movi	r3,2048
   11724:	e0bff817 	ldw	r2,-32(fp)
   11728:	1885c83a 	sub	r2,r3,r2
   1172c:	e0bff615 	stw	r2,-40(fp)

      if (n == 0)
   11730:	e0bff617 	ldw	r2,-40(fp)
   11734:	10001e26 	beq	r2,zero,117b0 <altera_avalon_jtag_uart_read+0xf4>
        break; /* No more data available */

      if (n > space)
   11738:	e0fffe17 	ldw	r3,-8(fp)
   1173c:	e0bff617 	ldw	r2,-40(fp)
   11740:	1880022e 	bgeu	r3,r2,1174c <altera_avalon_jtag_uart_read+0x90>
        n = space;
   11744:	e0bffe17 	ldw	r2,-8(fp)
   11748:	e0bff615 	stw	r2,-40(fp)

      memcpy(ptr, sp->rx_buf + out, n);
   1174c:	e0bffc17 	ldw	r2,-16(fp)
   11750:	10c00e04 	addi	r3,r2,56
   11754:	e0bff817 	ldw	r2,-32(fp)
   11758:	1885883a 	add	r2,r3,r2
   1175c:	e1bff617 	ldw	r6,-40(fp)
   11760:	100b883a 	mov	r5,r2
   11764:	e13ff517 	ldw	r4,-44(fp)
   11768:	000b0e00 	call	b0e0 <memcpy>
      ptr   += n;
   1176c:	e0fff517 	ldw	r3,-44(fp)
   11770:	e0bff617 	ldw	r2,-40(fp)
   11774:	1885883a 	add	r2,r3,r2
   11778:	e0bff515 	stw	r2,-44(fp)
      space -= n;
   1177c:	e0fffe17 	ldw	r3,-8(fp)
   11780:	e0bff617 	ldw	r2,-40(fp)
   11784:	1885c83a 	sub	r2,r3,r2
   11788:	e0bffe15 	stw	r2,-8(fp)

      sp->rx_out = (out + n) % ALTERA_AVALON_JTAG_UART_BUF_LEN;
   1178c:	e0fff817 	ldw	r3,-32(fp)
   11790:	e0bff617 	ldw	r2,-40(fp)
   11794:	1885883a 	add	r2,r3,r2
   11798:	10c1ffcc 	andi	r3,r2,2047
   1179c:	e0bffc17 	ldw	r2,-16(fp)
   117a0:	10c00b15 	stw	r3,44(r2)
    }
    while (space > 0);
   117a4:	e0bffe17 	ldw	r2,-8(fp)
   117a8:	00bfcf16 	blt	zero,r2,116e8 <__alt_mem_VGA_Subsystem_Char_Buf_Subsystem_Onchip_SRAM+0xf70116e8>
   117ac:	00000106 	br	117b4 <altera_avalon_jtag_uart_read+0xf8>
        n = in - out;
      else
        n = ALTERA_AVALON_JTAG_UART_BUF_LEN - out;

      if (n == 0)
        break; /* No more data available */
   117b0:	0001883a 	nop
      sp->rx_out = (out + n) % ALTERA_AVALON_JTAG_UART_BUF_LEN;
    }
    while (space > 0);

    /* If we read any data then return it */
    if (ptr != buffer)
   117b4:	e0fff517 	ldw	r3,-44(fp)
   117b8:	e0bffd17 	ldw	r2,-12(fp)
   117bc:	1880141e 	bne	r3,r2,11810 <altera_avalon_jtag_uart_read+0x154>
      break;

    /* If in non-blocking mode then return error */
    if (flags & O_NONBLOCK)
   117c0:	e0bfff17 	ldw	r2,-4(fp)
   117c4:	1090000c 	andi	r2,r2,16384
   117c8:	1000131e 	bne	r2,zero,11818 <altera_avalon_jtag_uart_read+0x15c>
      while (in == sp->rx_in && sp->host_inactive < sp->timeout)
        ;
    }
#else
    /* No OS: Always spin */
    while (in == sp->rx_in && sp->host_inactive < sp->timeout)
   117cc:	0001883a 	nop
   117d0:	e0bffc17 	ldw	r2,-16(fp)
   117d4:	10c00a17 	ldw	r3,40(r2)
   117d8:	e0bff717 	ldw	r2,-36(fp)
   117dc:	1880051e 	bne	r3,r2,117f4 <altera_avalon_jtag_uart_read+0x138>
   117e0:	e0bffc17 	ldw	r2,-16(fp)
   117e4:	10c00917 	ldw	r3,36(r2)
   117e8:	e0bffc17 	ldw	r2,-16(fp)
   117ec:	10800117 	ldw	r2,4(r2)
   117f0:	18bff736 	bltu	r3,r2,117d0 <__alt_mem_VGA_Subsystem_Char_Buf_Subsystem_Onchip_SRAM+0xf70117d0>
      ;
#endif /* __ucosii__ */

    if (in == sp->rx_in)
   117f4:	e0bffc17 	ldw	r2,-16(fp)
   117f8:	10c00a17 	ldw	r3,40(r2)
   117fc:	e0bff717 	ldw	r2,-36(fp)
   11800:	18800726 	beq	r3,r2,11820 <altera_avalon_jtag_uart_read+0x164>
   * When running in a multi threaded environment, obtain the "read_lock"
   * semaphore. This ensures that reading from the device is thread-safe.
   */
  ALT_SEM_PEND (sp->read_lock, 0);

  while (space > 0)
   11804:	e0bffe17 	ldw	r2,-8(fp)
   11808:	00bfb716 	blt	zero,r2,116e8 <__alt_mem_VGA_Subsystem_Char_Buf_Subsystem_Onchip_SRAM+0xf70116e8>
   1180c:	00000506 	br	11824 <altera_avalon_jtag_uart_read+0x168>
    }
    while (space > 0);

    /* If we read any data then return it */
    if (ptr != buffer)
      break;
   11810:	0001883a 	nop
   11814:	00000306 	br	11824 <altera_avalon_jtag_uart_read+0x168>

    /* If in non-blocking mode then return error */
    if (flags & O_NONBLOCK)
      break;
   11818:	0001883a 	nop
   1181c:	00000106 	br	11824 <altera_avalon_jtag_uart_read+0x168>
    while (in == sp->rx_in && sp->host_inactive < sp->timeout)
      ;
#endif /* __ucosii__ */

    if (in == sp->rx_in)
      break;
   11820:	0001883a 	nop
   * semaphore so that other threads can access the buffer.
   */

  ALT_SEM_POST (sp->read_lock);

  if (ptr != buffer)
   11824:	e0fff517 	ldw	r3,-44(fp)
   11828:	e0bffd17 	ldw	r2,-12(fp)
   1182c:	18801826 	beq	r3,r2,11890 <altera_avalon_jtag_uart_read+0x1d4>
static ALT_INLINE alt_irq_context ALT_ALWAYS_INLINE 
       alt_irq_disable_all (void)
{
  alt_irq_context context;

  NIOS2_READ_STATUS (context);
   11830:	0005303a 	rdctl	r2,status
   11834:	e0bffb15 	stw	r2,-20(fp)

  NIOS2_WRITE_STATUS (context & ~NIOS2_STATUS_PIE_MSK);
   11838:	e0fffb17 	ldw	r3,-20(fp)
   1183c:	00bfff84 	movi	r2,-2
   11840:	1884703a 	and	r2,r3,r2
   11844:	1001703a 	wrctl	status,r2
  
  return context;
   11848:	e0bffb17 	ldw	r2,-20(fp)
  {
    /* If we read any data then there is space in the buffer so enable interrupts */
    context = alt_irq_disable_all();
   1184c:	e0bffa15 	stw	r2,-24(fp)
    sp->irq_enable |= ALTERA_AVALON_JTAG_UART_CONTROL_RE_MSK;
   11850:	e0bffc17 	ldw	r2,-16(fp)
   11854:	10800817 	ldw	r2,32(r2)
   11858:	10c00054 	ori	r3,r2,1
   1185c:	e0bffc17 	ldw	r2,-16(fp)
   11860:	10c00815 	stw	r3,32(r2)
    IOWR_ALTERA_AVALON_JTAG_UART_CONTROL(sp->base, sp->irq_enable);
   11864:	e0bffc17 	ldw	r2,-16(fp)
   11868:	10800017 	ldw	r2,0(r2)
   1186c:	10800104 	addi	r2,r2,4
   11870:	1007883a 	mov	r3,r2
   11874:	e0bffc17 	ldw	r2,-16(fp)
   11878:	10800817 	ldw	r2,32(r2)
   1187c:	18800035 	stwio	r2,0(r3)
   11880:	e0bffa17 	ldw	r2,-24(fp)
   11884:	e0bff915 	stw	r2,-28(fp)
  status &= ~NIOS2_STATUS_PIE_MSK;
  status |= (context & NIOS2_STATUS_PIE_MSK);
  
  NIOS2_WRITE_STATUS (status);
#else
  NIOS2_WRITE_STATUS (context);
   11888:	e0bff917 	ldw	r2,-28(fp)
   1188c:	1001703a 	wrctl	status,r2
    alt_irq_enable_all(context);
  }

  if (ptr != buffer)
   11890:	e0fff517 	ldw	r3,-44(fp)
   11894:	e0bffd17 	ldw	r2,-12(fp)
   11898:	18800426 	beq	r3,r2,118ac <altera_avalon_jtag_uart_read+0x1f0>
    return ptr - buffer;
   1189c:	e0fff517 	ldw	r3,-44(fp)
   118a0:	e0bffd17 	ldw	r2,-12(fp)
   118a4:	1885c83a 	sub	r2,r3,r2
   118a8:	00000606 	br	118c4 <altera_avalon_jtag_uart_read+0x208>
  else if (flags & O_NONBLOCK)
   118ac:	e0bfff17 	ldw	r2,-4(fp)
   118b0:	1090000c 	andi	r2,r2,16384
   118b4:	10000226 	beq	r2,zero,118c0 <altera_avalon_jtag_uart_read+0x204>
    return -EWOULDBLOCK;
   118b8:	00bffd44 	movi	r2,-11
   118bc:	00000106 	br	118c4 <altera_avalon_jtag_uart_read+0x208>
  else
    return -EIO;
   118c0:	00bffec4 	movi	r2,-5
}
   118c4:	e037883a 	mov	sp,fp
   118c8:	dfc00117 	ldw	ra,4(sp)
   118cc:	df000017 	ldw	fp,0(sp)
   118d0:	dec00204 	addi	sp,sp,8
   118d4:	f800283a 	ret

000118d8 <altera_avalon_jtag_uart_write>:
/* ----------------------------------------------------------- */

int 
altera_avalon_jtag_uart_write(altera_avalon_jtag_uart_state* sp, 
  const char * ptr, int count, int flags)
{
   118d8:	defff304 	addi	sp,sp,-52
   118dc:	dfc00c15 	stw	ra,48(sp)
   118e0:	df000b15 	stw	fp,44(sp)
   118e4:	df000b04 	addi	fp,sp,44
   118e8:	e13ffc15 	stw	r4,-16(fp)
   118ec:	e17ffd15 	stw	r5,-12(fp)
   118f0:	e1bffe15 	stw	r6,-8(fp)
   118f4:	e1ffff15 	stw	r7,-4(fp)
  /* Remove warning at optimisation level 03 by seting out to 0 */
  unsigned int in, out=0;
   118f8:	e03ff515 	stw	zero,-44(fp)
  unsigned int n;
  alt_irq_context context;

  const char * start = ptr;
   118fc:	e0bffd17 	ldw	r2,-12(fp)
   11900:	e0bff715 	stw	r2,-36(fp)
  ALT_SEM_PEND (sp->write_lock, 0);

  do
  {
    /* Copy as much as we can into the transmit buffer */
    while (count > 0)
   11904:	00003706 	br	119e4 <altera_avalon_jtag_uart_write+0x10c>
    {
      /* We need a stable value of the out pointer to calculate the space available */
      in  = sp->tx_in;
   11908:	e0bffc17 	ldw	r2,-16(fp)
   1190c:	10800c17 	ldw	r2,48(r2)
   11910:	e0bff915 	stw	r2,-28(fp)
      out = sp->tx_out;
   11914:	e0bffc17 	ldw	r2,-16(fp)
   11918:	10800d17 	ldw	r2,52(r2)
   1191c:	e0bff515 	stw	r2,-44(fp)

      if (in < out)
   11920:	e0fff917 	ldw	r3,-28(fp)
   11924:	e0bff517 	ldw	r2,-44(fp)
   11928:	1880062e 	bgeu	r3,r2,11944 <altera_avalon_jtag_uart_write+0x6c>
        n = out - 1 - in;
   1192c:	e0fff517 	ldw	r3,-44(fp)
   11930:	e0bff917 	ldw	r2,-28(fp)
   11934:	1885c83a 	sub	r2,r3,r2
   11938:	10bfffc4 	addi	r2,r2,-1
   1193c:	e0bff615 	stw	r2,-40(fp)
   11940:	00000b06 	br	11970 <altera_avalon_jtag_uart_write+0x98>
      else if (out > 0)
   11944:	e0bff517 	ldw	r2,-44(fp)
   11948:	10000526 	beq	r2,zero,11960 <altera_avalon_jtag_uart_write+0x88>
        n = ALTERA_AVALON_JTAG_UART_BUF_LEN - in;
   1194c:	00c20004 	movi	r3,2048
   11950:	e0bff917 	ldw	r2,-28(fp)
   11954:	1885c83a 	sub	r2,r3,r2
   11958:	e0bff615 	stw	r2,-40(fp)
   1195c:	00000406 	br	11970 <altera_avalon_jtag_uart_write+0x98>
      else
        n = ALTERA_AVALON_JTAG_UART_BUF_LEN - 1 - in;
   11960:	00c1ffc4 	movi	r3,2047
   11964:	e0bff917 	ldw	r2,-28(fp)
   11968:	1885c83a 	sub	r2,r3,r2
   1196c:	e0bff615 	stw	r2,-40(fp)

      if (n == 0)
   11970:	e0bff617 	ldw	r2,-40(fp)
   11974:	10001e26 	beq	r2,zero,119f0 <altera_avalon_jtag_uart_write+0x118>
        break;

      if (n > count)
   11978:	e0fffe17 	ldw	r3,-8(fp)
   1197c:	e0bff617 	ldw	r2,-40(fp)
   11980:	1880022e 	bgeu	r3,r2,1198c <altera_avalon_jtag_uart_write+0xb4>
        n = count;
   11984:	e0bffe17 	ldw	r2,-8(fp)
   11988:	e0bff615 	stw	r2,-40(fp)

      memcpy(sp->tx_buf + in, ptr, n);
   1198c:	e0bffc17 	ldw	r2,-16(fp)
   11990:	10c20e04 	addi	r3,r2,2104
   11994:	e0bff917 	ldw	r2,-28(fp)
   11998:	1885883a 	add	r2,r3,r2
   1199c:	e1bff617 	ldw	r6,-40(fp)
   119a0:	e17ffd17 	ldw	r5,-12(fp)
   119a4:	1009883a 	mov	r4,r2
   119a8:	000b0e00 	call	b0e0 <memcpy>
      ptr   += n;
   119ac:	e0fffd17 	ldw	r3,-12(fp)
   119b0:	e0bff617 	ldw	r2,-40(fp)
   119b4:	1885883a 	add	r2,r3,r2
   119b8:	e0bffd15 	stw	r2,-12(fp)
      count -= n;
   119bc:	e0fffe17 	ldw	r3,-8(fp)
   119c0:	e0bff617 	ldw	r2,-40(fp)
   119c4:	1885c83a 	sub	r2,r3,r2
   119c8:	e0bffe15 	stw	r2,-8(fp)

      sp->tx_in = (in + n) % ALTERA_AVALON_JTAG_UART_BUF_LEN;
   119cc:	e0fff917 	ldw	r3,-28(fp)
   119d0:	e0bff617 	ldw	r2,-40(fp)
   119d4:	1885883a 	add	r2,r3,r2
   119d8:	10c1ffcc 	andi	r3,r2,2047
   119dc:	e0bffc17 	ldw	r2,-16(fp)
   119e0:	10c00c15 	stw	r3,48(r2)
  ALT_SEM_PEND (sp->write_lock, 0);

  do
  {
    /* Copy as much as we can into the transmit buffer */
    while (count > 0)
   119e4:	e0bffe17 	ldw	r2,-8(fp)
   119e8:	00bfc716 	blt	zero,r2,11908 <__alt_mem_VGA_Subsystem_Char_Buf_Subsystem_Onchip_SRAM+0xf7011908>
   119ec:	00000106 	br	119f4 <altera_avalon_jtag_uart_write+0x11c>
        n = ALTERA_AVALON_JTAG_UART_BUF_LEN - in;
      else
        n = ALTERA_AVALON_JTAG_UART_BUF_LEN - 1 - in;

      if (n == 0)
        break;
   119f0:	0001883a 	nop
static ALT_INLINE alt_irq_context ALT_ALWAYS_INLINE 
       alt_irq_disable_all (void)
{
  alt_irq_context context;

  NIOS2_READ_STATUS (context);
   119f4:	0005303a 	rdctl	r2,status
   119f8:	e0bffb15 	stw	r2,-20(fp)

  NIOS2_WRITE_STATUS (context & ~NIOS2_STATUS_PIE_MSK);
   119fc:	e0fffb17 	ldw	r3,-20(fp)
   11a00:	00bfff84 	movi	r2,-2
   11a04:	1884703a 	and	r2,r3,r2
   11a08:	1001703a 	wrctl	status,r2
  
  return context;
   11a0c:	e0bffb17 	ldw	r2,-20(fp)
     * to enable interrupts if there is no space left in the FIFO
     *
     * For now kick the interrupt routine every time to make it transmit 
     * the data 
     */
    context = alt_irq_disable_all();
   11a10:	e0bffa15 	stw	r2,-24(fp)
    sp->irq_enable |= ALTERA_AVALON_JTAG_UART_CONTROL_WE_MSK;
   11a14:	e0bffc17 	ldw	r2,-16(fp)
   11a18:	10800817 	ldw	r2,32(r2)
   11a1c:	10c00094 	ori	r3,r2,2
   11a20:	e0bffc17 	ldw	r2,-16(fp)
   11a24:	10c00815 	stw	r3,32(r2)
    IOWR_ALTERA_AVALON_JTAG_UART_CONTROL(sp->base, sp->irq_enable);
   11a28:	e0bffc17 	ldw	r2,-16(fp)
   11a2c:	10800017 	ldw	r2,0(r2)
   11a30:	10800104 	addi	r2,r2,4
   11a34:	1007883a 	mov	r3,r2
   11a38:	e0bffc17 	ldw	r2,-16(fp)
   11a3c:	10800817 	ldw	r2,32(r2)
   11a40:	18800035 	stwio	r2,0(r3)
   11a44:	e0bffa17 	ldw	r2,-24(fp)
   11a48:	e0bff815 	stw	r2,-32(fp)
  status &= ~NIOS2_STATUS_PIE_MSK;
  status |= (context & NIOS2_STATUS_PIE_MSK);
  
  NIOS2_WRITE_STATUS (status);
#else
  NIOS2_WRITE_STATUS (context);
   11a4c:	e0bff817 	ldw	r2,-32(fp)
   11a50:	1001703a 	wrctl	status,r2
    /* 
     * If there is any data left then either return now or block until 
     * some has been sent 
     */
    /* consider: test whether there is anything there while doing this and delay for at most 2s. */
    if (count > 0)
   11a54:	e0bffe17 	ldw	r2,-8(fp)
   11a58:	0080100e 	bge	zero,r2,11a9c <altera_avalon_jtag_uart_write+0x1c4>
    {
      if (flags & O_NONBLOCK)
   11a5c:	e0bfff17 	ldw	r2,-4(fp)
   11a60:	1090000c 	andi	r2,r2,16384
   11a64:	1000101e 	bne	r2,zero,11aa8 <altera_avalon_jtag_uart_write+0x1d0>
      /*
       * No OS present: Always wait for data to be removed from buffer.  Once
       * the interrupt routine has removed some data then we will be able to
       * insert some more.
       */
      while (out == sp->tx_out && sp->host_inactive < sp->timeout)
   11a68:	0001883a 	nop
   11a6c:	e0bffc17 	ldw	r2,-16(fp)
   11a70:	10c00d17 	ldw	r3,52(r2)
   11a74:	e0bff517 	ldw	r2,-44(fp)
   11a78:	1880051e 	bne	r3,r2,11a90 <altera_avalon_jtag_uart_write+0x1b8>
   11a7c:	e0bffc17 	ldw	r2,-16(fp)
   11a80:	10c00917 	ldw	r3,36(r2)
   11a84:	e0bffc17 	ldw	r2,-16(fp)
   11a88:	10800117 	ldw	r2,4(r2)
   11a8c:	18bff736 	bltu	r3,r2,11a6c <__alt_mem_VGA_Subsystem_Char_Buf_Subsystem_Onchip_SRAM+0xf7011a6c>
        ;
#endif /* __ucosii__ */

      if  (sp->host_inactive)
   11a90:	e0bffc17 	ldw	r2,-16(fp)
   11a94:	10800917 	ldw	r2,36(r2)
   11a98:	1000051e 	bne	r2,zero,11ab0 <altera_avalon_jtag_uart_write+0x1d8>
         break;
    }
  }
  while (count > 0);
   11a9c:	e0bffe17 	ldw	r2,-8(fp)
   11aa0:	00bfd016 	blt	zero,r2,119e4 <__alt_mem_VGA_Subsystem_Char_Buf_Subsystem_Onchip_SRAM+0xf70119e4>
   11aa4:	00000306 	br	11ab4 <altera_avalon_jtag_uart_write+0x1dc>
     */
    /* consider: test whether there is anything there while doing this and delay for at most 2s. */
    if (count > 0)
    {
      if (flags & O_NONBLOCK)
        break;
   11aa8:	0001883a 	nop
   11aac:	00000106 	br	11ab4 <altera_avalon_jtag_uart_write+0x1dc>
      while (out == sp->tx_out && sp->host_inactive < sp->timeout)
        ;
#endif /* __ucosii__ */

      if  (sp->host_inactive)
         break;
   11ab0:	0001883a 	nop
   * Now that access to the circular buffer is complete, release the write
   * semaphore so that other threads can access the buffer.
   */
  ALT_SEM_POST (sp->write_lock);

  if (ptr != start)
   11ab4:	e0fffd17 	ldw	r3,-12(fp)
   11ab8:	e0bff717 	ldw	r2,-36(fp)
   11abc:	18800426 	beq	r3,r2,11ad0 <altera_avalon_jtag_uart_write+0x1f8>
    return ptr - start;
   11ac0:	e0fffd17 	ldw	r3,-12(fp)
   11ac4:	e0bff717 	ldw	r2,-36(fp)
   11ac8:	1885c83a 	sub	r2,r3,r2
   11acc:	00000606 	br	11ae8 <altera_avalon_jtag_uart_write+0x210>
  else if (flags & O_NONBLOCK)
   11ad0:	e0bfff17 	ldw	r2,-4(fp)
   11ad4:	1090000c 	andi	r2,r2,16384
   11ad8:	10000226 	beq	r2,zero,11ae4 <altera_avalon_jtag_uart_write+0x20c>
    return -EWOULDBLOCK;
   11adc:	00bffd44 	movi	r2,-11
   11ae0:	00000106 	br	11ae8 <altera_avalon_jtag_uart_write+0x210>
    sp->tx_out = sp->tx_in = 0;
    return ptr - start + count;
  }
#endif
  else
    return -EIO; /* Host not connected */
   11ae4:	00bffec4 	movi	r2,-5
}
   11ae8:	e037883a 	mov	sp,fp
   11aec:	dfc00117 	ldw	ra,4(sp)
   11af0:	df000017 	ldw	fp,0(sp)
   11af4:	dec00204 	addi	sp,sp,8
   11af8:	f800283a 	ret

00011afc <alt_avalon_timer_sc_irq>:
#ifdef ALT_ENHANCED_INTERRUPT_API_PRESENT
static void alt_avalon_timer_sc_irq (void* base)
#else
static void alt_avalon_timer_sc_irq (void* base, alt_u32 id)
#endif
{
   11afc:	defffa04 	addi	sp,sp,-24
   11b00:	dfc00515 	stw	ra,20(sp)
   11b04:	df000415 	stw	fp,16(sp)
   11b08:	df000404 	addi	fp,sp,16
   11b0c:	e13fff15 	stw	r4,-4(fp)
  alt_irq_context cpu_sr;
  
  /* clear the interrupt */
  IOWR_ALTERA_AVALON_TIMER_STATUS (base, 0);
   11b10:	0007883a 	mov	r3,zero
   11b14:	e0bfff17 	ldw	r2,-4(fp)
   11b18:	10c00035 	stwio	r3,0(r2)
  /* 
   * Dummy read to ensure IRQ is negated before the ISR returns.
   * The control register is read because reading the status
   * register has side-effects per the register map documentation.
   */
  IORD_ALTERA_AVALON_TIMER_CONTROL (base);
   11b1c:	e0bfff17 	ldw	r2,-4(fp)
   11b20:	10800104 	addi	r2,r2,4
   11b24:	10800037 	ldwio	r2,0(r2)
static ALT_INLINE alt_irq_context ALT_ALWAYS_INLINE 
       alt_irq_disable_all (void)
{
  alt_irq_context context;

  NIOS2_READ_STATUS (context);
   11b28:	0005303a 	rdctl	r2,status
   11b2c:	e0bffd15 	stw	r2,-12(fp)

  NIOS2_WRITE_STATUS (context & ~NIOS2_STATUS_PIE_MSK);
   11b30:	e0fffd17 	ldw	r3,-12(fp)
   11b34:	00bfff84 	movi	r2,-2
   11b38:	1884703a 	and	r2,r3,r2
   11b3c:	1001703a 	wrctl	status,r2
  
  return context;
   11b40:	e0bffd17 	ldw	r2,-12(fp)

  /* 
   * Notify the system of a clock tick. disable interrupts 
   * during this time to safely support ISR preemption
   */
  cpu_sr = alt_irq_disable_all();
   11b44:	e0bffc15 	stw	r2,-16(fp)
  alt_tick ();
   11b48:	00127740 	call	12774 <alt_tick>
   11b4c:	e0bffc17 	ldw	r2,-16(fp)
   11b50:	e0bffe15 	stw	r2,-8(fp)
  status &= ~NIOS2_STATUS_PIE_MSK;
  status |= (context & NIOS2_STATUS_PIE_MSK);
  
  NIOS2_WRITE_STATUS (status);
#else
  NIOS2_WRITE_STATUS (context);
   11b54:	e0bffe17 	ldw	r2,-8(fp)
   11b58:	1001703a 	wrctl	status,r2
  alt_irq_enable_all(cpu_sr);
}
   11b5c:	0001883a 	nop
   11b60:	e037883a 	mov	sp,fp
   11b64:	dfc00117 	ldw	ra,4(sp)
   11b68:	df000017 	ldw	fp,0(sp)
   11b6c:	dec00204 	addi	sp,sp,8
   11b70:	f800283a 	ret

00011b74 <alt_avalon_timer_sc_init>:
 * auto-generated alt_sys_init() function.
 */

void alt_avalon_timer_sc_init (void* base, alt_u32 irq_controller_id, 
                                alt_u32 irq, alt_u32 freq)
{
   11b74:	defff804 	addi	sp,sp,-32
   11b78:	dfc00715 	stw	ra,28(sp)
   11b7c:	df000615 	stw	fp,24(sp)
   11b80:	df000604 	addi	fp,sp,24
   11b84:	e13ffc15 	stw	r4,-16(fp)
   11b88:	e17ffd15 	stw	r5,-12(fp)
   11b8c:	e1bffe15 	stw	r6,-8(fp)
   11b90:	e1ffff15 	stw	r7,-4(fp)
   11b94:	e0bfff17 	ldw	r2,-4(fp)
   11b98:	e0bffb15 	stw	r2,-20(fp)
 * in order to initialise the value of the clock frequency.
 */

static ALT_INLINE int ALT_ALWAYS_INLINE alt_sysclk_init (alt_u32 nticks)
{
  if (! _alt_tick_rate)
   11b9c:	d0a71a17 	ldw	r2,-25496(gp)
   11ba0:	1000021e 	bne	r2,zero,11bac <alt_avalon_timer_sc_init+0x38>
  {
    _alt_tick_rate = nticks;
   11ba4:	e0bffb17 	ldw	r2,-20(fp)
   11ba8:	d0a71a15 	stw	r2,-25496(gp)
  
  alt_sysclk_init (freq);
  
  /* set to free running mode */
  
  IOWR_ALTERA_AVALON_TIMER_CONTROL (base, 
   11bac:	e0bffc17 	ldw	r2,-16(fp)
   11bb0:	10800104 	addi	r2,r2,4
   11bb4:	00c001c4 	movi	r3,7
   11bb8:	10c00035 	stwio	r3,0(r2)
            ALTERA_AVALON_TIMER_CONTROL_CONT_MSK |
            ALTERA_AVALON_TIMER_CONTROL_START_MSK);

  /* register the interrupt handler, and enable the interrupt */
#ifdef ALT_ENHANCED_INTERRUPT_API_PRESENT
  alt_ic_isr_register(irq_controller_id, irq, alt_avalon_timer_sc_irq, 
   11bbc:	d8000015 	stw	zero,0(sp)
   11bc0:	e1fffc17 	ldw	r7,-16(fp)
   11bc4:	01800074 	movhi	r6,1
   11bc8:	3186bf04 	addi	r6,r6,6908
   11bcc:	e17ffe17 	ldw	r5,-8(fp)
   11bd0:	e13ffd17 	ldw	r4,-12(fp)
   11bd4:	00120540 	call	12054 <alt_ic_isr_register>
                      base, NULL);
#else
  alt_irq_register (irq, base, alt_avalon_timer_sc_irq);
#endif  
}
   11bd8:	0001883a 	nop
   11bdc:	e037883a 	mov	sp,fp
   11be0:	dfc00117 	ldw	ra,4(sp)
   11be4:	df000017 	ldw	fp,0(sp)
   11be8:	dec00204 	addi	sp,sp,8
   11bec:	f800283a 	ret

00011bf0 <alt_alarm_start>:
 */ 

int alt_alarm_start (alt_alarm* alarm, alt_u32 nticks,
                     alt_u32 (*callback) (void* context),
                     void* context)
{
   11bf0:	defff504 	addi	sp,sp,-44
   11bf4:	df000a15 	stw	fp,40(sp)
   11bf8:	df000a04 	addi	fp,sp,40
   11bfc:	e13ffc15 	stw	r4,-16(fp)
   11c00:	e17ffd15 	stw	r5,-12(fp)
   11c04:	e1bffe15 	stw	r6,-8(fp)
   11c08:	e1ffff15 	stw	r7,-4(fp)
  alt_irq_context irq_context;
  alt_u32 current_nticks = 0;
   11c0c:	e03ff615 	stw	zero,-40(fp)
 * Obtain the system clock rate in ticks/s. 
 */

static ALT_INLINE alt_u32 ALT_ALWAYS_INLINE alt_ticks_per_second (void)
{
  return _alt_tick_rate;
   11c10:	d0a71a17 	ldw	r2,-25496(gp)
  
  if (alt_ticks_per_second ())
   11c14:	10003c26 	beq	r2,zero,11d08 <alt_alarm_start+0x118>
  {
    if (alarm)
   11c18:	e0bffc17 	ldw	r2,-16(fp)
   11c1c:	10003826 	beq	r2,zero,11d00 <alt_alarm_start+0x110>
    {
      alarm->callback = callback;
   11c20:	e0bffc17 	ldw	r2,-16(fp)
   11c24:	e0fffe17 	ldw	r3,-8(fp)
   11c28:	10c00315 	stw	r3,12(r2)
      alarm->context  = context;
   11c2c:	e0bffc17 	ldw	r2,-16(fp)
   11c30:	e0ffff17 	ldw	r3,-4(fp)
   11c34:	10c00515 	stw	r3,20(r2)
static ALT_INLINE alt_irq_context ALT_ALWAYS_INLINE 
       alt_irq_disable_all (void)
{
  alt_irq_context context;

  NIOS2_READ_STATUS (context);
   11c38:	0005303a 	rdctl	r2,status
   11c3c:	e0bff915 	stw	r2,-28(fp)

  NIOS2_WRITE_STATUS (context & ~NIOS2_STATUS_PIE_MSK);
   11c40:	e0fff917 	ldw	r3,-28(fp)
   11c44:	00bfff84 	movi	r2,-2
   11c48:	1884703a 	and	r2,r3,r2
   11c4c:	1001703a 	wrctl	status,r2
  
  return context;
   11c50:	e0bff917 	ldw	r2,-28(fp)
 
      irq_context = alt_irq_disable_all ();
   11c54:	e0bff815 	stw	r2,-32(fp)
 * alt_nticks() returns the elapsed number of system clock ticks since reset.
 */

static ALT_INLINE alt_u32 ALT_ALWAYS_INLINE alt_nticks (void)
{
  return _alt_nticks;
   11c58:	d0a71b17 	ldw	r2,-25492(gp)
      
      current_nticks = alt_nticks();
   11c5c:	e0bff615 	stw	r2,-40(fp)
      
      alarm->time = nticks + current_nticks + 1; 
   11c60:	e0fffd17 	ldw	r3,-12(fp)
   11c64:	e0bff617 	ldw	r2,-40(fp)
   11c68:	1885883a 	add	r2,r3,r2
   11c6c:	10c00044 	addi	r3,r2,1
   11c70:	e0bffc17 	ldw	r2,-16(fp)
   11c74:	10c00215 	stw	r3,8(r2)
      /* 
       * If the desired alarm time causes a roll-over, set the rollover
       * flag. This will prevent the subsequent tick event from causing
       * an alarm too early.
       */
      if(alarm->time < current_nticks)
   11c78:	e0bffc17 	ldw	r2,-16(fp)
   11c7c:	10c00217 	ldw	r3,8(r2)
   11c80:	e0bff617 	ldw	r2,-40(fp)
   11c84:	1880042e 	bgeu	r3,r2,11c98 <alt_alarm_start+0xa8>
      {
        alarm->rollover = 1;
   11c88:	e0bffc17 	ldw	r2,-16(fp)
   11c8c:	00c00044 	movi	r3,1
   11c90:	10c00405 	stb	r3,16(r2)
   11c94:	00000206 	br	11ca0 <alt_alarm_start+0xb0>
      }
      else
      {
        alarm->rollover = 0;
   11c98:	e0bffc17 	ldw	r2,-16(fp)
   11c9c:	10000405 	stb	zero,16(r2)
      }
    
      alt_llist_insert (&alt_alarm_list, &alarm->llist);
   11ca0:	e0bffc17 	ldw	r2,-16(fp)
   11ca4:	d0e00e04 	addi	r3,gp,-32712
   11ca8:	e0fffa15 	stw	r3,-24(fp)
   11cac:	e0bffb15 	stw	r2,-20(fp)
 */

static ALT_INLINE void ALT_ALWAYS_INLINE alt_llist_insert(alt_llist* list, 
                alt_llist* entry)
{
  entry->previous = list;
   11cb0:	e0bffb17 	ldw	r2,-20(fp)
   11cb4:	e0fffa17 	ldw	r3,-24(fp)
   11cb8:	10c00115 	stw	r3,4(r2)
  entry->next     = list->next;
   11cbc:	e0bffa17 	ldw	r2,-24(fp)
   11cc0:	10c00017 	ldw	r3,0(r2)
   11cc4:	e0bffb17 	ldw	r2,-20(fp)
   11cc8:	10c00015 	stw	r3,0(r2)

  list->next->previous = entry;
   11ccc:	e0bffa17 	ldw	r2,-24(fp)
   11cd0:	10800017 	ldw	r2,0(r2)
   11cd4:	e0fffb17 	ldw	r3,-20(fp)
   11cd8:	10c00115 	stw	r3,4(r2)
  list->next           = entry;
   11cdc:	e0bffa17 	ldw	r2,-24(fp)
   11ce0:	e0fffb17 	ldw	r3,-20(fp)
   11ce4:	10c00015 	stw	r3,0(r2)
   11ce8:	e0bff817 	ldw	r2,-32(fp)
   11cec:	e0bff715 	stw	r2,-36(fp)
  status &= ~NIOS2_STATUS_PIE_MSK;
  status |= (context & NIOS2_STATUS_PIE_MSK);
  
  NIOS2_WRITE_STATUS (status);
#else
  NIOS2_WRITE_STATUS (context);
   11cf0:	e0bff717 	ldw	r2,-36(fp)
   11cf4:	1001703a 	wrctl	status,r2
      alt_irq_enable_all (irq_context);

      return 0;
   11cf8:	0005883a 	mov	r2,zero
   11cfc:	00000306 	br	11d0c <alt_alarm_start+0x11c>
    }
    else
    {
      return -EINVAL;
   11d00:	00bffa84 	movi	r2,-22
   11d04:	00000106 	br	11d0c <alt_alarm_start+0x11c>
    }
  }
  else
  {
    return -ENOTSUP;
   11d08:	00bfde84 	movi	r2,-134
  }
}
   11d0c:	e037883a 	mov	sp,fp
   11d10:	df000017 	ldw	fp,0(sp)
   11d14:	dec00104 	addi	sp,sp,4
   11d18:	f800283a 	ret

00011d1c <alt_busy_sleep>:
#include "alt_types.h"

#include "priv/alt_busy_sleep.h"

unsigned int alt_busy_sleep (unsigned int us)
{
   11d1c:	defffa04 	addi	sp,sp,-24
   11d20:	dfc00515 	stw	ra,20(sp)
   11d24:	df000415 	stw	fp,16(sp)
   11d28:	df000404 	addi	fp,sp,16
   11d2c:	e13fff15 	stw	r4,-4(fp)
  int big_loops;
  alt_u32 cycles_per_loop;
  
  if (!strcmp(NIOS2_CPU_IMPLEMENTATION,"tiny"))
  {
    cycles_per_loop = 9;
   11d30:	00800244 	movi	r2,9
   11d34:	e0bffd15 	stw	r2,-12(fp)
    cycles_per_loop = 3;
  }
  

  big_loops = us / (INT_MAX/
  (ALT_CPU_FREQ/(cycles_per_loop * 1000000)));
   11d38:	014003f4 	movhi	r5,15
   11d3c:	29509004 	addi	r5,r5,16960
   11d40:	e13ffd17 	ldw	r4,-12(fp)
   11d44:	00033480 	call	3348 <__mulsi3>
   11d48:	100b883a 	mov	r5,r2
   11d4c:	01017db4 	movhi	r4,1526
   11d50:	21384004 	addi	r4,r4,-7936
   11d54:	000328c0 	call	328c <__udivsi3>
  {
    cycles_per_loop = 3;
  }
  

  big_loops = us / (INT_MAX/
   11d58:	100b883a 	mov	r5,r2
   11d5c:	01200034 	movhi	r4,32768
   11d60:	213fffc4 	addi	r4,r4,-1
   11d64:	000328c0 	call	328c <__udivsi3>
   11d68:	100b883a 	mov	r5,r2
   11d6c:	e13fff17 	ldw	r4,-4(fp)
   11d70:	000328c0 	call	328c <__udivsi3>
   11d74:	e0bffe15 	stw	r2,-8(fp)
  (ALT_CPU_FREQ/(cycles_per_loop * 1000000)));

  if (big_loops)
   11d78:	e0bffe17 	ldw	r2,-8(fp)
   11d7c:	10002a26 	beq	r2,zero,11e28 <alt_busy_sleep+0x10c>
  {
    for(i=0;i<big_loops;i++)
   11d80:	e03ffc15 	stw	zero,-16(fp)
   11d84:	00001706 	br	11de4 <alt_busy_sleep+0xc8>
      /*
      * Do NOT Try to single step the asm statement below 
      * (single step will never return)
      * Step out of this function or set a breakpoint after the asm statements
      */
      __asm__ volatile (
   11d88:	00a00034 	movhi	r2,32768
   11d8c:	10bfffc4 	addi	r2,r2,-1
   11d90:	10bfffc4 	addi	r2,r2,-1
   11d94:	103ffe1e 	bne	r2,zero,11d90 <__alt_mem_VGA_Subsystem_Char_Buf_Subsystem_Onchip_SRAM+0xf7011d90>
        "\n\t.pushsection .debug_alt_sim_info"
        "\n\t.int 4, 0, 0b, 1b"
        "\n\t.popsection"
        :: "r" (INT_MAX));
      us -= (INT_MAX/(ALT_CPU_FREQ/
      (cycles_per_loop * 1000000)));
   11d98:	014003f4 	movhi	r5,15
   11d9c:	29509004 	addi	r5,r5,16960
   11da0:	e13ffd17 	ldw	r4,-12(fp)
   11da4:	00033480 	call	3348 <__mulsi3>
        "\n1:"
        "\n\t.pushsection .debug_alt_sim_info"
        "\n\t.int 4, 0, 0b, 1b"
        "\n\t.popsection"
        :: "r" (INT_MAX));
      us -= (INT_MAX/(ALT_CPU_FREQ/
   11da8:	100b883a 	mov	r5,r2
   11dac:	01017db4 	movhi	r4,1526
   11db0:	21384004 	addi	r4,r4,-7936
   11db4:	000328c0 	call	328c <__udivsi3>
   11db8:	100b883a 	mov	r5,r2
   11dbc:	01200034 	movhi	r4,32768
   11dc0:	213fffc4 	addi	r4,r4,-1
   11dc4:	000328c0 	call	328c <__udivsi3>
   11dc8:	1007883a 	mov	r3,r2
   11dcc:	e0bfff17 	ldw	r2,-4(fp)
   11dd0:	10c5c83a 	sub	r2,r2,r3
   11dd4:	e0bfff15 	stw	r2,-4(fp)
  big_loops = us / (INT_MAX/
  (ALT_CPU_FREQ/(cycles_per_loop * 1000000)));

  if (big_loops)
  {
    for(i=0;i<big_loops;i++)
   11dd8:	e0bffc17 	ldw	r2,-16(fp)
   11ddc:	10800044 	addi	r2,r2,1
   11de0:	e0bffc15 	stw	r2,-16(fp)
   11de4:	e0fffc17 	ldw	r3,-16(fp)
   11de8:	e0bffe17 	ldw	r2,-8(fp)
   11dec:	18bfe616 	blt	r3,r2,11d88 <__alt_mem_VGA_Subsystem_Char_Buf_Subsystem_Onchip_SRAM+0xf7011d88>
      "\n\tbne %0,zero,0b"
      "\n1:"
      "\n\t.pushsection .debug_alt_sim_info"
      "\n\t.int 4, 0, 0b, 1b"
      "\n\t.popsection"
      :: "r" (us*(ALT_CPU_FREQ/(cycles_per_loop * 1000000))));
   11df0:	014003f4 	movhi	r5,15
   11df4:	29509004 	addi	r5,r5,16960
   11df8:	e13ffd17 	ldw	r4,-12(fp)
   11dfc:	00033480 	call	3348 <__mulsi3>
   11e00:	100b883a 	mov	r5,r2
   11e04:	01017db4 	movhi	r4,1526
   11e08:	21384004 	addi	r4,r4,-7936
   11e0c:	000328c0 	call	328c <__udivsi3>
   11e10:	e17fff17 	ldw	r5,-4(fp)
   11e14:	1009883a 	mov	r4,r2
   11e18:	00033480 	call	3348 <__mulsi3>
    /*
    * Do NOT Try to single step the asm statement below 
    * (single step will never return)
    * Step out of this function or set a breakpoint after the asm statements
    */
    __asm__ volatile (
   11e1c:	10bfffc4 	addi	r2,r2,-1
   11e20:	103ffe1e 	bne	r2,zero,11e1c <__alt_mem_VGA_Subsystem_Char_Buf_Subsystem_Onchip_SRAM+0xf7011e1c>
   11e24:	00000d06 	br	11e5c <alt_busy_sleep+0x140>
      "\n\tbgt %0,zero,0b"
      "\n1:"
      "\n\t.pushsection .debug_alt_sim_info"
      "\n\t.int 4, 0, 0b, 1b"
      "\n\t.popsection"
      :: "r" (us*(ALT_CPU_FREQ/(cycles_per_loop * 1000000))));
   11e28:	014003f4 	movhi	r5,15
   11e2c:	29509004 	addi	r5,r5,16960
   11e30:	e13ffd17 	ldw	r4,-12(fp)
   11e34:	00033480 	call	3348 <__mulsi3>
   11e38:	100b883a 	mov	r5,r2
   11e3c:	01017db4 	movhi	r4,1526
   11e40:	21384004 	addi	r4,r4,-7936
   11e44:	000328c0 	call	328c <__udivsi3>
   11e48:	e17fff17 	ldw	r5,-4(fp)
   11e4c:	1009883a 	mov	r4,r2
   11e50:	00033480 	call	3348 <__mulsi3>
    /*
    * Do NOT Try to single step the asm statement below 
    * (single step will never return)
    * Step out of this function or set a breakpoint after the asm statements
    */
    __asm__ volatile (
   11e54:	10bfffc4 	addi	r2,r2,-1
   11e58:	00bffe16 	blt	zero,r2,11e54 <__alt_mem_VGA_Subsystem_Char_Buf_Subsystem_Onchip_SRAM+0xf7011e54>
      "\n\t.int 4, 0, 0b, 1b"
      "\n\t.popsection"
      :: "r" (us*(ALT_CPU_FREQ/(cycles_per_loop * 1000000))));
  }
#endif /* #ifndef ALT_SIM_OPTIMIZE */
  return 0;
   11e5c:	0005883a 	mov	r2,zero
}
   11e60:	e037883a 	mov	sp,fp
   11e64:	dfc00117 	ldw	ra,4(sp)
   11e68:	df000017 	ldw	fp,0(sp)
   11e6c:	dec00204 	addi	sp,sp,8
   11e70:	f800283a 	ret

00011e74 <alt_dcache_flush_all>:
/*
 * alt_dcache_flush_all() is called to flush the entire data cache.
 */

void alt_dcache_flush_all (void)
{
   11e74:	deffff04 	addi	sp,sp,-4
   11e78:	df000015 	stw	fp,0(sp)
   11e7c:	d839883a 	mov	fp,sp
  for (i = (char*) 0; i < (char*) NIOS2_DCACHE_SIZE; i+= NIOS2_DCACHE_LINE_SIZE)
  { 
    __asm__ volatile ("flushd (%0)" :: "r" (i));
  }
#endif /* NIOS2_DCACHE_SIZE > 0 */
}
   11e80:	0001883a 	nop
   11e84:	e037883a 	mov	sp,fp
   11e88:	df000017 	ldw	fp,0(sp)
   11e8c:	dec00104 	addi	sp,sp,4
   11e90:	f800283a 	ret

00011e94 <alt_get_errno>:
#undef errno

extern int errno;

static ALT_INLINE int* alt_get_errno(void)
{
   11e94:	defffe04 	addi	sp,sp,-8
   11e98:	dfc00115 	stw	ra,4(sp)
   11e9c:	df000015 	stw	fp,0(sp)
   11ea0:	d839883a 	mov	fp,sp
  return ((alt_errno) ? alt_errno() : &errno);
   11ea4:	d0a00b17 	ldw	r2,-32724(gp)
   11ea8:	10000326 	beq	r2,zero,11eb8 <alt_get_errno+0x24>
   11eac:	d0a00b17 	ldw	r2,-32724(gp)
   11eb0:	103ee83a 	callr	r2
   11eb4:	00000106 	br	11ebc <alt_get_errno+0x28>
   11eb8:	d0a71504 	addi	r2,gp,-25516
}
   11ebc:	e037883a 	mov	sp,fp
   11ec0:	dfc00117 	ldw	ra,4(sp)
   11ec4:	df000017 	ldw	fp,0(sp)
   11ec8:	dec00204 	addi	sp,sp,8
   11ecc:	f800283a 	ret

00011ed0 <alt_dev_llist_insert>:
/*
 *
 */

int alt_dev_llist_insert (alt_dev_llist* dev, alt_llist* list)
{
   11ed0:	defffa04 	addi	sp,sp,-24
   11ed4:	dfc00515 	stw	ra,20(sp)
   11ed8:	df000415 	stw	fp,16(sp)
   11edc:	df000404 	addi	fp,sp,16
   11ee0:	e13ffe15 	stw	r4,-8(fp)
   11ee4:	e17fff15 	stw	r5,-4(fp)
  /*
   * check that the device exists, and that it has a valid name.
   */

  if (!dev || !dev->name)
   11ee8:	e0bffe17 	ldw	r2,-8(fp)
   11eec:	10000326 	beq	r2,zero,11efc <alt_dev_llist_insert+0x2c>
   11ef0:	e0bffe17 	ldw	r2,-8(fp)
   11ef4:	10800217 	ldw	r2,8(r2)
   11ef8:	1000061e 	bne	r2,zero,11f14 <alt_dev_llist_insert+0x44>
  {
    ALT_ERRNO = EINVAL;
   11efc:	0011e940 	call	11e94 <alt_get_errno>
   11f00:	1007883a 	mov	r3,r2
   11f04:	00800584 	movi	r2,22
   11f08:	18800015 	stw	r2,0(r3)
    return -EINVAL;
   11f0c:	00bffa84 	movi	r2,-22
   11f10:	00001306 	br	11f60 <alt_dev_llist_insert+0x90>
  
  /*
   * register the device.
   */
  
  alt_llist_insert(list, &dev->llist);
   11f14:	e0bffe17 	ldw	r2,-8(fp)
   11f18:	e0ffff17 	ldw	r3,-4(fp)
   11f1c:	e0fffc15 	stw	r3,-16(fp)
   11f20:	e0bffd15 	stw	r2,-12(fp)
 */

static ALT_INLINE void ALT_ALWAYS_INLINE alt_llist_insert(alt_llist* list, 
                alt_llist* entry)
{
  entry->previous = list;
   11f24:	e0bffd17 	ldw	r2,-12(fp)
   11f28:	e0fffc17 	ldw	r3,-16(fp)
   11f2c:	10c00115 	stw	r3,4(r2)
  entry->next     = list->next;
   11f30:	e0bffc17 	ldw	r2,-16(fp)
   11f34:	10c00017 	ldw	r3,0(r2)
   11f38:	e0bffd17 	ldw	r2,-12(fp)
   11f3c:	10c00015 	stw	r3,0(r2)

  list->next->previous = entry;
   11f40:	e0bffc17 	ldw	r2,-16(fp)
   11f44:	10800017 	ldw	r2,0(r2)
   11f48:	e0fffd17 	ldw	r3,-12(fp)
   11f4c:	10c00115 	stw	r3,4(r2)
  list->next           = entry;
   11f50:	e0bffc17 	ldw	r2,-16(fp)
   11f54:	e0fffd17 	ldw	r3,-12(fp)
   11f58:	10c00015 	stw	r3,0(r2)

  return 0;  
   11f5c:	0005883a 	mov	r2,zero
}
   11f60:	e037883a 	mov	sp,fp
   11f64:	dfc00117 	ldw	ra,4(sp)
   11f68:	df000017 	ldw	fp,0(sp)
   11f6c:	dec00204 	addi	sp,sp,8
   11f70:	f800283a 	ret

00011f74 <_do_ctors>:
/*
 * Run the C++ static constructors.
 */

void _do_ctors(void)
{
   11f74:	defffd04 	addi	sp,sp,-12
   11f78:	dfc00215 	stw	ra,8(sp)
   11f7c:	df000115 	stw	fp,4(sp)
   11f80:	df000104 	addi	fp,sp,4
  constructor* ctor;

  for (ctor = &__CTOR_END__[-1]; ctor >= __CTOR_LIST__; ctor--)
   11f84:	00800074 	movhi	r2,1
   11f88:	108bca04 	addi	r2,r2,12072
   11f8c:	e0bfff15 	stw	r2,-4(fp)
   11f90:	00000606 	br	11fac <_do_ctors+0x38>
        (*ctor) (); 
   11f94:	e0bfff17 	ldw	r2,-4(fp)
   11f98:	10800017 	ldw	r2,0(r2)
   11f9c:	103ee83a 	callr	r2

void _do_ctors(void)
{
  constructor* ctor;

  for (ctor = &__CTOR_END__[-1]; ctor >= __CTOR_LIST__; ctor--)
   11fa0:	e0bfff17 	ldw	r2,-4(fp)
   11fa4:	10bfff04 	addi	r2,r2,-4
   11fa8:	e0bfff15 	stw	r2,-4(fp)
   11fac:	e0ffff17 	ldw	r3,-4(fp)
   11fb0:	00800074 	movhi	r2,1
   11fb4:	108bcb04 	addi	r2,r2,12076
   11fb8:	18bff62e 	bgeu	r3,r2,11f94 <__alt_mem_VGA_Subsystem_Char_Buf_Subsystem_Onchip_SRAM+0xf7011f94>
        (*ctor) (); 
}
   11fbc:	0001883a 	nop
   11fc0:	e037883a 	mov	sp,fp
   11fc4:	dfc00117 	ldw	ra,4(sp)
   11fc8:	df000017 	ldw	fp,0(sp)
   11fcc:	dec00204 	addi	sp,sp,8
   11fd0:	f800283a 	ret

00011fd4 <_do_dtors>:
/*
 * Run the C++ static destructors.
 */

void _do_dtors(void)
{
   11fd4:	defffd04 	addi	sp,sp,-12
   11fd8:	dfc00215 	stw	ra,8(sp)
   11fdc:	df000115 	stw	fp,4(sp)
   11fe0:	df000104 	addi	fp,sp,4
  destructor* dtor;

  for (dtor = &__DTOR_END__[-1]; dtor >= __DTOR_LIST__; dtor--)
   11fe4:	00800074 	movhi	r2,1
   11fe8:	108bca04 	addi	r2,r2,12072
   11fec:	e0bfff15 	stw	r2,-4(fp)
   11ff0:	00000606 	br	1200c <_do_dtors+0x38>
        (*dtor) (); 
   11ff4:	e0bfff17 	ldw	r2,-4(fp)
   11ff8:	10800017 	ldw	r2,0(r2)
   11ffc:	103ee83a 	callr	r2

void _do_dtors(void)
{
  destructor* dtor;

  for (dtor = &__DTOR_END__[-1]; dtor >= __DTOR_LIST__; dtor--)
   12000:	e0bfff17 	ldw	r2,-4(fp)
   12004:	10bfff04 	addi	r2,r2,-4
   12008:	e0bfff15 	stw	r2,-4(fp)
   1200c:	e0ffff17 	ldw	r3,-4(fp)
   12010:	00800074 	movhi	r2,1
   12014:	108bcb04 	addi	r2,r2,12076
   12018:	18bff62e 	bgeu	r3,r2,11ff4 <__alt_mem_VGA_Subsystem_Char_Buf_Subsystem_Onchip_SRAM+0xf7011ff4>
        (*dtor) (); 
}
   1201c:	0001883a 	nop
   12020:	e037883a 	mov	sp,fp
   12024:	dfc00117 	ldw	ra,4(sp)
   12028:	df000017 	ldw	fp,0(sp)
   1202c:	dec00204 	addi	sp,sp,8
   12030:	f800283a 	ret

00012034 <alt_icache_flush_all>:
/*
 * alt_icache_flush_all() is called to flush the entire instruction cache.
 */

void alt_icache_flush_all (void)
{
   12034:	deffff04 	addi	sp,sp,-4
   12038:	df000015 	stw	fp,0(sp)
   1203c:	d839883a 	mov	fp,sp
#if NIOS2_ICACHE_SIZE > 0
  alt_icache_flush (0, NIOS2_ICACHE_SIZE);
#endif
}
   12040:	0001883a 	nop
   12044:	e037883a 	mov	sp,fp
   12048:	df000017 	ldw	fp,0(sp)
   1204c:	dec00104 	addi	sp,sp,4
   12050:	f800283a 	ret

00012054 <alt_ic_isr_register>:
  * @param irq              IRQ number
  * @return                 0 if successful, else error (-1)
  */
int alt_ic_isr_register(alt_u32 ic_id, alt_u32 irq, alt_isr_func isr, 
  void *isr_context, void *flags)
{
   12054:	defff904 	addi	sp,sp,-28
   12058:	dfc00615 	stw	ra,24(sp)
   1205c:	df000515 	stw	fp,20(sp)
   12060:	df000504 	addi	fp,sp,20
   12064:	e13ffc15 	stw	r4,-16(fp)
   12068:	e17ffd15 	stw	r5,-12(fp)
   1206c:	e1bffe15 	stw	r6,-8(fp)
   12070:	e1ffff15 	stw	r7,-4(fp)
    return alt_iic_isr_register(ic_id, irq, isr, isr_context, flags);
   12074:	e0800217 	ldw	r2,8(fp)
   12078:	d8800015 	stw	r2,0(sp)
   1207c:	e1ffff17 	ldw	r7,-4(fp)
   12080:	e1bffe17 	ldw	r6,-8(fp)
   12084:	e17ffd17 	ldw	r5,-12(fp)
   12088:	e13ffc17 	ldw	r4,-16(fp)
   1208c:	00122040 	call	12204 <alt_iic_isr_register>
}  
   12090:	e037883a 	mov	sp,fp
   12094:	dfc00117 	ldw	ra,4(sp)
   12098:	df000017 	ldw	fp,0(sp)
   1209c:	dec00204 	addi	sp,sp,8
   120a0:	f800283a 	ret

000120a4 <alt_ic_irq_enable>:
  * @param ic_id            Ignored.
  * @param irq              IRQ number
  * @return                 0 if successful, else error (-1)
  */
int alt_ic_irq_enable (alt_u32 ic_id, alt_u32 irq)
{
   120a4:	defff904 	addi	sp,sp,-28
   120a8:	df000615 	stw	fp,24(sp)
   120ac:	df000604 	addi	fp,sp,24
   120b0:	e13ffe15 	stw	r4,-8(fp)
   120b4:	e17fff15 	stw	r5,-4(fp)
   120b8:	e0bfff17 	ldw	r2,-4(fp)
   120bc:	e0bffa15 	stw	r2,-24(fp)
static ALT_INLINE alt_irq_context ALT_ALWAYS_INLINE 
       alt_irq_disable_all (void)
{
  alt_irq_context context;

  NIOS2_READ_STATUS (context);
   120c0:	0005303a 	rdctl	r2,status
   120c4:	e0bffb15 	stw	r2,-20(fp)

  NIOS2_WRITE_STATUS (context & ~NIOS2_STATUS_PIE_MSK);
   120c8:	e0fffb17 	ldw	r3,-20(fp)
   120cc:	00bfff84 	movi	r2,-2
   120d0:	1884703a 	and	r2,r3,r2
   120d4:	1001703a 	wrctl	status,r2
  
  return context;
   120d8:	e0bffb17 	ldw	r2,-20(fp)
static ALT_INLINE int ALT_ALWAYS_INLINE alt_irq_enable (alt_u32 id)
{
  alt_irq_context  status;
  extern volatile alt_u32 alt_irq_active;

  status = alt_irq_disable_all ();
   120dc:	e0bffc15 	stw	r2,-16(fp)

  alt_irq_active |= (1 << id);
   120e0:	00c00044 	movi	r3,1
   120e4:	e0bffa17 	ldw	r2,-24(fp)
   120e8:	1884983a 	sll	r2,r3,r2
   120ec:	1007883a 	mov	r3,r2
   120f0:	d0a71917 	ldw	r2,-25500(gp)
   120f4:	1884b03a 	or	r2,r3,r2
   120f8:	d0a71915 	stw	r2,-25500(gp)
  NIOS2_WRITE_IENABLE (alt_irq_active);
   120fc:	d0a71917 	ldw	r2,-25500(gp)
   12100:	100170fa 	wrctl	ienable,r2
   12104:	e0bffc17 	ldw	r2,-16(fp)
   12108:	e0bffd15 	stw	r2,-12(fp)
  status &= ~NIOS2_STATUS_PIE_MSK;
  status |= (context & NIOS2_STATUS_PIE_MSK);
  
  NIOS2_WRITE_STATUS (status);
#else
  NIOS2_WRITE_STATUS (context);
   1210c:	e0bffd17 	ldw	r2,-12(fp)
   12110:	1001703a 	wrctl	status,r2

  alt_irq_enable_all(status);

  return 0;
   12114:	0005883a 	mov	r2,zero
    return alt_irq_enable(irq);
   12118:	0001883a 	nop
}
   1211c:	e037883a 	mov	sp,fp
   12120:	df000017 	ldw	fp,0(sp)
   12124:	dec00104 	addi	sp,sp,4
   12128:	f800283a 	ret

0001212c <alt_ic_irq_disable>:
  * @param ic_id            Ignored.
  * @param irq              IRQ number
  * @return                 0 if successful, else error (-1)
  */
int alt_ic_irq_disable(alt_u32 ic_id, alt_u32 irq)
{
   1212c:	defff904 	addi	sp,sp,-28
   12130:	df000615 	stw	fp,24(sp)
   12134:	df000604 	addi	fp,sp,24
   12138:	e13ffe15 	stw	r4,-8(fp)
   1213c:	e17fff15 	stw	r5,-4(fp)
   12140:	e0bfff17 	ldw	r2,-4(fp)
   12144:	e0bffa15 	stw	r2,-24(fp)
static ALT_INLINE alt_irq_context ALT_ALWAYS_INLINE 
       alt_irq_disable_all (void)
{
  alt_irq_context context;

  NIOS2_READ_STATUS (context);
   12148:	0005303a 	rdctl	r2,status
   1214c:	e0bffb15 	stw	r2,-20(fp)

  NIOS2_WRITE_STATUS (context & ~NIOS2_STATUS_PIE_MSK);
   12150:	e0fffb17 	ldw	r3,-20(fp)
   12154:	00bfff84 	movi	r2,-2
   12158:	1884703a 	and	r2,r3,r2
   1215c:	1001703a 	wrctl	status,r2
  
  return context;
   12160:	e0bffb17 	ldw	r2,-20(fp)
static ALT_INLINE int ALT_ALWAYS_INLINE alt_irq_disable (alt_u32 id)
{
  alt_irq_context  status;
  extern volatile alt_u32 alt_irq_active;

  status = alt_irq_disable_all ();
   12164:	e0bffc15 	stw	r2,-16(fp)

  alt_irq_active &= ~(1 << id);
   12168:	00c00044 	movi	r3,1
   1216c:	e0bffa17 	ldw	r2,-24(fp)
   12170:	1884983a 	sll	r2,r3,r2
   12174:	0084303a 	nor	r2,zero,r2
   12178:	1007883a 	mov	r3,r2
   1217c:	d0a71917 	ldw	r2,-25500(gp)
   12180:	1884703a 	and	r2,r3,r2
   12184:	d0a71915 	stw	r2,-25500(gp)
  NIOS2_WRITE_IENABLE (alt_irq_active);
   12188:	d0a71917 	ldw	r2,-25500(gp)
   1218c:	100170fa 	wrctl	ienable,r2
   12190:	e0bffc17 	ldw	r2,-16(fp)
   12194:	e0bffd15 	stw	r2,-12(fp)
  status &= ~NIOS2_STATUS_PIE_MSK;
  status |= (context & NIOS2_STATUS_PIE_MSK);
  
  NIOS2_WRITE_STATUS (status);
#else
  NIOS2_WRITE_STATUS (context);
   12198:	e0bffd17 	ldw	r2,-12(fp)
   1219c:	1001703a 	wrctl	status,r2

  alt_irq_enable_all(status);

  return 0;
   121a0:	0005883a 	mov	r2,zero
    return alt_irq_disable(irq);
   121a4:	0001883a 	nop
}
   121a8:	e037883a 	mov	sp,fp
   121ac:	df000017 	ldw	fp,0(sp)
   121b0:	dec00104 	addi	sp,sp,4
   121b4:	f800283a 	ret

000121b8 <alt_ic_irq_enabled>:
  * @param irq              IRQ number
  * @return                 Zero if corresponding interrupt is disabled and
  *                         non-zero otherwise.
  */
alt_u32 alt_ic_irq_enabled(alt_u32 ic_id, alt_u32 irq)
{
   121b8:	defffc04 	addi	sp,sp,-16
   121bc:	df000315 	stw	fp,12(sp)
   121c0:	df000304 	addi	fp,sp,12
   121c4:	e13ffe15 	stw	r4,-8(fp)
   121c8:	e17fff15 	stw	r5,-4(fp)
    alt_u32 irq_enabled;

    NIOS2_READ_IENABLE(irq_enabled);
   121cc:	000530fa 	rdctl	r2,ienable
   121d0:	e0bffd15 	stw	r2,-12(fp)

    return (irq_enabled & (1 << irq)) ? 1: 0;
   121d4:	00c00044 	movi	r3,1
   121d8:	e0bfff17 	ldw	r2,-4(fp)
   121dc:	1884983a 	sll	r2,r3,r2
   121e0:	1007883a 	mov	r3,r2
   121e4:	e0bffd17 	ldw	r2,-12(fp)
   121e8:	1884703a 	and	r2,r3,r2
   121ec:	1004c03a 	cmpne	r2,r2,zero
   121f0:	10803fcc 	andi	r2,r2,255
}
   121f4:	e037883a 	mov	sp,fp
   121f8:	df000017 	ldw	fp,0(sp)
   121fc:	dec00104 	addi	sp,sp,4
   12200:	f800283a 	ret

00012204 <alt_iic_isr_register>:
  * @param flags            
  * @return                 0 if successful, else error (-1)
  */
int alt_iic_isr_register(alt_u32 ic_id, alt_u32 irq, alt_isr_func isr, 
  void *isr_context, void *flags)
{
   12204:	defff504 	addi	sp,sp,-44
   12208:	dfc00a15 	stw	ra,40(sp)
   1220c:	df000915 	stw	fp,36(sp)
   12210:	df000904 	addi	fp,sp,36
   12214:	e13ffc15 	stw	r4,-16(fp)
   12218:	e17ffd15 	stw	r5,-12(fp)
   1221c:	e1bffe15 	stw	r6,-8(fp)
   12220:	e1ffff15 	stw	r7,-4(fp)
  int rc = -EINVAL;  
   12224:	00bffa84 	movi	r2,-22
   12228:	e0bff715 	stw	r2,-36(fp)
  int id = irq;             /* IRQ interpreted as the interrupt ID. */
   1222c:	e0bffd17 	ldw	r2,-12(fp)
   12230:	e0bff815 	stw	r2,-32(fp)
  alt_irq_context status;

  if (id < ALT_NIRQ)
   12234:	e0bff817 	ldw	r2,-32(fp)
   12238:	10800808 	cmpgei	r2,r2,32
   1223c:	1000271e 	bne	r2,zero,122dc <alt_iic_isr_register+0xd8>
static ALT_INLINE alt_irq_context ALT_ALWAYS_INLINE 
       alt_irq_disable_all (void)
{
  alt_irq_context context;

  NIOS2_READ_STATUS (context);
   12240:	0005303a 	rdctl	r2,status
   12244:	e0bffb15 	stw	r2,-20(fp)

  NIOS2_WRITE_STATUS (context & ~NIOS2_STATUS_PIE_MSK);
   12248:	e0fffb17 	ldw	r3,-20(fp)
   1224c:	00bfff84 	movi	r2,-2
   12250:	1884703a 	and	r2,r3,r2
   12254:	1001703a 	wrctl	status,r2
  
  return context;
   12258:	e0bffb17 	ldw	r2,-20(fp)
     * interrupts are disabled while the handler tables are updated to ensure
     * that an interrupt doesn't occur while the tables are in an inconsistant
     * state.
     */

    status = alt_irq_disable_all();
   1225c:	e0bffa15 	stw	r2,-24(fp)

    alt_irq[id].handler = isr;
   12260:	00800074 	movhi	r2,1
   12264:	109b3704 	addi	r2,r2,27868
   12268:	e0fff817 	ldw	r3,-32(fp)
   1226c:	180690fa 	slli	r3,r3,3
   12270:	10c5883a 	add	r2,r2,r3
   12274:	e0fffe17 	ldw	r3,-8(fp)
   12278:	10c00015 	stw	r3,0(r2)
    alt_irq[id].context = isr_context;
   1227c:	00800074 	movhi	r2,1
   12280:	109b3704 	addi	r2,r2,27868
   12284:	e0fff817 	ldw	r3,-32(fp)
   12288:	180690fa 	slli	r3,r3,3
   1228c:	10c5883a 	add	r2,r2,r3
   12290:	10800104 	addi	r2,r2,4
   12294:	e0ffff17 	ldw	r3,-4(fp)
   12298:	10c00015 	stw	r3,0(r2)

    rc = (isr) ? alt_ic_irq_enable(ic_id, id) : alt_ic_irq_disable(ic_id, id);
   1229c:	e0bffe17 	ldw	r2,-8(fp)
   122a0:	10000526 	beq	r2,zero,122b8 <alt_iic_isr_register+0xb4>
   122a4:	e0bff817 	ldw	r2,-32(fp)
   122a8:	100b883a 	mov	r5,r2
   122ac:	e13ffc17 	ldw	r4,-16(fp)
   122b0:	00120a40 	call	120a4 <alt_ic_irq_enable>
   122b4:	00000406 	br	122c8 <alt_iic_isr_register+0xc4>
   122b8:	e0bff817 	ldw	r2,-32(fp)
   122bc:	100b883a 	mov	r5,r2
   122c0:	e13ffc17 	ldw	r4,-16(fp)
   122c4:	001212c0 	call	1212c <alt_ic_irq_disable>
   122c8:	e0bff715 	stw	r2,-36(fp)
   122cc:	e0bffa17 	ldw	r2,-24(fp)
   122d0:	e0bff915 	stw	r2,-28(fp)
  status &= ~NIOS2_STATUS_PIE_MSK;
  status |= (context & NIOS2_STATUS_PIE_MSK);
  
  NIOS2_WRITE_STATUS (status);
#else
  NIOS2_WRITE_STATUS (context);
   122d4:	e0bff917 	ldw	r2,-28(fp)
   122d8:	1001703a 	wrctl	status,r2

    alt_irq_enable_all(status);
  }

  return rc; 
   122dc:	e0bff717 	ldw	r2,-36(fp)
}
   122e0:	e037883a 	mov	sp,fp
   122e4:	dfc00117 	ldw	ra,4(sp)
   122e8:	df000017 	ldw	fp,0(sp)
   122ec:	dec00204 	addi	sp,sp,8
   122f0:	f800283a 	ret

000122f4 <alt_open_fd>:
 * If the device can not be succesfully opened, then the input file descriptor
 * remains unchanged.
 */

static void alt_open_fd(alt_fd* fd, const char* name, int flags, int mode)
{
   122f4:	defff804 	addi	sp,sp,-32
   122f8:	dfc00715 	stw	ra,28(sp)
   122fc:	df000615 	stw	fp,24(sp)
   12300:	dc000515 	stw	r16,20(sp)
   12304:	df000604 	addi	fp,sp,24
   12308:	e13ffb15 	stw	r4,-20(fp)
   1230c:	e17ffc15 	stw	r5,-16(fp)
   12310:	e1bffd15 	stw	r6,-12(fp)
   12314:	e1fffe15 	stw	r7,-8(fp)
  int old;

  old = open (name, flags, mode);
   12318:	e1bffe17 	ldw	r6,-8(fp)
   1231c:	e17ffd17 	ldw	r5,-12(fp)
   12320:	e13ffc17 	ldw	r4,-16(fp)
   12324:	001257c0 	call	1257c <open>
   12328:	e0bffa15 	stw	r2,-24(fp)

  if (old >= 0)
   1232c:	e0bffa17 	ldw	r2,-24(fp)
   12330:	10002216 	blt	r2,zero,123bc <alt_open_fd+0xc8>
  {
    fd->dev      = alt_fd_list[old].dev;
   12334:	04000074 	movhi	r16,1
   12338:	840f5904 	addi	r16,r16,15716
   1233c:	e0bffa17 	ldw	r2,-24(fp)
   12340:	01400304 	movi	r5,12
   12344:	1009883a 	mov	r4,r2
   12348:	00033480 	call	3348 <__mulsi3>
   1234c:	8085883a 	add	r2,r16,r2
   12350:	10c00017 	ldw	r3,0(r2)
   12354:	e0bffb17 	ldw	r2,-20(fp)
   12358:	10c00015 	stw	r3,0(r2)
    fd->priv     = alt_fd_list[old].priv;
   1235c:	04000074 	movhi	r16,1
   12360:	840f5904 	addi	r16,r16,15716
   12364:	e0bffa17 	ldw	r2,-24(fp)
   12368:	01400304 	movi	r5,12
   1236c:	1009883a 	mov	r4,r2
   12370:	00033480 	call	3348 <__mulsi3>
   12374:	8085883a 	add	r2,r16,r2
   12378:	10800104 	addi	r2,r2,4
   1237c:	10c00017 	ldw	r3,0(r2)
   12380:	e0bffb17 	ldw	r2,-20(fp)
   12384:	10c00115 	stw	r3,4(r2)
    fd->fd_flags = alt_fd_list[old].fd_flags;
   12388:	04000074 	movhi	r16,1
   1238c:	840f5904 	addi	r16,r16,15716
   12390:	e0bffa17 	ldw	r2,-24(fp)
   12394:	01400304 	movi	r5,12
   12398:	1009883a 	mov	r4,r2
   1239c:	00033480 	call	3348 <__mulsi3>
   123a0:	8085883a 	add	r2,r16,r2
   123a4:	10800204 	addi	r2,r2,8
   123a8:	10c00017 	ldw	r3,0(r2)
   123ac:	e0bffb17 	ldw	r2,-20(fp)
   123b0:	10c00215 	stw	r3,8(r2)

    alt_release_fd (old);
   123b4:	e13ffa17 	ldw	r4,-24(fp)
   123b8:	00107240 	call	10724 <alt_release_fd>
  }
} 
   123bc:	0001883a 	nop
   123c0:	e6ffff04 	addi	sp,fp,-4
   123c4:	dfc00217 	ldw	ra,8(sp)
   123c8:	df000117 	ldw	fp,4(sp)
   123cc:	dc000017 	ldw	r16,0(sp)
   123d0:	dec00304 	addi	sp,sp,12
   123d4:	f800283a 	ret

000123d8 <alt_io_redirect>:
 */
 
void alt_io_redirect(const char* stdout_dev, 
                     const char* stdin_dev, 
                     const char* stderr_dev)
{
   123d8:	defffb04 	addi	sp,sp,-20
   123dc:	dfc00415 	stw	ra,16(sp)
   123e0:	df000315 	stw	fp,12(sp)
   123e4:	df000304 	addi	fp,sp,12
   123e8:	e13ffd15 	stw	r4,-12(fp)
   123ec:	e17ffe15 	stw	r5,-8(fp)
   123f0:	e1bfff15 	stw	r6,-4(fp)
  /* Redirect the channels */

  alt_open_fd (&alt_fd_list[STDOUT_FILENO], stdout_dev, O_WRONLY, 0777);
   123f4:	01c07fc4 	movi	r7,511
   123f8:	01800044 	movi	r6,1
   123fc:	e17ffd17 	ldw	r5,-12(fp)
   12400:	01000074 	movhi	r4,1
   12404:	210f5c04 	addi	r4,r4,15728
   12408:	00122f40 	call	122f4 <alt_open_fd>
  alt_open_fd (&alt_fd_list[STDIN_FILENO], stdin_dev, O_RDONLY, 0777);
   1240c:	01c07fc4 	movi	r7,511
   12410:	000d883a 	mov	r6,zero
   12414:	e17ffe17 	ldw	r5,-8(fp)
   12418:	01000074 	movhi	r4,1
   1241c:	210f5904 	addi	r4,r4,15716
   12420:	00122f40 	call	122f4 <alt_open_fd>
  alt_open_fd (&alt_fd_list[STDERR_FILENO], stderr_dev, O_WRONLY, 0777);
   12424:	01c07fc4 	movi	r7,511
   12428:	01800044 	movi	r6,1
   1242c:	e17fff17 	ldw	r5,-4(fp)
   12430:	01000074 	movhi	r4,1
   12434:	210f5f04 	addi	r4,r4,15740
   12438:	00122f40 	call	122f4 <alt_open_fd>
}  
   1243c:	0001883a 	nop
   12440:	e037883a 	mov	sp,fp
   12444:	dfc00117 	ldw	ra,4(sp)
   12448:	df000017 	ldw	fp,0(sp)
   1244c:	dec00204 	addi	sp,sp,8
   12450:	f800283a 	ret

00012454 <alt_get_errno>:
#undef errno

extern int errno;

static ALT_INLINE int* alt_get_errno(void)
{
   12454:	defffe04 	addi	sp,sp,-8
   12458:	dfc00115 	stw	ra,4(sp)
   1245c:	df000015 	stw	fp,0(sp)
   12460:	d839883a 	mov	fp,sp
  return ((alt_errno) ? alt_errno() : &errno);
   12464:	d0a00b17 	ldw	r2,-32724(gp)
   12468:	10000326 	beq	r2,zero,12478 <alt_get_errno+0x24>
   1246c:	d0a00b17 	ldw	r2,-32724(gp)
   12470:	103ee83a 	callr	r2
   12474:	00000106 	br	1247c <alt_get_errno+0x28>
   12478:	d0a71504 	addi	r2,gp,-25516
}
   1247c:	e037883a 	mov	sp,fp
   12480:	dfc00117 	ldw	ra,4(sp)
   12484:	df000017 	ldw	fp,0(sp)
   12488:	dec00204 	addi	sp,sp,8
   1248c:	f800283a 	ret

00012490 <alt_file_locked>:
 * performed for devices. Filesystems are required to handle the ioctl() call
 * themselves, and report the error from the filesystems open() function. 
 */ 

static int alt_file_locked (alt_fd* fd)
{
   12490:	defffb04 	addi	sp,sp,-20
   12494:	dfc00415 	stw	ra,16(sp)
   12498:	df000315 	stw	fp,12(sp)
   1249c:	dc000215 	stw	r16,8(sp)
   124a0:	df000304 	addi	fp,sp,12
   124a4:	e13ffe15 	stw	r4,-8(fp)

  /*
   * Mark the file descriptor as belonging to a device.
   */

  fd->fd_flags |= ALT_FD_DEV;
   124a8:	e0bffe17 	ldw	r2,-8(fp)
   124ac:	10800217 	ldw	r2,8(r2)
   124b0:	10d00034 	orhi	r3,r2,16384
   124b4:	e0bffe17 	ldw	r2,-8(fp)
   124b8:	10c00215 	stw	r3,8(r2)
  /*
   * Loop through all current file descriptors searching for one that's locked
   * for exclusive access. If a match is found, generate an error.
   */

  for (i = 0; i <= alt_max_fd; i++)
   124bc:	e03ffd15 	stw	zero,-12(fp)
   124c0:	00002306 	br	12550 <alt_file_locked+0xc0>
  {
    if ((alt_fd_list[i].dev == fd->dev) &&
   124c4:	04000074 	movhi	r16,1
   124c8:	840f5904 	addi	r16,r16,15716
   124cc:	e0bffd17 	ldw	r2,-12(fp)
   124d0:	01400304 	movi	r5,12
   124d4:	1009883a 	mov	r4,r2
   124d8:	00033480 	call	3348 <__mulsi3>
   124dc:	8085883a 	add	r2,r16,r2
   124e0:	10c00017 	ldw	r3,0(r2)
   124e4:	e0bffe17 	ldw	r2,-8(fp)
   124e8:	10800017 	ldw	r2,0(r2)
   124ec:	1880151e 	bne	r3,r2,12544 <alt_file_locked+0xb4>
        (alt_fd_list[i].fd_flags & ALT_FD_EXCL) &&
   124f0:	04000074 	movhi	r16,1
   124f4:	840f5904 	addi	r16,r16,15716
   124f8:	e0bffd17 	ldw	r2,-12(fp)
   124fc:	01400304 	movi	r5,12
   12500:	1009883a 	mov	r4,r2
   12504:	00033480 	call	3348 <__mulsi3>
   12508:	8085883a 	add	r2,r16,r2
   1250c:	10800204 	addi	r2,r2,8
   12510:	10800017 	ldw	r2,0(r2)
   * for exclusive access. If a match is found, generate an error.
   */

  for (i = 0; i <= alt_max_fd; i++)
  {
    if ((alt_fd_list[i].dev == fd->dev) &&
   12514:	10000b0e 	bge	r2,zero,12544 <alt_file_locked+0xb4>
        (alt_fd_list[i].fd_flags & ALT_FD_EXCL) &&
        (&alt_fd_list[i] != fd))
   12518:	01400304 	movi	r5,12
   1251c:	e13ffd17 	ldw	r4,-12(fp)
   12520:	00033480 	call	3348 <__mulsi3>
   12524:	1007883a 	mov	r3,r2
   12528:	00800074 	movhi	r2,1
   1252c:	108f5904 	addi	r2,r2,15716
   12530:	1887883a 	add	r3,r3,r2
   */

  for (i = 0; i <= alt_max_fd; i++)
  {
    if ((alt_fd_list[i].dev == fd->dev) &&
        (alt_fd_list[i].fd_flags & ALT_FD_EXCL) &&
   12534:	e0bffe17 	ldw	r2,-8(fp)
   12538:	18800226 	beq	r3,r2,12544 <alt_file_locked+0xb4>
        (&alt_fd_list[i] != fd))
    {
      return -EACCES;
   1253c:	00bffcc4 	movi	r2,-13
   12540:	00000806 	br	12564 <alt_file_locked+0xd4>
  /*
   * Loop through all current file descriptors searching for one that's locked
   * for exclusive access. If a match is found, generate an error.
   */

  for (i = 0; i <= alt_max_fd; i++)
   12544:	e0bffd17 	ldw	r2,-12(fp)
   12548:	10800044 	addi	r2,r2,1
   1254c:	e0bffd15 	stw	r2,-12(fp)
   12550:	d0a00a17 	ldw	r2,-32728(gp)
   12554:	1007883a 	mov	r3,r2
   12558:	e0bffd17 	ldw	r2,-12(fp)
   1255c:	18bfd92e 	bgeu	r3,r2,124c4 <__alt_mem_VGA_Subsystem_Char_Buf_Subsystem_Onchip_SRAM+0xf70124c4>
    }
  }
  
  /* The device is not locked */
 
  return 0;
   12560:	0005883a 	mov	r2,zero
}
   12564:	e6ffff04 	addi	sp,fp,-4
   12568:	dfc00217 	ldw	ra,8(sp)
   1256c:	df000117 	ldw	fp,4(sp)
   12570:	dc000017 	ldw	r16,0(sp)
   12574:	dec00304 	addi	sp,sp,12
   12578:	f800283a 	ret

0001257c <open>:
 *
 * ALT_OPEN is mapped onto the open() system call in alt_syscall.h
 */
 
int ALT_OPEN (const char* file, int flags, int mode)
{ 
   1257c:	defff604 	addi	sp,sp,-40
   12580:	dfc00915 	stw	ra,36(sp)
   12584:	df000815 	stw	fp,32(sp)
   12588:	df000804 	addi	fp,sp,32
   1258c:	e13ffd15 	stw	r4,-12(fp)
   12590:	e17ffe15 	stw	r5,-8(fp)
   12594:	e1bfff15 	stw	r6,-4(fp)
  alt_dev* dev;
  alt_fd*  fd;
  int index  = -1;
   12598:	00bfffc4 	movi	r2,-1
   1259c:	e0bff915 	stw	r2,-28(fp)
  int status = -ENODEV;
   125a0:	00bffb44 	movi	r2,-19
   125a4:	e0bffa15 	stw	r2,-24(fp)
  int isafs = 0;
   125a8:	e03ffb15 	stw	zero,-20(fp)
  /* 
   * Check the device list, to see if a device with a matching name is 
   * registered.
   */
  
  if (!(dev = alt_find_dev (file, &alt_dev_list)))
   125ac:	d1600804 	addi	r5,gp,-32736
   125b0:	e13ffd17 	ldw	r4,-12(fp)
   125b4:	00128a00 	call	128a0 <alt_find_dev>
   125b8:	e0bff815 	stw	r2,-32(fp)
   125bc:	e0bff817 	ldw	r2,-32(fp)
   125c0:	1000051e 	bne	r2,zero,125d8 <open+0x5c>
  {
    /* No matching device, so try the filesystem list */

    dev   = alt_find_file (file);
   125c4:	e13ffd17 	ldw	r4,-12(fp)
   125c8:	00129300 	call	12930 <alt_find_file>
   125cc:	e0bff815 	stw	r2,-32(fp)
    isafs = 1;
   125d0:	00800044 	movi	r2,1
   125d4:	e0bffb15 	stw	r2,-20(fp)

  /* 
   * If a matching device or filesystem is found, allocate a file descriptor. 
   */

  if (dev)
   125d8:	e0bff817 	ldw	r2,-32(fp)
   125dc:	10002b26 	beq	r2,zero,1268c <open+0x110>
  {
    if ((index = alt_get_fd (dev)) < 0)
   125e0:	e13ff817 	ldw	r4,-32(fp)
   125e4:	0012a380 	call	12a38 <alt_get_fd>
   125e8:	e0bff915 	stw	r2,-28(fp)
   125ec:	e0bff917 	ldw	r2,-28(fp)
   125f0:	1000030e 	bge	r2,zero,12600 <open+0x84>
    {
      status = index;
   125f4:	e0bff917 	ldw	r2,-28(fp)
   125f8:	e0bffa15 	stw	r2,-24(fp)
   125fc:	00002506 	br	12694 <open+0x118>
    }
    else
    {
      fd = &alt_fd_list[index];
   12600:	01400304 	movi	r5,12
   12604:	e13ff917 	ldw	r4,-28(fp)
   12608:	00033480 	call	3348 <__mulsi3>
   1260c:	1007883a 	mov	r3,r2
   12610:	00800074 	movhi	r2,1
   12614:	108f5904 	addi	r2,r2,15716
   12618:	1885883a 	add	r2,r3,r2
   1261c:	e0bffc15 	stw	r2,-16(fp)
      fd->fd_flags = (flags & ~ALT_FD_FLAGS_MASK);
   12620:	e0fffe17 	ldw	r3,-8(fp)
   12624:	00900034 	movhi	r2,16384
   12628:	10bfffc4 	addi	r2,r2,-1
   1262c:	1886703a 	and	r3,r3,r2
   12630:	e0bffc17 	ldw	r2,-16(fp)
   12634:	10c00215 	stw	r3,8(r2)
      
      /* If this is a device, ensure it isn't already locked */

      if (isafs || ((status = alt_file_locked (fd)) >= 0))
   12638:	e0bffb17 	ldw	r2,-20(fp)
   1263c:	1000051e 	bne	r2,zero,12654 <open+0xd8>
   12640:	e13ffc17 	ldw	r4,-16(fp)
   12644:	00124900 	call	12490 <alt_file_locked>
   12648:	e0bffa15 	stw	r2,-24(fp)
   1264c:	e0bffa17 	ldw	r2,-24(fp)
   12650:	10001016 	blt	r2,zero,12694 <open+0x118>
        /* 
         * If the device or filesystem provides an open() callback function,
         * call it now to perform any device/filesystem specific operations.
         */
    
        status = (dev->open) ? dev->open(fd, file, flags, mode): 0;
   12654:	e0bff817 	ldw	r2,-32(fp)
   12658:	10800317 	ldw	r2,12(r2)
   1265c:	10000826 	beq	r2,zero,12680 <open+0x104>
   12660:	e0bff817 	ldw	r2,-32(fp)
   12664:	10800317 	ldw	r2,12(r2)
   12668:	e1ffff17 	ldw	r7,-4(fp)
   1266c:	e1bffe17 	ldw	r6,-8(fp)
   12670:	e17ffd17 	ldw	r5,-12(fp)
   12674:	e13ffc17 	ldw	r4,-16(fp)
   12678:	103ee83a 	callr	r2
   1267c:	00000106 	br	12684 <open+0x108>
   12680:	0005883a 	mov	r2,zero
   12684:	e0bffa15 	stw	r2,-24(fp)
   12688:	00000206 	br	12694 <open+0x118>
      }
    }
  }
  else
  {
    status = -ENODEV;
   1268c:	00bffb44 	movi	r2,-19
   12690:	e0bffa15 	stw	r2,-24(fp)
  }

  /* Allocation failed, so clean up and return an error */ 

  if (status < 0)
   12694:	e0bffa17 	ldw	r2,-24(fp)
   12698:	1000090e 	bge	r2,zero,126c0 <open+0x144>
  {
    alt_release_fd (index);  
   1269c:	e13ff917 	ldw	r4,-28(fp)
   126a0:	00107240 	call	10724 <alt_release_fd>
    ALT_ERRNO = -status;
   126a4:	00124540 	call	12454 <alt_get_errno>
   126a8:	1007883a 	mov	r3,r2
   126ac:	e0bffa17 	ldw	r2,-24(fp)
   126b0:	0085c83a 	sub	r2,zero,r2
   126b4:	18800015 	stw	r2,0(r3)
    return -1;
   126b8:	00bfffc4 	movi	r2,-1
   126bc:	00000106 	br	126c4 <open+0x148>
  }
  
  /* return the reference upon success */

  return index;
   126c0:	e0bff917 	ldw	r2,-28(fp)
}
   126c4:	e037883a 	mov	sp,fp
   126c8:	dfc00117 	ldw	ra,4(sp)
   126cc:	df000017 	ldw	fp,0(sp)
   126d0:	dec00204 	addi	sp,sp,8
   126d4:	f800283a 	ret

000126d8 <alt_alarm_stop>:
 * alarms. Alternatively an alarm can unregister itself by returning zero when 
 * the alarm executes.
 */

void alt_alarm_stop (alt_alarm* alarm)
{
   126d8:	defffa04 	addi	sp,sp,-24
   126dc:	df000515 	stw	fp,20(sp)
   126e0:	df000504 	addi	fp,sp,20
   126e4:	e13fff15 	stw	r4,-4(fp)
static ALT_INLINE alt_irq_context ALT_ALWAYS_INLINE 
       alt_irq_disable_all (void)
{
  alt_irq_context context;

  NIOS2_READ_STATUS (context);
   126e8:	0005303a 	rdctl	r2,status
   126ec:	e0bffc15 	stw	r2,-16(fp)

  NIOS2_WRITE_STATUS (context & ~NIOS2_STATUS_PIE_MSK);
   126f0:	e0fffc17 	ldw	r3,-16(fp)
   126f4:	00bfff84 	movi	r2,-2
   126f8:	1884703a 	and	r2,r3,r2
   126fc:	1001703a 	wrctl	status,r2
  
  return context;
   12700:	e0bffc17 	ldw	r2,-16(fp)
  alt_irq_context irq_context;

  irq_context = alt_irq_disable_all();
   12704:	e0bffb15 	stw	r2,-20(fp)
  alt_llist_remove (&alarm->llist);
   12708:	e0bfff17 	ldw	r2,-4(fp)
   1270c:	e0bffd15 	stw	r2,-12(fp)
 * input argument is the element to remove.
 */
     
static ALT_INLINE void ALT_ALWAYS_INLINE alt_llist_remove(alt_llist* entry)
{
  entry->next->previous = entry->previous;
   12710:	e0bffd17 	ldw	r2,-12(fp)
   12714:	10800017 	ldw	r2,0(r2)
   12718:	e0fffd17 	ldw	r3,-12(fp)
   1271c:	18c00117 	ldw	r3,4(r3)
   12720:	10c00115 	stw	r3,4(r2)
  entry->previous->next = entry->next;
   12724:	e0bffd17 	ldw	r2,-12(fp)
   12728:	10800117 	ldw	r2,4(r2)
   1272c:	e0fffd17 	ldw	r3,-12(fp)
   12730:	18c00017 	ldw	r3,0(r3)
   12734:	10c00015 	stw	r3,0(r2)
  /* 
   * Set the entry to point to itself, so that any further calls to
   * alt_llist_remove() are harmless.
   */

  entry->previous = entry;
   12738:	e0bffd17 	ldw	r2,-12(fp)
   1273c:	e0fffd17 	ldw	r3,-12(fp)
   12740:	10c00115 	stw	r3,4(r2)
  entry->next     = entry;
   12744:	e0bffd17 	ldw	r2,-12(fp)
   12748:	e0fffd17 	ldw	r3,-12(fp)
   1274c:	10c00015 	stw	r3,0(r2)
   12750:	e0bffb17 	ldw	r2,-20(fp)
   12754:	e0bffe15 	stw	r2,-8(fp)
  status &= ~NIOS2_STATUS_PIE_MSK;
  status |= (context & NIOS2_STATUS_PIE_MSK);
  
  NIOS2_WRITE_STATUS (status);
#else
  NIOS2_WRITE_STATUS (context);
   12758:	e0bffe17 	ldw	r2,-8(fp)
   1275c:	1001703a 	wrctl	status,r2
  alt_irq_enable_all (irq_context);
}
   12760:	0001883a 	nop
   12764:	e037883a 	mov	sp,fp
   12768:	df000017 	ldw	fp,0(sp)
   1276c:	dec00104 	addi	sp,sp,4
   12770:	f800283a 	ret

00012774 <alt_tick>:
 * 
 * alt_tick() is expected to run at interrupt level.
 */

void alt_tick (void)
{
   12774:	defffb04 	addi	sp,sp,-20
   12778:	dfc00415 	stw	ra,16(sp)
   1277c:	df000315 	stw	fp,12(sp)
   12780:	df000304 	addi	fp,sp,12
  alt_alarm* next;
  alt_alarm* alarm = (alt_alarm*) alt_alarm_list.next;
   12784:	d0a00e17 	ldw	r2,-32712(gp)
   12788:	e0bffd15 	stw	r2,-12(fp)

  alt_u32    next_callback;

  /* update the tick counter */

  _alt_nticks++;
   1278c:	d0a71b17 	ldw	r2,-25492(gp)
   12790:	10800044 	addi	r2,r2,1
   12794:	d0a71b15 	stw	r2,-25492(gp)

  /* process the registered callbacks */

  while (alarm != (alt_alarm*) &alt_alarm_list)
   12798:	00002e06 	br	12854 <alt_tick+0xe0>
  {
    next = (alt_alarm*) alarm->llist.next;
   1279c:	e0bffd17 	ldw	r2,-12(fp)
   127a0:	10800017 	ldw	r2,0(r2)
   127a4:	e0bffe15 	stw	r2,-8(fp)
    /* 
     * Upon the tick-counter rolling over it is safe to clear the 
     * roll-over flag; once the flag is cleared this (or subsequnt)
     * tick events are enabled to generate an alarm event. 
     */
    if ((alarm->rollover) && (_alt_nticks == 0))
   127a8:	e0bffd17 	ldw	r2,-12(fp)
   127ac:	10800403 	ldbu	r2,16(r2)
   127b0:	10803fcc 	andi	r2,r2,255
   127b4:	10000426 	beq	r2,zero,127c8 <alt_tick+0x54>
   127b8:	d0a71b17 	ldw	r2,-25492(gp)
   127bc:	1000021e 	bne	r2,zero,127c8 <alt_tick+0x54>
    {
      alarm->rollover = 0;
   127c0:	e0bffd17 	ldw	r2,-12(fp)
   127c4:	10000405 	stb	zero,16(r2)
    }
    
    /* if the alarm period has expired, make the callback */    
    if ((alarm->time <= _alt_nticks) && (alarm->rollover == 0))
   127c8:	e0bffd17 	ldw	r2,-12(fp)
   127cc:	10800217 	ldw	r2,8(r2)
   127d0:	d0e71b17 	ldw	r3,-25492(gp)
   127d4:	18801d36 	bltu	r3,r2,1284c <alt_tick+0xd8>
   127d8:	e0bffd17 	ldw	r2,-12(fp)
   127dc:	10800403 	ldbu	r2,16(r2)
   127e0:	10803fcc 	andi	r2,r2,255
   127e4:	1000191e 	bne	r2,zero,1284c <alt_tick+0xd8>
    {
      next_callback = alarm->callback (alarm->context);
   127e8:	e0bffd17 	ldw	r2,-12(fp)
   127ec:	10800317 	ldw	r2,12(r2)
   127f0:	e0fffd17 	ldw	r3,-12(fp)
   127f4:	18c00517 	ldw	r3,20(r3)
   127f8:	1809883a 	mov	r4,r3
   127fc:	103ee83a 	callr	r2
   12800:	e0bfff15 	stw	r2,-4(fp)

      /* deactivate the alarm if the return value is zero */

      if (next_callback == 0)
   12804:	e0bfff17 	ldw	r2,-4(fp)
   12808:	1000031e 	bne	r2,zero,12818 <alt_tick+0xa4>
      {
        alt_alarm_stop (alarm);
   1280c:	e13ffd17 	ldw	r4,-12(fp)
   12810:	00126d80 	call	126d8 <alt_alarm_stop>
   12814:	00000d06 	br	1284c <alt_tick+0xd8>
      }
      else
      {
        alarm->time += next_callback;
   12818:	e0bffd17 	ldw	r2,-12(fp)
   1281c:	10c00217 	ldw	r3,8(r2)
   12820:	e0bfff17 	ldw	r2,-4(fp)
   12824:	1887883a 	add	r3,r3,r2
   12828:	e0bffd17 	ldw	r2,-12(fp)
   1282c:	10c00215 	stw	r3,8(r2)
        /* 
         * If the desired alarm time causes a roll-over, set the rollover
         * flag. This will prevent the subsequent tick event from causing
         * an alarm too early.
         */
        if(alarm->time < _alt_nticks)
   12830:	e0bffd17 	ldw	r2,-12(fp)
   12834:	10c00217 	ldw	r3,8(r2)
   12838:	d0a71b17 	ldw	r2,-25492(gp)
   1283c:	1880032e 	bgeu	r3,r2,1284c <alt_tick+0xd8>
        {
          alarm->rollover = 1;
   12840:	e0bffd17 	ldw	r2,-12(fp)
   12844:	00c00044 	movi	r3,1
   12848:	10c00405 	stb	r3,16(r2)
        }
      }
    }
    alarm = next;
   1284c:	e0bffe17 	ldw	r2,-8(fp)
   12850:	e0bffd15 	stw	r2,-12(fp)

  _alt_nticks++;

  /* process the registered callbacks */

  while (alarm != (alt_alarm*) &alt_alarm_list)
   12854:	e0fffd17 	ldw	r3,-12(fp)
   12858:	d0a00e04 	addi	r2,gp,-32712
   1285c:	18bfcf1e 	bne	r3,r2,1279c <__alt_mem_VGA_Subsystem_Char_Buf_Subsystem_Onchip_SRAM+0xf701279c>

  /* 
   * Update the operating system specific timer facilities.
   */

  ALT_OS_TIME_TICK();
   12860:	0001883a 	nop
}
   12864:	0001883a 	nop
   12868:	e037883a 	mov	sp,fp
   1286c:	dfc00117 	ldw	ra,4(sp)
   12870:	df000017 	ldw	fp,0(sp)
   12874:	dec00204 	addi	sp,sp,8
   12878:	f800283a 	ret

0001287c <altera_nios2_gen2_irq_init>:
/*
 * To initialize the internal interrupt controller, just clear the IENABLE
 * register so that all possible IRQs are disabled.
 */
void altera_nios2_gen2_irq_init(void) 
{
   1287c:	deffff04 	addi	sp,sp,-4
   12880:	df000015 	stw	fp,0(sp)
   12884:	d839883a 	mov	fp,sp
    NIOS2_WRITE_IENABLE(0);
   12888:	000170fa 	wrctl	ienable,zero
}
   1288c:	0001883a 	nop
   12890:	e037883a 	mov	sp,fp
   12894:	df000017 	ldw	fp,0(sp)
   12898:	dec00104 	addi	sp,sp,4
   1289c:	f800283a 	ret

000128a0 <alt_find_dev>:
 * "name" must be an exact match for the devices registered name for a match to
 * be found.
 */
 
alt_dev* alt_find_dev(const char* name, alt_llist* llist)
{
   128a0:	defffa04 	addi	sp,sp,-24
   128a4:	dfc00515 	stw	ra,20(sp)
   128a8:	df000415 	stw	fp,16(sp)
   128ac:	df000404 	addi	fp,sp,16
   128b0:	e13ffe15 	stw	r4,-8(fp)
   128b4:	e17fff15 	stw	r5,-4(fp)
  alt_dev* next = (alt_dev*) llist->next;
   128b8:	e0bfff17 	ldw	r2,-4(fp)
   128bc:	10800017 	ldw	r2,0(r2)
   128c0:	e0bffc15 	stw	r2,-16(fp)
  alt_32 len;

  len  = strlen(name) + 1;
   128c4:	e13ffe17 	ldw	r4,-8(fp)
   128c8:	000c6e80 	call	c6e8 <strlen>
   128cc:	10800044 	addi	r2,r2,1
   128d0:	e0bffd15 	stw	r2,-12(fp)
  /*
   * Check each list entry in turn, until a match is found, or we reach the
   * end of the list (i.e. next winds up pointing back to the list head).
   */ 

  while (next != (alt_dev*) llist)
   128d4:	00000d06 	br	1290c <alt_find_dev+0x6c>
    /* 
     * memcmp() is used here rather than strcmp() in order to reduce the size
     * of the executable.
     */

    if (!memcmp (next->name, name, len))
   128d8:	e0bffc17 	ldw	r2,-16(fp)
   128dc:	10800217 	ldw	r2,8(r2)
   128e0:	e0fffd17 	ldw	r3,-12(fp)
   128e4:	180d883a 	mov	r6,r3
   128e8:	e17ffe17 	ldw	r5,-8(fp)
   128ec:	1009883a 	mov	r4,r2
   128f0:	0012be40 	call	12be4 <memcmp>
   128f4:	1000021e 	bne	r2,zero,12900 <alt_find_dev+0x60>
    {
      /* match found */

      return next;
   128f8:	e0bffc17 	ldw	r2,-16(fp)
   128fc:	00000706 	br	1291c <alt_find_dev+0x7c>
    }
    next = (alt_dev*) next->llist.next;
   12900:	e0bffc17 	ldw	r2,-16(fp)
   12904:	10800017 	ldw	r2,0(r2)
   12908:	e0bffc15 	stw	r2,-16(fp)
  /*
   * Check each list entry in turn, until a match is found, or we reach the
   * end of the list (i.e. next winds up pointing back to the list head).
   */ 

  while (next != (alt_dev*) llist)
   1290c:	e0fffc17 	ldw	r3,-16(fp)
   12910:	e0bfff17 	ldw	r2,-4(fp)
   12914:	18bff01e 	bne	r3,r2,128d8 <__alt_mem_VGA_Subsystem_Char_Buf_Subsystem_Onchip_SRAM+0xf70128d8>
    next = (alt_dev*) next->llist.next;
  }
  
  /* No match found */
  
  return NULL;
   12918:	0005883a 	mov	r2,zero
}
   1291c:	e037883a 	mov	sp,fp
   12920:	dfc00117 	ldw	ra,4(sp)
   12924:	df000017 	ldw	fp,0(sp)
   12928:	dec00204 	addi	sp,sp,8
   1292c:	f800283a 	ret

00012930 <alt_find_file>:
 * either '/' or '\0' is the prefix of the filename. For example the filename:
 * "/myfilesystem/junk.txt" would match: "/myfilesystem", but not: "/myfile". 
 */
 
alt_dev* alt_find_file (const char* name)
{
   12930:	defffb04 	addi	sp,sp,-20
   12934:	dfc00415 	stw	ra,16(sp)
   12938:	df000315 	stw	fp,12(sp)
   1293c:	df000304 	addi	fp,sp,12
   12940:	e13fff15 	stw	r4,-4(fp)
  alt_dev* next = (alt_dev*) alt_fs_list.next;   
   12944:	d0a00617 	ldw	r2,-32744(gp)
   12948:	e0bffd15 	stw	r2,-12(fp)
  /*
   * Check each list entry in turn, until a match is found, or we reach the
   * end of the list (i.e. next winds up pointing back to the list head).
   */ 
 
  while (next != (alt_dev*) &alt_fs_list)
   1294c:	00003106 	br	12a14 <alt_find_file+0xe4>
  {
    len = strlen(next->name);
   12950:	e0bffd17 	ldw	r2,-12(fp)
   12954:	10800217 	ldw	r2,8(r2)
   12958:	1009883a 	mov	r4,r2
   1295c:	000c6e80 	call	c6e8 <strlen>
   12960:	e0bffe15 	stw	r2,-8(fp)
    
    if (next->name[len-1] == '/')
   12964:	e0bffd17 	ldw	r2,-12(fp)
   12968:	10c00217 	ldw	r3,8(r2)
   1296c:	e0bffe17 	ldw	r2,-8(fp)
   12970:	10bfffc4 	addi	r2,r2,-1
   12974:	1885883a 	add	r2,r3,r2
   12978:	10800003 	ldbu	r2,0(r2)
   1297c:	10803fcc 	andi	r2,r2,255
   12980:	1080201c 	xori	r2,r2,128
   12984:	10bfe004 	addi	r2,r2,-128
   12988:	10800bd8 	cmpnei	r2,r2,47
   1298c:	1000031e 	bne	r2,zero,1299c <alt_find_file+0x6c>
    {
      len -= 1;
   12990:	e0bffe17 	ldw	r2,-8(fp)
   12994:	10bfffc4 	addi	r2,r2,-1
   12998:	e0bffe15 	stw	r2,-8(fp)
    }

    if (((name[len] == '/') || (name[len] == '\0')) && 
   1299c:	e0bffe17 	ldw	r2,-8(fp)
   129a0:	e0ffff17 	ldw	r3,-4(fp)
   129a4:	1885883a 	add	r2,r3,r2
   129a8:	10800003 	ldbu	r2,0(r2)
   129ac:	10803fcc 	andi	r2,r2,255
   129b0:	1080201c 	xori	r2,r2,128
   129b4:	10bfe004 	addi	r2,r2,-128
   129b8:	10800be0 	cmpeqi	r2,r2,47
   129bc:	1000081e 	bne	r2,zero,129e0 <alt_find_file+0xb0>
   129c0:	e0bffe17 	ldw	r2,-8(fp)
   129c4:	e0ffff17 	ldw	r3,-4(fp)
   129c8:	1885883a 	add	r2,r3,r2
   129cc:	10800003 	ldbu	r2,0(r2)
   129d0:	10803fcc 	andi	r2,r2,255
   129d4:	1080201c 	xori	r2,r2,128
   129d8:	10bfe004 	addi	r2,r2,-128
   129dc:	10000a1e 	bne	r2,zero,12a08 <alt_find_file+0xd8>
        !memcmp (next->name, name, len))
   129e0:	e0bffd17 	ldw	r2,-12(fp)
   129e4:	10800217 	ldw	r2,8(r2)
   129e8:	e0fffe17 	ldw	r3,-8(fp)
   129ec:	180d883a 	mov	r6,r3
   129f0:	e17fff17 	ldw	r5,-4(fp)
   129f4:	1009883a 	mov	r4,r2
   129f8:	0012be40 	call	12be4 <memcmp>
    if (next->name[len-1] == '/')
    {
      len -= 1;
    }

    if (((name[len] == '/') || (name[len] == '\0')) && 
   129fc:	1000021e 	bne	r2,zero,12a08 <alt_find_file+0xd8>
        !memcmp (next->name, name, len))
    {
      /* match found */

      return next;
   12a00:	e0bffd17 	ldw	r2,-12(fp)
   12a04:	00000706 	br	12a24 <alt_find_file+0xf4>
    }
    next = (alt_dev*) next->llist.next;
   12a08:	e0bffd17 	ldw	r2,-12(fp)
   12a0c:	10800017 	ldw	r2,0(r2)
   12a10:	e0bffd15 	stw	r2,-12(fp)
  /*
   * Check each list entry in turn, until a match is found, or we reach the
   * end of the list (i.e. next winds up pointing back to the list head).
   */ 
 
  while (next != (alt_dev*) &alt_fs_list)
   12a14:	e0fffd17 	ldw	r3,-12(fp)
   12a18:	d0a00604 	addi	r2,gp,-32744
   12a1c:	18bfcc1e 	bne	r3,r2,12950 <__alt_mem_VGA_Subsystem_Char_Buf_Subsystem_Onchip_SRAM+0xf7012950>
    next = (alt_dev*) next->llist.next;
  }
  
  /* No match found */
  
  return NULL;     
   12a20:	0005883a 	mov	r2,zero
}
   12a24:	e037883a 	mov	sp,fp
   12a28:	dfc00117 	ldw	ra,4(sp)
   12a2c:	df000017 	ldw	fp,0(sp)
   12a30:	dec00204 	addi	sp,sp,8
   12a34:	f800283a 	ret

00012a38 <alt_get_fd>:
 * the offset of the file descriptor within the file descriptor array). A
 * negative value indicates failure.
 */

int alt_get_fd (alt_dev* dev)
{
   12a38:	defffa04 	addi	sp,sp,-24
   12a3c:	dfc00515 	stw	ra,20(sp)
   12a40:	df000415 	stw	fp,16(sp)
   12a44:	dc000315 	stw	r16,12(sp)
   12a48:	df000404 	addi	fp,sp,16
   12a4c:	e13ffe15 	stw	r4,-8(fp)
  alt_32 i;
  int rc = -EMFILE;
   12a50:	00bffa04 	movi	r2,-24
   12a54:	e0bffd15 	stw	r2,-12(fp)
   * indicates the highest file descriptor ever allocated. This is used to
   * improve efficency when searching the file descriptor list, and 
   * therefore reduce contention on the alt_fd_list_lock semaphore. 
   */

  for (i = 0; i < ALT_MAX_FD; i++)
   12a58:	e03ffc15 	stw	zero,-16(fp)
   12a5c:	00001d06 	br	12ad4 <alt_get_fd+0x9c>
  {
    if (!alt_fd_list[i].dev)
   12a60:	04000074 	movhi	r16,1
   12a64:	840f5904 	addi	r16,r16,15716
   12a68:	e0bffc17 	ldw	r2,-16(fp)
   12a6c:	01400304 	movi	r5,12
   12a70:	1009883a 	mov	r4,r2
   12a74:	00033480 	call	3348 <__mulsi3>
   12a78:	8085883a 	add	r2,r16,r2
   12a7c:	10800017 	ldw	r2,0(r2)
   12a80:	1000111e 	bne	r2,zero,12ac8 <alt_get_fd+0x90>
    {
      alt_fd_list[i].dev = dev;
   12a84:	04000074 	movhi	r16,1
   12a88:	840f5904 	addi	r16,r16,15716
   12a8c:	e0bffc17 	ldw	r2,-16(fp)
   12a90:	01400304 	movi	r5,12
   12a94:	1009883a 	mov	r4,r2
   12a98:	00033480 	call	3348 <__mulsi3>
   12a9c:	8085883a 	add	r2,r16,r2
   12aa0:	e0fffe17 	ldw	r3,-8(fp)
   12aa4:	10c00015 	stw	r3,0(r2)
      if (i > alt_max_fd)
   12aa8:	d0e00a17 	ldw	r3,-32728(gp)
   12aac:	e0bffc17 	ldw	r2,-16(fp)
   12ab0:	1880020e 	bge	r3,r2,12abc <alt_get_fd+0x84>
      {
        alt_max_fd = i;
   12ab4:	e0bffc17 	ldw	r2,-16(fp)
   12ab8:	d0a00a15 	stw	r2,-32728(gp)
      }
      rc = i;
   12abc:	e0bffc17 	ldw	r2,-16(fp)
   12ac0:	e0bffd15 	stw	r2,-12(fp)
      goto alt_get_fd_exit;
   12ac4:	00000606 	br	12ae0 <alt_get_fd+0xa8>
   * indicates the highest file descriptor ever allocated. This is used to
   * improve efficency when searching the file descriptor list, and 
   * therefore reduce contention on the alt_fd_list_lock semaphore. 
   */

  for (i = 0; i < ALT_MAX_FD; i++)
   12ac8:	e0bffc17 	ldw	r2,-16(fp)
   12acc:	10800044 	addi	r2,r2,1
   12ad0:	e0bffc15 	stw	r2,-16(fp)
   12ad4:	e0bffc17 	ldw	r2,-16(fp)
   12ad8:	10800810 	cmplti	r2,r2,32
   12adc:	103fe01e 	bne	r2,zero,12a60 <__alt_mem_VGA_Subsystem_Char_Buf_Subsystem_Onchip_SRAM+0xf7012a60>
   * file descriptor pool.
   */

  ALT_SEM_POST(alt_fd_list_lock);

  return rc;
   12ae0:	e0bffd17 	ldw	r2,-12(fp)
}
   12ae4:	e6ffff04 	addi	sp,fp,-4
   12ae8:	dfc00217 	ldw	ra,8(sp)
   12aec:	df000117 	ldw	fp,4(sp)
   12af0:	dc000017 	ldw	r16,0(sp)
   12af4:	dec00304 	addi	sp,sp,12
   12af8:	f800283a 	ret

00012afc <alt_exception_cause_generated_bad_addr>:
 * Return: 1: BADADDR (bad_addr argument to handler) is valid
 *         0: BADADDR is not valid
 */
int 
alt_exception_cause_generated_bad_addr(alt_exception_cause cause)
{
   12afc:	defffe04 	addi	sp,sp,-8
   12b00:	df000115 	stw	fp,4(sp)
   12b04:	df000104 	addi	fp,sp,4
   12b08:	e13fff15 	stw	r4,-4(fp)
  switch (cause) {
   12b0c:	e0bfff17 	ldw	r2,-4(fp)
   12b10:	10bffe84 	addi	r2,r2,-6
   12b14:	10c00428 	cmpgeui	r3,r2,16
   12b18:	18001a1e 	bne	r3,zero,12b84 <alt_exception_cause_generated_bad_addr+0x88>
   12b1c:	100690ba 	slli	r3,r2,2
   12b20:	00800074 	movhi	r2,1
   12b24:	108acd04 	addi	r2,r2,11060
   12b28:	1885883a 	add	r2,r3,r2
   12b2c:	10800017 	ldw	r2,0(r2)
   12b30:	1000683a 	jmp	r2
   12b34:	00012b74 	movhi	zero,1197
   12b38:	00012b74 	movhi	zero,1197
   12b3c:	00012b84 	movi	zero,1198
   12b40:	00012b84 	movi	zero,1198
   12b44:	00012b84 	movi	zero,1198
   12b48:	00012b74 	movhi	zero,1197
   12b4c:	00012b7c 	xorhi	zero,zero,1197
   12b50:	00012b84 	movi	zero,1198
   12b54:	00012b74 	movhi	zero,1197
   12b58:	00012b74 	movhi	zero,1197
   12b5c:	00012b84 	movi	zero,1198
   12b60:	00012b74 	movhi	zero,1197
   12b64:	00012b7c 	xorhi	zero,zero,1197
   12b68:	00012b84 	movi	zero,1198
   12b6c:	00012b84 	movi	zero,1198
   12b70:	00012b74 	movhi	zero,1197
  case NIOS2_EXCEPTION_MISALIGNED_TARGET_PC:
  case NIOS2_EXCEPTION_TLB_READ_PERM_VIOLATION:
  case NIOS2_EXCEPTION_TLB_WRITE_PERM_VIOLATION:
  case NIOS2_EXCEPTION_MPU_DATA_REGION_VIOLATION:
  case NIOS2_EXCEPTION_ECC_DATA_ERR:
    return 1;
   12b74:	00800044 	movi	r2,1
   12b78:	00000306 	br	12b88 <alt_exception_cause_generated_bad_addr+0x8c>

  case NIOS2_EXCEPTION_TLB_MISS:
  case NIOS2_EXCEPTION_ECC_TLB_ERR:
    return 0;
   12b7c:	0005883a 	mov	r2,zero
   12b80:	00000106 	br	12b88 <alt_exception_cause_generated_bad_addr+0x8c>

  default:
    return 0;
   12b84:	0005883a 	mov	r2,zero
  }
}
   12b88:	e037883a 	mov	sp,fp
   12b8c:	df000017 	ldw	fp,0(sp)
   12b90:	dec00104 	addi	sp,sp,4
   12b94:	f800283a 	ret

00012b98 <atexit>:
   12b98:	200b883a 	mov	r5,r4
   12b9c:	000f883a 	mov	r7,zero
   12ba0:	000d883a 	mov	r6,zero
   12ba4:	0009883a 	mov	r4,zero
   12ba8:	0012c601 	jmpi	12c60 <__register_exitproc>

00012bac <exit>:
   12bac:	defffe04 	addi	sp,sp,-8
   12bb0:	000b883a 	mov	r5,zero
   12bb4:	dc000015 	stw	r16,0(sp)
   12bb8:	dfc00115 	stw	ra,4(sp)
   12bbc:	2021883a 	mov	r16,r4
   12bc0:	0012d780 	call	12d78 <__call_exitprocs>
   12bc4:	00800074 	movhi	r2,1
   12bc8:	10941004 	addi	r2,r2,20544
   12bcc:	11000017 	ldw	r4,0(r2)
   12bd0:	20800f17 	ldw	r2,60(r4)
   12bd4:	10000126 	beq	r2,zero,12bdc <exit+0x30>
   12bd8:	103ee83a 	callr	r2
   12bdc:	8009883a 	mov	r4,r16
   12be0:	0012ef80 	call	12ef8 <_exit>

00012be4 <memcmp>:
   12be4:	01c000c4 	movi	r7,3
   12be8:	3980192e 	bgeu	r7,r6,12c50 <memcmp+0x6c>
   12bec:	2144b03a 	or	r2,r4,r5
   12bf0:	11c4703a 	and	r2,r2,r7
   12bf4:	10000f26 	beq	r2,zero,12c34 <memcmp+0x50>
   12bf8:	20800003 	ldbu	r2,0(r4)
   12bfc:	28c00003 	ldbu	r3,0(r5)
   12c00:	10c0151e 	bne	r2,r3,12c58 <memcmp+0x74>
   12c04:	31bfff84 	addi	r6,r6,-2
   12c08:	01ffffc4 	movi	r7,-1
   12c0c:	00000406 	br	12c20 <memcmp+0x3c>
   12c10:	20800003 	ldbu	r2,0(r4)
   12c14:	28c00003 	ldbu	r3,0(r5)
   12c18:	31bfffc4 	addi	r6,r6,-1
   12c1c:	10c00e1e 	bne	r2,r3,12c58 <memcmp+0x74>
   12c20:	21000044 	addi	r4,r4,1
   12c24:	29400044 	addi	r5,r5,1
   12c28:	31fff91e 	bne	r6,r7,12c10 <__alt_mem_VGA_Subsystem_Char_Buf_Subsystem_Onchip_SRAM+0xf7012c10>
   12c2c:	0005883a 	mov	r2,zero
   12c30:	f800283a 	ret
   12c34:	20c00017 	ldw	r3,0(r4)
   12c38:	28800017 	ldw	r2,0(r5)
   12c3c:	18bfee1e 	bne	r3,r2,12bf8 <__alt_mem_VGA_Subsystem_Char_Buf_Subsystem_Onchip_SRAM+0xf7012bf8>
   12c40:	31bfff04 	addi	r6,r6,-4
   12c44:	21000104 	addi	r4,r4,4
   12c48:	29400104 	addi	r5,r5,4
   12c4c:	39bff936 	bltu	r7,r6,12c34 <__alt_mem_VGA_Subsystem_Char_Buf_Subsystem_Onchip_SRAM+0xf7012c34>
   12c50:	303fe91e 	bne	r6,zero,12bf8 <__alt_mem_VGA_Subsystem_Char_Buf_Subsystem_Onchip_SRAM+0xf7012bf8>
   12c54:	003ff506 	br	12c2c <__alt_mem_VGA_Subsystem_Char_Buf_Subsystem_Onchip_SRAM+0xf7012c2c>
   12c58:	10c5c83a 	sub	r2,r2,r3
   12c5c:	f800283a 	ret

00012c60 <__register_exitproc>:
   12c60:	defffa04 	addi	sp,sp,-24
   12c64:	dc000315 	stw	r16,12(sp)
   12c68:	04000074 	movhi	r16,1
   12c6c:	84141004 	addi	r16,r16,20544
   12c70:	80c00017 	ldw	r3,0(r16)
   12c74:	dc400415 	stw	r17,16(sp)
   12c78:	dfc00515 	stw	ra,20(sp)
   12c7c:	18805217 	ldw	r2,328(r3)
   12c80:	2023883a 	mov	r17,r4
   12c84:	10003726 	beq	r2,zero,12d64 <__register_exitproc+0x104>
   12c88:	10c00117 	ldw	r3,4(r2)
   12c8c:	010007c4 	movi	r4,31
   12c90:	20c00e16 	blt	r4,r3,12ccc <__register_exitproc+0x6c>
   12c94:	1a000044 	addi	r8,r3,1
   12c98:	8800221e 	bne	r17,zero,12d24 <__register_exitproc+0xc4>
   12c9c:	18c00084 	addi	r3,r3,2
   12ca0:	18c7883a 	add	r3,r3,r3
   12ca4:	18c7883a 	add	r3,r3,r3
   12ca8:	12000115 	stw	r8,4(r2)
   12cac:	10c7883a 	add	r3,r2,r3
   12cb0:	19400015 	stw	r5,0(r3)
   12cb4:	0005883a 	mov	r2,zero
   12cb8:	dfc00517 	ldw	ra,20(sp)
   12cbc:	dc400417 	ldw	r17,16(sp)
   12cc0:	dc000317 	ldw	r16,12(sp)
   12cc4:	dec00604 	addi	sp,sp,24
   12cc8:	f800283a 	ret
   12ccc:	00800034 	movhi	r2,0
   12cd0:	10800004 	addi	r2,r2,0
   12cd4:	10002626 	beq	r2,zero,12d70 <__register_exitproc+0x110>
   12cd8:	01006404 	movi	r4,400
   12cdc:	d9400015 	stw	r5,0(sp)
   12ce0:	d9800115 	stw	r6,4(sp)
   12ce4:	d9c00215 	stw	r7,8(sp)
   12ce8:	00000000 	call	0 <__reset>
   12cec:	d9400017 	ldw	r5,0(sp)
   12cf0:	d9800117 	ldw	r6,4(sp)
   12cf4:	d9c00217 	ldw	r7,8(sp)
   12cf8:	10001d26 	beq	r2,zero,12d70 <__register_exitproc+0x110>
   12cfc:	81000017 	ldw	r4,0(r16)
   12d00:	10000115 	stw	zero,4(r2)
   12d04:	02000044 	movi	r8,1
   12d08:	22405217 	ldw	r9,328(r4)
   12d0c:	0007883a 	mov	r3,zero
   12d10:	12400015 	stw	r9,0(r2)
   12d14:	20805215 	stw	r2,328(r4)
   12d18:	10006215 	stw	zero,392(r2)
   12d1c:	10006315 	stw	zero,396(r2)
   12d20:	883fde26 	beq	r17,zero,12c9c <__alt_mem_VGA_Subsystem_Char_Buf_Subsystem_Onchip_SRAM+0xf7012c9c>
   12d24:	18c9883a 	add	r4,r3,r3
   12d28:	2109883a 	add	r4,r4,r4
   12d2c:	1109883a 	add	r4,r2,r4
   12d30:	21802215 	stw	r6,136(r4)
   12d34:	01800044 	movi	r6,1
   12d38:	12406217 	ldw	r9,392(r2)
   12d3c:	30cc983a 	sll	r6,r6,r3
   12d40:	4992b03a 	or	r9,r9,r6
   12d44:	12406215 	stw	r9,392(r2)
   12d48:	21c04215 	stw	r7,264(r4)
   12d4c:	01000084 	movi	r4,2
   12d50:	893fd21e 	bne	r17,r4,12c9c <__alt_mem_VGA_Subsystem_Char_Buf_Subsystem_Onchip_SRAM+0xf7012c9c>
   12d54:	11006317 	ldw	r4,396(r2)
   12d58:	218cb03a 	or	r6,r4,r6
   12d5c:	11806315 	stw	r6,396(r2)
   12d60:	003fce06 	br	12c9c <__alt_mem_VGA_Subsystem_Char_Buf_Subsystem_Onchip_SRAM+0xf7012c9c>
   12d64:	18805304 	addi	r2,r3,332
   12d68:	18805215 	stw	r2,328(r3)
   12d6c:	003fc606 	br	12c88 <__alt_mem_VGA_Subsystem_Char_Buf_Subsystem_Onchip_SRAM+0xf7012c88>
   12d70:	00bfffc4 	movi	r2,-1
   12d74:	003fd006 	br	12cb8 <__alt_mem_VGA_Subsystem_Char_Buf_Subsystem_Onchip_SRAM+0xf7012cb8>

00012d78 <__call_exitprocs>:
   12d78:	defff504 	addi	sp,sp,-44
   12d7c:	df000915 	stw	fp,36(sp)
   12d80:	dd400615 	stw	r21,24(sp)
   12d84:	dc800315 	stw	r18,12(sp)
   12d88:	dfc00a15 	stw	ra,40(sp)
   12d8c:	ddc00815 	stw	r23,32(sp)
   12d90:	dd800715 	stw	r22,28(sp)
   12d94:	dd000515 	stw	r20,20(sp)
   12d98:	dcc00415 	stw	r19,16(sp)
   12d9c:	dc400215 	stw	r17,8(sp)
   12da0:	dc000115 	stw	r16,4(sp)
   12da4:	d9000015 	stw	r4,0(sp)
   12da8:	2839883a 	mov	fp,r5
   12dac:	04800044 	movi	r18,1
   12db0:	057fffc4 	movi	r21,-1
   12db4:	00800074 	movhi	r2,1
   12db8:	10941004 	addi	r2,r2,20544
   12dbc:	12000017 	ldw	r8,0(r2)
   12dc0:	45005217 	ldw	r20,328(r8)
   12dc4:	44c05204 	addi	r19,r8,328
   12dc8:	a0001c26 	beq	r20,zero,12e3c <__call_exitprocs+0xc4>
   12dcc:	a0800117 	ldw	r2,4(r20)
   12dd0:	15ffffc4 	addi	r23,r2,-1
   12dd4:	b8000d16 	blt	r23,zero,12e0c <__call_exitprocs+0x94>
   12dd8:	14000044 	addi	r16,r2,1
   12ddc:	8421883a 	add	r16,r16,r16
   12de0:	8421883a 	add	r16,r16,r16
   12de4:	84402004 	addi	r17,r16,128
   12de8:	a463883a 	add	r17,r20,r17
   12dec:	a421883a 	add	r16,r20,r16
   12df0:	e0001e26 	beq	fp,zero,12e6c <__call_exitprocs+0xf4>
   12df4:	80804017 	ldw	r2,256(r16)
   12df8:	e0801c26 	beq	fp,r2,12e6c <__call_exitprocs+0xf4>
   12dfc:	bdffffc4 	addi	r23,r23,-1
   12e00:	843fff04 	addi	r16,r16,-4
   12e04:	8c7fff04 	addi	r17,r17,-4
   12e08:	bd7ff91e 	bne	r23,r21,12df0 <__alt_mem_VGA_Subsystem_Char_Buf_Subsystem_Onchip_SRAM+0xf7012df0>
   12e0c:	00800034 	movhi	r2,0
   12e10:	10800004 	addi	r2,r2,0
   12e14:	10000926 	beq	r2,zero,12e3c <__call_exitprocs+0xc4>
   12e18:	a0800117 	ldw	r2,4(r20)
   12e1c:	1000301e 	bne	r2,zero,12ee0 <__call_exitprocs+0x168>
   12e20:	a0800017 	ldw	r2,0(r20)
   12e24:	10003226 	beq	r2,zero,12ef0 <__call_exitprocs+0x178>
   12e28:	a009883a 	mov	r4,r20
   12e2c:	98800015 	stw	r2,0(r19)
   12e30:	00000000 	call	0 <__reset>
   12e34:	9d000017 	ldw	r20,0(r19)
   12e38:	a03fe41e 	bne	r20,zero,12dcc <__alt_mem_VGA_Subsystem_Char_Buf_Subsystem_Onchip_SRAM+0xf7012dcc>
   12e3c:	dfc00a17 	ldw	ra,40(sp)
   12e40:	df000917 	ldw	fp,36(sp)
   12e44:	ddc00817 	ldw	r23,32(sp)
   12e48:	dd800717 	ldw	r22,28(sp)
   12e4c:	dd400617 	ldw	r21,24(sp)
   12e50:	dd000517 	ldw	r20,20(sp)
   12e54:	dcc00417 	ldw	r19,16(sp)
   12e58:	dc800317 	ldw	r18,12(sp)
   12e5c:	dc400217 	ldw	r17,8(sp)
   12e60:	dc000117 	ldw	r16,4(sp)
   12e64:	dec00b04 	addi	sp,sp,44
   12e68:	f800283a 	ret
   12e6c:	a0800117 	ldw	r2,4(r20)
   12e70:	80c00017 	ldw	r3,0(r16)
   12e74:	10bfffc4 	addi	r2,r2,-1
   12e78:	15c01426 	beq	r2,r23,12ecc <__call_exitprocs+0x154>
   12e7c:	80000015 	stw	zero,0(r16)
   12e80:	183fde26 	beq	r3,zero,12dfc <__alt_mem_VGA_Subsystem_Char_Buf_Subsystem_Onchip_SRAM+0xf7012dfc>
   12e84:	95c8983a 	sll	r4,r18,r23
   12e88:	a0806217 	ldw	r2,392(r20)
   12e8c:	a5800117 	ldw	r22,4(r20)
   12e90:	2084703a 	and	r2,r4,r2
   12e94:	10000b26 	beq	r2,zero,12ec4 <__call_exitprocs+0x14c>
   12e98:	a0806317 	ldw	r2,396(r20)
   12e9c:	2088703a 	and	r4,r4,r2
   12ea0:	20000c1e 	bne	r4,zero,12ed4 <__call_exitprocs+0x15c>
   12ea4:	89400017 	ldw	r5,0(r17)
   12ea8:	d9000017 	ldw	r4,0(sp)
   12eac:	183ee83a 	callr	r3
   12eb0:	a0800117 	ldw	r2,4(r20)
   12eb4:	15bfbf1e 	bne	r2,r22,12db4 <__alt_mem_VGA_Subsystem_Char_Buf_Subsystem_Onchip_SRAM+0xf7012db4>
   12eb8:	98800017 	ldw	r2,0(r19)
   12ebc:	153fcf26 	beq	r2,r20,12dfc <__alt_mem_VGA_Subsystem_Char_Buf_Subsystem_Onchip_SRAM+0xf7012dfc>
   12ec0:	003fbc06 	br	12db4 <__alt_mem_VGA_Subsystem_Char_Buf_Subsystem_Onchip_SRAM+0xf7012db4>
   12ec4:	183ee83a 	callr	r3
   12ec8:	003ff906 	br	12eb0 <__alt_mem_VGA_Subsystem_Char_Buf_Subsystem_Onchip_SRAM+0xf7012eb0>
   12ecc:	a5c00115 	stw	r23,4(r20)
   12ed0:	003feb06 	br	12e80 <__alt_mem_VGA_Subsystem_Char_Buf_Subsystem_Onchip_SRAM+0xf7012e80>
   12ed4:	89000017 	ldw	r4,0(r17)
   12ed8:	183ee83a 	callr	r3
   12edc:	003ff406 	br	12eb0 <__alt_mem_VGA_Subsystem_Char_Buf_Subsystem_Onchip_SRAM+0xf7012eb0>
   12ee0:	a0800017 	ldw	r2,0(r20)
   12ee4:	a027883a 	mov	r19,r20
   12ee8:	1029883a 	mov	r20,r2
   12eec:	003fb606 	br	12dc8 <__alt_mem_VGA_Subsystem_Char_Buf_Subsystem_Onchip_SRAM+0xf7012dc8>
   12ef0:	0005883a 	mov	r2,zero
   12ef4:	003ffb06 	br	12ee4 <__alt_mem_VGA_Subsystem_Char_Buf_Subsystem_Onchip_SRAM+0xf7012ee4>

00012ef8 <_exit>:
 *
 * ALT_EXIT is mapped onto the _exit() system call in alt_syscall.h
 */

void ALT_EXIT (int exit_code)
{
   12ef8:	defffd04 	addi	sp,sp,-12
   12efc:	df000215 	stw	fp,8(sp)
   12f00:	df000204 	addi	fp,sp,8
   12f04:	e13fff15 	stw	r4,-4(fp)
  ALT_LOG_PRINT_BOOT("[alt_exit.c] Entering _exit() function.\r\n");
  ALT_LOG_PRINT_BOOT("[alt_exit.c] Exit code from main was %d.\r\n",exit_code);
  /* Stop all other threads */

  ALT_LOG_PRINT_BOOT("[alt_exit.c] Calling ALT_OS_STOP().\r\n");
  ALT_OS_STOP();
   12f08:	0001883a 	nop
   12f0c:	e0bfff17 	ldw	r2,-4(fp)
   12f10:	e0bffe15 	stw	r2,-8(fp)
/*
 * Routine called on exit.
 */
static ALT_INLINE ALT_ALWAYS_INLINE void alt_sim_halt(int exit_code)
{
  register int r2 asm ("r2") = exit_code;
   12f14:	e0bffe17 	ldw	r2,-8(fp)
  __asm__ volatile ("\n0:\n\taddi %0,%0, -1\n\tbgt %0,zero,0b" : : "r" (ALT_CPU_FREQ/100) ); /* Delay for >30ms */

  __asm__ volatile ("break 2" : : "r"(r2), "r"(r3) ALT_GMON_DATA );

#else /* !DEBUG_STUB */
  if (r2) {
   12f18:	10000226 	beq	r2,zero,12f24 <_exit+0x2c>
    ALT_SIM_FAIL();
   12f1c:	002af070 	cmpltui	zero,zero,43969
   12f20:	00000106 	br	12f28 <_exit+0x30>
  } else {
    ALT_SIM_PASS();
   12f24:	002af0b0 	cmpltui	zero,zero,43970
  ALT_SIM_HALT(exit_code);

  /* spin forever, since there's no where to go back to */

  ALT_LOG_PRINT_BOOT("[alt_exit.c] Spinning forever.\r\n");
  while (1);
   12f28:	003fff06 	br	12f28 <__alt_mem_VGA_Subsystem_Char_Buf_Subsystem_Onchip_SRAM+0xf7012f28>
