
vga_radar.elf:     file format elf32-littlenios2
vga_radar.elf
architecture: nios2:r1, flags 0x00000112:
EXEC_P, HAS_SYMS, D_PAGED
start address 0x00000230

Program Header:
    LOAD off    0x00001000 vaddr 0x00000000 paddr 0x00000000 align 2**12
         filesz 0x00000020 memsz 0x00000020 flags r-x
    LOAD off    0x00001020 vaddr 0x00000020 paddr 0x00000020 align 2**12
         filesz 0x00013478 memsz 0x00013478 flags r-x
    LOAD off    0x00014498 vaddr 0x00013498 paddr 0x00015080 align 2**12
         filesz 0x00001be8 memsz 0x00001be8 flags rw-
    LOAD off    0x00016c68 vaddr 0x00016c68 paddr 0x00016c68 align 2**12
         filesz 0x00000000 memsz 0x00000174 flags rw-

Sections:
Idx Name          Size      VMA       LMA       File off  Algn
  0 .entry        00000020  00000000  00000000  00001000  2**5
                  CONTENTS, ALLOC, LOAD, READONLY, CODE
  1 .exceptions   00000210  00000020  00000020  00001020  2**2
                  CONTENTS, ALLOC, LOAD, READONLY, CODE
  2 .text         00012cfc  00000230  00000230  00001230  2**2
                  CONTENTS, ALLOC, LOAD, READONLY, CODE
  3 .rodata       0000056c  00012f2c  00012f2c  00013f2c  2**2
                  CONTENTS, ALLOC, LOAD, READONLY, DATA
  4 .rwdata       00001be8  00013498  00015080  00014498  2**2
                  CONTENTS, ALLOC, LOAD, DATA, SMALL_DATA
  5 .bss          00000174  00016c68  00016c68  00016c68  2**2
                  ALLOC, SMALL_DATA
  6 .SDRAM        00000000  00016ddc  00016ddc  00016080  2**0
                  CONTENTS
  7 .Onchip_SRAM  00000000  08000000  08000000  00016080  2**0
                  CONTENTS
  8 .VGA_Subsystem_Char_Buf_Subsystem_Onchip_SRAM 00000000  09000000  09000000  00016080  2**0
                  CONTENTS
  9 .comment      00000023  00000000  00000000  00016080  2**0
                  CONTENTS, READONLY
 10 .debug_aranges 00001010  00000000  00000000  000160a8  2**3
                  CONTENTS, READONLY, DEBUGGING
 11 .debug_info   000246de  00000000  00000000  000170b8  2**0
                  CONTENTS, READONLY, DEBUGGING
 12 .debug_abbrev 0000982e  00000000  00000000  0003b796  2**0
                  CONTENTS, READONLY, DEBUGGING
 13 .debug_line   0000c9b6  00000000  00000000  00044fc4  2**0
                  CONTENTS, READONLY, DEBUGGING
 14 .debug_frame  000024d8  00000000  00000000  0005197c  2**2
                  CONTENTS, READONLY, DEBUGGING
 15 .debug_str    00003fd8  00000000  00000000  00053e54  2**0
                  CONTENTS, READONLY, DEBUGGING
 16 .debug_loc    000196eb  00000000  00000000  00057e2c  2**0
                  CONTENTS, READONLY, DEBUGGING
 17 .debug_alt_sim_info 00000040  00000000  00000000  00071518  2**2
                  CONTENTS, READONLY, DEBUGGING
 18 .debug_ranges 00001978  00000000  00000000  00071558  2**3
                  CONTENTS, READONLY, DEBUGGING
 19 .thread_model 00000003  00000000  00000000  00076546  2**0
                  CONTENTS, READONLY
 20 .cpu          00000005  00000000  00000000  00076549  2**0
                  CONTENTS, READONLY
 21 .qsys         00000001  00000000  00000000  0007654e  2**0
                  CONTENTS, READONLY
 22 .simulation_enabled 00000001  00000000  00000000  0007654f  2**0
                  CONTENTS, READONLY
 23 .sysid_hash   00000004  00000000  00000000  00076550  2**0
                  CONTENTS, READONLY
 24 .sysid_base   00000004  00000000  00000000  00076554  2**0
                  CONTENTS, READONLY
 25 .sysid_time   00000004  00000000  00000000  00076558  2**0
                  CONTENTS, READONLY
 26 .stderr_dev   00000009  00000000  00000000  0007655c  2**0
                  CONTENTS, READONLY
 27 .stdin_dev    00000009  00000000  00000000  00076565  2**0
                  CONTENTS, READONLY
 28 .stdout_dev   00000009  00000000  00000000  0007656e  2**0
                  CONTENTS, READONLY
 29 .sopc_system_name 0000000f  00000000  00000000  00076577  2**0
                  CONTENTS, READONLY
 30 .quartus_project_dir 00000055  00000000  00000000  00076586  2**0
                  CONTENTS, READONLY
 31 .jdi          000080a5  00000000  00000000  000765db  2**0
                  CONTENTS, READONLY
 32 .sopcinfo     00100281  00000000  00000000  0007e680  2**0
                  CONTENTS, READONLY
SYMBOL TABLE:
00000000 l    d  .entry	00000000 .entry
00000020 l    d  .exceptions	00000000 .exceptions
00000230 l    d  .text	00000000 .text
00012f2c l    d  .rodata	00000000 .rodata
00013498 l    d  .rwdata	00000000 .rwdata
00016c68 l    d  .bss	00000000 .bss
00016ddc l    d  .SDRAM	00000000 .SDRAM
08000000 l    d  .Onchip_SRAM	00000000 .Onchip_SRAM
09000000 l    d  .VGA_Subsystem_Char_Buf_Subsystem_Onchip_SRAM	00000000 .VGA_Subsystem_Char_Buf_Subsystem_Onchip_SRAM
00000000 l    d  .comment	00000000 .comment
00000000 l    d  .debug_aranges	00000000 .debug_aranges
00000000 l    d  .debug_info	00000000 .debug_info
00000000 l    d  .debug_abbrev	00000000 .debug_abbrev
00000000 l    d  .debug_line	00000000 .debug_line
00000000 l    d  .debug_frame	00000000 .debug_frame
00000000 l    d  .debug_str	00000000 .debug_str
00000000 l    d  .debug_loc	00000000 .debug_loc
00000000 l    d  .debug_alt_sim_info	00000000 .debug_alt_sim_info
00000000 l    d  .debug_ranges	00000000 .debug_ranges
00000000 l    df *ABS*	00000000 ../vga_radar_bsp//obj/HAL/src/crt0.o
00000268 l       .text	00000000 alt_after_alt_main
00000000 l    df *ABS*	00000000 alt_irq_handler.c
00000000 l    df *ABS*	00000000 alt_instruction_exception_entry.c
00000000 l    df *ABS*	00000000 vga_radar.c
00012f2c l     O .rodata	0000000a SEG7_LUT
00016c68 l     O .bss	00000004 res_offset
00016c6c l     O .bss	00000004 col_offset
00016c70 l     O .bss	00000004 cx
00016c74 l     O .bss	00000004 cy
00016c78 l     O .bss	00000004 radar_r
0000026c l     F .text	0000004c seg7
000002b8 l     F .text	000000b8 split3
00000370 l     F .text	00000054 pos_from_angle
000003c4 l     F .text	00000064 cm_to_px
00000428 l     F .text	00000140 video_box
00000568 l     F .text	00000094 clear_char_buffer
000005fc l     F .text	000000fc plot
000006f8 l     F .text	00000154 draw_line
0000084c l     F .text	000001b0 draw_arc
00000000 l    df *ABS*	00000000 s_cos.c
00000000 l    df *ABS*	00000000 s_sin.c
00000000 l    df *ABS*	00000000 e_rem_pio2.c
00012fc8 l     O .rodata	00000108 two_over_pi
00012f48 l     O .rodata	00000080 npio2_hw
00000000 l    df *ABS*	00000000 k_cos.c
00000000 l    df *ABS*	00000000 k_rem_pio2.c
00013110 l     O .rodata	00000010 init_jk
000130d0 l     O .rodata	00000040 PIo2
00000000 l    df *ABS*	00000000 k_sin.c
00000000 l    df *ABS*	00000000 s_fabs.c
00000000 l    df *ABS*	00000000 s_floor.c
00000000 l    df *ABS*	00000000 s_scalbn.c
00000000 l    df *ABS*	00000000 s_copysign.c
00000000 l    df *ABS*	00000000 lib2-divmod.c
00000000 l    df *ABS*	00000000 lib2-mul.c
00000000 l    df *ABS*	00000000 adddf3.c
00000000 l    df *ABS*	00000000 divdf3.c
00000000 l    df *ABS*	00000000 eqdf2.c
00000000 l    df *ABS*	00000000 gedf2.c
00000000 l    df *ABS*	00000000 muldf3.c
00000000 l    df *ABS*	00000000 subdf3.c
00000000 l    df *ABS*	00000000 fixdfsi.c
00000000 l    df *ABS*	00000000 floatsidf.c
00000000 l    df *ABS*	00000000 floatunsidf.c
00000000 l    df *ABS*	00000000 libgcc2.c
00000000 l    df *ABS*	00000000 libgcc2.c
00000000 l    df *ABS*	00000000 printf.c
00000000 l    df *ABS*	00000000 vfprintf.c
00013262 l     O .rodata	00000010 zeroes.4404
00007e84 l     F .text	000000bc __sbprintf
00013272 l     O .rodata	00000010 blanks.4403
00000000 l    df *ABS*	00000000 wsetup.c
00000000 l    df *ABS*	00000000 dtoa.c
00008094 l     F .text	00000228 quorem
00000000 l    df *ABS*	00000000 fflush.c
00000000 l    df *ABS*	00000000 findfp.c
00009bec l     F .text	00000008 __fp_unlock
00009c00 l     F .text	0000019c __sinit.part.1
00009d9c l     F .text	00000008 __fp_lock
00000000 l    df *ABS*	00000000 mallocr.c
00000000 l    df *ABS*	00000000 fwalk.c
00000000 l    df *ABS*	00000000 impure.c
00013498 l     O .rwdata	00000424 impure_data
00000000 l    df *ABS*	00000000 locale.c
000138dc l     O .rwdata	00000020 lc_ctype_charset
000138bc l     O .rwdata	00000020 lc_message_charset
000138fc l     O .rwdata	00000038 lconv
00000000 l    df *ABS*	00000000 makebuf.c
00000000 l    df *ABS*	00000000 mallocr.c
00000000 l    df *ABS*	00000000 memchr.c
00000000 l    df *ABS*	00000000 memcpy.c
00000000 l    df *ABS*	00000000 memset.c
00000000 l    df *ABS*	00000000 mprec.c
000132a4 l     O .rodata	0000000c p05.2768
00000000 l    df *ABS*	00000000 s_fpclassify.c
00000000 l    df *ABS*	00000000 sbrkr.c
00000000 l    df *ABS*	00000000 stdio.c
00000000 l    df *ABS*	00000000 strcmp.c
00000000 l    df *ABS*	00000000 strlen.c
00000000 l    df *ABS*	00000000 vfprintf.c
0000c780 l     F .text	000000fc __sprint_r.part.0
000133c8 l     O .rodata	00000010 zeroes.4349
0000ddbc l     F .text	000000bc __sbprintf
000133d8 l     O .rodata	00000010 blanks.4348
00000000 l    df *ABS*	00000000 writer.c
00000000 l    df *ABS*	00000000 closer.c
00000000 l    df *ABS*	00000000 mallocr.c
00000000 l    df *ABS*	00000000 fclose.c
00000000 l    df *ABS*	00000000 fputwc.c
00000000 l    df *ABS*	00000000 fstatr.c
00000000 l    df *ABS*	00000000 fvwrite.c
00000000 l    df *ABS*	00000000 int_errno.c
00000000 l    df *ABS*	00000000 isattyr.c
00000000 l    df *ABS*	00000000 lseekr.c
00000000 l    df *ABS*	00000000 memmove.c
00000000 l    df *ABS*	00000000 readr.c
00000000 l    df *ABS*	00000000 mallocr.c
00000000 l    df *ABS*	00000000 wbuf.c
00000000 l    df *ABS*	00000000 wcrtomb.c
00000000 l    df *ABS*	00000000 wctomb_r.c
00000000 l    df *ABS*	00000000 libgcc2.c
00000000 l    df *ABS*	00000000 libgcc2.c
00000000 l    df *ABS*	00000000 ledf2.c
00000000 l    df *ABS*	00000000 alt_close.c
00010000 l     F .text	0000003c alt_get_errno
00000000 l    df *ABS*	00000000 alt_dev.c
00010114 l     F .text	0000002c alt_dev_null_write
00000000 l    df *ABS*	00000000 alt_errno.c
00000000 l    df *ABS*	00000000 alt_fstat.c
00010140 l     F .text	0000003c alt_get_errno
00000000 l    df *ABS*	00000000 alt_isatty.c
00010234 l     F .text	0000003c alt_get_errno
00000000 l    df *ABS*	00000000 alt_load.c
0001031c l     F .text	00000068 alt_load_section
00000000 l    df *ABS*	00000000 alt_lseek.c
00010408 l     F .text	0000003c alt_get_errno
00000000 l    df *ABS*	00000000 alt_main.c
00000000 l    df *ABS*	00000000 alt_malloc_lock.c
00000000 l    df *ABS*	00000000 alt_read.c
000105e4 l     F .text	0000003c alt_get_errno
00000000 l    df *ABS*	00000000 alt_release_fd.c
00000000 l    df *ABS*	00000000 alt_sbrk.c
00015070 l     O .rwdata	00000004 heap_end
00000000 l    df *ABS*	00000000 alt_usleep.c
00000000 l    df *ABS*	00000000 alt_write.c
00010888 l     F .text	0000003c alt_get_errno
00000000 l    df *ABS*	00000000 alt_sys_init.c
000109c4 l     F .text	00000034 alt_dev_reg
00013ee4 l     O .rwdata	00001060 JTAG_UART
00014f44 l     O .rwdata	0000005c VGA_Subsystem_Char_Buf_Subsystem_Char_Buf_DMA
00014fa0 l     O .rwdata	0000005c VGA_Subsystem_VGA_Pixel_DMA
00014ffc l     O .rwdata	00000044 VGA_Subsystem_VGA_Pixel_RGB_Resampler
00000000 l    df *ABS*	00000000 altera_avalon_jtag_uart_fd.c
00000000 l    df *ABS*	00000000 altera_avalon_jtag_uart_init.c
000112b8 l     F .text	0000020c altera_avalon_jtag_uart_irq
000114c4 l     F .text	000000a0 altera_avalon_jtag_uart_timeout
00000000 l    df *ABS*	00000000 altera_avalon_jtag_uart_ioctl.c
00000000 l    df *ABS*	00000000 altera_avalon_jtag_uart_read.c
00000000 l    df *ABS*	00000000 altera_avalon_jtag_uart_write.c
00000000 l    df *ABS*	00000000 altera_avalon_timer_sc.c
00011afc l     F .text	00000078 alt_avalon_timer_sc_irq
00000000 l    df *ABS*	00000000 alt_alarm_start.c
00000000 l    df *ABS*	00000000 alt_busy_sleep.c
00000000 l    df *ABS*	00000000 alt_dcache_flush_all.c
00000000 l    df *ABS*	00000000 alt_dev_llist_insert.c
00011e94 l     F .text	0000003c alt_get_errno
00000000 l    df *ABS*	00000000 alt_do_ctors.c
00000000 l    df *ABS*	00000000 alt_do_dtors.c
00000000 l    df *ABS*	00000000 alt_icache_flush_all.c
00000000 l    df *ABS*	00000000 alt_iic.c
00000000 l    df *ABS*	00000000 alt_iic_isr_register.c
00000000 l    df *ABS*	00000000 alt_io_redirect.c
000122f4 l     F .text	000000e4 alt_open_fd
00000000 l    df *ABS*	00000000 alt_irq_vars.c
00000000 l    df *ABS*	00000000 alt_open.c
00012454 l     F .text	0000003c alt_get_errno
00012490 l     F .text	000000ec alt_file_locked
00000000 l    df *ABS*	00000000 alt_tick.c
00000000 l    df *ABS*	00000000 altera_nios2_gen2_irq.c
00000000 l    df *ABS*	00000000 alt_find_dev.c
00000000 l    df *ABS*	00000000 alt_find_file.c
00000000 l    df *ABS*	00000000 alt_get_fd.c
00000000 l    df *ABS*	00000000 atexit.c
00000000 l    df *ABS*	00000000 exit.c
00000000 l    df *ABS*	00000000 memcmp.c
00000000 l    df *ABS*	00000000 __atexit.c
00000000 l    df *ABS*	00000000 __call_atexit.c
00000000 l    df *ABS*	00000000 alt_exit.c
00016cb0 g     O .bss	00000004 alt_instruction_exception_handler
0000c290 g     F .text	00000074 _mprec_log10
0000c37c g     F .text	0000008c __any_on
0000e838 g     F .text	00000054 _isatty_r
000132b0 g     O .rodata	00000028 __mprec_tinytens
00010520 g     F .text	0000007c alt_main
00016cdc g     O .bss	00000100 alt_irq
00002ddc g     F .text	00000014 fabs
0000e88c g     F .text	00000060 _lseek_r
00015080 g       *ABS*	00000000 __flash_rwdata_start
000045ec g     F .text	00000088 .hidden __eqdf2
00016ddc g       *ABS*	00000000 __alt_heap_start
00005b50 g     F .text	0000003c printf
0000f164 g     F .text	0000009c _wcrtomb_r
0000c5a8 g     F .text	0000005c __sseek
00009f4c g     F .text	00000010 __sinit
0000f00c g     F .text	00000140 __swbuf_r
0000a558 g     F .text	0000007c _setlocale_r
00009da4 g     F .text	00000078 __sfmoreglue
000105c0 g     F .text	00000024 __malloc_unlock
0000e8ec g     F .text	0000015c memmove
00009f34 g     F .text	00000018 _cleanup
0000b350 g     F .text	000000a8 _Balloc
00004674 g     F .text	000000dc .hidden __gtdf2
0001287c g     F .text	00000024 altera_nios2_gen2_irq_init
00000000 g     F .entry	0000000c __reset
00000020 g       *ABS*	00000000 __flash_exceptions_start
0000e314 g     F .text	0000005c _fstat_r
00016c94 g     O .bss	00000004 errno
00002df0 g     F .text	000001ec floor
0000c524 g     F .text	00000008 __seofread
00016c9c g     O .bss	00000004 alt_argv
0001d040 g       *ABS*	00000000 _gp
00010858 g     F .text	00000030 usleep
00013d64 g     O .rwdata	00000180 alt_fd_list
00001168 g     F .text	0000076c __ieee754_rem_pio2
000128a0 g     F .text	00000090 alt_find_dev
0000b0e0 g     F .text	00000148 memcpy
00009bf4 g     F .text	0000000c _cleanup_r
00005938 g     F .text	000000dc .hidden __floatsidf
000123d8 g     F .text	0000007c alt_io_redirect
0000ff0c g     F .text	000000f4 .hidden __ltdf2
00012f2c g       *ABS*	00000000 __DTOR_END__
00012afc g     F .text	0000009c alt_exception_cause_generated_bad_addr
0000c408 g     F .text	00000074 __fpclassifyd
0000c1ec g     F .text	000000a4 __ratio
0000dda0 g     F .text	0000001c __vfiprintf_internal
000116bc g     F .text	0000021c altera_avalon_jtag_uart_read
00005b20 g     F .text	00000030 _printf_r
0000328c g     F .text	00000064 .hidden __udivsi3
00010270 g     F .text	000000ac isatty
00013300 g     O .rodata	000000c8 __mprec_tens
0000a5d4 g     F .text	0000000c __locale_charset
000018d4 g     F .text	000004a4 __kernel_cos
00016c90 g     O .bss	00000004 __malloc_top_pad
00015048 g     O .rwdata	00000004 __mb_cur_max
0000a604 g     F .text	0000000c _localeconv_r
0000e370 g     F .text	000004c8 __sfvwrite_r
0000b784 g     F .text	0000003c __i2b
0000c47c g     F .text	00000054 _sbrk_r
0000ea48 g     F .text	00000060 _read_r
00015068 g     O .rwdata	00000004 alt_max_fd
0000e008 g     F .text	000000f0 _fclose_r
00009bbc g     F .text	00000030 fflush
00016c8c g     O .bss	00000004 __malloc_max_sbrked_mem
00002b10 g     F .text	000002cc __kernel_sin
00003370 g     F .text	000008ac .hidden __adddf3
0000bf94 g     F .text	0000010c __b2d
0000f948 g     F .text	000005c4 .hidden __umoddi3
00010444 g     F .text	000000dc lseek
00015040 g     O .rwdata	00000004 _global_impure_ptr
0000eaa8 g     F .text	00000564 _realloc_r
00016ddc g       *ABS*	00000000 __bss_end
00012204 g     F .text	000000f0 alt_iic_isr_register
00012774 g     F .text	00000108 alt_tick
0000f34c g     F .text	000005fc .hidden __udivdi3
0000e270 g     F .text	00000024 _fputwc_r
000132d8 g     O .rodata	00000028 __mprec_bigtens
0000b568 g     F .text	00000104 __s2b
00005a14 g     F .text	000000a8 .hidden __floatunsidf
0000bcd4 g     F .text	00000060 __mcmp
00009f6c g     F .text	00000018 __fp_lock_all
000121b8 g     F .text	0000004c alt_ic_irq_enabled
000126d8 g     F .text	0000009c alt_alarm_stop
00016ca4 g     O .bss	00000004 alt_irq_active
000000fc g     F .exceptions	000000d4 alt_irq_handler
00013d3c g     O .rwdata	00000028 alt_dev_null
00001d78 g     F .text	00000d98 __kernel_rem_pio2
00011e74 g     F .text	00000020 alt_dcache_flush_all
0000b66c g     F .text	00000068 __hi0bits
000058b8 g     F .text	00000080 .hidden __fixdfsi
00015080 g       *ABS*	00000000 __ram_rwdata_end
00015060 g     O .rwdata	00000008 alt_dev_list
000108c4 g     F .text	00000100 write
00013498 g       *ABS*	00000000 __ram_rodata_end
0001017c g     F .text	000000b8 fstat
00000000 g       *ABS*	00000000 __alt_mem_SDRAM
0000ff0c g     F .text	000000f4 .hidden __ledf2
0000ba4c g     F .text	00000140 __pow5mult
0000c894 g     F .text	0000150c ___vfiprintf_internal_r
00016c84 g     O .bss	00000004 __nlocale_changed
000032f0 g     F .text	00000058 .hidden __umodsi3
00016ddc g       *ABS*	00000000 end
000111f8 g     F .text	000000c0 altera_avalon_jtag_uart_init
000001d0 g     F .exceptions	00000060 alt_instruction_exception_entry
00012f2c g       *ABS*	00000000 __CTOR_LIST__
04000000 g       *ABS*	00000000 __alt_stack_pointer
00011b74 g     F .text	0000007c alt_avalon_timer_sc_init
00005abc g     F .text	00000064 .hidden __clzsi2
000118d8 g     F .text	00000224 altera_avalon_jtag_uart_write
00000f8c g     F .text	000000ec cos
00009f5c g     F .text	00000004 __sfp_lock_acquire
0000affc g     F .text	000000e4 memchr
00005b8c g     F .text	000022dc ___vfprintf_internal_r
0000a0c0 g     F .text	00000310 _free_r
0000a5e0 g     F .text	00000010 __locale_mb_cur_max
00012d78 g     F .text	00000180 __call_exitprocs
00016c80 g     O .bss	00000004 __mlocale_changed
0001504c g     O .rwdata	00000004 __malloc_sbrk_base
00000230 g     F .text	0000003c _start
00016ca8 g     O .bss	00000004 _alt_tick_rate
00001078 g     F .text	000000f0 sin
0000bb8c g     F .text	00000148 __lshift
00016cac g     O .bss	00000004 _alt_nticks
00010620 g     F .text	00000104 read
00010a30 g     F .text	00000664 alt_sys_init
00012c60 g     F .text	00000118 __register_exitproc
0000b7c0 g     F .text	0000028c __multiply
00011564 g     F .text	00000068 altera_avalon_jtag_uart_close
00003348 g     F .text	00000028 .hidden __mulsi3
00013498 g       *ABS*	00000000 __ram_rwdata_start
00012f2c g       *ABS*	00000000 __ram_rodata_start
00016cb4 g     O .bss	00000028 __malloc_current_mallinfo
0000c0a0 g     F .text	0000014c __d2b
00011094 g     F .text	00000060 altera_avalon_jtag_uart_read_fd
00012a38 g     F .text	000000c4 alt_get_fd
00011d1c g     F .text	00000158 alt_busy_sleep
0000ded8 g     F .text	00000054 _close_r
00012be4 g     F .text	0000007c memcmp
00011154 g     F .text	00000050 altera_avalon_jtag_uart_close_fd
00016ddc g       *ABS*	00000000 __alt_stack_base
000111a4 g     F .text	00000054 altera_avalon_jtag_uart_ioctl_fd
00007f40 g     F .text	00000154 __swsetup_r
00003c1c g     F .text	000009d0 .hidden __divdf3
00009e1c g     F .text	00000118 __sfp
0000c304 g     F .text	00000078 __copybits
00013934 g     O .rwdata	00000408 __malloc_av_
00009f68 g     F .text	00000004 __sinit_lock_release
00004750 g     F .text	0000086c .hidden __muldf3
0000c4d0 g     F .text	00000054 __sread
00012930 g     F .text	00000108 alt_find_file
00011ed0 g     F .text	000000a4 alt_dev_llist_insert
0001059c g     F .text	00000024 __malloc_lock
000107a8 g     F .text	000000b0 sbrk
00009b60 g     F .text	0000005c _fflush_r
0000df2c g     F .text	000000dc _calloc_r
00016c68 g       *ABS*	00000000 __bss_start
0000b228 g     F .text	00000128 memset
000009fc g     F .text	00000590 main
00016ca0 g     O .bss	00000004 alt_envp
00016c88 g     O .bss	00000004 __malloc_max_total_mem
000110f4 g     F .text	00000060 altera_avalon_jtag_uart_write_fd
0000f14c g     F .text	00000018 __swbuf
0000c604 g     F .text	00000008 __sclose
04000000 g       *ABS*	00000000 __alt_heap_limit
0000e0f8 g     F .text	00000014 fclose
000082bc g     F .text	00001688 _dtoa_r
0000a7f0 g     F .text	0000080c _malloc_r
0000f2c0 g     F .text	00000030 __ascii_wctomb
0001506c g     O .rwdata	00000004 alt_errno
0000a3d0 g     F .text	000000c4 _fwalk
00003194 g     F .text	00000084 .hidden __divsi3
00009f9c g     F .text	00000124 _malloc_trim_r
00012f2c g       *ABS*	00000000 __CTOR_END__
0000c60c g     F .text	000000dc strcmp
00012f2c g       *ABS*	00000000 __flash_rodata_start
00012f2c g       *ABS*	00000000 __DTOR_LIST__
00003178 g     F .text	0000001c copysign
000045ec g     F .text	00000088 .hidden __nedf2
000109f8 g     F .text	00000038 alt_irq_init
00010724 g     F .text	00000084 alt_release_fd
00013120 g     O .rodata	00000100 .hidden __clz_tab
00016c7c g     O .bss	00000004 _PathLocale
00012b98 g     F .text	00000014 atexit
0000de78 g     F .text	00000060 _write_r
0000a610 g     F .text	00000018 setlocale
00015044 g     O .rwdata	00000004 _impure_ptr
00016c98 g     O .bss	00000004 alt_argc
00009944 g     F .text	0000021c __sflush_r
00002fdc g     F .text	0000019c scalbn
00011fd4 g     F .text	00000060 _do_dtors
0000a5fc g     F .text	00000008 __locale_cjk_lang
09000000 g       *ABS*	00000000 __alt_mem_VGA_Subsystem_Char_Buf_Subsystem_Onchip_SRAM
00000020 g       .exceptions	00000000 alt_irq_entry
0000bf30 g     F .text	00000064 __ulp
00009f84 g     F .text	00000018 __fp_unlock_all
00015058 g     O .rwdata	00000008 alt_fs_list
00000020 g       *ABS*	00000000 __ram_exceptions_start
0000a628 g     F .text	0000000c localeconv
00012054 g     F .text	00000050 alt_ic_isr_register
00015080 g       *ABS*	00000000 _edata
00016ddc g       *ABS*	00000000 _end
0000e10c g     F .text	00000164 __fputwc
00000230 g       *ABS*	00000000 __ram_exceptions_end
000115cc g     F .text	000000f0 altera_avalon_jtag_uart_ioctl
08000000 g       *ABS*	00000000 __alt_mem_Onchip_SRAM
0001212c g     F .text	0000008c alt_ic_irq_disable
0000c52c g     F .text	0000007c __swrite
00015050 g     O .rwdata	00000004 __malloc_trim_threshold
0000a5f0 g     F .text	0000000c __locale_msgcharset
00012bac g     F .text	00000038 exit
0000a494 g     F .text	000000c4 _fwalk_reent
0000bd34 g     F .text	000001fc __mdiff
00003218 g     F .text	00000074 .hidden __modsi3
04000000 g       *ABS*	00000000 __alt_data_end
00000020 g     F .exceptions	00000000 alt_exception
00009f60 g     F .text	00000004 __sfp_lock_release
00012ef8 g     F .text	00000034 _exit
00011bf0 g     F .text	0000012c alt_alarm_start
0000a634 g     F .text	000001bc __smakebuf_r
0000c6e8 g     F .text	00000098 strlen
0001257c g     F .text	0000015c open
00004674 g     F .text	000000dc .hidden __gedf2
00015054 g     O .rwdata	00000004 __wctomb
0000c87c g     F .text	00000018 __sprint_r
00012034 g     F .text	00000020 alt_icache_flush_all
00015074 g     O .rwdata	00000004 alt_priority_mask
000120a4 g     F .text	00000088 alt_ic_irq_enable
00007e68 g     F .text	0000001c __vfprintf_internal
0000f2f0 g     F .text	0000005c _wctomb_r
00004fbc g     F .text	000008fc .hidden __subdf3
0000b6d4 g     F .text	000000b0 __lo0bits
00015078 g     O .rwdata	00000008 alt_alarm_list
00011f74 g     F .text	00000060 _do_ctors
0000f200 g     F .text	000000c0 wcrtomb
0001003c g     F .text	000000d8 close
00010384 g     F .text	00000084 alt_load
0000e294 g     F .text	00000080 fputwc
00009f64 g     F .text	00000004 __sinit_lock_acquire
0000b420 g     F .text	00000148 __multadd
0000b3f8 g     F .text	00000028 _Bfree



Disassembly of section .entry:

00000000 <__reset>:
 * Jump to the _start entry point in the .text section if reset code
 * is allowed or if optimizing for RTL simulation.
 */
#if defined(ALT_ALLOW_CODE_AT_RESET) || defined(ALT_SIM_OPTIMIZE)
    /* Jump to the _start entry point in the .text section. */
    movhi r1, %hi(_start)
   0:	00400034 	movhi	at,0
    ori r1, r1, %lo(_start)
   4:	08408c14 	ori	at,at,560
    jmp r1
   8:	0800683a 	jmp	at
	...

Disassembly of section .exceptions:

00000020 <alt_exception>:

#else /* ALT_EXCEPTION_STACK disabled */
        /* 
         * Reserve space on normal stack for registers about to be pushed.
         */
        addi  sp, sp, -76
  20:	deffed04 	addi	sp,sp,-76
         * documentation for details).
         *
         * Leave a gap in the stack frame at 4(sp) for the muldiv handler to
         * store zero into.
         */
        stw   ra,  0(sp)
  24:	dfc00015 	stw	ra,0(sp)
        stw   r1,   8(sp)
  28:	d8400215 	stw	at,8(sp)
        stw   r2,  12(sp)
  2c:	d8800315 	stw	r2,12(sp)
        stw   r3,  16(sp)
  30:	d8c00415 	stw	r3,16(sp)
        stw   r4,  20(sp)
  34:	d9000515 	stw	r4,20(sp)
        stw   r5,  24(sp)
  38:	d9400615 	stw	r5,24(sp)
        stw   r6,  28(sp)
  3c:	d9800715 	stw	r6,28(sp)
        stw   r7,  32(sp)
  40:	d9c00815 	stw	r7,32(sp)
        rdctl r5, estatus   /* Read early to avoid usage stall */
  44:	000b307a 	rdctl	r5,estatus
        stw   r8,  36(sp)
  48:	da000915 	stw	r8,36(sp)
        stw   r9,  40(sp)
  4c:	da400a15 	stw	r9,40(sp)
        stw   r10, 44(sp)
  50:	da800b15 	stw	r10,44(sp)
        stw   r11, 48(sp)
  54:	dac00c15 	stw	r11,48(sp)
        stw   r12, 52(sp)
  58:	db000d15 	stw	r12,52(sp)
        stw   r13, 56(sp)
  5c:	db400e15 	stw	r13,56(sp)
        stw   r14, 60(sp)
  60:	db800f15 	stw	r14,60(sp)
        stw   r15, 64(sp)
  64:	dbc01015 	stw	r15,64(sp)
        /*
         * ea-4 contains the address of the instruction being executed
         * when the exception occured. For interrupt exceptions, we will
         * will be re-issue the isntruction. Store it in 72(sp)
         */
        stw   r5,  68(sp)  /* estatus */
  68:	d9401115 	stw	r5,68(sp)
        addi  r15, ea, -4  /* instruction that caused exception */
  6c:	ebffff04 	addi	r15,ea,-4
        stw   r15,  72(sp)
  70:	dbc01215 	stw	r15,72(sp)
#else
        /*
         * Test to see if the exception was a software exception or caused 
         * by an external interrupt, and vector accordingly.
         */
        rdctl r4, ipending
  74:	0009313a 	rdctl	r4,ipending
        andi  r2, r5, 1
  78:	2880004c 	andi	r2,r5,1
        beq   r2, zero, .Lnot_irq
  7c:	10000326 	beq	r2,zero,8c <alt_exception+0x6c>
        beq   r4, zero, .Lnot_irq
  80:	20000226 	beq	r4,zero,8c <alt_exception+0x6c>
        /*
         * Now that all necessary registers have been preserved, call 
         * alt_irq_handler() to process the interrupts.
         */

        call alt_irq_handler
  84:	00000fc0 	call	fc <alt_irq_handler>

        .section .exceptions.irqreturn, "xa"

        br    .Lexception_exit
  88:	00000706 	br	a8 <alt_exception+0x88>
         * upon completion, so we write ea (address of instruction *after*
         * the one where the exception occured) into 72(sp). The actual
         * instruction that caused the exception is written in r2, which these
         * handlers will utilize.
         */
        stw ea, 72(sp) /* EA is PC+4 so will skip over instruction causing exception */
  8c:	df401215 	stw	ea,72(sp)
.Lunknown_16bit:
        addi.n r4, r4, 2 /* Need PC+2 to skip over instruction causing exception */
        stw r4, 72(sp)

#else /* CDX is not Enabled and all instructions are 32bits */
        ldw r2, -4(ea) /* Instruction value that caused exception */
  90:	e8bfff17 	ldw	r2,-4(ea)
         * debugger is present) or go into an infinite loop since the
         * handling behavior is undefined; in that case we will not return here.
         */

        /* Load exception-causing address as first argument (r4) */
        addi   r4, ea, -4
  94:	e93fff04 	addi	r4,ea,-4

        /* Call the instruction-exception entry */
        call   alt_instruction_exception_entry
  98:	00001d00 	call	1d0 <alt_instruction_exception_entry>
         * instruction
         *
         * Return code was 0: Skip. The instruction after the exception is
         * already stored in 72(sp).
         */
        bne   r2, r0, .Lexception_exit
  9c:	1000021e 	bne	r2,zero,a8 <alt_exception+0x88>

        /*
         * Otherwise, modify 72(sp) to re-issue the instruction that caused the
         * exception.
         */
        addi  r15, ea, -4  /* instruction that caused exception */
  a0:	ebffff04 	addi	r15,ea,-4
        stw   r15,  72(sp)
  a4:	dbc01215 	stw	r15,72(sp)
        /* 
         * Restore the saved registers, so that all general purpose registers 
         * have been restored to their state at the time the interrupt occured.
         */

        ldw   r5,  68(sp)
  a8:	d9401117 	ldw	r5,68(sp)
        ldw   ea,  72(sp)  /* This becomes the PC once eret is executed */
  ac:	df401217 	ldw	ea,72(sp)
        ldw   ra,   0(sp)
  b0:	dfc00017 	ldw	ra,0(sp)

        wrctl estatus, r5
  b4:	2801707a 	wrctl	estatus,r5

        ldw   r1,   8(sp)
  b8:	d8400217 	ldw	at,8(sp)
        ldw   r2,  12(sp)
  bc:	d8800317 	ldw	r2,12(sp)
        ldw   r3,  16(sp)
  c0:	d8c00417 	ldw	r3,16(sp)
        ldw   r4,  20(sp)
  c4:	d9000517 	ldw	r4,20(sp)
        ldw   r5,  24(sp)
  c8:	d9400617 	ldw	r5,24(sp)
        ldw   r6,  28(sp)
  cc:	d9800717 	ldw	r6,28(sp)
        ldw   r7,  32(sp)
  d0:	d9c00817 	ldw	r7,32(sp)

#if defined(ALT_EXCEPTION_STACK) && defined(ALT_STACK_CHECK)
        ldw   et, %gprel(alt_exception_old_stack_limit)(gp)
#endif

        ldw   r8,  36(sp)
  d4:	da000917 	ldw	r8,36(sp)
        ldw   r9,  40(sp)
  d8:	da400a17 	ldw	r9,40(sp)
        ldw   r10, 44(sp)
  dc:	da800b17 	ldw	r10,44(sp)
        ldw   r11, 48(sp)
  e0:	dac00c17 	ldw	r11,48(sp)
        ldw   r12, 52(sp)
  e4:	db000d17 	ldw	r12,52(sp)
        ldw   r13, 56(sp)
  e8:	db400e17 	ldw	r13,56(sp)
        ldw   r14, 60(sp)
  ec:	db800f17 	ldw	r14,60(sp)
        ldw   r15, 64(sp)
  f0:	dbc01017 	ldw	r15,64(sp)
        stw   et, %gprel(alt_stack_limit_value)(gp)
        stw   zero, %gprel(alt_exception_old_stack_limit)(gp)
#endif /* ALT_STACK_CHECK */
        ldw   sp,  76(sp)
#else /* ALT_EXCEPTION_STACK disabled */
        addi  sp, sp, 76
  f4:	dec01304 	addi	sp,sp,76

        /*
         * Return to the interrupted instruction.
         */

        eret
  f8:	ef80083a 	eret

000000fc <alt_irq_handler>:
 * instruction is present if the macro ALT_CI_INTERRUPT_VECTOR defined.
 */

void alt_irq_handler (void) __attribute__ ((section (".exceptions")));
void alt_irq_handler (void)
{
  fc:	defff904 	addi	sp,sp,-28
 100:	dfc00615 	stw	ra,24(sp)
 104:	df000515 	stw	fp,20(sp)
 108:	df000504 	addi	fp,sp,20
  
  /*
   * Notify the operating system that we are at interrupt level.
   */ 
  
  ALT_OS_INT_ENTER();
 10c:	0001883a 	nop
#ifndef NIOS2_EIC_PRESENT
static ALT_INLINE alt_u32 ALT_ALWAYS_INLINE alt_irq_pending (void)
{
  alt_u32 active;

  NIOS2_READ_IPENDING (active);
 110:	0005313a 	rdctl	r2,ipending
 114:	e0bffe15 	stw	r2,-8(fp)

  return active;
 118:	e0bffe17 	ldw	r2,-8(fp)
   * Consider the case where the high priority interupt is asserted during
   * the interrupt entry sequence for a lower priority interrupt to see why
   * this is the case.
   */

  active = alt_irq_pending ();
 11c:	e0bffb15 	stw	r2,-20(fp)

  do
  {
    i = 0;
 120:	e03ffd15 	stw	zero,-12(fp)
    mask = 1;
 124:	00800044 	movi	r2,1
 128:	e0bffc15 	stw	r2,-16(fp)
     * called to clear the interrupt condition.
     */

    do
    {
      if (active & mask)
 12c:	e0fffb17 	ldw	r3,-20(fp)
 130:	e0bffc17 	ldw	r2,-16(fp)
 134:	1884703a 	and	r2,r3,r2
 138:	10001426 	beq	r2,zero,18c <alt_irq_handler+0x90>
      { 
#ifdef ALT_ENHANCED_INTERRUPT_API_PRESENT
        alt_irq[i].handler(alt_irq[i].context); 
 13c:	00800074 	movhi	r2,1
 140:	109b3704 	addi	r2,r2,27868
 144:	e0fffd17 	ldw	r3,-12(fp)
 148:	180690fa 	slli	r3,r3,3
 14c:	10c5883a 	add	r2,r2,r3
 150:	10c00017 	ldw	r3,0(r2)
 154:	00800074 	movhi	r2,1
 158:	109b3704 	addi	r2,r2,27868
 15c:	e13ffd17 	ldw	r4,-12(fp)
 160:	200890fa 	slli	r4,r4,3
 164:	1105883a 	add	r2,r2,r4
 168:	10800104 	addi	r2,r2,4
 16c:	10800017 	ldw	r2,0(r2)
 170:	1009883a 	mov	r4,r2
 174:	183ee83a 	callr	r3
#else
        alt_irq[i].handler(alt_irq[i].context, i); 
#endif
        break;
 178:	0001883a 	nop
#ifndef NIOS2_EIC_PRESENT
static ALT_INLINE alt_u32 ALT_ALWAYS_INLINE alt_irq_pending (void)
{
  alt_u32 active;

  NIOS2_READ_IPENDING (active);
 17c:	0005313a 	rdctl	r2,ipending
 180:	e0bfff15 	stw	r2,-4(fp)

  return active;
 184:	e0bfff17 	ldw	r2,-4(fp)
 188:	00000706 	br	1a8 <alt_irq_handler+0xac>
      }
      mask <<= 1;
 18c:	e0bffc17 	ldw	r2,-16(fp)
 190:	1085883a 	add	r2,r2,r2
 194:	e0bffc15 	stw	r2,-16(fp)
      i++;
 198:	e0bffd17 	ldw	r2,-12(fp)
 19c:	10800044 	addi	r2,r2,1
 1a0:	e0bffd15 	stw	r2,-12(fp)

    } while (1);
 1a4:	003fe106 	br	12c <__alt_mem_VGA_Subsystem_Char_Buf_Subsystem_Onchip_SRAM+0xf700012c>

    active = alt_irq_pending ();
 1a8:	e0bffb15 	stw	r2,-20(fp)
    
  } while (active);
 1ac:	e0bffb17 	ldw	r2,-20(fp)
 1b0:	103fdb1e 	bne	r2,zero,120 <__alt_mem_VGA_Subsystem_Char_Buf_Subsystem_Onchip_SRAM+0xf7000120>

  /*
   * Notify the operating system that interrupt processing is complete.
   */ 

  ALT_OS_INT_EXIT();
 1b4:	0001883a 	nop
}
 1b8:	0001883a 	nop
 1bc:	e037883a 	mov	sp,fp
 1c0:	dfc00117 	ldw	ra,4(sp)
 1c4:	df000017 	ldw	fp,0(sp)
 1c8:	dec00204 	addi	sp,sp,8
 1cc:	f800283a 	ret

000001d0 <alt_instruction_exception_entry>:
 * that handler if it has been registered. Absent a handler, it will
 * break break or hang as discussed below.
 */
int 
alt_instruction_exception_entry (alt_u32 exception_pc)
{
 1d0:	defffb04 	addi	sp,sp,-20
 1d4:	dfc00415 	stw	ra,16(sp)
 1d8:	df000315 	stw	fp,12(sp)
 1dc:	df000304 	addi	fp,sp,12
 1e0:	e13fff15 	stw	r4,-4(fp)
  cause = ( (cause & NIOS2_EXCEPTION_REG_CAUSE_MASK) >>
              NIOS2_EXCEPTION_REG_CAUSE_OFST );

  NIOS2_READ_BADADDR(badaddr);
#else
  cause = NIOS2_EXCEPTION_CAUSE_NOT_PRESENT;
 1e4:	00bfffc4 	movi	r2,-1
 1e8:	e0bffd15 	stw	r2,-12(fp)
  badaddr = 0;
 1ec:	e03ffe15 	stw	zero,-8(fp)
#endif /* NIOS2_HAS_EXTRA_EXCEPTION_INFO */

  if(alt_instruction_exception_handler) {
 1f0:	d0a71c17 	ldw	r2,-25488(gp)
 1f4:	10000726 	beq	r2,zero,214 <alt_instruction_exception_entry+0x44>
     * Call handler. Its return value indicates whether the exception-causing
     * instruction should be re-issued. The code that called us,
     * alt_eceptions_entry.S, will look at this value and adjust the ea
     * register as necessary
     */
    return alt_instruction_exception_handler(cause, exception_pc, badaddr);
 1f8:	d0a71c17 	ldw	r2,-25488(gp)
 1fc:	e0fffd17 	ldw	r3,-12(fp)
 200:	e1bffe17 	ldw	r6,-8(fp)
 204:	e17fff17 	ldw	r5,-4(fp)
 208:	1809883a 	mov	r4,r3
 20c:	103ee83a 	callr	r2
 210:	00000206 	br	21c <alt_instruction_exception_entry+0x4c>
   *    (a peripheral which negates its interrupt output before its
   *    interrupt handler has been executed will cause spurious interrupts)
   */
  else {
#ifdef NIOS2_HAS_DEBUG_STUB
    NIOS2_BREAK();
 214:	003da03a 	break	0
      ;
#endif /* NIOS2_HAS_DEBUG_STUB */
  }

  /* We should not get here. Remove compiler warning. */
  return NIOS2_EXCEPTION_RETURN_REISSUE_INST;
 218:	0005883a 	mov	r2,zero
}
 21c:	e037883a 	mov	sp,fp
 220:	dfc00117 	ldw	ra,4(sp)
 224:	df000017 	ldw	fp,0(sp)
 228:	dec00204 	addi	sp,sp,8
 22c:	f800283a 	ret

Disassembly of section .text:

00000230 <_start>:

    /*
     * Now that the caches are initialized, set up the stack pointer and global pointer.
     * The values provided by the linker are assumed to be correctly aligned.
     */
    movhi sp, %hi(__alt_stack_pointer)
     230:	06c10034 	movhi	sp,1024
    ori sp, sp, %lo(__alt_stack_pointer)
     234:	dec00014 	ori	sp,sp,0
    movhi gp, %hi(_gp)
     238:	06800074 	movhi	gp,1
    ori gp, gp, %lo(_gp)
     23c:	d6b41014 	ori	gp,gp,53312
 */
#ifndef ALT_SIM_OPTIMIZE
    /* Log that the BSS is about to be cleared. */
    ALT_LOG_PUTS(alt_log_msg_bss)

    movhi r2, %hi(__bss_start)
     240:	00800074 	movhi	r2,1
    ori r2, r2, %lo(__bss_start)
     244:	109b1a14 	ori	r2,r2,27752

    movhi r3, %hi(__bss_end)
     248:	00c00074 	movhi	r3,1
    ori r3, r3, %lo(__bss_end)
     24c:	18db7714 	ori	r3,r3,28124

    beq r2, r3, 1f
     250:	10c00326 	beq	r2,r3,260 <_start+0x30>

0:
    stw zero, (r2)
     254:	10000015 	stw	zero,0(r2)
    addi r2, r2, 4
     258:	10800104 	addi	r2,r2,4
    bltu r2, r3, 0b
     25c:	10fffd36 	bltu	r2,r3,254 <__alt_mem_VGA_Subsystem_Char_Buf_Subsystem_Onchip_SRAM+0xf7000254>
     * section aren't defined until alt_load() has been called).
     */
    mov   et, zero
#endif

    call alt_load
     260:	00103840 	call	10384 <alt_load>

    /* Log that alt_main is about to be called. */
    ALT_LOG_PUTS(alt_log_msg_alt_main)

    /* Call the C entry point. It should never return. */
    call alt_main
     264:	00105200 	call	10520 <alt_main>

00000268 <alt_after_alt_main>:

    /* Wait in infinite loop in case alt_main does return. */
alt_after_alt_main:
    br alt_after_alt_main
     268:	003fff06 	br	268 <__alt_mem_VGA_Subsystem_Char_Buf_Subsystem_Onchip_SRAM+0xf7000268>

0000026c <seg7>:
};

static int res_offset, col_offset;
static int cx, cy, radar_r;

static inline uint8_t seg7(uint8_t d) { return (d < 10u) ? SEG7_LUT[d] : 0u; }
     26c:	defffe04 	addi	sp,sp,-8
     270:	df000115 	stw	fp,4(sp)
     274:	df000104 	addi	fp,sp,4
     278:	2005883a 	mov	r2,r4
     27c:	e0bfff05 	stb	r2,-4(fp)
     280:	e0bfff03 	ldbu	r2,-4(fp)
     284:	108002a8 	cmpgeui	r2,r2,10
     288:	1000061e 	bne	r2,zero,2a4 <seg7+0x38>
     28c:	e0ffff03 	ldbu	r3,-4(fp)
     290:	00800074 	movhi	r2,1
     294:	108bcb04 	addi	r2,r2,12076
     298:	10c5883a 	add	r2,r2,r3
     29c:	10800003 	ldbu	r2,0(r2)
     2a0:	00000106 	br	2a8 <seg7+0x3c>
     2a4:	0005883a 	mov	r2,zero
     2a8:	e037883a 	mov	sp,fp
     2ac:	df000017 	ldw	fp,0(sp)
     2b0:	dec00104 	addi	sp,sp,4
     2b4:	f800283a 	ret

000002b8 <split3>:

static inline void split3(uint32_t v, uint8_t *h, uint8_t *t, uint8_t *u)
{
     2b8:	defffa04 	addi	sp,sp,-24
     2bc:	dfc00515 	stw	ra,20(sp)
     2c0:	df000415 	stw	fp,16(sp)
     2c4:	df000404 	addi	fp,sp,16
     2c8:	e13ffc15 	stw	r4,-16(fp)
     2cc:	e17ffd15 	stw	r5,-12(fp)
     2d0:	e1bffe15 	stw	r6,-8(fp)
     2d4:	e1ffff15 	stw	r7,-4(fp)
    if (v > 999u) v = 999u;
     2d8:	e0bffc17 	ldw	r2,-16(fp)
     2dc:	1080fa30 	cmpltui	r2,r2,1000
     2e0:	1000021e 	bne	r2,zero,2ec <split3+0x34>
     2e4:	0080f9c4 	movi	r2,999
     2e8:	e0bffc15 	stw	r2,-16(fp)
    *u = (uint8_t)(v % 10u);
     2ec:	e0bffc17 	ldw	r2,-16(fp)
     2f0:	01400284 	movi	r5,10
     2f4:	1009883a 	mov	r4,r2
     2f8:	00032f00 	call	32f0 <__umodsi3>
     2fc:	1007883a 	mov	r3,r2
     300:	e0bfff17 	ldw	r2,-4(fp)
     304:	10c00005 	stb	r3,0(r2)
    *t = (uint8_t)((v / 10u) % 10u);
     308:	e0bffc17 	ldw	r2,-16(fp)
     30c:	01400284 	movi	r5,10
     310:	1009883a 	mov	r4,r2
     314:	000328c0 	call	328c <__udivsi3>
     318:	01400284 	movi	r5,10
     31c:	1009883a 	mov	r4,r2
     320:	00032f00 	call	32f0 <__umodsi3>
     324:	1007883a 	mov	r3,r2
     328:	e0bffe17 	ldw	r2,-8(fp)
     32c:	10c00005 	stb	r3,0(r2)
    *h = (uint8_t)((v / 100u) % 10u);
     330:	e0bffc17 	ldw	r2,-16(fp)
     334:	01401904 	movi	r5,100
     338:	1009883a 	mov	r4,r2
     33c:	000328c0 	call	328c <__udivsi3>
     340:	01400284 	movi	r5,10
     344:	1009883a 	mov	r4,r2
     348:	00032f00 	call	32f0 <__umodsi3>
     34c:	1007883a 	mov	r3,r2
     350:	e0bffd17 	ldw	r2,-12(fp)
     354:	10c00005 	stb	r3,0(r2)
}
     358:	0001883a 	nop
     35c:	e037883a 	mov	sp,fp
     360:	dfc00117 	ldw	ra,4(sp)
     364:	df000017 	ldw	fp,0(sp)
     368:	dec00204 	addi	sp,sp,8
     36c:	f800283a 	ret

00000370 <pos_from_angle>:

static inline uint32_t pos_from_angle(uint32_t a)
{
     370:	defffd04 	addi	sp,sp,-12
     374:	dfc00215 	stw	ra,8(sp)
     378:	df000115 	stw	fp,4(sp)
     37c:	df000104 	addi	fp,sp,4
     380:	e13fff15 	stw	r4,-4(fp)
    if (a > 180u) a = 180u;
     384:	e0bfff17 	ldw	r2,-4(fp)
     388:	10802d70 	cmpltui	r2,r2,181
     38c:	1000021e 	bne	r2,zero,398 <pos_from_angle+0x28>
     390:	00802d04 	movi	r2,180
     394:	e0bfff15 	stw	r2,-4(fp)
    return (a * 1023u) / 180u;
     398:	0140ffc4 	movi	r5,1023
     39c:	e13fff17 	ldw	r4,-4(fp)
     3a0:	00033480 	call	3348 <__mulsi3>
     3a4:	01402d04 	movi	r5,180
     3a8:	1009883a 	mov	r4,r2
     3ac:	000328c0 	call	328c <__udivsi3>
}
     3b0:	e037883a 	mov	sp,fp
     3b4:	dfc00117 	ldw	ra,4(sp)
     3b8:	df000017 	ldw	fp,0(sp)
     3bc:	dec00204 	addi	sp,sp,8
     3c0:	f800283a 	ret

000003c4 <cm_to_px>:

static inline int cm_to_px(int cm)
{
     3c4:	defffd04 	addi	sp,sp,-12
     3c8:	dfc00215 	stw	ra,8(sp)
     3cc:	df000115 	stw	fp,4(sp)
     3d0:	df000104 	addi	fp,sp,4
     3d4:	e13fff15 	stw	r4,-4(fp)
    if (cm < 0) cm = 0;
     3d8:	e0bfff17 	ldw	r2,-4(fp)
     3dc:	1000010e 	bge	r2,zero,3e4 <cm_to_px+0x20>
     3e0:	e03fff15 	stw	zero,-4(fp)
    if (cm > RADAR_MAX_CM) cm = RADAR_MAX_CM;
     3e4:	e0bfff17 	ldw	r2,-4(fp)
     3e8:	10801310 	cmplti	r2,r2,76
     3ec:	1000021e 	bne	r2,zero,3f8 <cm_to_px+0x34>
     3f0:	008012c4 	movi	r2,75
     3f4:	e0bfff15 	stw	r2,-4(fp)
    return (cm * radar_r) / RADAR_MAX_CM;
     3f8:	d0a70e17 	ldw	r2,-25544(gp)
     3fc:	e17fff17 	ldw	r5,-4(fp)
     400:	1009883a 	mov	r4,r2
     404:	00033480 	call	3348 <__mulsi3>
     408:	014012c4 	movi	r5,75
     40c:	1009883a 	mov	r4,r2
     410:	00031940 	call	3194 <__divsi3>
}
     414:	e037883a 	mov	sp,fp
     418:	dfc00117 	ldw	ra,4(sp)
     41c:	df000017 	ldw	fp,0(sp)
     420:	dec00204 	addi	sp,sp,8
     424:	f800283a 	ret

00000428 <video_box>:

static void video_box(int x1, int y1, int x2, int y2, uint16_t color)
{
     428:	defff304 	addi	sp,sp,-52
     42c:	dfc00c15 	stw	ra,48(sp)
     430:	df000b15 	stw	fp,44(sp)
     434:	df000b04 	addi	fp,sp,44
     438:	e13ffb15 	stw	r4,-20(fp)
     43c:	e17ffc15 	stw	r5,-16(fp)
     440:	e1bffd15 	stw	r6,-12(fp)
     444:	e1fffe15 	stw	r7,-8(fp)
     448:	e0800217 	ldw	r2,8(fp)
     44c:	e0bfff0d 	sth	r2,-4(fp)
    int base = *(volatile int *)PIXEL_BUF_CTRL_BASE;
     450:	00bfc834 	movhi	r2,65312
     454:	108c0804 	addi	r2,r2,12320
     458:	10800017 	ldw	r2,0(r2)
     45c:	e0bff715 	stw	r2,-36(fp)

    int xf = 1 << (res_offset + col_offset);
     460:	d0e70a17 	ldw	r3,-25560(gp)
     464:	d0a70b17 	ldw	r2,-25556(gp)
     468:	1885883a 	add	r2,r3,r2
     46c:	00c00044 	movi	r3,1
     470:	1884983a 	sll	r2,r3,r2
     474:	e0bff815 	stw	r2,-32(fp)
    int yf = 1 << res_offset;
     478:	d0a70a17 	ldw	r2,-25560(gp)
     47c:	00c00044 	movi	r3,1
     480:	1884983a 	sll	r2,r3,r2
     484:	e0bff915 	stw	r2,-28(fp)

    x1 /= xf; x2 /= xf;
     488:	e17ff817 	ldw	r5,-32(fp)
     48c:	e13ffb17 	ldw	r4,-20(fp)
     490:	00031940 	call	3194 <__divsi3>
     494:	e0bffb15 	stw	r2,-20(fp)
     498:	e17ff817 	ldw	r5,-32(fp)
     49c:	e13ffd17 	ldw	r4,-12(fp)
     4a0:	00031940 	call	3194 <__divsi3>
     4a4:	e0bffd15 	stw	r2,-12(fp)
    y1 /= yf; y2 /= yf;
     4a8:	e17ff917 	ldw	r5,-28(fp)
     4ac:	e13ffc17 	ldw	r4,-16(fp)
     4b0:	00031940 	call	3194 <__divsi3>
     4b4:	e0bffc15 	stw	r2,-16(fp)
     4b8:	e17ff917 	ldw	r5,-28(fp)
     4bc:	e13ffe17 	ldw	r4,-8(fp)
     4c0:	00031940 	call	3194 <__divsi3>
     4c4:	e0bffe15 	stw	r2,-8(fp)

    for (int row = y1; row <= y2; row++) {
     4c8:	e0bffc17 	ldw	r2,-16(fp)
     4cc:	e0bff515 	stw	r2,-44(fp)
     4d0:	00001c06 	br	544 <video_box+0x11c>
        for (int col = x1; col <= x2; col++) {
     4d4:	e0bffb17 	ldw	r2,-20(fp)
     4d8:	e0bff615 	stw	r2,-40(fp)
     4dc:	00001306 	br	52c <video_box+0x104>
            int ptr = base + (row << (10 - res_offset - col_offset)) + (col << 1);
     4e0:	d0a70a17 	ldw	r2,-25560(gp)
     4e4:	00c00284 	movi	r3,10
     4e8:	1887c83a 	sub	r3,r3,r2
     4ec:	d0a70b17 	ldw	r2,-25556(gp)
     4f0:	1885c83a 	sub	r2,r3,r2
     4f4:	e0fff517 	ldw	r3,-44(fp)
     4f8:	1886983a 	sll	r3,r3,r2
     4fc:	e0bff717 	ldw	r2,-36(fp)
     500:	1887883a 	add	r3,r3,r2
     504:	e0bff617 	ldw	r2,-40(fp)
     508:	1085883a 	add	r2,r2,r2
     50c:	1885883a 	add	r2,r3,r2
     510:	e0bffa15 	stw	r2,-24(fp)
            *(volatile uint16_t *)ptr = color;
     514:	e0bffa17 	ldw	r2,-24(fp)
     518:	e0ffff0b 	ldhu	r3,-4(fp)
     51c:	10c0000d 	sth	r3,0(r2)

    x1 /= xf; x2 /= xf;
    y1 /= yf; y2 /= yf;

    for (int row = y1; row <= y2; row++) {
        for (int col = x1; col <= x2; col++) {
     520:	e0bff617 	ldw	r2,-40(fp)
     524:	10800044 	addi	r2,r2,1
     528:	e0bff615 	stw	r2,-40(fp)
     52c:	e0bff617 	ldw	r2,-40(fp)
     530:	e0fffd17 	ldw	r3,-12(fp)
     534:	18bfea0e 	bge	r3,r2,4e0 <__alt_mem_VGA_Subsystem_Char_Buf_Subsystem_Onchip_SRAM+0xf70004e0>
    int yf = 1 << res_offset;

    x1 /= xf; x2 /= xf;
    y1 /= yf; y2 /= yf;

    for (int row = y1; row <= y2; row++) {
     538:	e0bff517 	ldw	r2,-44(fp)
     53c:	10800044 	addi	r2,r2,1
     540:	e0bff515 	stw	r2,-44(fp)
     544:	e0bff517 	ldw	r2,-44(fp)
     548:	e0fffe17 	ldw	r3,-8(fp)
     54c:	18bfe10e 	bge	r3,r2,4d4 <__alt_mem_VGA_Subsystem_Char_Buf_Subsystem_Onchip_SRAM+0xf70004d4>
        for (int col = x1; col <= x2; col++) {
            int ptr = base + (row << (10 - res_offset - col_offset)) + (col << 1);
            *(volatile uint16_t *)ptr = color;
        }
    }
}
     550:	0001883a 	nop
     554:	e037883a 	mov	sp,fp
     558:	dfc00117 	ldw	ra,4(sp)
     55c:	df000017 	ldw	fp,0(sp)
     560:	dec00204 	addi	sp,sp,8
     564:	f800283a 	ret

00000568 <clear_char_buffer>:

static void clear_char_buffer(void)
{
     568:	defffb04 	addi	sp,sp,-20
     56c:	df000415 	stw	fp,16(sp)
     570:	df000404 	addi	fp,sp,16
    volatile char *cb = (volatile char *)CHAR_BUF_BASE;
     574:	00824034 	movhi	r2,2304
     578:	e0bffe15 	stw	r2,-8(fp)
    for (int y = 0; y < 60; y++) {
     57c:	e03ffc15 	stw	zero,-16(fp)
     580:	00001606 	br	5dc <clear_char_buffer+0x74>
        int off = (y << 7);
     584:	e0bffc17 	ldw	r2,-16(fp)
     588:	100491fa 	slli	r2,r2,7
     58c:	e0bfff15 	stw	r2,-4(fp)
        for (int x = 0; x < 128; x++) {
     590:	e03ffd15 	stw	zero,-12(fp)
     594:	00000b06 	br	5c4 <clear_char_buffer+0x5c>
            cb[off + x] = ' ';
     598:	e0ffff17 	ldw	r3,-4(fp)
     59c:	e0bffd17 	ldw	r2,-12(fp)
     5a0:	1885883a 	add	r2,r3,r2
     5a4:	1007883a 	mov	r3,r2
     5a8:	e0bffe17 	ldw	r2,-8(fp)
     5ac:	10c5883a 	add	r2,r2,r3
     5b0:	00c00804 	movi	r3,32
     5b4:	10c00005 	stb	r3,0(r2)
static void clear_char_buffer(void)
{
    volatile char *cb = (volatile char *)CHAR_BUF_BASE;
    for (int y = 0; y < 60; y++) {
        int off = (y << 7);
        for (int x = 0; x < 128; x++) {
     5b8:	e0bffd17 	ldw	r2,-12(fp)
     5bc:	10800044 	addi	r2,r2,1
     5c0:	e0bffd15 	stw	r2,-12(fp)
     5c4:	e0bffd17 	ldw	r2,-12(fp)
     5c8:	10802010 	cmplti	r2,r2,128
     5cc:	103ff21e 	bne	r2,zero,598 <__alt_mem_VGA_Subsystem_Char_Buf_Subsystem_Onchip_SRAM+0xf7000598>
}

static void clear_char_buffer(void)
{
    volatile char *cb = (volatile char *)CHAR_BUF_BASE;
    for (int y = 0; y < 60; y++) {
     5d0:	e0bffc17 	ldw	r2,-16(fp)
     5d4:	10800044 	addi	r2,r2,1
     5d8:	e0bffc15 	stw	r2,-16(fp)
     5dc:	e0bffc17 	ldw	r2,-16(fp)
     5e0:	10800f10 	cmplti	r2,r2,60
     5e4:	103fe71e 	bne	r2,zero,584 <__alt_mem_VGA_Subsystem_Char_Buf_Subsystem_Onchip_SRAM+0xf7000584>
        int off = (y << 7);
        for (int x = 0; x < 128; x++) {
            cb[off + x] = ' ';
        }
    }
}
     5e8:	0001883a 	nop
     5ec:	e037883a 	mov	sp,fp
     5f0:	df000017 	ldw	fp,0(sp)
     5f4:	dec00104 	addi	sp,sp,4
     5f8:	f800283a 	ret

000005fc <plot>:

static void plot(int x, int y, uint16_t c)
{
     5fc:	defff704 	addi	sp,sp,-36
     600:	dfc00815 	stw	ra,32(sp)
     604:	df000715 	stw	fp,28(sp)
     608:	df000704 	addi	fp,sp,28
     60c:	e13ffd15 	stw	r4,-12(fp)
     610:	e17ffe15 	stw	r5,-8(fp)
     614:	3005883a 	mov	r2,r6
     618:	e0bfff0d 	sth	r2,-4(fp)
    if (x < 0 || x >= SCREEN_W || y < 0 || y >= SCREEN_H) return;
     61c:	e0bffd17 	ldw	r2,-12(fp)
     620:	10002f16 	blt	r2,zero,6e0 <plot+0xe4>
     624:	e0bffd17 	ldw	r2,-12(fp)
     628:	10805008 	cmpgei	r2,r2,320
     62c:	10002c1e 	bne	r2,zero,6e0 <plot+0xe4>
     630:	e0bffe17 	ldw	r2,-8(fp)
     634:	10002a16 	blt	r2,zero,6e0 <plot+0xe4>
     638:	e0bffe17 	ldw	r2,-8(fp)
     63c:	10803c10 	cmplti	r2,r2,240
     640:	10002726 	beq	r2,zero,6e0 <plot+0xe4>

    int base = *(volatile int *)PIXEL_BUF_CTRL_BASE;
     644:	00bfc834 	movhi	r2,65312
     648:	108c0804 	addi	r2,r2,12320
     64c:	10800017 	ldw	r2,0(r2)
     650:	e0bff915 	stw	r2,-28(fp)
    int xf = 1 << (res_offset + col_offset);
     654:	d0e70a17 	ldw	r3,-25560(gp)
     658:	d0a70b17 	ldw	r2,-25556(gp)
     65c:	1885883a 	add	r2,r3,r2
     660:	00c00044 	movi	r3,1
     664:	1884983a 	sll	r2,r3,r2
     668:	e0bffa15 	stw	r2,-24(fp)
    int yf = 1 << res_offset;
     66c:	d0a70a17 	ldw	r2,-25560(gp)
     670:	00c00044 	movi	r3,1
     674:	1884983a 	sll	r2,r3,r2
     678:	e0bffb15 	stw	r2,-20(fp)

    x /= xf;
     67c:	e17ffa17 	ldw	r5,-24(fp)
     680:	e13ffd17 	ldw	r4,-12(fp)
     684:	00031940 	call	3194 <__divsi3>
     688:	e0bffd15 	stw	r2,-12(fp)
    y /= yf;
     68c:	e17ffb17 	ldw	r5,-20(fp)
     690:	e13ffe17 	ldw	r4,-8(fp)
     694:	00031940 	call	3194 <__divsi3>
     698:	e0bffe15 	stw	r2,-8(fp)

    int ptr = base + (y << (10 - res_offset - col_offset)) + (x << 1);
     69c:	d0a70a17 	ldw	r2,-25560(gp)
     6a0:	00c00284 	movi	r3,10
     6a4:	1887c83a 	sub	r3,r3,r2
     6a8:	d0a70b17 	ldw	r2,-25556(gp)
     6ac:	1885c83a 	sub	r2,r3,r2
     6b0:	e0fffe17 	ldw	r3,-8(fp)
     6b4:	1886983a 	sll	r3,r3,r2
     6b8:	e0bff917 	ldw	r2,-28(fp)
     6bc:	1887883a 	add	r3,r3,r2
     6c0:	e0bffd17 	ldw	r2,-12(fp)
     6c4:	1085883a 	add	r2,r2,r2
     6c8:	1885883a 	add	r2,r3,r2
     6cc:	e0bffc15 	stw	r2,-16(fp)
    *(volatile uint16_t *)ptr = c;
     6d0:	e0bffc17 	ldw	r2,-16(fp)
     6d4:	e0ffff0b 	ldhu	r3,-4(fp)
     6d8:	10c0000d 	sth	r3,0(r2)
     6dc:	00000106 	br	6e4 <plot+0xe8>
    }
}

static void plot(int x, int y, uint16_t c)
{
    if (x < 0 || x >= SCREEN_W || y < 0 || y >= SCREEN_H) return;
     6e0:	0001883a 	nop
    x /= xf;
    y /= yf;

    int ptr = base + (y << (10 - res_offset - col_offset)) + (x << 1);
    *(volatile uint16_t *)ptr = c;
}
     6e4:	e037883a 	mov	sp,fp
     6e8:	dfc00117 	ldw	ra,4(sp)
     6ec:	df000017 	ldw	fp,0(sp)
     6f0:	dec00204 	addi	sp,sp,8
     6f4:	f800283a 	ret

000006f8 <draw_line>:

static void draw_line(int x0, int y0, int x1, int y1, uint16_t c)
{
     6f8:	defff304 	addi	sp,sp,-52
     6fc:	dfc00c15 	stw	ra,48(sp)
     700:	df000b15 	stw	fp,44(sp)
     704:	df000b04 	addi	fp,sp,44
     708:	e13ffb15 	stw	r4,-20(fp)
     70c:	e17ffc15 	stw	r5,-16(fp)
     710:	e1bffd15 	stw	r6,-12(fp)
     714:	e1fffe15 	stw	r7,-8(fp)
     718:	e0800217 	ldw	r2,8(fp)
     71c:	e0bfff0d 	sth	r2,-4(fp)
    int dx = abs(x1 - x0), sx = (x0 < x1) ? 1 : -1;
     720:	e0fffd17 	ldw	r3,-12(fp)
     724:	e0bffb17 	ldw	r2,-20(fp)
     728:	1885c83a 	sub	r2,r3,r2
     72c:	1000010e 	bge	r2,zero,734 <draw_line+0x3c>
     730:	0085c83a 	sub	r2,zero,r2
     734:	e0bff615 	stw	r2,-40(fp)
     738:	e0fffb17 	ldw	r3,-20(fp)
     73c:	e0bffd17 	ldw	r2,-12(fp)
     740:	1880020e 	bge	r3,r2,74c <draw_line+0x54>
     744:	00800044 	movi	r2,1
     748:	00000106 	br	750 <draw_line+0x58>
     74c:	00bfffc4 	movi	r2,-1
     750:	e0bff715 	stw	r2,-36(fp)
    int dy = -abs(y1 - y0), sy = (y0 < y1) ? 1 : -1;
     754:	e0fffe17 	ldw	r3,-8(fp)
     758:	e0bffc17 	ldw	r2,-16(fp)
     75c:	1885c83a 	sub	r2,r3,r2
     760:	1000010e 	bge	r2,zero,768 <draw_line+0x70>
     764:	0085c83a 	sub	r2,zero,r2
     768:	0085c83a 	sub	r2,zero,r2
     76c:	e0bff815 	stw	r2,-32(fp)
     770:	e0fffc17 	ldw	r3,-16(fp)
     774:	e0bffe17 	ldw	r2,-8(fp)
     778:	1880020e 	bge	r3,r2,784 <draw_line+0x8c>
     77c:	00800044 	movi	r2,1
     780:	00000106 	br	788 <draw_line+0x90>
     784:	00bfffc4 	movi	r2,-1
     788:	e0bff915 	stw	r2,-28(fp)
    int err = dx + dy;
     78c:	e0fff617 	ldw	r3,-40(fp)
     790:	e0bff817 	ldw	r2,-32(fp)
     794:	1885883a 	add	r2,r3,r2
     798:	e0bff515 	stw	r2,-44(fp)

    for (;;) {
        plot(x0, y0, c);
     79c:	e0bfff0b 	ldhu	r2,-4(fp)
     7a0:	100d883a 	mov	r6,r2
     7a4:	e17ffc17 	ldw	r5,-16(fp)
     7a8:	e13ffb17 	ldw	r4,-20(fp)
     7ac:	00005fc0 	call	5fc <plot>
        if (x0 == x1 && y0 == y1) break;
     7b0:	e0fffb17 	ldw	r3,-20(fp)
     7b4:	e0bffd17 	ldw	r2,-12(fp)
     7b8:	1880031e 	bne	r3,r2,7c8 <draw_line+0xd0>
     7bc:	e0fffc17 	ldw	r3,-16(fp)
     7c0:	e0bffe17 	ldw	r2,-8(fp)
     7c4:	18801a26 	beq	r3,r2,830 <draw_line+0x138>
        int e2 = 2 * err;
     7c8:	e0bff517 	ldw	r2,-44(fp)
     7cc:	1085883a 	add	r2,r2,r2
     7d0:	e0bffa15 	stw	r2,-24(fp)
        if (e2 >= dy) { err += dy; x0 += sx; }
     7d4:	e0fffa17 	ldw	r3,-24(fp)
     7d8:	e0bff817 	ldw	r2,-32(fp)
     7dc:	18800816 	blt	r3,r2,800 <draw_line+0x108>
     7e0:	e0fff517 	ldw	r3,-44(fp)
     7e4:	e0bff817 	ldw	r2,-32(fp)
     7e8:	1885883a 	add	r2,r3,r2
     7ec:	e0bff515 	stw	r2,-44(fp)
     7f0:	e0fffb17 	ldw	r3,-20(fp)
     7f4:	e0bff717 	ldw	r2,-36(fp)
     7f8:	1885883a 	add	r2,r3,r2
     7fc:	e0bffb15 	stw	r2,-20(fp)
        if (e2 <= dx) { err += dx; y0 += sy; }
     800:	e0bffa17 	ldw	r2,-24(fp)
     804:	e0fff617 	ldw	r3,-40(fp)
     808:	18bfe416 	blt	r3,r2,79c <__alt_mem_VGA_Subsystem_Char_Buf_Subsystem_Onchip_SRAM+0xf700079c>
     80c:	e0fff517 	ldw	r3,-44(fp)
     810:	e0bff617 	ldw	r2,-40(fp)
     814:	1885883a 	add	r2,r3,r2
     818:	e0bff515 	stw	r2,-44(fp)
     81c:	e0fffc17 	ldw	r3,-16(fp)
     820:	e0bff917 	ldw	r2,-28(fp)
     824:	1885883a 	add	r2,r3,r2
     828:	e0bffc15 	stw	r2,-16(fp)
    }
     82c:	003fdb06 	br	79c <__alt_mem_VGA_Subsystem_Char_Buf_Subsystem_Onchip_SRAM+0xf700079c>
    int dy = -abs(y1 - y0), sy = (y0 < y1) ? 1 : -1;
    int err = dx + dy;

    for (;;) {
        plot(x0, y0, c);
        if (x0 == x1 && y0 == y1) break;
     830:	0001883a 	nop
        int e2 = 2 * err;
        if (e2 >= dy) { err += dy; x0 += sx; }
        if (e2 <= dx) { err += dx; y0 += sy; }
    }
}
     834:	0001883a 	nop
     838:	e037883a 	mov	sp,fp
     83c:	dfc00117 	ldw	ra,4(sp)
     840:	df000017 	ldw	fp,0(sp)
     844:	dec00204 	addi	sp,sp,8
     848:	f800283a 	ret

0000084c <draw_arc>:

static void draw_arc(int cm, uint16_t c)
{
     84c:	defff304 	addi	sp,sp,-52
     850:	dfc00c15 	stw	ra,48(sp)
     854:	df000b15 	stw	fp,44(sp)
     858:	dc800a15 	stw	r18,40(sp)
     85c:	dc400915 	stw	r17,36(sp)
     860:	dc000815 	stw	r16,32(sp)
     864:	df000b04 	addi	fp,sp,44
     868:	e13ffb15 	stw	r4,-20(fp)
     86c:	2805883a 	mov	r2,r5
     870:	e0bffc0d 	sth	r2,-16(fp)
    int r = cm_to_px(cm);
     874:	e13ffb17 	ldw	r4,-20(fp)
     878:	00003c40 	call	3c4 <cm_to_px>
     87c:	e0bff615 	stw	r2,-40(fp)
    for (int a = 0; a <= 180; a += 2) {
     880:	e03ff515 	stw	zero,-44(fp)
     884:	00005106 	br	9cc <draw_arc+0x180>
        double rad = (double)a * PI / 180.0;
     888:	e13ff517 	ldw	r4,-44(fp)
     88c:	00059380 	call	5938 <__floatsidf>
     890:	1011883a 	mov	r8,r2
     894:	1813883a 	mov	r9,r3
     898:	01980034 	movhi	r6,24576
     89c:	01d00274 	movhi	r7,16393
     8a0:	39c87ec4 	addi	r7,r7,8699
     8a4:	4009883a 	mov	r4,r8
     8a8:	480b883a 	mov	r5,r9
     8ac:	00047500 	call	4750 <__muldf3>
     8b0:	1009883a 	mov	r4,r2
     8b4:	180b883a 	mov	r5,r3
     8b8:	2005883a 	mov	r2,r4
     8bc:	2807883a 	mov	r3,r5
     8c0:	000d883a 	mov	r6,zero
     8c4:	01d019f4 	movhi	r7,16487
     8c8:	39e00004 	addi	r7,r7,-32768
     8cc:	1009883a 	mov	r4,r2
     8d0:	180b883a 	mov	r5,r3
     8d4:	0003c1c0 	call	3c1c <__divdf3>
     8d8:	1009883a 	mov	r4,r2
     8dc:	180b883a 	mov	r5,r3
     8e0:	e13ff715 	stw	r4,-36(fp)
     8e4:	e17ff815 	stw	r5,-32(fp)
        int x = cx + (int)(cos(rad) * r);
     8e8:	e13ff717 	ldw	r4,-36(fp)
     8ec:	e17ff817 	ldw	r5,-32(fp)
     8f0:	0000f8c0 	call	f8c <cos>
     8f4:	1021883a 	mov	r16,r2
     8f8:	1823883a 	mov	r17,r3
     8fc:	e13ff617 	ldw	r4,-40(fp)
     900:	00059380 	call	5938 <__floatsidf>
     904:	1009883a 	mov	r4,r2
     908:	180b883a 	mov	r5,r3
     90c:	200d883a 	mov	r6,r4
     910:	280f883a 	mov	r7,r5
     914:	8009883a 	mov	r4,r16
     918:	880b883a 	mov	r5,r17
     91c:	00047500 	call	4750 <__muldf3>
     920:	1009883a 	mov	r4,r2
     924:	180b883a 	mov	r5,r3
     928:	2005883a 	mov	r2,r4
     92c:	2807883a 	mov	r3,r5
     930:	1009883a 	mov	r4,r2
     934:	180b883a 	mov	r5,r3
     938:	00058b80 	call	58b8 <__fixdfsi>
     93c:	1007883a 	mov	r3,r2
     940:	d0a70c17 	ldw	r2,-25552(gp)
     944:	1885883a 	add	r2,r3,r2
     948:	e0bff915 	stw	r2,-28(fp)
        int y = cy - (int)(sin(rad) * r);
     94c:	d4a70d17 	ldw	r18,-25548(gp)
     950:	e13ff717 	ldw	r4,-36(fp)
     954:	e17ff817 	ldw	r5,-32(fp)
     958:	00010780 	call	1078 <sin>
     95c:	1021883a 	mov	r16,r2
     960:	1823883a 	mov	r17,r3
     964:	e13ff617 	ldw	r4,-40(fp)
     968:	00059380 	call	5938 <__floatsidf>
     96c:	1009883a 	mov	r4,r2
     970:	180b883a 	mov	r5,r3
     974:	200d883a 	mov	r6,r4
     978:	280f883a 	mov	r7,r5
     97c:	8009883a 	mov	r4,r16
     980:	880b883a 	mov	r5,r17
     984:	00047500 	call	4750 <__muldf3>
     988:	1009883a 	mov	r4,r2
     98c:	180b883a 	mov	r5,r3
     990:	2005883a 	mov	r2,r4
     994:	2807883a 	mov	r3,r5
     998:	1009883a 	mov	r4,r2
     99c:	180b883a 	mov	r5,r3
     9a0:	00058b80 	call	58b8 <__fixdfsi>
     9a4:	9085c83a 	sub	r2,r18,r2
     9a8:	e0bffa15 	stw	r2,-24(fp)
        plot(x, y, c);
     9ac:	e0bffc0b 	ldhu	r2,-16(fp)
     9b0:	100d883a 	mov	r6,r2
     9b4:	e17ffa17 	ldw	r5,-24(fp)
     9b8:	e13ff917 	ldw	r4,-28(fp)
     9bc:	00005fc0 	call	5fc <plot>
}

static void draw_arc(int cm, uint16_t c)
{
    int r = cm_to_px(cm);
    for (int a = 0; a <= 180; a += 2) {
     9c0:	e0bff517 	ldw	r2,-44(fp)
     9c4:	10800084 	addi	r2,r2,2
     9c8:	e0bff515 	stw	r2,-44(fp)
     9cc:	e0bff517 	ldw	r2,-44(fp)
     9d0:	10802d50 	cmplti	r2,r2,181
     9d4:	103fac1e 	bne	r2,zero,888 <__alt_mem_VGA_Subsystem_Char_Buf_Subsystem_Onchip_SRAM+0xf7000888>
        double rad = (double)a * PI / 180.0;
        int x = cx + (int)(cos(rad) * r);
        int y = cy - (int)(sin(rad) * r);
        plot(x, y, c);
    }
}
     9d8:	0001883a 	nop
     9dc:	e6fffd04 	addi	sp,fp,-12
     9e0:	dfc00417 	ldw	ra,16(sp)
     9e4:	df000317 	ldw	fp,12(sp)
     9e8:	dc800217 	ldw	r18,8(sp)
     9ec:	dc400117 	ldw	r17,4(sp)
     9f0:	dc000017 	ldw	r16,0(sp)
     9f4:	dec00504 	addi	sp,sp,20
     9f8:	f800283a 	ret

000009fc <main>:

int main(void)
{
     9fc:	deffe404 	addi	sp,sp,-112
     a00:	dfc01b15 	stw	ra,108(sp)
     a04:	df001a15 	stw	fp,104(sp)
     a08:	dc801915 	stw	r18,100(sp)
     a0c:	dc401815 	stw	r17,96(sp)
     a10:	dc001715 	stw	r16,92(sp)
     a14:	df001a04 	addi	fp,sp,104
    volatile int *res = (int *)(PIXEL_BUF_CTRL_BASE + 8);
     a18:	00bfc834 	movhi	r2,65312
     a1c:	108c0a04 	addi	r2,r2,12328
     a20:	e0bfeb15 	stw	r2,-84(fp)
    int sx = (*res) & 0xFFFF;
     a24:	e0bfeb17 	ldw	r2,-84(fp)
     a28:	10800017 	ldw	r2,0(r2)
     a2c:	10bfffcc 	andi	r2,r2,65535
     a30:	e0bfec15 	stw	r2,-80(fp)

    volatile int *rgb = (int *)(RGB_RESAMPLER_BASE);
     a34:	00810034 	movhi	r2,1024
     a38:	e0bfed15 	stw	r2,-76(fp)
    int db = (*rgb) & 0x3F;
     a3c:	e0bfed17 	ldw	r2,-76(fp)
     a40:	10800017 	ldw	r2,0(r2)
     a44:	10800fcc 	andi	r2,r2,63
     a48:	e0bfee15 	stw	r2,-72(fp)

    res_offset = (sx == 160) ? 1 : 0;
     a4c:	e0bfec17 	ldw	r2,-80(fp)
     a50:	10802820 	cmpeqi	r2,r2,160
     a54:	10803fcc 	andi	r2,r2,255
     a58:	d0a70a15 	stw	r2,-25560(gp)
    col_offset = (db == 8) ? 1 : 0;
     a5c:	e0bfee17 	ldw	r2,-72(fp)
     a60:	10800220 	cmpeqi	r2,r2,8
     a64:	10803fcc 	andi	r2,r2,255
     a68:	d0a70b15 	stw	r2,-25556(gp)

    cx = SCREEN_W / 2;
     a6c:	00802804 	movi	r2,160
     a70:	d0a70c15 	stw	r2,-25552(gp)
    cy = SCREEN_H - 10;
     a74:	00803984 	movi	r2,230
     a78:	d0a70d15 	stw	r2,-25548(gp)
    radar_r = 200;
     a7c:	00803204 	movi	r2,200
     a80:	d0a70e15 	stw	r2,-25544(gp)

    video_box(0, 0, SCREEN_W - 1, SCREEN_H - 1, BLACK);
     a84:	d8000015 	stw	zero,0(sp)
     a88:	01c03bc4 	movi	r7,239
     a8c:	01804fc4 	movi	r6,319
     a90:	000b883a 	mov	r5,zero
     a94:	0009883a 	mov	r4,zero
     a98:	00004280 	call	428 <video_box>
    clear_char_buffer();
     a9c:	00005680 	call	568 <clear_char_buffer>

    int arc1 = (RADAR_MAX_CM * 1) / 4;
     aa0:	00800484 	movi	r2,18
     aa4:	e0bfe715 	stw	r2,-100(fp)
    int arc2 = (RADAR_MAX_CM * 2) / 4;
     aa8:	00800944 	movi	r2,37
     aac:	e0bfef15 	stw	r2,-68(fp)
    int arc3 = (RADAR_MAX_CM * 3) / 4;
     ab0:	00800e04 	movi	r2,56
     ab4:	e0bff015 	stw	r2,-64(fp)
    int arcM = RADAR_MAX_CM;
     ab8:	008012c4 	movi	r2,75
     abc:	e0bff115 	stw	r2,-60(fp)

    if (arc1 < 1) arc1 = 1;
     ac0:	e0bfe717 	ldw	r2,-100(fp)
     ac4:	00800216 	blt	zero,r2,ad0 <main+0xd4>
     ac8:	00800044 	movi	r2,1
     acc:	e0bfe715 	stw	r2,-100(fp)

    draw_arc(arcM, WHITE);
     ad0:	017fffd4 	movui	r5,65535
     ad4:	e13ff117 	ldw	r4,-60(fp)
     ad8:	000084c0 	call	84c <draw_arc>
    draw_arc(arc3, GRAY);
     adc:	01610414 	movui	r5,33808
     ae0:	e13ff017 	ldw	r4,-64(fp)
     ae4:	000084c0 	call	84c <draw_arc>
    draw_arc(arc2, GRAY);
     ae8:	01610414 	movui	r5,33808
     aec:	e13fef17 	ldw	r4,-68(fp)
     af0:	000084c0 	call	84c <draw_arc>
    draw_arc(arc1, GRAY);
     af4:	01610414 	movui	r5,33808
     af8:	e13fe717 	ldw	r4,-100(fp)
     afc:	000084c0 	call	84c <draw_arc>

    draw_line(0, cy, SCREEN_W - 1, cy, BLUE);
     b00:	d0e70d17 	ldw	r3,-25548(gp)
     b04:	d1270d17 	ldw	r4,-25548(gp)
     b08:	008007c4 	movi	r2,31
     b0c:	d8800015 	stw	r2,0(sp)
     b10:	200f883a 	mov	r7,r4
     b14:	01804fc4 	movi	r6,319
     b18:	180b883a 	mov	r5,r3
     b1c:	0009883a 	mov	r4,zero
     b20:	00006f80 	call	6f8 <draw_line>
    draw_line(cx, 0, cx, SCREEN_H - 1, BLUE);
     b24:	d0e70c17 	ldw	r3,-25552(gp)
     b28:	d1270c17 	ldw	r4,-25552(gp)
     b2c:	008007c4 	movi	r2,31
     b30:	d8800015 	stw	r2,0(sp)
     b34:	01c03bc4 	movi	r7,239
     b38:	200d883a 	mov	r6,r4
     b3c:	000b883a 	mov	r5,zero
     b40:	1809883a 	mov	r4,r3
     b44:	00006f80 	call	6f8 <draw_line>

    uint32_t angle = 0;
     b48:	e03fe815 	stw	zero,-96(fp)
    int dir = +1;
     b4c:	00800044 	movi	r2,1
     b50:	e0bfe915 	stw	r2,-92(fp)

    while (1) {
        uint32_t sw = IORD_32DIRECT(SLIDER_SWITCHES_BASE, 0);
     b54:	00bfc834 	movhi	r2,65312
     b58:	10801004 	addi	r2,r2,64
     b5c:	10800037 	ldwio	r2,0(r2)
     b60:	e0bff215 	stw	r2,-56(fp)

        if ((sw & 0x1u) == 0u) {
     b64:	e0bff217 	ldw	r2,-56(fp)
     b68:	1080004c 	andi	r2,r2,1
     b6c:	1000041e 	bne	r2,zero,b80 <main+0x184>
            usleep(100000);
     b70:	010000b4 	movhi	r4,2
     b74:	2121a804 	addi	r4,r4,-31072
     b78:	00108580 	call	10858 <usleep>
     b7c:	003ff506 	br	b54 <__alt_mem_VGA_Subsystem_Char_Buf_Subsystem_Onchip_SRAM+0xf7000b54>
            continue;
        }

        IOWR_32DIRECT(SERVOMOTEUR_0_BASE, 0, pos_from_angle(angle));
     b80:	e13fe817 	ldw	r4,-96(fp)
     b84:	00003700 	call	370 <pos_from_angle>
     b88:	1007883a 	mov	r3,r2
     b8c:	00810034 	movhi	r2,1024
     b90:	10800104 	addi	r2,r2,4
     b94:	10c00035 	stwio	r3,0(r2)
        usleep(60000);
     b98:	013a9814 	movui	r4,60000
     b9c:	00108580 	call	10858 <usleep>

        uint32_t raw = IORD_32DIRECT(TELEMETRE_0_BASE, 0);
     ba0:	00810034 	movhi	r2,1024
     ba4:	10800204 	addi	r2,r2,8
     ba8:	10800037 	ldwio	r2,0(r2)
     bac:	e0bff315 	stw	r2,-52(fp)
        uint32_t dist = raw & 0x3FFu;
     bb0:	e0bff317 	ldw	r2,-52(fp)
     bb4:	1080ffcc 	andi	r2,r2,1023
     bb8:	e0bfea15 	stw	r2,-88(fp)
        if (dist > RADAR_MAX_CM) dist = RADAR_MAX_CM;
     bbc:	e0bfea17 	ldw	r2,-88(fp)
     bc0:	10801330 	cmpltui	r2,r2,76
     bc4:	1000021e 	bne	r2,zero,bd0 <main+0x1d4>
     bc8:	008012c4 	movi	r2,75
     bcc:	e0bfea15 	stw	r2,-88(fp)

        double rad = (double)angle * PI / 180.0;
     bd0:	e13fe817 	ldw	r4,-96(fp)
     bd4:	0005a140 	call	5a14 <__floatunsidf>
     bd8:	1011883a 	mov	r8,r2
     bdc:	1813883a 	mov	r9,r3
     be0:	01980034 	movhi	r6,24576
     be4:	01d00274 	movhi	r7,16393
     be8:	39c87ec4 	addi	r7,r7,8699
     bec:	4009883a 	mov	r4,r8
     bf0:	480b883a 	mov	r5,r9
     bf4:	00047500 	call	4750 <__muldf3>
     bf8:	1009883a 	mov	r4,r2
     bfc:	180b883a 	mov	r5,r3
     c00:	2005883a 	mov	r2,r4
     c04:	2807883a 	mov	r3,r5
     c08:	000d883a 	mov	r6,zero
     c0c:	01d019f4 	movhi	r7,16487
     c10:	39e00004 	addi	r7,r7,-32768
     c14:	1009883a 	mov	r4,r2
     c18:	180b883a 	mov	r5,r3
     c1c:	0003c1c0 	call	3c1c <__divdf3>
     c20:	1009883a 	mov	r4,r2
     c24:	180b883a 	mov	r5,r3
     c28:	e13ff415 	stw	r4,-48(fp)
     c2c:	e17ff515 	stw	r5,-44(fp)
        int r_obj = cm_to_px((int)dist);
     c30:	e0bfea17 	ldw	r2,-88(fp)
     c34:	1009883a 	mov	r4,r2
     c38:	00003c40 	call	3c4 <cm_to_px>
     c3c:	e0bff615 	stw	r2,-40(fp)

        int x_obj = cx + (int)(cos(rad) * r_obj);
     c40:	e13ff417 	ldw	r4,-48(fp)
     c44:	e17ff517 	ldw	r5,-44(fp)
     c48:	0000f8c0 	call	f8c <cos>
     c4c:	1021883a 	mov	r16,r2
     c50:	1823883a 	mov	r17,r3
     c54:	e13ff617 	ldw	r4,-40(fp)
     c58:	00059380 	call	5938 <__floatsidf>
     c5c:	1009883a 	mov	r4,r2
     c60:	180b883a 	mov	r5,r3
     c64:	200d883a 	mov	r6,r4
     c68:	280f883a 	mov	r7,r5
     c6c:	8009883a 	mov	r4,r16
     c70:	880b883a 	mov	r5,r17
     c74:	00047500 	call	4750 <__muldf3>
     c78:	1009883a 	mov	r4,r2
     c7c:	180b883a 	mov	r5,r3
     c80:	2005883a 	mov	r2,r4
     c84:	2807883a 	mov	r3,r5
     c88:	1009883a 	mov	r4,r2
     c8c:	180b883a 	mov	r5,r3
     c90:	00058b80 	call	58b8 <__fixdfsi>
     c94:	1007883a 	mov	r3,r2
     c98:	d0a70c17 	ldw	r2,-25552(gp)
     c9c:	1885883a 	add	r2,r3,r2
     ca0:	e0bff715 	stw	r2,-36(fp)
        int y_obj = cy - (int)(sin(rad) * r_obj);
     ca4:	d4a70d17 	ldw	r18,-25548(gp)
     ca8:	e13ff417 	ldw	r4,-48(fp)
     cac:	e17ff517 	ldw	r5,-44(fp)
     cb0:	00010780 	call	1078 <sin>
     cb4:	1021883a 	mov	r16,r2
     cb8:	1823883a 	mov	r17,r3
     cbc:	e13ff617 	ldw	r4,-40(fp)
     cc0:	00059380 	call	5938 <__floatsidf>
     cc4:	1009883a 	mov	r4,r2
     cc8:	180b883a 	mov	r5,r3
     ccc:	200d883a 	mov	r6,r4
     cd0:	280f883a 	mov	r7,r5
     cd4:	8009883a 	mov	r4,r16
     cd8:	880b883a 	mov	r5,r17
     cdc:	00047500 	call	4750 <__muldf3>
     ce0:	1009883a 	mov	r4,r2
     ce4:	180b883a 	mov	r5,r3
     ce8:	2005883a 	mov	r2,r4
     cec:	2807883a 	mov	r3,r5
     cf0:	1009883a 	mov	r4,r2
     cf4:	180b883a 	mov	r5,r3
     cf8:	00058b80 	call	58b8 <__fixdfsi>
     cfc:	9085c83a 	sub	r2,r18,r2
     d00:	e0bff815 	stw	r2,-32(fp)
        int x_max = cx + (int)(cos(rad) * radar_r);
     d04:	e13ff417 	ldw	r4,-48(fp)
     d08:	e17ff517 	ldw	r5,-44(fp)
     d0c:	0000f8c0 	call	f8c <cos>
     d10:	1021883a 	mov	r16,r2
     d14:	1823883a 	mov	r17,r3
     d18:	d0a70e17 	ldw	r2,-25544(gp)
     d1c:	1009883a 	mov	r4,r2
     d20:	00059380 	call	5938 <__floatsidf>
     d24:	1009883a 	mov	r4,r2
     d28:	180b883a 	mov	r5,r3
     d2c:	200d883a 	mov	r6,r4
     d30:	280f883a 	mov	r7,r5
     d34:	8009883a 	mov	r4,r16
     d38:	880b883a 	mov	r5,r17
     d3c:	00047500 	call	4750 <__muldf3>
     d40:	1009883a 	mov	r4,r2
     d44:	180b883a 	mov	r5,r3
     d48:	2005883a 	mov	r2,r4
     d4c:	2807883a 	mov	r3,r5
     d50:	1009883a 	mov	r4,r2
     d54:	180b883a 	mov	r5,r3
     d58:	00058b80 	call	58b8 <__fixdfsi>
     d5c:	1007883a 	mov	r3,r2
     d60:	d0a70c17 	ldw	r2,-25552(gp)
     d64:	1885883a 	add	r2,r3,r2
     d68:	e0bff915 	stw	r2,-28(fp)
        int y_max = cy - (int)(sin(rad) * radar_r);
     d6c:	d4a70d17 	ldw	r18,-25548(gp)
     d70:	e13ff417 	ldw	r4,-48(fp)
     d74:	e17ff517 	ldw	r5,-44(fp)
     d78:	00010780 	call	1078 <sin>
     d7c:	1021883a 	mov	r16,r2
     d80:	1823883a 	mov	r17,r3
     d84:	d0a70e17 	ldw	r2,-25544(gp)
     d88:	1009883a 	mov	r4,r2
     d8c:	00059380 	call	5938 <__floatsidf>
     d90:	1009883a 	mov	r4,r2
     d94:	180b883a 	mov	r5,r3
     d98:	200d883a 	mov	r6,r4
     d9c:	280f883a 	mov	r7,r5
     da0:	8009883a 	mov	r4,r16
     da4:	880b883a 	mov	r5,r17
     da8:	00047500 	call	4750 <__muldf3>
     dac:	1009883a 	mov	r4,r2
     db0:	180b883a 	mov	r5,r3
     db4:	2005883a 	mov	r2,r4
     db8:	2807883a 	mov	r3,r5
     dbc:	1009883a 	mov	r4,r2
     dc0:	180b883a 	mov	r5,r3
     dc4:	00058b80 	call	58b8 <__fixdfsi>
     dc8:	9085c83a 	sub	r2,r18,r2
     dcc:	e0bffa15 	stw	r2,-24(fp)

        draw_line(cx, cy, x_obj, y_obj, GREEN);
     dd0:	d0e70c17 	ldw	r3,-25552(gp)
     dd4:	d1270d17 	ldw	r4,-25548(gp)
     dd8:	0081f804 	movi	r2,2016
     ddc:	d8800015 	stw	r2,0(sp)
     de0:	e1fff817 	ldw	r7,-32(fp)
     de4:	e1bff717 	ldw	r6,-36(fp)
     de8:	200b883a 	mov	r5,r4
     dec:	1809883a 	mov	r4,r3
     df0:	00006f80 	call	6f8 <draw_line>
        draw_line(x_obj, y_obj, x_max, y_max, RED);
     df4:	00be0014 	movui	r2,63488
     df8:	d8800015 	stw	r2,0(sp)
     dfc:	e1fffa17 	ldw	r7,-24(fp)
     e00:	e1bff917 	ldw	r6,-28(fp)
     e04:	e17ff817 	ldw	r5,-32(fp)
     e08:	e13ff717 	ldw	r4,-36(fp)
     e0c:	00006f80 	call	6f8 <draw_line>

        printf("%lu -> %lu cm\n", (unsigned long)angle, (unsigned long)dist);
     e10:	e1bfea17 	ldw	r6,-88(fp)
     e14:	e17fe817 	ldw	r5,-96(fp)
     e18:	01000074 	movhi	r4,1
     e1c:	210bce04 	addi	r4,r4,12088
     e20:	0005b500 	call	5b50 <printf>

        uint8_t ah, at, au, dh, dt, du;
        split3(angle, &ah, &at, &au);
     e24:	e13ffb84 	addi	r4,fp,-18
     e28:	e0fffb44 	addi	r3,fp,-19
     e2c:	e0bffb04 	addi	r2,fp,-20
     e30:	200f883a 	mov	r7,r4
     e34:	180d883a 	mov	r6,r3
     e38:	100b883a 	mov	r5,r2
     e3c:	e13fe817 	ldw	r4,-96(fp)
     e40:	00002b80 	call	2b8 <split3>
        split3(dist,  &dh, &dt, &du);
     e44:	e13ffc44 	addi	r4,fp,-15
     e48:	e0fffc04 	addi	r3,fp,-16
     e4c:	e0bffbc4 	addi	r2,fp,-17
     e50:	200f883a 	mov	r7,r4
     e54:	180d883a 	mov	r6,r3
     e58:	100b883a 	mov	r5,r2
     e5c:	e13fea17 	ldw	r4,-88(fp)
     e60:	00002b80 	call	2b8 <split3>

        IOWR_32DIRECT(HEX3_HEX0_BASE, 0,
     e64:	e0bffb83 	ldbu	r2,-18(fp)
     e68:	10803fcc 	andi	r2,r2,255
     e6c:	1009883a 	mov	r4,r2
     e70:	000026c0 	call	26c <seg7>
     e74:	14003fcc 	andi	r16,r2,255
     e78:	e0bffb43 	ldbu	r2,-19(fp)
     e7c:	10803fcc 	andi	r2,r2,255
     e80:	1009883a 	mov	r4,r2
     e84:	000026c0 	call	26c <seg7>
     e88:	10803fcc 	andi	r2,r2,255
     e8c:	1004923a 	slli	r2,r2,8
     e90:	80a0b03a 	or	r16,r16,r2
     e94:	e0bffb03 	ldbu	r2,-20(fp)
     e98:	10803fcc 	andi	r2,r2,255
     e9c:	1009883a 	mov	r4,r2
     ea0:	000026c0 	call	26c <seg7>
     ea4:	10803fcc 	andi	r2,r2,255
     ea8:	1004943a 	slli	r2,r2,16
     eac:	80a0b03a 	or	r16,r16,r2
     eb0:	e0bffc43 	ldbu	r2,-15(fp)
     eb4:	10803fcc 	andi	r2,r2,255
     eb8:	1009883a 	mov	r4,r2
     ebc:	000026c0 	call	26c <seg7>
     ec0:	10803fcc 	andi	r2,r2,255
     ec4:	1004963a 	slli	r2,r2,24
     ec8:	8084b03a 	or	r2,r16,r2
     ecc:	1007883a 	mov	r3,r2
     ed0:	00bfc834 	movhi	r2,65312
     ed4:	10800804 	addi	r2,r2,32
     ed8:	10c00035 	stwio	r3,0(r2)
            ((uint32_t)seg7(au) << 0)  |
            ((uint32_t)seg7(at) << 8)  |
            ((uint32_t)seg7(ah) << 16) |
            ((uint32_t)seg7(du) << 24));

        IOWR_32DIRECT(HEX5_HEX4_BASE, 0,
     edc:	e0bffc03 	ldbu	r2,-16(fp)
     ee0:	10803fcc 	andi	r2,r2,255
     ee4:	1009883a 	mov	r4,r2
     ee8:	000026c0 	call	26c <seg7>
     eec:	14003fcc 	andi	r16,r2,255
     ef0:	e0bffbc3 	ldbu	r2,-17(fp)
     ef4:	10803fcc 	andi	r2,r2,255
     ef8:	1009883a 	mov	r4,r2
     efc:	000026c0 	call	26c <seg7>
     f00:	10803fcc 	andi	r2,r2,255
     f04:	1004923a 	slli	r2,r2,8
     f08:	8084b03a 	or	r2,r16,r2
     f0c:	1007883a 	mov	r3,r2
     f10:	00bfc834 	movhi	r2,65312
     f14:	10800c04 	addi	r2,r2,48
     f18:	10c00035 	stwio	r3,0(r2)
            ((uint32_t)seg7(dt) << 0) |
            ((uint32_t)seg7(dh) << 8));

        if (dir > 0) {
     f1c:	e0bfe917 	ldw	r2,-92(fp)
     f20:	00800d0e 	bge	zero,r2,f58 <main+0x55c>
            if (angle + STEP_DEG >= 180u) { angle = 180u; dir = -1; }
     f24:	e0bfe817 	ldw	r2,-96(fp)
     f28:	10800084 	addi	r2,r2,2
     f2c:	10802d30 	cmpltui	r2,r2,180
     f30:	1000051e 	bne	r2,zero,f48 <main+0x54c>
     f34:	00802d04 	movi	r2,180
     f38:	e0bfe815 	stw	r2,-96(fp)
     f3c:	00bfffc4 	movi	r2,-1
     f40:	e0bfe915 	stw	r2,-92(fp)
     f44:	00000e06 	br	f80 <main+0x584>
            else angle += STEP_DEG;
     f48:	e0bfe817 	ldw	r2,-96(fp)
     f4c:	10800084 	addi	r2,r2,2
     f50:	e0bfe815 	stw	r2,-96(fp)
     f54:	00000a06 	br	f80 <main+0x584>
        } else {
            if (angle <= STEP_DEG) { angle = 0u; dir = +1; }
     f58:	e0bfe817 	ldw	r2,-96(fp)
     f5c:	108000e8 	cmpgeui	r2,r2,3
     f60:	1000041e 	bne	r2,zero,f74 <main+0x578>
     f64:	e03fe815 	stw	zero,-96(fp)
     f68:	00800044 	movi	r2,1
     f6c:	e0bfe915 	stw	r2,-92(fp)
     f70:	00000306 	br	f80 <main+0x584>
            else angle -= STEP_DEG;
     f74:	e0bfe817 	ldw	r2,-96(fp)
     f78:	10bfff84 	addi	r2,r2,-2
     f7c:	e0bfe815 	stw	r2,-96(fp)
        }

        usleep(40000);
     f80:	01271014 	movui	r4,40000
     f84:	00108580 	call	10858 <usleep>
    }
     f88:	003ef206 	br	b54 <__alt_mem_VGA_Subsystem_Char_Buf_Subsystem_Onchip_SRAM+0xf7000b54>

00000f8c <cos>:
     f8c:	00a00034 	movhi	r2,32768
     f90:	defffa04 	addi	sp,sp,-24
     f94:	10bfffc4 	addi	r2,r2,-1
     f98:	00cffa74 	movhi	r3,16361
     f9c:	dfc00515 	stw	ra,20(sp)
     fa0:	2884703a 	and	r2,r5,r2
     fa4:	18c87ec4 	addi	r3,r3,8699
     fa8:	1880180e 	bge	r3,r2,100c <cos+0x80>
     fac:	00dffc34 	movhi	r3,32752
     fb0:	18ffffc4 	addi	r3,r3,-1
     fb4:	1880060e 	bge	r3,r2,fd0 <cos+0x44>
     fb8:	280f883a 	mov	r7,r5
     fbc:	200d883a 	mov	r6,r4
     fc0:	0004fbc0 	call	4fbc <__subdf3>
     fc4:	dfc00517 	ldw	ra,20(sp)
     fc8:	dec00604 	addi	sp,sp,24
     fcc:	f800283a 	ret
     fd0:	d9800104 	addi	r6,sp,4
     fd4:	00011680 	call	1168 <__ieee754_rem_pio2>
     fd8:	108000cc 	andi	r2,r2,3
     fdc:	00c00044 	movi	r3,1
     fe0:	10c01726 	beq	r2,r3,1040 <cos+0xb4>
     fe4:	01000084 	movi	r4,2
     fe8:	11000e26 	beq	r2,r4,1024 <cos+0x98>
     fec:	10001c26 	beq	r2,zero,1060 <cos+0xd4>
     ff0:	d9800317 	ldw	r6,12(sp)
     ff4:	d9c00417 	ldw	r7,16(sp)
     ff8:	d9000117 	ldw	r4,4(sp)
     ffc:	d9400217 	ldw	r5,8(sp)
    1000:	d8c00015 	stw	r3,0(sp)
    1004:	0002b100 	call	2b10 <__kernel_sin>
    1008:	003fee06 	br	fc4 <__alt_mem_VGA_Subsystem_Char_Buf_Subsystem_Onchip_SRAM+0xf7000fc4>
    100c:	000d883a 	mov	r6,zero
    1010:	000f883a 	mov	r7,zero
    1014:	00018d40 	call	18d4 <__kernel_cos>
    1018:	dfc00517 	ldw	ra,20(sp)
    101c:	dec00604 	addi	sp,sp,24
    1020:	f800283a 	ret
    1024:	d9800317 	ldw	r6,12(sp)
    1028:	d9c00417 	ldw	r7,16(sp)
    102c:	d9000117 	ldw	r4,4(sp)
    1030:	d9400217 	ldw	r5,8(sp)
    1034:	00018d40 	call	18d4 <__kernel_cos>
    1038:	18e0003c 	xorhi	r3,r3,32768
    103c:	003fe106 	br	fc4 <__alt_mem_VGA_Subsystem_Char_Buf_Subsystem_Onchip_SRAM+0xf7000fc4>
    1040:	d9800317 	ldw	r6,12(sp)
    1044:	d9c00417 	ldw	r7,16(sp)
    1048:	d9000117 	ldw	r4,4(sp)
    104c:	d9400217 	ldw	r5,8(sp)
    1050:	d8800015 	stw	r2,0(sp)
    1054:	0002b100 	call	2b10 <__kernel_sin>
    1058:	18e0003c 	xorhi	r3,r3,32768
    105c:	003fd906 	br	fc4 <__alt_mem_VGA_Subsystem_Char_Buf_Subsystem_Onchip_SRAM+0xf7000fc4>
    1060:	d9800317 	ldw	r6,12(sp)
    1064:	d9c00417 	ldw	r7,16(sp)
    1068:	d9000117 	ldw	r4,4(sp)
    106c:	d9400217 	ldw	r5,8(sp)
    1070:	00018d40 	call	18d4 <__kernel_cos>
    1074:	003fd306 	br	fc4 <__alt_mem_VGA_Subsystem_Char_Buf_Subsystem_Onchip_SRAM+0xf7000fc4>

00001078 <sin>:
    1078:	00a00034 	movhi	r2,32768
    107c:	defffa04 	addi	sp,sp,-24
    1080:	10bfffc4 	addi	r2,r2,-1
    1084:	00cffa74 	movhi	r3,16361
    1088:	dfc00515 	stw	ra,20(sp)
    108c:	2884703a 	and	r2,r5,r2
    1090:	18c87ec4 	addi	r3,r3,8699
    1094:	1880180e 	bge	r3,r2,10f8 <sin+0x80>
    1098:	00dffc34 	movhi	r3,32752
    109c:	18ffffc4 	addi	r3,r3,-1
    10a0:	1880060e 	bge	r3,r2,10bc <sin+0x44>
    10a4:	280f883a 	mov	r7,r5
    10a8:	200d883a 	mov	r6,r4
    10ac:	0004fbc0 	call	4fbc <__subdf3>
    10b0:	dfc00517 	ldw	ra,20(sp)
    10b4:	dec00604 	addi	sp,sp,24
    10b8:	f800283a 	ret
    10bc:	d9800104 	addi	r6,sp,4
    10c0:	00011680 	call	1168 <__ieee754_rem_pio2>
    10c4:	108000cc 	andi	r2,r2,3
    10c8:	00c00044 	movi	r3,1
    10cc:	10c01926 	beq	r2,r3,1134 <sin+0xbc>
    10d0:	01000084 	movi	r4,2
    10d4:	11000f26 	beq	r2,r4,1114 <sin+0x9c>
    10d8:	10001c26 	beq	r2,zero,114c <sin+0xd4>
    10dc:	d9800317 	ldw	r6,12(sp)
    10e0:	d9c00417 	ldw	r7,16(sp)
    10e4:	d9000117 	ldw	r4,4(sp)
    10e8:	d9400217 	ldw	r5,8(sp)
    10ec:	00018d40 	call	18d4 <__kernel_cos>
    10f0:	18e0003c 	xorhi	r3,r3,32768
    10f4:	003fee06 	br	10b0 <__alt_mem_VGA_Subsystem_Char_Buf_Subsystem_Onchip_SRAM+0xf70010b0>
    10f8:	d8000015 	stw	zero,0(sp)
    10fc:	000d883a 	mov	r6,zero
    1100:	000f883a 	mov	r7,zero
    1104:	0002b100 	call	2b10 <__kernel_sin>
    1108:	dfc00517 	ldw	ra,20(sp)
    110c:	dec00604 	addi	sp,sp,24
    1110:	f800283a 	ret
    1114:	d9800317 	ldw	r6,12(sp)
    1118:	d9c00417 	ldw	r7,16(sp)
    111c:	d9000117 	ldw	r4,4(sp)
    1120:	d9400217 	ldw	r5,8(sp)
    1124:	d8c00015 	stw	r3,0(sp)
    1128:	0002b100 	call	2b10 <__kernel_sin>
    112c:	18e0003c 	xorhi	r3,r3,32768
    1130:	003fdf06 	br	10b0 <__alt_mem_VGA_Subsystem_Char_Buf_Subsystem_Onchip_SRAM+0xf70010b0>
    1134:	d9800317 	ldw	r6,12(sp)
    1138:	d9c00417 	ldw	r7,16(sp)
    113c:	d9000117 	ldw	r4,4(sp)
    1140:	d9400217 	ldw	r5,8(sp)
    1144:	00018d40 	call	18d4 <__kernel_cos>
    1148:	003fd906 	br	10b0 <__alt_mem_VGA_Subsystem_Char_Buf_Subsystem_Onchip_SRAM+0xf70010b0>
    114c:	d9800317 	ldw	r6,12(sp)
    1150:	d9c00417 	ldw	r7,16(sp)
    1154:	d9000117 	ldw	r4,4(sp)
    1158:	d9400217 	ldw	r5,8(sp)
    115c:	d8c00015 	stw	r3,0(sp)
    1160:	0002b100 	call	2b10 <__kernel_sin>
    1164:	003fd206 	br	10b0 <__alt_mem_VGA_Subsystem_Char_Buf_Subsystem_Onchip_SRAM+0xf70010b0>

00001168 <__ieee754_rem_pio2>:
    1168:	02200034 	movhi	r8,32768
    116c:	deffea04 	addi	sp,sp,-88
    1170:	423fffc4 	addi	r8,r8,-1
    1174:	00cffa74 	movhi	r3,16361
    1178:	ddc01315 	stw	r23,76(sp)
    117c:	dc400d15 	stw	r17,52(sp)
    1180:	dfc01515 	stw	ra,84(sp)
    1184:	df001415 	stw	fp,80(sp)
    1188:	dd801215 	stw	r22,72(sp)
    118c:	dd401115 	stw	r21,68(sp)
    1190:	dd001015 	stw	r20,64(sp)
    1194:	dcc00f15 	stw	r19,60(sp)
    1198:	dc800e15 	stw	r18,56(sp)
    119c:	dc000c15 	stw	r16,48(sp)
    11a0:	2a2e703a 	and	r23,r5,r8
    11a4:	18c87ec4 	addi	r3,r3,8699
    11a8:	2823883a 	mov	r17,r5
    11ac:	1dc0790e 	bge	r3,r23,1394 <__ieee754_rem_pio2+0x22c>
    11b0:	009000f4 	movhi	r2,16387
    11b4:	10b65ec4 	addi	r2,r2,-9861
    11b8:	3021883a 	mov	r16,r6
    11bc:	2027883a 	mov	r19,r4
    11c0:	15c02316 	blt	r2,r23,1250 <__ieee754_rem_pio2+0xe8>
    11c4:	01cffe74 	movhi	r7,16377
    11c8:	39c87ec4 	addi	r7,r7,8699
    11cc:	01951034 	movhi	r6,21568
    11d0:	01417a0e 	bge	zero,r5,17bc <__ieee754_rem_pio2+0x654>
    11d4:	0004fbc0 	call	4fbc <__subdf3>
    11d8:	1025883a 	mov	r18,r2
    11dc:	008ffe74 	movhi	r2,16377
    11e0:	10887ec4 	addi	r2,r2,8699
    11e4:	1823883a 	mov	r17,r3
    11e8:	b8808426 	beq	r23,r2,13fc <__ieee754_rem_pio2+0x294>
    11ec:	018698b4 	movhi	r6,6754
    11f0:	01cf7474 	movhi	r7,15825
    11f4:	3198cc44 	addi	r6,r6,25393
    11f8:	39ed1844 	addi	r7,r7,-19359
    11fc:	9009883a 	mov	r4,r18
    1200:	180b883a 	mov	r5,r3
    1204:	0004fbc0 	call	4fbc <__subdf3>
    1208:	100d883a 	mov	r6,r2
    120c:	180f883a 	mov	r7,r3
    1210:	9009883a 	mov	r4,r18
    1214:	880b883a 	mov	r5,r17
    1218:	80800015 	stw	r2,0(r16)
    121c:	80c00115 	stw	r3,4(r16)
    1220:	0004fbc0 	call	4fbc <__subdf3>
    1224:	018698b4 	movhi	r6,6754
    1228:	01cf7474 	movhi	r7,15825
    122c:	3198cc44 	addi	r6,r6,25393
    1230:	39ed1844 	addi	r7,r7,-19359
    1234:	1009883a 	mov	r4,r2
    1238:	180b883a 	mov	r5,r3
    123c:	0004fbc0 	call	4fbc <__subdf3>
    1240:	80800215 	stw	r2,8(r16)
    1244:	80c00315 	stw	r3,12(r16)
    1248:	00800044 	movi	r2,1
    124c:	00005606 	br	13a8 <__ieee754_rem_pio2+0x240>
    1250:	00904e74 	movhi	r2,16697
    1254:	10887ec4 	addi	r2,r2,8699
    1258:	15c0830e 	bge	r2,r23,1468 <__ieee754_rem_pio2+0x300>
    125c:	009ffc34 	movhi	r2,32752
    1260:	10bfffc4 	addi	r2,r2,-1
    1264:	15c05c16 	blt	r2,r23,13d8 <__ieee754_rem_pio2+0x270>
    1268:	b829d53a 	srai	r20,r23,20
    126c:	a53efa84 	addi	r20,r20,-1046
    1270:	a024953a 	slli	r18,r20,20
    1274:	bca5c83a 	sub	r18,r23,r18
    1278:	900b883a 	mov	r5,r18
    127c:	00058b80 	call	58b8 <__fixdfsi>
    1280:	1009883a 	mov	r4,r2
    1284:	00059380 	call	5938 <__floatsidf>
    1288:	9809883a 	mov	r4,r19
    128c:	900b883a 	mov	r5,r18
    1290:	100d883a 	mov	r6,r2
    1294:	180f883a 	mov	r7,r3
    1298:	d8800215 	stw	r2,8(sp)
    129c:	d8c00315 	stw	r3,12(sp)
    12a0:	0004fbc0 	call	4fbc <__subdf3>
    12a4:	000d883a 	mov	r6,zero
    12a8:	01d05c34 	movhi	r7,16752
    12ac:	1009883a 	mov	r4,r2
    12b0:	180b883a 	mov	r5,r3
    12b4:	00047500 	call	4750 <__muldf3>
    12b8:	180b883a 	mov	r5,r3
    12bc:	1009883a 	mov	r4,r2
    12c0:	182b883a 	mov	r21,r3
    12c4:	102d883a 	mov	r22,r2
    12c8:	00058b80 	call	58b8 <__fixdfsi>
    12cc:	1009883a 	mov	r4,r2
    12d0:	00059380 	call	5938 <__floatsidf>
    12d4:	100d883a 	mov	r6,r2
    12d8:	180f883a 	mov	r7,r3
    12dc:	b009883a 	mov	r4,r22
    12e0:	a80b883a 	mov	r5,r21
    12e4:	1027883a 	mov	r19,r2
    12e8:	1825883a 	mov	r18,r3
    12ec:	d8800415 	stw	r2,16(sp)
    12f0:	d8c00515 	stw	r3,20(sp)
    12f4:	0004fbc0 	call	4fbc <__subdf3>
    12f8:	000d883a 	mov	r6,zero
    12fc:	01d05c34 	movhi	r7,16752
    1300:	1009883a 	mov	r4,r2
    1304:	180b883a 	mov	r5,r3
    1308:	00047500 	call	4750 <__muldf3>
    130c:	000d883a 	mov	r6,zero
    1310:	000f883a 	mov	r7,zero
    1314:	1009883a 	mov	r4,r2
    1318:	180b883a 	mov	r5,r3
    131c:	d8800615 	stw	r2,24(sp)
    1320:	d8c00715 	stw	r3,28(sp)
    1324:	00045ec0 	call	45ec <__eqdf2>
    1328:	1001431e 	bne	r2,zero,1838 <__ieee754_rem_pio2+0x6d0>
    132c:	000f883a 	mov	r7,zero
    1330:	000d883a 	mov	r6,zero
    1334:	9809883a 	mov	r4,r19
    1338:	900b883a 	mov	r5,r18
    133c:	00045ec0 	call	45ec <__eqdf2>
    1340:	100f003a 	cmpeq	r7,r2,zero
    1344:	00800084 	movi	r2,2
    1348:	11cfc83a 	sub	r7,r2,r7
    134c:	00800084 	movi	r2,2
    1350:	d8800015 	stw	r2,0(sp)
    1354:	00800074 	movhi	r2,1
    1358:	108bf204 	addi	r2,r2,12232
    135c:	d8800115 	stw	r2,4(sp)
    1360:	a00d883a 	mov	r6,r20
    1364:	800b883a 	mov	r5,r16
    1368:	d9000204 	addi	r4,sp,8
    136c:	0001d780 	call	1d78 <__kernel_rem_pio2>
    1370:	88000d0e 	bge	r17,zero,13a8 <__ieee754_rem_pio2+0x240>
    1374:	81000117 	ldw	r4,4(r16)
    1378:	80c00317 	ldw	r3,12(r16)
    137c:	0085c83a 	sub	r2,zero,r2
    1380:	2120003c 	xorhi	r4,r4,32768
    1384:	18e0003c 	xorhi	r3,r3,32768
    1388:	81000115 	stw	r4,4(r16)
    138c:	80c00315 	stw	r3,12(r16)
    1390:	00000506 	br	13a8 <__ieee754_rem_pio2+0x240>
    1394:	31000015 	stw	r4,0(r6)
    1398:	31400115 	stw	r5,4(r6)
    139c:	30000215 	stw	zero,8(r6)
    13a0:	30000315 	stw	zero,12(r6)
    13a4:	0005883a 	mov	r2,zero
    13a8:	dfc01517 	ldw	ra,84(sp)
    13ac:	df001417 	ldw	fp,80(sp)
    13b0:	ddc01317 	ldw	r23,76(sp)
    13b4:	dd801217 	ldw	r22,72(sp)
    13b8:	dd401117 	ldw	r21,68(sp)
    13bc:	dd001017 	ldw	r20,64(sp)
    13c0:	dcc00f17 	ldw	r19,60(sp)
    13c4:	dc800e17 	ldw	r18,56(sp)
    13c8:	dc400d17 	ldw	r17,52(sp)
    13cc:	dc000c17 	ldw	r16,48(sp)
    13d0:	dec01604 	addi	sp,sp,88
    13d4:	f800283a 	ret
    13d8:	200d883a 	mov	r6,r4
    13dc:	280f883a 	mov	r7,r5
    13e0:	0004fbc0 	call	4fbc <__subdf3>
    13e4:	80800215 	stw	r2,8(r16)
    13e8:	80800015 	stw	r2,0(r16)
    13ec:	80c00315 	stw	r3,12(r16)
    13f0:	80c00115 	stw	r3,4(r16)
    13f4:	0005883a 	mov	r2,zero
    13f8:	003feb06 	br	13a8 <__alt_mem_VGA_Subsystem_Char_Buf_Subsystem_Onchip_SRAM+0xf70013a8>
    13fc:	01cf7474 	movhi	r7,15825
    1400:	9009883a 	mov	r4,r18
    1404:	39ed1844 	addi	r7,r7,-19359
    1408:	01869834 	movhi	r6,6752
    140c:	180b883a 	mov	r5,r3
    1410:	0004fbc0 	call	4fbc <__subdf3>
    1414:	018b80f4 	movhi	r6,11779
    1418:	01cee8f4 	movhi	r7,15267
    141c:	319c1cc4 	addi	r6,r6,28787
    1420:	39c66284 	addi	r7,r7,6538
    1424:	1009883a 	mov	r4,r2
    1428:	180b883a 	mov	r5,r3
    142c:	1025883a 	mov	r18,r2
    1430:	1823883a 	mov	r17,r3
    1434:	0004fbc0 	call	4fbc <__subdf3>
    1438:	100d883a 	mov	r6,r2
    143c:	180f883a 	mov	r7,r3
    1440:	9009883a 	mov	r4,r18
    1444:	880b883a 	mov	r5,r17
    1448:	80800015 	stw	r2,0(r16)
    144c:	80c00115 	stw	r3,4(r16)
    1450:	0004fbc0 	call	4fbc <__subdf3>
    1454:	018b80f4 	movhi	r6,11779
    1458:	01cee8f4 	movhi	r7,15267
    145c:	319c1cc4 	addi	r6,r6,28787
    1460:	39c66284 	addi	r7,r7,6538
    1464:	003f7306 	br	1234 <__alt_mem_VGA_Subsystem_Char_Buf_Subsystem_Onchip_SRAM+0xf7001234>
    1468:	0002ddc0 	call	2ddc <fabs>
    146c:	019b72b4 	movhi	r6,28106
    1470:	01cff934 	movhi	r7,16356
    1474:	31b220c4 	addi	r6,r6,-14205
    1478:	39d7cc04 	addi	r7,r7,24368
    147c:	1009883a 	mov	r4,r2
    1480:	180b883a 	mov	r5,r3
    1484:	102d883a 	mov	r22,r2
    1488:	182b883a 	mov	r21,r3
    148c:	00047500 	call	4750 <__muldf3>
    1490:	000d883a 	mov	r6,zero
    1494:	01cff834 	movhi	r7,16352
    1498:	1009883a 	mov	r4,r2
    149c:	180b883a 	mov	r5,r3
    14a0:	00033700 	call	3370 <__adddf3>
    14a4:	180b883a 	mov	r5,r3
    14a8:	1009883a 	mov	r4,r2
    14ac:	00058b80 	call	58b8 <__fixdfsi>
    14b0:	1009883a 	mov	r4,r2
    14b4:	1025883a 	mov	r18,r2
    14b8:	00059380 	call	5938 <__floatsidf>
    14bc:	01cffe74 	movhi	r7,16377
    14c0:	39c87ec4 	addi	r7,r7,8699
    14c4:	01951034 	movhi	r6,21568
    14c8:	1009883a 	mov	r4,r2
    14cc:	180b883a 	mov	r5,r3
    14d0:	1029883a 	mov	r20,r2
    14d4:	1827883a 	mov	r19,r3
    14d8:	00047500 	call	4750 <__muldf3>
    14dc:	b009883a 	mov	r4,r22
    14e0:	a80b883a 	mov	r5,r21
    14e4:	100d883a 	mov	r6,r2
    14e8:	180f883a 	mov	r7,r3
    14ec:	0004fbc0 	call	4fbc <__subdf3>
    14f0:	018698b4 	movhi	r6,6754
    14f4:	01cf7474 	movhi	r7,15825
    14f8:	a009883a 	mov	r4,r20
    14fc:	3198cc44 	addi	r6,r6,25393
    1500:	39ed1844 	addi	r7,r7,-19359
    1504:	980b883a 	mov	r5,r19
    1508:	1039883a 	mov	fp,r2
    150c:	d8c00815 	stw	r3,32(sp)
    1510:	00047500 	call	4750 <__muldf3>
    1514:	010007c4 	movi	r4,31
    1518:	e017883a 	mov	r11,fp
    151c:	da800817 	ldw	r10,32(sp)
    1520:	102d883a 	mov	r22,r2
    1524:	182b883a 	mov	r21,r3
    1528:	24802816 	blt	r4,r18,15cc <__ieee754_rem_pio2+0x464>
    152c:	913fffc4 	addi	r4,r18,-1
    1530:	2109883a 	add	r4,r4,r4
    1534:	01400074 	movhi	r5,1
    1538:	2109883a 	add	r4,r4,r4
    153c:	294bd204 	addi	r5,r5,12104
    1540:	2909883a 	add	r4,r5,r4
    1544:	21000017 	ldw	r4,0(r4)
    1548:	b9002026 	beq	r23,r4,15cc <__ieee754_rem_pio2+0x464>
    154c:	100d883a 	mov	r6,r2
    1550:	180f883a 	mov	r7,r3
    1554:	e009883a 	mov	r4,fp
    1558:	500b883a 	mov	r5,r10
    155c:	da800b15 	stw	r10,44(sp)
    1560:	df000a15 	stw	fp,40(sp)
    1564:	0004fbc0 	call	4fbc <__subdf3>
    1568:	da800b17 	ldw	r10,44(sp)
    156c:	dac00a17 	ldw	r11,40(sp)
    1570:	1019883a 	mov	r12,r2
    1574:	1813883a 	mov	r9,r3
    1578:	80800015 	stw	r2,0(r16)
    157c:	80c00115 	stw	r3,4(r16)
    1580:	600d883a 	mov	r6,r12
    1584:	480f883a 	mov	r7,r9
    1588:	5809883a 	mov	r4,r11
    158c:	500b883a 	mov	r5,r10
    1590:	da400b15 	stw	r9,44(sp)
    1594:	db000a15 	stw	r12,40(sp)
    1598:	0004fbc0 	call	4fbc <__subdf3>
    159c:	b00d883a 	mov	r6,r22
    15a0:	a80f883a 	mov	r7,r21
    15a4:	1009883a 	mov	r4,r2
    15a8:	180b883a 	mov	r5,r3
    15ac:	0004fbc0 	call	4fbc <__subdf3>
    15b0:	80800215 	stw	r2,8(r16)
    15b4:	80c00315 	stw	r3,12(r16)
    15b8:	da400b17 	ldw	r9,44(sp)
    15bc:	db000a17 	ldw	r12,40(sp)
    15c0:	88009f16 	blt	r17,zero,1840 <__ieee754_rem_pio2+0x6d8>
    15c4:	9005883a 	mov	r2,r18
    15c8:	003f7706 	br	13a8 <__alt_mem_VGA_Subsystem_Char_Buf_Subsystem_Onchip_SRAM+0xf70013a8>
    15cc:	d9400817 	ldw	r5,32(sp)
    15d0:	100d883a 	mov	r6,r2
    15d4:	180f883a 	mov	r7,r3
    15d8:	e009883a 	mov	r4,fp
    15dc:	da800b15 	stw	r10,44(sp)
    15e0:	dac00a15 	stw	r11,40(sp)
    15e4:	0004fbc0 	call	4fbc <__subdf3>
    15e8:	1019883a 	mov	r12,r2
    15ec:	1804d53a 	srli	r2,r3,20
    15f0:	b811d53a 	srai	r8,r23,20
    15f4:	1813883a 	mov	r9,r3
    15f8:	1081ffcc 	andi	r2,r2,2047
    15fc:	80c00115 	stw	r3,4(r16)
    1600:	83000015 	stw	r12,0(r16)
    1604:	4085c83a 	sub	r2,r8,r2
    1608:	00c00404 	movi	r3,16
    160c:	da800b17 	ldw	r10,44(sp)
    1610:	dac00a17 	ldw	r11,40(sp)
    1614:	18bfda0e 	bge	r3,r2,1580 <__alt_mem_VGA_Subsystem_Char_Buf_Subsystem_Onchip_SRAM+0xf7001580>
    1618:	01cf7474 	movhi	r7,15825
    161c:	39ed1844 	addi	r7,r7,-19359
    1620:	01869834 	movhi	r6,6752
    1624:	a009883a 	mov	r4,r20
    1628:	980b883a 	mov	r5,r19
    162c:	da000a15 	stw	r8,40(sp)
    1630:	00047500 	call	4750 <__muldf3>
    1634:	d9400817 	ldw	r5,32(sp)
    1638:	100d883a 	mov	r6,r2
    163c:	180f883a 	mov	r7,r3
    1640:	e009883a 	mov	r4,fp
    1644:	102d883a 	mov	r22,r2
    1648:	182b883a 	mov	r21,r3
    164c:	0004fbc0 	call	4fbc <__subdf3>
    1650:	d9400817 	ldw	r5,32(sp)
    1654:	100d883a 	mov	r6,r2
    1658:	180f883a 	mov	r7,r3
    165c:	e009883a 	mov	r4,fp
    1660:	182f883a 	mov	r23,r3
    1664:	d8800915 	stw	r2,36(sp)
    1668:	0004fbc0 	call	4fbc <__subdf3>
    166c:	b00d883a 	mov	r6,r22
    1670:	a80f883a 	mov	r7,r21
    1674:	1009883a 	mov	r4,r2
    1678:	180b883a 	mov	r5,r3
    167c:	0004fbc0 	call	4fbc <__subdf3>
    1680:	018b80f4 	movhi	r6,11779
    1684:	01cee8f4 	movhi	r7,15267
    1688:	319c1cc4 	addi	r6,r6,28787
    168c:	39c66284 	addi	r7,r7,6538
    1690:	a009883a 	mov	r4,r20
    1694:	980b883a 	mov	r5,r19
    1698:	102d883a 	mov	r22,r2
    169c:	182b883a 	mov	r21,r3
    16a0:	00047500 	call	4750 <__muldf3>
    16a4:	b00d883a 	mov	r6,r22
    16a8:	a80f883a 	mov	r7,r21
    16ac:	1009883a 	mov	r4,r2
    16b0:	180b883a 	mov	r5,r3
    16b4:	0004fbc0 	call	4fbc <__subdf3>
    16b8:	d9000917 	ldw	r4,36(sp)
    16bc:	100d883a 	mov	r6,r2
    16c0:	180f883a 	mov	r7,r3
    16c4:	b80b883a 	mov	r5,r23
    16c8:	102d883a 	mov	r22,r2
    16cc:	182b883a 	mov	r21,r3
    16d0:	0004fbc0 	call	4fbc <__subdf3>
    16d4:	1019883a 	mov	r12,r2
    16d8:	1804d53a 	srli	r2,r3,20
    16dc:	da000a17 	ldw	r8,40(sp)
    16e0:	83000015 	stw	r12,0(r16)
    16e4:	1081ffcc 	andi	r2,r2,2047
    16e8:	4091c83a 	sub	r8,r8,r2
    16ec:	80c00115 	stw	r3,4(r16)
    16f0:	00800c44 	movi	r2,49
    16f4:	1813883a 	mov	r9,r3
    16f8:	1200730e 	bge	r2,r8,18c8 <__ieee754_rem_pio2+0x760>
    16fc:	01cee8f4 	movhi	r7,15267
    1700:	39c66284 	addi	r7,r7,6538
    1704:	018b8034 	movhi	r6,11776
    1708:	a009883a 	mov	r4,r20
    170c:	980b883a 	mov	r5,r19
    1710:	00047500 	call	4750 <__muldf3>
    1714:	d9000917 	ldw	r4,36(sp)
    1718:	100d883a 	mov	r6,r2
    171c:	180f883a 	mov	r7,r3
    1720:	b80b883a 	mov	r5,r23
    1724:	102d883a 	mov	r22,r2
    1728:	182b883a 	mov	r21,r3
    172c:	0004fbc0 	call	4fbc <__subdf3>
    1730:	d9000917 	ldw	r4,36(sp)
    1734:	100d883a 	mov	r6,r2
    1738:	180f883a 	mov	r7,r3
    173c:	b80b883a 	mov	r5,r23
    1740:	d8c00b15 	stw	r3,44(sp)
    1744:	d8800a15 	stw	r2,40(sp)
    1748:	0004fbc0 	call	4fbc <__subdf3>
    174c:	b00d883a 	mov	r6,r22
    1750:	a80f883a 	mov	r7,r21
    1754:	1009883a 	mov	r4,r2
    1758:	180b883a 	mov	r5,r3
    175c:	0004fbc0 	call	4fbc <__subdf3>
    1760:	01894834 	movhi	r6,9504
    1764:	01ce5f34 	movhi	r7,14716
    1768:	31927044 	addi	r6,r6,18881
    176c:	39e0e684 	addi	r7,r7,-31846
    1770:	a009883a 	mov	r4,r20
    1774:	980b883a 	mov	r5,r19
    1778:	102d883a 	mov	r22,r2
    177c:	182b883a 	mov	r21,r3
    1780:	00047500 	call	4750 <__muldf3>
    1784:	b00d883a 	mov	r6,r22
    1788:	a80f883a 	mov	r7,r21
    178c:	1009883a 	mov	r4,r2
    1790:	180b883a 	mov	r5,r3
    1794:	0004fbc0 	call	4fbc <__subdf3>
    1798:	dac00a17 	ldw	r11,40(sp)
    179c:	da800b17 	ldw	r10,44(sp)
    17a0:	102d883a 	mov	r22,r2
    17a4:	182b883a 	mov	r21,r3
    17a8:	100d883a 	mov	r6,r2
    17ac:	180f883a 	mov	r7,r3
    17b0:	5809883a 	mov	r4,r11
    17b4:	500b883a 	mov	r5,r10
    17b8:	003f6a06 	br	1564 <__alt_mem_VGA_Subsystem_Char_Buf_Subsystem_Onchip_SRAM+0xf7001564>
    17bc:	00033700 	call	3370 <__adddf3>
    17c0:	1025883a 	mov	r18,r2
    17c4:	008ffe74 	movhi	r2,16377
    17c8:	10887ec4 	addi	r2,r2,8699
    17cc:	1823883a 	mov	r17,r3
    17d0:	b8802226 	beq	r23,r2,185c <__ieee754_rem_pio2+0x6f4>
    17d4:	018698b4 	movhi	r6,6754
    17d8:	01cf7474 	movhi	r7,15825
    17dc:	3198cc44 	addi	r6,r6,25393
    17e0:	39ed1844 	addi	r7,r7,-19359
    17e4:	9009883a 	mov	r4,r18
    17e8:	180b883a 	mov	r5,r3
    17ec:	00033700 	call	3370 <__adddf3>
    17f0:	100d883a 	mov	r6,r2
    17f4:	180f883a 	mov	r7,r3
    17f8:	9009883a 	mov	r4,r18
    17fc:	880b883a 	mov	r5,r17
    1800:	80800015 	stw	r2,0(r16)
    1804:	80c00115 	stw	r3,4(r16)
    1808:	0004fbc0 	call	4fbc <__subdf3>
    180c:	018698b4 	movhi	r6,6754
    1810:	01cf7474 	movhi	r7,15825
    1814:	3198cc44 	addi	r6,r6,25393
    1818:	39ed1844 	addi	r7,r7,-19359
    181c:	1009883a 	mov	r4,r2
    1820:	180b883a 	mov	r5,r3
    1824:	00033700 	call	3370 <__adddf3>
    1828:	80800215 	stw	r2,8(r16)
    182c:	80c00315 	stw	r3,12(r16)
    1830:	00bfffc4 	movi	r2,-1
    1834:	003edc06 	br	13a8 <__alt_mem_VGA_Subsystem_Char_Buf_Subsystem_Onchip_SRAM+0xf70013a8>
    1838:	01c000c4 	movi	r7,3
    183c:	003ec306 	br	134c <__alt_mem_VGA_Subsystem_Char_Buf_Subsystem_Onchip_SRAM+0xf700134c>
    1840:	4a60003c 	xorhi	r9,r9,32768
    1844:	18e0003c 	xorhi	r3,r3,32768
    1848:	83000015 	stw	r12,0(r16)
    184c:	82400115 	stw	r9,4(r16)
    1850:	80c00315 	stw	r3,12(r16)
    1854:	0485c83a 	sub	r2,zero,r18
    1858:	003ed306 	br	13a8 <__alt_mem_VGA_Subsystem_Char_Buf_Subsystem_Onchip_SRAM+0xf70013a8>
    185c:	01cf7474 	movhi	r7,15825
    1860:	9009883a 	mov	r4,r18
    1864:	39ed1844 	addi	r7,r7,-19359
    1868:	01869834 	movhi	r6,6752
    186c:	180b883a 	mov	r5,r3
    1870:	00033700 	call	3370 <__adddf3>
    1874:	018b80f4 	movhi	r6,11779
    1878:	01cee8f4 	movhi	r7,15267
    187c:	319c1cc4 	addi	r6,r6,28787
    1880:	39c66284 	addi	r7,r7,6538
    1884:	1009883a 	mov	r4,r2
    1888:	180b883a 	mov	r5,r3
    188c:	1025883a 	mov	r18,r2
    1890:	1823883a 	mov	r17,r3
    1894:	00033700 	call	3370 <__adddf3>
    1898:	100d883a 	mov	r6,r2
    189c:	180f883a 	mov	r7,r3
    18a0:	9009883a 	mov	r4,r18
    18a4:	880b883a 	mov	r5,r17
    18a8:	80800015 	stw	r2,0(r16)
    18ac:	80c00115 	stw	r3,4(r16)
    18b0:	0004fbc0 	call	4fbc <__subdf3>
    18b4:	018b80f4 	movhi	r6,11779
    18b8:	01cee8f4 	movhi	r7,15267
    18bc:	319c1cc4 	addi	r6,r6,28787
    18c0:	39c66284 	addi	r7,r7,6538
    18c4:	003fd506 	br	181c <__alt_mem_VGA_Subsystem_Char_Buf_Subsystem_Onchip_SRAM+0xf700181c>
    18c8:	dac00917 	ldw	r11,36(sp)
    18cc:	b815883a 	mov	r10,r23
    18d0:	003f2b06 	br	1580 <__alt_mem_VGA_Subsystem_Char_Buf_Subsystem_Onchip_SRAM+0xf7001580>

000018d4 <__kernel_cos>:
    18d4:	defff304 	addi	sp,sp,-52
    18d8:	dc000315 	stw	r16,12(sp)
    18dc:	04200034 	movhi	r16,32768
    18e0:	843fffc4 	addi	r16,r16,-1
    18e4:	008f9034 	movhi	r2,15936
    18e8:	df000b15 	stw	fp,44(sp)
    18ec:	ddc00a15 	stw	r23,40(sp)
    18f0:	dd800915 	stw	r22,36(sp)
    18f4:	dcc00615 	stw	r19,24(sp)
    18f8:	dfc00c15 	stw	ra,48(sp)
    18fc:	dd400815 	stw	r21,32(sp)
    1900:	dd000715 	stw	r20,28(sp)
    1904:	dc800515 	stw	r18,20(sp)
    1908:	dc400415 	stw	r17,16(sp)
    190c:	2c20703a 	and	r16,r5,r16
    1910:	10bfffc4 	addi	r2,r2,-1
    1914:	2827883a 	mov	r19,r5
    1918:	202d883a 	mov	r22,r4
    191c:	302f883a 	mov	r23,r6
    1920:	3839883a 	mov	fp,r7
    1924:	14007516 	blt	r2,r16,1afc <__kernel_cos+0x228>
    1928:	00058b80 	call	58b8 <__fixdfsi>
    192c:	10010f26 	beq	r2,zero,1d6c <__kernel_cos+0x498>
    1930:	b00d883a 	mov	r6,r22
    1934:	980f883a 	mov	r7,r19
    1938:	b009883a 	mov	r4,r22
    193c:	980b883a 	mov	r5,r19
    1940:	00047500 	call	4750 <__muldf3>
    1944:	01afa234 	movhi	r6,48776
    1948:	01ef6a74 	movhi	r7,48553
    194c:	318e3504 	addi	r6,r6,14548
    1950:	39feba44 	addi	r7,r7,-1303
    1954:	1009883a 	mov	r4,r2
    1958:	180b883a 	mov	r5,r3
    195c:	102b883a 	mov	r21,r2
    1960:	1829883a 	mov	r20,r3
    1964:	00047500 	call	4750 <__muldf3>
    1968:	01af6d74 	movhi	r6,48565
    196c:	01cf88b4 	movhi	r7,15906
    1970:	31ac7104 	addi	r6,r6,-20028
    1974:	39fba784 	addi	r7,r7,-4450
    1978:	1009883a 	mov	r4,r2
    197c:	180b883a 	mov	r5,r3
    1980:	00033700 	call	3370 <__adddf3>
    1984:	a80d883a 	mov	r6,r21
    1988:	a00f883a 	mov	r7,r20
    198c:	1009883a 	mov	r4,r2
    1990:	180b883a 	mov	r5,r3
    1994:	00047500 	call	4750 <__muldf3>
    1998:	01a02734 	movhi	r6,32924
    199c:	01cfa4b4 	movhi	r7,16018
    19a0:	3194ab44 	addi	r6,r6,21165
    19a4:	39df93c4 	addi	r7,r7,32335
    19a8:	1009883a 	mov	r4,r2
    19ac:	180b883a 	mov	r5,r3
    19b0:	0004fbc0 	call	4fbc <__subdf3>
    19b4:	a80d883a 	mov	r6,r21
    19b8:	a00f883a 	mov	r7,r20
    19bc:	1009883a 	mov	r4,r2
    19c0:	180b883a 	mov	r5,r3
    19c4:	00047500 	call	4750 <__muldf3>
    19c8:	018672f4 	movhi	r6,6603
    19cc:	01cfbeb4 	movhi	r7,16122
    19d0:	31856404 	addi	r6,r6,5520
    19d4:	39c06804 	addi	r7,r7,416
    19d8:	1009883a 	mov	r4,r2
    19dc:	180b883a 	mov	r5,r3
    19e0:	00033700 	call	3370 <__adddf3>
    19e4:	a80d883a 	mov	r6,r21
    19e8:	a00f883a 	mov	r7,r20
    19ec:	1009883a 	mov	r4,r2
    19f0:	180b883a 	mov	r5,r3
    19f4:	00047500 	call	4750 <__muldf3>
    19f8:	0185b074 	movhi	r6,5825
    19fc:	01cfd5f4 	movhi	r7,16215
    1a00:	31945dc4 	addi	r6,r6,20855
    1a04:	39f05b04 	addi	r7,r7,-16020
    1a08:	1009883a 	mov	r4,r2
    1a0c:	180b883a 	mov	r5,r3
    1a10:	0004fbc0 	call	4fbc <__subdf3>
    1a14:	a80d883a 	mov	r6,r21
    1a18:	a00f883a 	mov	r7,r20
    1a1c:	1009883a 	mov	r4,r2
    1a20:	180b883a 	mov	r5,r3
    1a24:	00047500 	call	4750 <__muldf3>
    1a28:	01955574 	movhi	r6,21845
    1a2c:	01cfe974 	movhi	r7,16293
    1a30:	31955304 	addi	r6,r6,21836
    1a34:	39d55544 	addi	r7,r7,21845
    1a38:	1009883a 	mov	r4,r2
    1a3c:	180b883a 	mov	r5,r3
    1a40:	00033700 	call	3370 <__adddf3>
    1a44:	a80d883a 	mov	r6,r21
    1a48:	a00f883a 	mov	r7,r20
    1a4c:	1009883a 	mov	r4,r2
    1a50:	180b883a 	mov	r5,r3
    1a54:	00047500 	call	4750 <__muldf3>
    1a58:	1017883a 	mov	r11,r2
    1a5c:	1815883a 	mov	r10,r3
    1a60:	a809883a 	mov	r4,r21
    1a64:	a00b883a 	mov	r5,r20
    1a68:	000d883a 	mov	r6,zero
    1a6c:	01cff834 	movhi	r7,16352
    1a70:	da800215 	stw	r10,8(sp)
    1a74:	dac00115 	stw	r11,4(sp)
    1a78:	00047500 	call	4750 <__muldf3>
    1a7c:	dac00117 	ldw	r11,4(sp)
    1a80:	da800217 	ldw	r10,8(sp)
    1a84:	a809883a 	mov	r4,r21
    1a88:	580d883a 	mov	r6,r11
    1a8c:	500f883a 	mov	r7,r10
    1a90:	a00b883a 	mov	r5,r20
    1a94:	1023883a 	mov	r17,r2
    1a98:	1821883a 	mov	r16,r3
    1a9c:	00047500 	call	4750 <__muldf3>
    1aa0:	b80d883a 	mov	r6,r23
    1aa4:	e00f883a 	mov	r7,fp
    1aa8:	b009883a 	mov	r4,r22
    1aac:	980b883a 	mov	r5,r19
    1ab0:	1029883a 	mov	r20,r2
    1ab4:	1825883a 	mov	r18,r3
    1ab8:	00047500 	call	4750 <__muldf3>
    1abc:	a009883a 	mov	r4,r20
    1ac0:	900b883a 	mov	r5,r18
    1ac4:	100d883a 	mov	r6,r2
    1ac8:	180f883a 	mov	r7,r3
    1acc:	0004fbc0 	call	4fbc <__subdf3>
    1ad0:	8809883a 	mov	r4,r17
    1ad4:	800b883a 	mov	r5,r16
    1ad8:	100d883a 	mov	r6,r2
    1adc:	180f883a 	mov	r7,r3
    1ae0:	0004fbc0 	call	4fbc <__subdf3>
    1ae4:	100d883a 	mov	r6,r2
    1ae8:	180f883a 	mov	r7,r3
    1aec:	0009883a 	mov	r4,zero
    1af0:	014ffc34 	movhi	r5,16368
    1af4:	0004fbc0 	call	4fbc <__subdf3>
    1af8:	00008b06 	br	1d28 <__kernel_cos+0x454>
    1afc:	200d883a 	mov	r6,r4
    1b00:	280f883a 	mov	r7,r5
    1b04:	00047500 	call	4750 <__muldf3>
    1b08:	01afa234 	movhi	r6,48776
    1b0c:	01ef6a74 	movhi	r7,48553
    1b10:	318e3504 	addi	r6,r6,14548
    1b14:	39feba44 	addi	r7,r7,-1303
    1b18:	1009883a 	mov	r4,r2
    1b1c:	180b883a 	mov	r5,r3
    1b20:	1025883a 	mov	r18,r2
    1b24:	1823883a 	mov	r17,r3
    1b28:	00047500 	call	4750 <__muldf3>
    1b2c:	01af6d74 	movhi	r6,48565
    1b30:	01cf88b4 	movhi	r7,15906
    1b34:	31ac7104 	addi	r6,r6,-20028
    1b38:	39fba784 	addi	r7,r7,-4450
    1b3c:	1009883a 	mov	r4,r2
    1b40:	180b883a 	mov	r5,r3
    1b44:	00033700 	call	3370 <__adddf3>
    1b48:	900d883a 	mov	r6,r18
    1b4c:	880f883a 	mov	r7,r17
    1b50:	1009883a 	mov	r4,r2
    1b54:	180b883a 	mov	r5,r3
    1b58:	00047500 	call	4750 <__muldf3>
    1b5c:	01a02734 	movhi	r6,32924
    1b60:	01cfa4b4 	movhi	r7,16018
    1b64:	3194ab44 	addi	r6,r6,21165
    1b68:	39df93c4 	addi	r7,r7,32335
    1b6c:	1009883a 	mov	r4,r2
    1b70:	180b883a 	mov	r5,r3
    1b74:	0004fbc0 	call	4fbc <__subdf3>
    1b78:	900d883a 	mov	r6,r18
    1b7c:	880f883a 	mov	r7,r17
    1b80:	1009883a 	mov	r4,r2
    1b84:	180b883a 	mov	r5,r3
    1b88:	00047500 	call	4750 <__muldf3>
    1b8c:	018672f4 	movhi	r6,6603
    1b90:	01cfbeb4 	movhi	r7,16122
    1b94:	31856404 	addi	r6,r6,5520
    1b98:	39c06804 	addi	r7,r7,416
    1b9c:	1009883a 	mov	r4,r2
    1ba0:	180b883a 	mov	r5,r3
    1ba4:	00033700 	call	3370 <__adddf3>
    1ba8:	900d883a 	mov	r6,r18
    1bac:	880f883a 	mov	r7,r17
    1bb0:	1009883a 	mov	r4,r2
    1bb4:	180b883a 	mov	r5,r3
    1bb8:	00047500 	call	4750 <__muldf3>
    1bbc:	0185b074 	movhi	r6,5825
    1bc0:	01cfd5f4 	movhi	r7,16215
    1bc4:	31945dc4 	addi	r6,r6,20855
    1bc8:	39f05b04 	addi	r7,r7,-16020
    1bcc:	1009883a 	mov	r4,r2
    1bd0:	180b883a 	mov	r5,r3
    1bd4:	0004fbc0 	call	4fbc <__subdf3>
    1bd8:	900d883a 	mov	r6,r18
    1bdc:	880f883a 	mov	r7,r17
    1be0:	1009883a 	mov	r4,r2
    1be4:	180b883a 	mov	r5,r3
    1be8:	00047500 	call	4750 <__muldf3>
    1bec:	01955574 	movhi	r6,21845
    1bf0:	01cfe974 	movhi	r7,16293
    1bf4:	31955304 	addi	r6,r6,21836
    1bf8:	39d55544 	addi	r7,r7,21845
    1bfc:	1009883a 	mov	r4,r2
    1c00:	180b883a 	mov	r5,r3
    1c04:	00033700 	call	3370 <__adddf3>
    1c08:	900d883a 	mov	r6,r18
    1c0c:	880f883a 	mov	r7,r17
    1c10:	1009883a 	mov	r4,r2
    1c14:	180b883a 	mov	r5,r3
    1c18:	00047500 	call	4750 <__muldf3>
    1c1c:	1013883a 	mov	r9,r2
    1c20:	1017883a 	mov	r11,r2
    1c24:	008ff4f4 	movhi	r2,16339
    1c28:	108ccc84 	addi	r2,r2,13106
    1c2c:	1811883a 	mov	r8,r3
    1c30:	902b883a 	mov	r21,r18
    1c34:	8829883a 	mov	r20,r17
    1c38:	1815883a 	mov	r10,r3
    1c3c:	143f880e 	bge	r2,r16,1a60 <__alt_mem_VGA_Subsystem_Char_Buf_Subsystem_Onchip_SRAM+0xf7001a60>
    1c40:	008ffa74 	movhi	r2,16361
    1c44:	14004416 	blt	r2,r16,1d58 <__kernel_cos+0x484>
    1c48:	00bff834 	movhi	r2,65504
    1c4c:	80a1883a 	add	r16,r16,r2
    1c50:	000d883a 	mov	r6,zero
    1c54:	800f883a 	mov	r7,r16
    1c58:	0009883a 	mov	r4,zero
    1c5c:	014ffc34 	movhi	r5,16368
    1c60:	da400115 	stw	r9,4(sp)
    1c64:	d8c00215 	stw	r3,8(sp)
    1c68:	0004fbc0 	call	4fbc <__subdf3>
    1c6c:	da000217 	ldw	r8,8(sp)
    1c70:	da400117 	ldw	r9,4(sp)
    1c74:	102b883a 	mov	r21,r2
    1c78:	d8c00015 	stw	r3,0(sp)
    1c7c:	9009883a 	mov	r4,r18
    1c80:	880b883a 	mov	r5,r17
    1c84:	000d883a 	mov	r6,zero
    1c88:	01cff834 	movhi	r7,16352
    1c8c:	da000215 	stw	r8,8(sp)
    1c90:	da400115 	stw	r9,4(sp)
    1c94:	00047500 	call	4750 <__muldf3>
    1c98:	800f883a 	mov	r7,r16
    1c9c:	000d883a 	mov	r6,zero
    1ca0:	1009883a 	mov	r4,r2
    1ca4:	180b883a 	mov	r5,r3
    1ca8:	0004fbc0 	call	4fbc <__subdf3>
    1cac:	da400117 	ldw	r9,4(sp)
    1cb0:	da000217 	ldw	r8,8(sp)
    1cb4:	9009883a 	mov	r4,r18
    1cb8:	480d883a 	mov	r6,r9
    1cbc:	400f883a 	mov	r7,r8
    1cc0:	880b883a 	mov	r5,r17
    1cc4:	1029883a 	mov	r20,r2
    1cc8:	1821883a 	mov	r16,r3
    1ccc:	00047500 	call	4750 <__muldf3>
    1cd0:	b80d883a 	mov	r6,r23
    1cd4:	e00f883a 	mov	r7,fp
    1cd8:	b009883a 	mov	r4,r22
    1cdc:	980b883a 	mov	r5,r19
    1ce0:	1025883a 	mov	r18,r2
    1ce4:	1823883a 	mov	r17,r3
    1ce8:	00047500 	call	4750 <__muldf3>
    1cec:	100d883a 	mov	r6,r2
    1cf0:	180f883a 	mov	r7,r3
    1cf4:	9009883a 	mov	r4,r18
    1cf8:	880b883a 	mov	r5,r17
    1cfc:	0004fbc0 	call	4fbc <__subdf3>
    1d00:	100d883a 	mov	r6,r2
    1d04:	180f883a 	mov	r7,r3
    1d08:	a009883a 	mov	r4,r20
    1d0c:	800b883a 	mov	r5,r16
    1d10:	0004fbc0 	call	4fbc <__subdf3>
    1d14:	d9400017 	ldw	r5,0(sp)
    1d18:	100d883a 	mov	r6,r2
    1d1c:	180f883a 	mov	r7,r3
    1d20:	a809883a 	mov	r4,r21
    1d24:	0004fbc0 	call	4fbc <__subdf3>
    1d28:	dfc00c17 	ldw	ra,48(sp)
    1d2c:	df000b17 	ldw	fp,44(sp)
    1d30:	ddc00a17 	ldw	r23,40(sp)
    1d34:	dd800917 	ldw	r22,36(sp)
    1d38:	dd400817 	ldw	r21,32(sp)
    1d3c:	dd000717 	ldw	r20,28(sp)
    1d40:	dcc00617 	ldw	r19,24(sp)
    1d44:	dc800517 	ldw	r18,20(sp)
    1d48:	dc400417 	ldw	r17,16(sp)
    1d4c:	dc000317 	ldw	r16,12(sp)
    1d50:	dec00d04 	addi	sp,sp,52
    1d54:	f800283a 	ret
    1d58:	008ff9f4 	movhi	r2,16359
    1d5c:	002b883a 	mov	r21,zero
    1d60:	d8800015 	stw	r2,0(sp)
    1d64:	040ff4b4 	movhi	r16,16338
    1d68:	003fc406 	br	1c7c <__alt_mem_VGA_Subsystem_Char_Buf_Subsystem_Onchip_SRAM+0xf7001c7c>
    1d6c:	0005883a 	mov	r2,zero
    1d70:	00cffc34 	movhi	r3,16368
    1d74:	003fec06 	br	1d28 <__alt_mem_VGA_Subsystem_Char_Buf_Subsystem_Onchip_SRAM+0xf7001d28>

00001d78 <__kernel_rem_pio2>:
    1d78:	deff5a04 	addi	sp,sp,-664
    1d7c:	da00a617 	ldw	r8,664(sp)
    1d80:	00c00074 	movhi	r3,1
    1d84:	18cc4404 	addi	r3,r3,12560
    1d88:	4205883a 	add	r2,r8,r8
    1d8c:	1085883a 	add	r2,r2,r2
    1d90:	1885883a 	add	r2,r3,r2
    1d94:	d9008e15 	stw	r4,568(sp)
    1d98:	d9408f15 	stw	r5,572(sp)
    1d9c:	313fff44 	addi	r4,r6,-3
    1da0:	01400604 	movi	r5,24
    1da4:	dd80a215 	stw	r22,648(sp)
    1da8:	dc009c15 	stw	r16,624(sp)
    1dac:	dfc0a515 	stw	ra,660(sp)
    1db0:	df00a415 	stw	fp,656(sp)
    1db4:	ddc0a315 	stw	r23,652(sp)
    1db8:	dd40a115 	stw	r21,644(sp)
    1dbc:	dd00a015 	stw	r20,640(sp)
    1dc0:	dcc09f15 	stw	r19,636(sp)
    1dc4:	dc809e15 	stw	r18,632(sp)
    1dc8:	dc409d15 	stw	r17,628(sp)
    1dcc:	3021883a 	mov	r16,r6
    1dd0:	d9c09315 	stw	r7,588(sp)
    1dd4:	15800017 	ldw	r22,0(r2)
    1dd8:	00031940 	call	3194 <__divsi3>
    1ddc:	da009317 	ldw	r8,588(sp)
    1de0:	d8809215 	stw	r2,584(sp)
    1de4:	423fffc4 	addi	r8,r8,-1
    1de8:	da008d15 	stw	r8,564(sp)
    1dec:	10033d16 	blt	r2,zero,2ae4 <__kernel_rem_pio2+0xd6c>
    1df0:	da009217 	ldw	r8,584(sp)
    1df4:	017ffa04 	movi	r5,-24
    1df8:	42000044 	addi	r8,r8,1
    1dfc:	4009883a 	mov	r4,r8
    1e00:	da009515 	stw	r8,596(sp)
    1e04:	00033480 	call	3348 <__mulsi3>
    1e08:	da008d17 	ldw	r8,564(sp)
    1e0c:	1421883a 	add	r16,r2,r16
    1e10:	d8809217 	ldw	r2,584(sp)
    1e14:	b207883a 	add	r3,r22,r8
    1e18:	dc009015 	stw	r16,576(sp)
    1e1c:	1223c83a 	sub	r17,r2,r8
    1e20:	18001016 	blt	r3,zero,1e64 <__kernel_rem_pio2+0xec>
    1e24:	da00a717 	ldw	r8,668(sp)
    1e28:	8c65883a 	add	r18,r17,r17
    1e2c:	94a5883a 	add	r18,r18,r18
    1e30:	1c47883a 	add	r3,r3,r17
    1e34:	dcc05004 	addi	r19,sp,320
    1e38:	44a5883a 	add	r18,r8,r18
    1e3c:	1c000044 	addi	r16,r3,1
    1e40:	88015316 	blt	r17,zero,2390 <__kernel_rem_pio2+0x618>
    1e44:	91000017 	ldw	r4,0(r18)
    1e48:	00059380 	call	5938 <__floatsidf>
    1e4c:	98800015 	stw	r2,0(r19)
    1e50:	98c00115 	stw	r3,4(r19)
    1e54:	8c400044 	addi	r17,r17,1
    1e58:	9cc00204 	addi	r19,r19,8
    1e5c:	94800104 	addi	r18,r18,4
    1e60:	8c3ff71e 	bne	r17,r16,1e40 <__alt_mem_VGA_Subsystem_Char_Buf_Subsystem_Onchip_SRAM+0xf7001e40>
    1e64:	b0002816 	blt	r22,zero,1f08 <__kernel_rem_pio2+0x190>
    1e68:	da008d17 	ldw	r8,564(sp)
    1e6c:	b4c00044 	addi	r19,r22,1
    1e70:	982690fa 	slli	r19,r19,3
    1e74:	402490fa 	slli	r18,r8,3
    1e78:	da008e17 	ldw	r8,568(sp)
    1e7c:	d8805004 	addi	r2,sp,320
    1e80:	94000204 	addi	r16,r18,8
    1e84:	d823883a 	mov	r17,sp
    1e88:	14a5883a 	add	r18,r2,r18
    1e8c:	dcef883a 	add	r23,sp,r19
    1e90:	4421883a 	add	r16,r8,r16
    1e94:	dd809115 	stw	r22,580(sp)
    1e98:	4039883a 	mov	fp,r8
    1e9c:	da008d17 	ldw	r8,564(sp)
    1ea0:	40016016 	blt	r8,zero,2424 <__kernel_rem_pio2+0x6ac>
    1ea4:	e027883a 	mov	r19,fp
    1ea8:	9029883a 	mov	r20,r18
    1eac:	002d883a 	mov	r22,zero
    1eb0:	002b883a 	mov	r21,zero
    1eb4:	a1800017 	ldw	r6,0(r20)
    1eb8:	a1c00117 	ldw	r7,4(r20)
    1ebc:	99000017 	ldw	r4,0(r19)
    1ec0:	99400117 	ldw	r5,4(r19)
    1ec4:	9cc00204 	addi	r19,r19,8
    1ec8:	a53ffe04 	addi	r20,r20,-8
    1ecc:	00047500 	call	4750 <__muldf3>
    1ed0:	b009883a 	mov	r4,r22
    1ed4:	a80b883a 	mov	r5,r21
    1ed8:	100d883a 	mov	r6,r2
    1edc:	180f883a 	mov	r7,r3
    1ee0:	00033700 	call	3370 <__adddf3>
    1ee4:	102d883a 	mov	r22,r2
    1ee8:	182b883a 	mov	r21,r3
    1eec:	9c3ff11e 	bne	r19,r16,1eb4 <__alt_mem_VGA_Subsystem_Char_Buf_Subsystem_Onchip_SRAM+0xf7001eb4>
    1ef0:	8d800015 	stw	r22,0(r17)
    1ef4:	8d400115 	stw	r21,4(r17)
    1ef8:	8c400204 	addi	r17,r17,8
    1efc:	94800204 	addi	r18,r18,8
    1f00:	8dffe61e 	bne	r17,r23,1e9c <__alt_mem_VGA_Subsystem_Char_Buf_Subsystem_Onchip_SRAM+0xf7001e9c>
    1f04:	dd809117 	ldw	r22,580(sp)
    1f08:	00d00034 	movhi	r3,16384
    1f0c:	da009317 	ldw	r8,588(sp)
    1f10:	18ffff84 	addi	r3,r3,-2
    1f14:	b0c7883a 	add	r3,r22,r3
    1f18:	18c7883a 	add	r3,r3,r3
    1f1c:	402090fa 	slli	r16,r8,3
    1f20:	18c7883a 	add	r3,r3,r3
    1f24:	da007804 	addi	r8,sp,480
    1f28:	40d1883a 	add	r8,r8,r3
    1f2c:	b0bfffc4 	addi	r2,r22,-1
    1f30:	da009615 	stw	r8,600(sp)
    1f34:	da008e17 	ldw	r8,568(sp)
    1f38:	1085883a 	add	r2,r2,r2
    1f3c:	1085883a 	add	r2,r2,r2
    1f40:	19000104 	addi	r4,r3,4
    1f44:	d885883a 	add	r2,sp,r2
    1f48:	4421883a 	add	r16,r8,r16
    1f4c:	da007804 	addi	r8,sp,480
    1f50:	4111883a 	add	r8,r8,r4
    1f54:	10807804 	addi	r2,r2,480
    1f58:	da009715 	stw	r8,604(sp)
    1f5c:	b025883a 	mov	r18,r22
    1f60:	d8809815 	stw	r2,608(sp)
    1f64:	dd809415 	stw	r22,592(sp)
    1f68:	900490fa 	slli	r2,r18,3
    1f6c:	d885883a 	add	r2,sp,r2
    1f70:	17000017 	ldw	fp,0(r2)
    1f74:	15400117 	ldw	r21,4(r2)
    1f78:	04802b0e 	bge	zero,r18,2028 <__kernel_rem_pio2+0x2b0>
    1f7c:	00880034 	movhi	r2,8192
    1f80:	10bfffc4 	addi	r2,r2,-1
    1f84:	90a9883a 	add	r20,r18,r2
    1f88:	a02890fa 	slli	r20,r20,3
    1f8c:	dc407804 	addi	r17,sp,480
    1f90:	dcfffe04 	addi	r19,sp,-8
    1f94:	dd29883a 	add	r20,sp,r20
    1f98:	000d883a 	mov	r6,zero
    1f9c:	01cf9c34 	movhi	r7,15984
    1fa0:	e009883a 	mov	r4,fp
    1fa4:	a80b883a 	mov	r5,r21
    1fa8:	00047500 	call	4750 <__muldf3>
    1fac:	180b883a 	mov	r5,r3
    1fb0:	1009883a 	mov	r4,r2
    1fb4:	00058b80 	call	58b8 <__fixdfsi>
    1fb8:	1009883a 	mov	r4,r2
    1fbc:	00059380 	call	5938 <__floatsidf>
    1fc0:	000d883a 	mov	r6,zero
    1fc4:	01d05c34 	movhi	r7,16752
    1fc8:	1009883a 	mov	r4,r2
    1fcc:	180b883a 	mov	r5,r3
    1fd0:	102f883a 	mov	r23,r2
    1fd4:	182d883a 	mov	r22,r3
    1fd8:	00047500 	call	4750 <__muldf3>
    1fdc:	100d883a 	mov	r6,r2
    1fe0:	180f883a 	mov	r7,r3
    1fe4:	e009883a 	mov	r4,fp
    1fe8:	a80b883a 	mov	r5,r21
    1fec:	0004fbc0 	call	4fbc <__subdf3>
    1ff0:	180b883a 	mov	r5,r3
    1ff4:	1009883a 	mov	r4,r2
    1ff8:	00058b80 	call	58b8 <__fixdfsi>
    1ffc:	a1800017 	ldw	r6,0(r20)
    2000:	a1c00117 	ldw	r7,4(r20)
    2004:	88800015 	stw	r2,0(r17)
    2008:	b809883a 	mov	r4,r23
    200c:	b00b883a 	mov	r5,r22
    2010:	00033700 	call	3370 <__adddf3>
    2014:	a53ffe04 	addi	r20,r20,-8
    2018:	1039883a 	mov	fp,r2
    201c:	182b883a 	mov	r21,r3
    2020:	8c400104 	addi	r17,r17,4
    2024:	a4ffdc1e 	bne	r20,r19,1f98 <__alt_mem_VGA_Subsystem_Char_Buf_Subsystem_Onchip_SRAM+0xf7001f98>
    2028:	d9809017 	ldw	r6,576(sp)
    202c:	a80b883a 	mov	r5,r21
    2030:	e009883a 	mov	r4,fp
    2034:	0002fdc0 	call	2fdc <scalbn>
    2038:	000d883a 	mov	r6,zero
    203c:	01cff034 	movhi	r7,16320
    2040:	1009883a 	mov	r4,r2
    2044:	180b883a 	mov	r5,r3
    2048:	1027883a 	mov	r19,r2
    204c:	1823883a 	mov	r17,r3
    2050:	00047500 	call	4750 <__muldf3>
    2054:	1009883a 	mov	r4,r2
    2058:	180b883a 	mov	r5,r3
    205c:	0002df00 	call	2df0 <floor>
    2060:	000d883a 	mov	r6,zero
    2064:	01d00834 	movhi	r7,16416
    2068:	1009883a 	mov	r4,r2
    206c:	180b883a 	mov	r5,r3
    2070:	00047500 	call	4750 <__muldf3>
    2074:	100d883a 	mov	r6,r2
    2078:	180f883a 	mov	r7,r3
    207c:	9809883a 	mov	r4,r19
    2080:	880b883a 	mov	r5,r17
    2084:	0004fbc0 	call	4fbc <__subdf3>
    2088:	180b883a 	mov	r5,r3
    208c:	1009883a 	mov	r4,r2
    2090:	1827883a 	mov	r19,r3
    2094:	1029883a 	mov	r20,r2
    2098:	00058b80 	call	58b8 <__fixdfsi>
    209c:	1009883a 	mov	r4,r2
    20a0:	1023883a 	mov	r17,r2
    20a4:	00059380 	call	5938 <__floatsidf>
    20a8:	a009883a 	mov	r4,r20
    20ac:	100d883a 	mov	r6,r2
    20b0:	180f883a 	mov	r7,r3
    20b4:	980b883a 	mov	r5,r19
    20b8:	0004fbc0 	call	4fbc <__subdf3>
    20bc:	d9009017 	ldw	r4,576(sp)
    20c0:	1013883a 	mov	r9,r2
    20c4:	102b883a 	mov	r21,r2
    20c8:	1811883a 	mov	r8,r3
    20cc:	0100b30e 	bge	zero,r4,239c <__kernel_rem_pio2+0x624>
    20d0:	90bfffc4 	addi	r2,r18,-1
    20d4:	1085883a 	add	r2,r2,r2
    20d8:	1085883a 	add	r2,r2,r2
    20dc:	d885883a 	add	r2,sp,r2
    20e0:	10807804 	addi	r2,r2,480
    20e4:	d9809017 	ldw	r6,576(sp)
    20e8:	11400017 	ldw	r5,0(r2)
    20ec:	01000604 	movi	r4,24
    20f0:	2189c83a 	sub	r4,r4,r6
    20f4:	290dd83a 	sra	r6,r5,r4
    20f8:	d9c09017 	ldw	r7,576(sp)
    20fc:	04c005c4 	movi	r19,23
    2100:	3108983a 	sll	r4,r6,r4
    2104:	99e7c83a 	sub	r19,r19,r7
    2108:	89a3883a 	add	r17,r17,r6
    210c:	2909c83a 	sub	r4,r5,r4
    2110:	24e7d83a 	sra	r19,r4,r19
    2114:	11000015 	stw	r4,0(r2)
    2118:	04c02a0e 	bge	zero,r19,21c4 <__kernel_rem_pio2+0x44c>
    211c:	8c400044 	addi	r17,r17,1
    2120:	0481570e 	bge	zero,r18,2680 <__kernel_rem_pio2+0x908>
    2124:	02804034 	movhi	r10,256
    2128:	52bfffc4 	addi	r10,r10,-1
    212c:	d8807804 	addi	r2,sp,480
    2130:	000b883a 	mov	r5,zero
    2134:	0029883a 	mov	r20,zero
    2138:	01c04034 	movhi	r7,256
    213c:	00000706 	br	215c <__kernel_rem_pio2+0x3e4>
    2140:	390dc83a 	sub	r6,r7,r4
    2144:	20000226 	beq	r4,zero,2150 <__kernel_rem_pio2+0x3d8>
    2148:	11800015 	stw	r6,0(r2)
    214c:	05000044 	movi	r20,1
    2150:	29400044 	addi	r5,r5,1
    2154:	10800104 	addi	r2,r2,4
    2158:	2c80080e 	bge	r5,r18,217c <__kernel_rem_pio2+0x404>
    215c:	11000017 	ldw	r4,0(r2)
    2160:	a03ff726 	beq	r20,zero,2140 <__alt_mem_VGA_Subsystem_Char_Buf_Subsystem_Onchip_SRAM+0xf7002140>
    2164:	5109c83a 	sub	r4,r10,r4
    2168:	11000015 	stw	r4,0(r2)
    216c:	29400044 	addi	r5,r5,1
    2170:	05000044 	movi	r20,1
    2174:	10800104 	addi	r2,r2,4
    2178:	2cbff816 	blt	r5,r18,215c <__alt_mem_VGA_Subsystem_Char_Buf_Subsystem_Onchip_SRAM+0xf700215c>
    217c:	d9009017 	ldw	r4,576(sp)
    2180:	01000e0e 	bge	zero,r4,21bc <__kernel_rem_pio2+0x444>
    2184:	00800044 	movi	r2,1
    2188:	20808d26 	beq	r4,r2,23c0 <__kernel_rem_pio2+0x648>
    218c:	00800084 	movi	r2,2
    2190:	20800a1e 	bne	r4,r2,21bc <__kernel_rem_pio2+0x444>
    2194:	90bfffc4 	addi	r2,r18,-1
    2198:	1085883a 	add	r2,r2,r2
    219c:	1085883a 	add	r2,r2,r2
    21a0:	d885883a 	add	r2,sp,r2
    21a4:	10807804 	addi	r2,r2,480
    21a8:	11400017 	ldw	r5,0(r2)
    21ac:	01001034 	movhi	r4,64
    21b0:	213fffc4 	addi	r4,r4,-1
    21b4:	2908703a 	and	r4,r5,r4
    21b8:	11000015 	stw	r4,0(r2)
    21bc:	00800084 	movi	r2,2
    21c0:	98805d26 	beq	r19,r2,2338 <__kernel_rem_pio2+0x5c0>
    21c4:	400b883a 	mov	r5,r8
    21c8:	000d883a 	mov	r6,zero
    21cc:	000f883a 	mov	r7,zero
    21d0:	a809883a 	mov	r4,r21
    21d4:	da009b15 	stw	r8,620(sp)
    21d8:	00045ec0 	call	45ec <__eqdf2>
    21dc:	da009b17 	ldw	r8,620(sp)
    21e0:	10012b1e 	bne	r2,zero,2690 <__kernel_rem_pio2+0x918>
    21e4:	da009417 	ldw	r8,592(sp)
    21e8:	917fffc4 	addi	r5,r18,-1
    21ec:	2a000e16 	blt	r5,r8,2228 <__kernel_rem_pio2+0x4b0>
    21f0:	00900034 	movhi	r2,16384
    21f4:	10bfffc4 	addi	r2,r2,-1
    21f8:	9085883a 	add	r2,r18,r2
    21fc:	1085883a 	add	r2,r2,r2
    2200:	d9809717 	ldw	r6,604(sp)
    2204:	1085883a 	add	r2,r2,r2
    2208:	d9007804 	addi	r4,sp,480
    220c:	0007883a 	mov	r3,zero
    2210:	2085883a 	add	r2,r4,r2
    2214:	11000017 	ldw	r4,0(r2)
    2218:	10bfff04 	addi	r2,r2,-4
    221c:	1906b03a 	or	r3,r3,r4
    2220:	11bffc1e 	bne	r2,r6,2214 <__alt_mem_VGA_Subsystem_Char_Buf_Subsystem_Onchip_SRAM+0xf7002214>
    2224:	1800821e 	bne	r3,zero,2430 <__kernel_rem_pio2+0x6b8>
    2228:	da009817 	ldw	r8,608(sp)
    222c:	40800017 	ldw	r2,0(r8)
    2230:	1001151e 	bne	r2,zero,2688 <__kernel_rem_pio2+0x910>
    2234:	d8809617 	ldw	r2,600(sp)
    2238:	05000044 	movi	r20,1
    223c:	10bfff04 	addi	r2,r2,-4
    2240:	10c00117 	ldw	r3,4(r2)
    2244:	a5000044 	addi	r20,r20,1
    2248:	183ffc26 	beq	r3,zero,223c <__alt_mem_VGA_Subsystem_Char_Buf_Subsystem_Onchip_SRAM+0xf700223c>
    224c:	9529883a 	add	r20,r18,r20
    2250:	90800044 	addi	r2,r18,1
    2254:	dd009115 	stw	r20,580(sp)
    2258:	a0803216 	blt	r20,r2,2324 <__kernel_rem_pio2+0x5ac>
    225c:	da009317 	ldw	r8,588(sp)
    2260:	d8c09117 	ldw	r3,580(sp)
    2264:	44a3883a 	add	r17,r8,r18
    2268:	da009217 	ldw	r8,584(sp)
    226c:	882290fa 	slli	r17,r17,3
    2270:	40a5883a 	add	r18,r8,r2
    2274:	da009517 	ldw	r8,596(sp)
    2278:	100490fa 	slli	r2,r2,3
    227c:	94a5883a 	add	r18,r18,r18
    2280:	40eb883a 	add	r21,r8,r3
    2284:	da00a717 	ldw	r8,668(sp)
    2288:	ad6b883a 	add	r21,r21,r21
    228c:	94a5883a 	add	r18,r18,r18
    2290:	ad6b883a 	add	r21,r21,r21
    2294:	d8c05004 	addi	r3,sp,320
    2298:	44a5883a 	add	r18,r8,r18
    229c:	1c63883a 	add	r17,r3,r17
    22a0:	d8a7883a 	add	r19,sp,r2
    22a4:	456b883a 	add	r21,r8,r21
    22a8:	91000017 	ldw	r4,0(r18)
    22ac:	00059380 	call	5938 <__floatsidf>
    22b0:	da008d17 	ldw	r8,564(sp)
    22b4:	88800015 	stw	r2,0(r17)
    22b8:	88c00115 	stw	r3,4(r17)
    22bc:	40001b16 	blt	r8,zero,232c <__kernel_rem_pio2+0x5b4>
    22c0:	dd008e17 	ldw	r20,568(sp)
    22c4:	882d883a 	mov	r22,r17
    22c8:	002f883a 	mov	r23,zero
    22cc:	0039883a 	mov	fp,zero
    22d0:	b1800017 	ldw	r6,0(r22)
    22d4:	b1c00117 	ldw	r7,4(r22)
    22d8:	a1000017 	ldw	r4,0(r20)
    22dc:	a1400117 	ldw	r5,4(r20)
    22e0:	a5000204 	addi	r20,r20,8
    22e4:	b5bffe04 	addi	r22,r22,-8
    22e8:	00047500 	call	4750 <__muldf3>
    22ec:	b809883a 	mov	r4,r23
    22f0:	e00b883a 	mov	r5,fp
    22f4:	100d883a 	mov	r6,r2
    22f8:	180f883a 	mov	r7,r3
    22fc:	00033700 	call	3370 <__adddf3>
    2300:	102f883a 	mov	r23,r2
    2304:	1839883a 	mov	fp,r3
    2308:	a43ff11e 	bne	r20,r16,22d0 <__alt_mem_VGA_Subsystem_Char_Buf_Subsystem_Onchip_SRAM+0xf70022d0>
    230c:	9dc00015 	stw	r23,0(r19)
    2310:	9f000115 	stw	fp,4(r19)
    2314:	94800104 	addi	r18,r18,4
    2318:	8c400204 	addi	r17,r17,8
    231c:	9cc00204 	addi	r19,r19,8
    2320:	957fe11e 	bne	r18,r21,22a8 <__alt_mem_VGA_Subsystem_Char_Buf_Subsystem_Onchip_SRAM+0xf70022a8>
    2324:	dc809117 	ldw	r18,580(sp)
    2328:	003f0f06 	br	1f68 <__alt_mem_VGA_Subsystem_Char_Buf_Subsystem_Onchip_SRAM+0xf7001f68>
    232c:	002f883a 	mov	r23,zero
    2330:	0039883a 	mov	fp,zero
    2334:	003ff506 	br	230c <__alt_mem_VGA_Subsystem_Char_Buf_Subsystem_Onchip_SRAM+0xf700230c>
    2338:	480d883a 	mov	r6,r9
    233c:	180f883a 	mov	r7,r3
    2340:	0009883a 	mov	r4,zero
    2344:	014ffc34 	movhi	r5,16368
    2348:	0004fbc0 	call	4fbc <__subdf3>
    234c:	102b883a 	mov	r21,r2
    2350:	1811883a 	mov	r8,r3
    2354:	a03f9b26 	beq	r20,zero,21c4 <__alt_mem_VGA_Subsystem_Char_Buf_Subsystem_Onchip_SRAM+0xf70021c4>
    2358:	d9809017 	ldw	r6,576(sp)
    235c:	0009883a 	mov	r4,zero
    2360:	014ffc34 	movhi	r5,16368
    2364:	d8c09b15 	stw	r3,620(sp)
    2368:	0002fdc0 	call	2fdc <scalbn>
    236c:	da009b17 	ldw	r8,620(sp)
    2370:	a809883a 	mov	r4,r21
    2374:	100d883a 	mov	r6,r2
    2378:	400b883a 	mov	r5,r8
    237c:	180f883a 	mov	r7,r3
    2380:	0004fbc0 	call	4fbc <__subdf3>
    2384:	102b883a 	mov	r21,r2
    2388:	1811883a 	mov	r8,r3
    238c:	003f8d06 	br	21c4 <__alt_mem_VGA_Subsystem_Char_Buf_Subsystem_Onchip_SRAM+0xf70021c4>
    2390:	0005883a 	mov	r2,zero
    2394:	0007883a 	mov	r3,zero
    2398:	003eac06 	br	1e4c <__alt_mem_VGA_Subsystem_Char_Buf_Subsystem_Onchip_SRAM+0xf7001e4c>
    239c:	d8809017 	ldw	r2,576(sp)
    23a0:	1000121e 	bne	r2,zero,23ec <__kernel_rem_pio2+0x674>
    23a4:	90bfffc4 	addi	r2,r18,-1
    23a8:	1085883a 	add	r2,r2,r2
    23ac:	1085883a 	add	r2,r2,r2
    23b0:	d885883a 	add	r2,sp,r2
    23b4:	14c07817 	ldw	r19,480(r2)
    23b8:	9827d5fa 	srai	r19,r19,23
    23bc:	003f5606 	br	2118 <__alt_mem_VGA_Subsystem_Char_Buf_Subsystem_Onchip_SRAM+0xf7002118>
    23c0:	90bfffc4 	addi	r2,r18,-1
    23c4:	1085883a 	add	r2,r2,r2
    23c8:	1085883a 	add	r2,r2,r2
    23cc:	d885883a 	add	r2,sp,r2
    23d0:	10807804 	addi	r2,r2,480
    23d4:	11000017 	ldw	r4,0(r2)
    23d8:	01402034 	movhi	r5,128
    23dc:	297fffc4 	addi	r5,r5,-1
    23e0:	2148703a 	and	r4,r4,r5
    23e4:	11000015 	stw	r4,0(r2)
    23e8:	003f7406 	br	21bc <__alt_mem_VGA_Subsystem_Char_Buf_Subsystem_Onchip_SRAM+0xf70021bc>
    23ec:	4809883a 	mov	r4,r9
    23f0:	180b883a 	mov	r5,r3
    23f4:	000d883a 	mov	r6,zero
    23f8:	01cff834 	movhi	r7,16352
    23fc:	d8c09a15 	stw	r3,616(sp)
    2400:	d8c09b15 	stw	r3,620(sp)
    2404:	da409915 	stw	r9,612(sp)
    2408:	00046740 	call	4674 <__gedf2>
    240c:	d8c09a17 	ldw	r3,616(sp)
    2410:	da009b17 	ldw	r8,620(sp)
    2414:	da409917 	ldw	r9,612(sp)
    2418:	1000920e 	bge	r2,zero,2664 <__kernel_rem_pio2+0x8ec>
    241c:	0027883a 	mov	r19,zero
    2420:	003f6806 	br	21c4 <__alt_mem_VGA_Subsystem_Char_Buf_Subsystem_Onchip_SRAM+0xf70021c4>
    2424:	002d883a 	mov	r22,zero
    2428:	002b883a 	mov	r21,zero
    242c:	003eb006 	br	1ef0 <__alt_mem_VGA_Subsystem_Char_Buf_Subsystem_Onchip_SRAM+0xf7001ef0>
    2430:	2945883a 	add	r2,r5,r5
    2434:	da009017 	ldw	r8,576(sp)
    2438:	1085883a 	add	r2,r2,r2
    243c:	d885883a 	add	r2,sp,r2
    2440:	10807817 	ldw	r2,480(r2)
    2444:	423ffa04 	addi	r8,r8,-24
    2448:	dc409115 	stw	r17,580(sp)
    244c:	dcc08d15 	stw	r19,564(sp)
    2450:	da009015 	stw	r8,576(sp)
    2454:	dd809417 	ldw	r22,592(sp)
    2458:	2823883a 	mov	r17,r5
    245c:	10000e1e 	bne	r2,zero,2498 <__kernel_rem_pio2+0x720>
    2460:	00900034 	movhi	r2,16384
    2464:	10bfffc4 	addi	r2,r2,-1
    2468:	2885883a 	add	r2,r5,r2
    246c:	1085883a 	add	r2,r2,r2
    2470:	d8c07804 	addi	r3,sp,480
    2474:	1085883a 	add	r2,r2,r2
    2478:	1885883a 	add	r2,r3,r2
    247c:	4007883a 	mov	r3,r8
    2480:	10bfff04 	addi	r2,r2,-4
    2484:	11000117 	ldw	r4,4(r2)
    2488:	8c7fffc4 	addi	r17,r17,-1
    248c:	18fffa04 	addi	r3,r3,-24
    2490:	203ffb26 	beq	r4,zero,2480 <__alt_mem_VGA_Subsystem_Char_Buf_Subsystem_Onchip_SRAM+0xf7002480>
    2494:	d8c09015 	stw	r3,576(sp)
    2498:	d9809017 	ldw	r6,576(sp)
    249c:	0009883a 	mov	r4,zero
    24a0:	014ffc34 	movhi	r5,16368
    24a4:	0002fdc0 	call	2fdc <scalbn>
    24a8:	1029883a 	mov	r20,r2
    24ac:	182b883a 	mov	r21,r3
    24b0:	88018416 	blt	r17,zero,2ac4 <__kernel_rem_pio2+0xd4c>
    24b4:	881090fa 	slli	r8,r17,3
    24b8:	d8c07804 	addi	r3,sp,480
    24bc:	da008e15 	stw	r8,568(sp)
    24c0:	d8808e17 	ldw	r2,568(sp)
    24c4:	8c51883a 	add	r8,r17,r17
    24c8:	4211883a 	add	r8,r8,r8
    24cc:	d8a1883a 	add	r16,sp,r2
    24d0:	1a25883a 	add	r18,r3,r8
    24d4:	da3ffe04 	addi	r8,sp,-8
    24d8:	da008c15 	stw	r8,560(sp)
    24dc:	8039883a 	mov	fp,r16
    24e0:	91000017 	ldw	r4,0(r18)
    24e4:	e73ffe04 	addi	fp,fp,-8
    24e8:	94bfff04 	addi	r18,r18,-4
    24ec:	00059380 	call	5938 <__floatsidf>
    24f0:	a00d883a 	mov	r6,r20
    24f4:	a80f883a 	mov	r7,r21
    24f8:	1009883a 	mov	r4,r2
    24fc:	180b883a 	mov	r5,r3
    2500:	00047500 	call	4750 <__muldf3>
    2504:	a009883a 	mov	r4,r20
    2508:	a80b883a 	mov	r5,r21
    250c:	e0800215 	stw	r2,8(fp)
    2510:	e0c00315 	stw	r3,12(fp)
    2514:	000d883a 	mov	r6,zero
    2518:	01cf9c34 	movhi	r7,15984
    251c:	00047500 	call	4750 <__muldf3>
    2520:	da008c17 	ldw	r8,560(sp)
    2524:	1029883a 	mov	r20,r2
    2528:	182b883a 	mov	r21,r3
    252c:	e23fec1e 	bne	fp,r8,24e0 <__alt_mem_VGA_Subsystem_Char_Buf_Subsystem_Onchip_SRAM+0xf70024e0>
    2530:	0029883a 	mov	r20,zero
    2534:	b0004f16 	blt	r22,zero,2674 <__kernel_rem_pio2+0x8fc>
    2538:	05400074 	movhi	r21,1
    253c:	014ffe74 	movhi	r5,16377
    2540:	ad4c3604 	addi	r21,r21,12504
    2544:	8027883a 	mov	r19,r16
    2548:	01100034 	movhi	r4,16384
    254c:	29487ec4 	addi	r5,r5,8699
    2550:	0039883a 	mov	fp,zero
    2554:	002f883a 	mov	r23,zero
    2558:	0025883a 	mov	r18,zero
    255c:	00000506 	br	2574 <__kernel_rem_pio2+0x7fc>
    2560:	9cc00204 	addi	r19,r19,8
    2564:	a4800f16 	blt	r20,r18,25a4 <__kernel_rem_pio2+0x82c>
    2568:	a9000017 	ldw	r4,0(r21)
    256c:	a9400117 	ldw	r5,4(r21)
    2570:	ad400204 	addi	r21,r21,8
    2574:	99800017 	ldw	r6,0(r19)
    2578:	99c00117 	ldw	r7,4(r19)
    257c:	94800044 	addi	r18,r18,1
    2580:	00047500 	call	4750 <__muldf3>
    2584:	e009883a 	mov	r4,fp
    2588:	b80b883a 	mov	r5,r23
    258c:	100d883a 	mov	r6,r2
    2590:	180f883a 	mov	r7,r3
    2594:	00033700 	call	3370 <__adddf3>
    2598:	1039883a 	mov	fp,r2
    259c:	182f883a 	mov	r23,r3
    25a0:	b4bfef0e 	bge	r22,r18,2560 <__alt_mem_VGA_Subsystem_Char_Buf_Subsystem_Onchip_SRAM+0xf7002560>
    25a4:	a00490fa 	slli	r2,r20,3
    25a8:	da008c17 	ldw	r8,560(sp)
    25ac:	843ffe04 	addi	r16,r16,-8
    25b0:	d885883a 	add	r2,sp,r2
    25b4:	10802804 	addi	r2,r2,160
    25b8:	17000015 	stw	fp,0(r2)
    25bc:	15c00115 	stw	r23,4(r2)
    25c0:	a5000044 	addi	r20,r20,1
    25c4:	823fdb1e 	bne	r16,r8,2534 <__alt_mem_VGA_Subsystem_Char_Buf_Subsystem_Onchip_SRAM+0xf7002534>
    25c8:	da00a617 	ldw	r8,664(sp)
    25cc:	00800084 	movi	r2,2
    25d0:	12006616 	blt	r2,r8,276c <__kernel_rem_pio2+0x9f4>
    25d4:	0200de16 	blt	zero,r8,2950 <__kernel_rem_pio2+0xbd8>
    25d8:	4000141e 	bne	r8,zero,262c <__kernel_rem_pio2+0x8b4>
    25dc:	da008e17 	ldw	r8,568(sp)
    25e0:	d8802804 	addi	r2,sp,160
    25e4:	0007883a 	mov	r3,zero
    25e8:	1225883a 	add	r18,r2,r8
    25ec:	043fffc4 	movi	r16,-1
    25f0:	0005883a 	mov	r2,zero
    25f4:	91800017 	ldw	r6,0(r18)
    25f8:	91c00117 	ldw	r7,4(r18)
    25fc:	1009883a 	mov	r4,r2
    2600:	180b883a 	mov	r5,r3
    2604:	8c7fffc4 	addi	r17,r17,-1
    2608:	00033700 	call	3370 <__adddf3>
    260c:	94bffe04 	addi	r18,r18,-8
    2610:	8c3ff81e 	bne	r17,r16,25f4 <__alt_mem_VGA_Subsystem_Char_Buf_Subsystem_Onchip_SRAM+0xf70025f4>
    2614:	da008d17 	ldw	r8,564(sp)
    2618:	40000126 	beq	r8,zero,2620 <__kernel_rem_pio2+0x8a8>
    261c:	18e0003c 	xorhi	r3,r3,32768
    2620:	da008f17 	ldw	r8,572(sp)
    2624:	40800015 	stw	r2,0(r8)
    2628:	40c00115 	stw	r3,4(r8)
    262c:	da009117 	ldw	r8,580(sp)
    2630:	408001cc 	andi	r2,r8,7
    2634:	dfc0a517 	ldw	ra,660(sp)
    2638:	df00a417 	ldw	fp,656(sp)
    263c:	ddc0a317 	ldw	r23,652(sp)
    2640:	dd80a217 	ldw	r22,648(sp)
    2644:	dd40a117 	ldw	r21,644(sp)
    2648:	dd00a017 	ldw	r20,640(sp)
    264c:	dcc09f17 	ldw	r19,636(sp)
    2650:	dc809e17 	ldw	r18,632(sp)
    2654:	dc409d17 	ldw	r17,628(sp)
    2658:	dc009c17 	ldw	r16,624(sp)
    265c:	dec0a604 	addi	sp,sp,664
    2660:	f800283a 	ret
    2664:	8c400044 	addi	r17,r17,1
    2668:	04810d0e 	bge	zero,r18,2aa0 <__kernel_rem_pio2+0xd28>
    266c:	04c00084 	movi	r19,2
    2670:	003eac06 	br	2124 <__alt_mem_VGA_Subsystem_Char_Buf_Subsystem_Onchip_SRAM+0xf7002124>
    2674:	0039883a 	mov	fp,zero
    2678:	002f883a 	mov	r23,zero
    267c:	003fc906 	br	25a4 <__alt_mem_VGA_Subsystem_Char_Buf_Subsystem_Onchip_SRAM+0xf70025a4>
    2680:	0029883a 	mov	r20,zero
    2684:	003ebd06 	br	217c <__alt_mem_VGA_Subsystem_Char_Buf_Subsystem_Onchip_SRAM+0xf700217c>
    2688:	05000044 	movi	r20,1
    268c:	003eef06 	br	224c <__alt_mem_VGA_Subsystem_Char_Buf_Subsystem_Onchip_SRAM+0xf700224c>
    2690:	4029883a 	mov	r20,r8
    2694:	da009017 	ldw	r8,576(sp)
    2698:	a809883a 	mov	r4,r21
    269c:	a00b883a 	mov	r5,r20
    26a0:	020dc83a 	sub	r6,zero,r8
    26a4:	dc409115 	stw	r17,580(sp)
    26a8:	dd809417 	ldw	r22,592(sp)
    26ac:	dcc08d15 	stw	r19,564(sp)
    26b0:	0002fdc0 	call	2fdc <scalbn>
    26b4:	000d883a 	mov	r6,zero
    26b8:	01d05c34 	movhi	r7,16752
    26bc:	1009883a 	mov	r4,r2
    26c0:	180b883a 	mov	r5,r3
    26c4:	102b883a 	mov	r21,r2
    26c8:	1823883a 	mov	r17,r3
    26cc:	00046740 	call	4674 <__gedf2>
    26d0:	1000e916 	blt	r2,zero,2a78 <__kernel_rem_pio2+0xd00>
    26d4:	000d883a 	mov	r6,zero
    26d8:	01cf9c34 	movhi	r7,15984
    26dc:	880b883a 	mov	r5,r17
    26e0:	a809883a 	mov	r4,r21
    26e4:	00047500 	call	4750 <__muldf3>
    26e8:	180b883a 	mov	r5,r3
    26ec:	1009883a 	mov	r4,r2
    26f0:	00058b80 	call	58b8 <__fixdfsi>
    26f4:	1029883a 	mov	r20,r2
    26f8:	9485883a 	add	r2,r18,r18
    26fc:	1085883a 	add	r2,r2,r2
    2700:	a009883a 	mov	r4,r20
    2704:	d8a1883a 	add	r16,sp,r2
    2708:	00059380 	call	5938 <__floatsidf>
    270c:	000d883a 	mov	r6,zero
    2710:	01d05c34 	movhi	r7,16752
    2714:	1009883a 	mov	r4,r2
    2718:	180b883a 	mov	r5,r3
    271c:	00047500 	call	4750 <__muldf3>
    2720:	880b883a 	mov	r5,r17
    2724:	100d883a 	mov	r6,r2
    2728:	180f883a 	mov	r7,r3
    272c:	a809883a 	mov	r4,r21
    2730:	0004fbc0 	call	4fbc <__subdf3>
    2734:	180b883a 	mov	r5,r3
    2738:	1009883a 	mov	r4,r2
    273c:	00058b80 	call	58b8 <__fixdfsi>
    2740:	da009017 	ldw	r8,576(sp)
    2744:	94400044 	addi	r17,r18,1
    2748:	8c47883a 	add	r3,r17,r17
    274c:	84007804 	addi	r16,r16,480
    2750:	18c7883a 	add	r3,r3,r3
    2754:	80800015 	stw	r2,0(r16)
    2758:	d8c7883a 	add	r3,sp,r3
    275c:	42000604 	addi	r8,r8,24
    2760:	da009015 	stw	r8,576(sp)
    2764:	1d007815 	stw	r20,480(r3)
    2768:	003f4b06 	br	2498 <__alt_mem_VGA_Subsystem_Char_Buf_Subsystem_Onchip_SRAM+0xf7002498>
    276c:	da00a617 	ldw	r8,664(sp)
    2770:	008000c4 	movi	r2,3
    2774:	40bfad1e 	bne	r8,r2,262c <__alt_mem_VGA_Subsystem_Char_Buf_Subsystem_Onchip_SRAM+0xf700262c>
    2778:	0440bc0e 	bge	zero,r17,2a6c <__kernel_rem_pio2+0xcf4>
    277c:	da008e17 	ldw	r8,568(sp)
    2780:	882090fa 	slli	r16,r17,3
    2784:	dd402804 	addi	r21,sp,160
    2788:	da05883a 	add	r2,sp,r8
    278c:	10802804 	addi	r2,r2,160
    2790:	15c00017 	ldw	r23,0(r2)
    2794:	15800117 	ldw	r22,4(r2)
    2798:	8029883a 	mov	r20,r16
    279c:	843ffe04 	addi	r16,r16,-8
    27a0:	ac21883a 	add	r16,r21,r16
    27a4:	ad29883a 	add	r20,r21,r20
    27a8:	dac02604 	addi	r11,sp,152
    27ac:	8811883a 	mov	r8,r17
    27b0:	84400017 	ldw	r17,0(r16)
    27b4:	87000117 	ldw	fp,4(r16)
    27b8:	b80d883a 	mov	r6,r23
    27bc:	b00f883a 	mov	r7,r22
    27c0:	8809883a 	mov	r4,r17
    27c4:	e00b883a 	mov	r5,fp
    27c8:	da009b15 	stw	r8,620(sp)
    27cc:	dac09915 	stw	r11,612(sp)
    27d0:	00033700 	call	3370 <__adddf3>
    27d4:	100d883a 	mov	r6,r2
    27d8:	180f883a 	mov	r7,r3
    27dc:	8809883a 	mov	r4,r17
    27e0:	e00b883a 	mov	r5,fp
    27e4:	1027883a 	mov	r19,r2
    27e8:	1825883a 	mov	r18,r3
    27ec:	0004fbc0 	call	4fbc <__subdf3>
    27f0:	b80d883a 	mov	r6,r23
    27f4:	b00f883a 	mov	r7,r22
    27f8:	1009883a 	mov	r4,r2
    27fc:	180b883a 	mov	r5,r3
    2800:	00033700 	call	3370 <__adddf3>
    2804:	dac09917 	ldw	r11,612(sp)
    2808:	a0800015 	stw	r2,0(r20)
    280c:	a0c00115 	stw	r3,4(r20)
    2810:	84c00015 	stw	r19,0(r16)
    2814:	84800115 	stw	r18,4(r16)
    2818:	843ffe04 	addi	r16,r16,-8
    281c:	a53ffe04 	addi	r20,r20,-8
    2820:	982f883a 	mov	r23,r19
    2824:	902d883a 	mov	r22,r18
    2828:	da009b17 	ldw	r8,620(sp)
    282c:	5c3fe01e 	bne	r11,r16,27b0 <__alt_mem_VGA_Subsystem_Char_Buf_Subsystem_Onchip_SRAM+0xf70027b0>
    2830:	00800044 	movi	r2,1
    2834:	12008d0e 	bge	r2,r8,2a6c <__kernel_rem_pio2+0xcf4>
    2838:	402090fa 	slli	r16,r8,3
    283c:	da008e17 	ldw	r8,568(sp)
    2840:	8023883a 	mov	r17,r16
    2844:	da05883a 	add	r2,sp,r8
    2848:	10802804 	addi	r2,r2,160
    284c:	15800017 	ldw	r22,0(r2)
    2850:	15000117 	ldw	r20,4(r2)
    2854:	ac63883a 	add	r17,r21,r17
    2858:	843ffe04 	addi	r16,r16,-8
    285c:	ac21883a 	add	r16,r21,r16
    2860:	8825883a 	mov	r18,r17
    2864:	8811883a 	mov	r8,r17
    2868:	84400017 	ldw	r17,0(r16)
    286c:	87000117 	ldw	fp,4(r16)
    2870:	b009883a 	mov	r4,r22
    2874:	a00b883a 	mov	r5,r20
    2878:	880d883a 	mov	r6,r17
    287c:	e00f883a 	mov	r7,fp
    2880:	da009b15 	stw	r8,620(sp)
    2884:	00033700 	call	3370 <__adddf3>
    2888:	100d883a 	mov	r6,r2
    288c:	180f883a 	mov	r7,r3
    2890:	8809883a 	mov	r4,r17
    2894:	e00b883a 	mov	r5,fp
    2898:	102f883a 	mov	r23,r2
    289c:	1827883a 	mov	r19,r3
    28a0:	0004fbc0 	call	4fbc <__subdf3>
    28a4:	b00d883a 	mov	r6,r22
    28a8:	a00f883a 	mov	r7,r20
    28ac:	1009883a 	mov	r4,r2
    28b0:	180b883a 	mov	r5,r3
    28b4:	00033700 	call	3370 <__adddf3>
    28b8:	90800015 	stw	r2,0(r18)
    28bc:	90c00115 	stw	r3,4(r18)
    28c0:	85c00015 	stw	r23,0(r16)
    28c4:	84c00115 	stw	r19,4(r16)
    28c8:	843ffe04 	addi	r16,r16,-8
    28cc:	94bffe04 	addi	r18,r18,-8
    28d0:	b82d883a 	mov	r22,r23
    28d4:	9829883a 	mov	r20,r19
    28d8:	da009b17 	ldw	r8,620(sp)
    28dc:	ac3fe21e 	bne	r21,r16,2868 <__alt_mem_VGA_Subsystem_Char_Buf_Subsystem_Onchip_SRAM+0xf7002868>
    28e0:	4023883a 	mov	r17,r8
    28e4:	dc002a04 	addi	r16,sp,168
    28e8:	0005883a 	mov	r2,zero
    28ec:	0007883a 	mov	r3,zero
    28f0:	89800017 	ldw	r6,0(r17)
    28f4:	89c00117 	ldw	r7,4(r17)
    28f8:	1009883a 	mov	r4,r2
    28fc:	8c7ffe04 	addi	r17,r17,-8
    2900:	180b883a 	mov	r5,r3
    2904:	00033700 	call	3370 <__adddf3>
    2908:	847ff91e 	bne	r16,r17,28f0 <__alt_mem_VGA_Subsystem_Char_Buf_Subsystem_Onchip_SRAM+0xf70028f0>
    290c:	da008d17 	ldw	r8,564(sp)
    2910:	40004726 	beq	r8,zero,2a30 <__kernel_rem_pio2+0xcb8>
    2914:	d9002b17 	ldw	r4,172(sp)
    2918:	d9402917 	ldw	r5,164(sp)
    291c:	d9802a17 	ldw	r6,168(sp)
    2920:	da008f17 	ldw	r8,572(sp)
    2924:	d9c02817 	ldw	r7,160(sp)
    2928:	2960003c 	xorhi	r5,r5,32768
    292c:	2120003c 	xorhi	r4,r4,32768
    2930:	18e0003c 	xorhi	r3,r3,32768
    2934:	41c00015 	stw	r7,0(r8)
    2938:	41400115 	stw	r5,4(r8)
    293c:	41800215 	stw	r6,8(r8)
    2940:	41000315 	stw	r4,12(r8)
    2944:	40800415 	stw	r2,16(r8)
    2948:	40c00515 	stw	r3,20(r8)
    294c:	003f3706 	br	262c <__alt_mem_VGA_Subsystem_Char_Buf_Subsystem_Onchip_SRAM+0xf700262c>
    2950:	da008e17 	ldw	r8,568(sp)
    2954:	d8802804 	addi	r2,sp,160
    2958:	dc002604 	addi	r16,sp,152
    295c:	1225883a 	add	r18,r2,r8
    2960:	0007883a 	mov	r3,zero
    2964:	0005883a 	mov	r2,zero
    2968:	91800017 	ldw	r6,0(r18)
    296c:	91c00117 	ldw	r7,4(r18)
    2970:	1009883a 	mov	r4,r2
    2974:	94bffe04 	addi	r18,r18,-8
    2978:	180b883a 	mov	r5,r3
    297c:	00033700 	call	3370 <__adddf3>
    2980:	943ff91e 	bne	r18,r16,2968 <__alt_mem_VGA_Subsystem_Char_Buf_Subsystem_Onchip_SRAM+0xf7002968>
    2984:	da008d17 	ldw	r8,564(sp)
    2988:	d9002817 	ldw	r4,160(sp)
    298c:	d9402917 	ldw	r5,164(sp)
    2990:	40001a26 	beq	r8,zero,29fc <__kernel_rem_pio2+0xc84>
    2994:	da008f17 	ldw	r8,572(sp)
    2998:	19a0003c 	xorhi	r6,r3,32768
    299c:	180f883a 	mov	r7,r3
    29a0:	41800115 	stw	r6,4(r8)
    29a4:	40800015 	stw	r2,0(r8)
    29a8:	100d883a 	mov	r6,r2
    29ac:	0004fbc0 	call	4fbc <__subdf3>
    29b0:	04400c0e 	bge	zero,r17,29e4 <__kernel_rem_pio2+0xc6c>
    29b4:	dc002a04 	addi	r16,sp,168
    29b8:	04800044 	movi	r18,1
    29bc:	81800017 	ldw	r6,0(r16)
    29c0:	81c00117 	ldw	r7,4(r16)
    29c4:	1009883a 	mov	r4,r2
    29c8:	180b883a 	mov	r5,r3
    29cc:	94800044 	addi	r18,r18,1
    29d0:	00033700 	call	3370 <__adddf3>
    29d4:	84000204 	addi	r16,r16,8
    29d8:	8cbff80e 	bge	r17,r18,29bc <__alt_mem_VGA_Subsystem_Char_Buf_Subsystem_Onchip_SRAM+0xf70029bc>
    29dc:	da008d17 	ldw	r8,564(sp)
    29e0:	40004226 	beq	r8,zero,2aec <__kernel_rem_pio2+0xd74>
    29e4:	da008f17 	ldw	r8,572(sp)
    29e8:	1009883a 	mov	r4,r2
    29ec:	18a0003c 	xorhi	r2,r3,32768
    29f0:	41000215 	stw	r4,8(r8)
    29f4:	40800315 	stw	r2,12(r8)
    29f8:	003f0c06 	br	262c <__alt_mem_VGA_Subsystem_Char_Buf_Subsystem_Onchip_SRAM+0xf700262c>
    29fc:	da008f17 	ldw	r8,572(sp)
    2a00:	100d883a 	mov	r6,r2
    2a04:	180f883a 	mov	r7,r3
    2a08:	40800015 	stw	r2,0(r8)
    2a0c:	40c00115 	stw	r3,4(r8)
    2a10:	0004fbc0 	call	4fbc <__subdf3>
    2a14:	047fe716 	blt	zero,r17,29b4 <__alt_mem_VGA_Subsystem_Char_Buf_Subsystem_Onchip_SRAM+0xf70029b4>
    2a18:	da008f17 	ldw	r8,572(sp)
    2a1c:	1009883a 	mov	r4,r2
    2a20:	1805883a 	mov	r2,r3
    2a24:	41000215 	stw	r4,8(r8)
    2a28:	40800315 	stw	r2,12(r8)
    2a2c:	003eff06 	br	262c <__alt_mem_VGA_Subsystem_Char_Buf_Subsystem_Onchip_SRAM+0xf700262c>
    2a30:	da008f17 	ldw	r8,572(sp)
    2a34:	d9802817 	ldw	r6,160(sp)
    2a38:	d9402a17 	ldw	r5,168(sp)
    2a3c:	d9002b17 	ldw	r4,172(sp)
    2a40:	41800015 	stw	r6,0(r8)
    2a44:	d9802917 	ldw	r6,164(sp)
    2a48:	41400215 	stw	r5,8(r8)
    2a4c:	41000315 	stw	r4,12(r8)
    2a50:	41800115 	stw	r6,4(r8)
    2a54:	40800415 	stw	r2,16(r8)
    2a58:	40c00515 	stw	r3,20(r8)
    2a5c:	003ef306 	br	262c <__alt_mem_VGA_Subsystem_Char_Buf_Subsystem_Onchip_SRAM+0xf700262c>
    2a60:	da00a617 	ldw	r8,664(sp)
    2a64:	008000c4 	movi	r2,3
    2a68:	40bef01e 	bne	r8,r2,262c <__alt_mem_VGA_Subsystem_Char_Buf_Subsystem_Onchip_SRAM+0xf700262c>
    2a6c:	0005883a 	mov	r2,zero
    2a70:	0007883a 	mov	r3,zero
    2a74:	003fa506 	br	290c <__alt_mem_VGA_Subsystem_Char_Buf_Subsystem_Onchip_SRAM+0xf700290c>
    2a78:	9485883a 	add	r2,r18,r18
    2a7c:	1085883a 	add	r2,r2,r2
    2a80:	d8a1883a 	add	r16,sp,r2
    2a84:	880b883a 	mov	r5,r17
    2a88:	a809883a 	mov	r4,r21
    2a8c:	84007804 	addi	r16,r16,480
    2a90:	00058b80 	call	58b8 <__fixdfsi>
    2a94:	80800015 	stw	r2,0(r16)
    2a98:	9023883a 	mov	r17,r18
    2a9c:	003e7e06 	br	2498 <__alt_mem_VGA_Subsystem_Char_Buf_Subsystem_Onchip_SRAM+0xf7002498>
    2aa0:	a80d883a 	mov	r6,r21
    2aa4:	400f883a 	mov	r7,r8
    2aa8:	0009883a 	mov	r4,zero
    2aac:	014ffc34 	movhi	r5,16368
    2ab0:	0004fbc0 	call	4fbc <__subdf3>
    2ab4:	102b883a 	mov	r21,r2
    2ab8:	1811883a 	mov	r8,r3
    2abc:	04c00084 	movi	r19,2
    2ac0:	003dc006 	br	21c4 <__alt_mem_VGA_Subsystem_Char_Buf_Subsystem_Onchip_SRAM+0xf70021c4>
    2ac4:	da00a617 	ldw	r8,664(sp)
    2ac8:	00800084 	movi	r2,2
    2acc:	123fe416 	blt	r2,r8,2a60 <__alt_mem_VGA_Subsystem_Char_Buf_Subsystem_Onchip_SRAM+0xf7002a60>
    2ad0:	02000c16 	blt	zero,r8,2b04 <__kernel_rem_pio2+0xd8c>
    2ad4:	403ed51e 	bne	r8,zero,262c <__alt_mem_VGA_Subsystem_Char_Buf_Subsystem_Onchip_SRAM+0xf700262c>
    2ad8:	0005883a 	mov	r2,zero
    2adc:	0007883a 	mov	r3,zero
    2ae0:	003ecc06 	br	2614 <__alt_mem_VGA_Subsystem_Char_Buf_Subsystem_Onchip_SRAM+0xf7002614>
    2ae4:	d8009215 	stw	zero,584(sp)
    2ae8:	003cc106 	br	1df0 <__alt_mem_VGA_Subsystem_Char_Buf_Subsystem_Onchip_SRAM+0xf7001df0>
    2aec:	da008f17 	ldw	r8,572(sp)
    2af0:	1009883a 	mov	r4,r2
    2af4:	1805883a 	mov	r2,r3
    2af8:	41000215 	stw	r4,8(r8)
    2afc:	40800315 	stw	r2,12(r8)
    2b00:	003eca06 	br	262c <__alt_mem_VGA_Subsystem_Char_Buf_Subsystem_Onchip_SRAM+0xf700262c>
    2b04:	0005883a 	mov	r2,zero
    2b08:	0007883a 	mov	r3,zero
    2b0c:	003f9d06 	br	2984 <__alt_mem_VGA_Subsystem_Char_Buf_Subsystem_Onchip_SRAM+0xf7002984>

00002b10 <__kernel_sin>:
    2b10:	00a00034 	movhi	r2,32768
    2b14:	defff404 	addi	sp,sp,-48
    2b18:	10bfffc4 	addi	r2,r2,-1
    2b1c:	00cf9034 	movhi	r3,15936
    2b20:	ddc00915 	stw	r23,36(sp)
    2b24:	dd800815 	stw	r22,32(sp)
    2b28:	dc400315 	stw	r17,12(sp)
    2b2c:	dc000215 	stw	r16,8(sp)
    2b30:	dfc00b15 	stw	ra,44(sp)
    2b34:	df000a15 	stw	fp,40(sp)
    2b38:	dd400715 	stw	r21,28(sp)
    2b3c:	dd000615 	stw	r20,24(sp)
    2b40:	dcc00515 	stw	r19,20(sp)
    2b44:	dc800415 	stw	r18,16(sp)
    2b48:	2884703a 	and	r2,r5,r2
    2b4c:	18ffffc4 	addi	r3,r3,-1
    2b50:	2821883a 	mov	r16,r5
    2b54:	2023883a 	mov	r17,r4
    2b58:	302f883a 	mov	r23,r6
    2b5c:	382d883a 	mov	r22,r7
    2b60:	18800216 	blt	r3,r2,2b6c <__kernel_sin+0x5c>
    2b64:	00058b80 	call	58b8 <__fixdfsi>
    2b68:	10009926 	beq	r2,zero,2dd0 <__kernel_sin+0x2c0>
    2b6c:	880d883a 	mov	r6,r17
    2b70:	800f883a 	mov	r7,r16
    2b74:	8809883a 	mov	r4,r17
    2b78:	800b883a 	mov	r5,r16
    2b7c:	00047500 	call	4750 <__muldf3>
    2b80:	100d883a 	mov	r6,r2
    2b84:	180f883a 	mov	r7,r3
    2b88:	8809883a 	mov	r4,r17
    2b8c:	800b883a 	mov	r5,r16
    2b90:	1027883a 	mov	r19,r2
    2b94:	1825883a 	mov	r18,r3
    2b98:	00047500 	call	4750 <__muldf3>
    2b9c:	0196b434 	movhi	r6,23248
    2ba0:	01cf79b4 	movhi	r7,15846
    2ba4:	31b55f04 	addi	r6,r6,-10884
    2ba8:	39f64e84 	addi	r7,r7,-9926
    2bac:	9809883a 	mov	r4,r19
    2bb0:	900b883a 	mov	r5,r18
    2bb4:	102b883a 	mov	r21,r2
    2bb8:	1829883a 	mov	r20,r3
    2bbc:	00047500 	call	4750 <__muldf3>
    2bc0:	01a28b34 	movhi	r6,35372
    2bc4:	01cf96f4 	movhi	r7,15963
    2bc8:	31a73ac4 	addi	r6,r6,-25365
    2bcc:	39f97984 	addi	r7,r7,-6682
    2bd0:	1009883a 	mov	r4,r2
    2bd4:	180b883a 	mov	r5,r3
    2bd8:	0004fbc0 	call	4fbc <__subdf3>
    2bdc:	980d883a 	mov	r6,r19
    2be0:	900f883a 	mov	r7,r18
    2be4:	1009883a 	mov	r4,r2
    2be8:	180b883a 	mov	r5,r3
    2bec:	00047500 	call	4750 <__muldf3>
    2bf0:	0195ecb4 	movhi	r6,22450
    2bf4:	01cfb1f4 	movhi	r7,16071
    2bf8:	31bf9f44 	addi	r6,r6,-387
    2bfc:	39c778c4 	addi	r7,r7,7651
    2c00:	1009883a 	mov	r4,r2
    2c04:	180b883a 	mov	r5,r3
    2c08:	00033700 	call	3370 <__adddf3>
    2c0c:	980d883a 	mov	r6,r19
    2c10:	900f883a 	mov	r7,r18
    2c14:	1009883a 	mov	r4,r2
    2c18:	180b883a 	mov	r5,r3
    2c1c:	00047500 	call	4750 <__muldf3>
    2c20:	01867074 	movhi	r6,6593
    2c24:	01cfcab4 	movhi	r7,16170
    2c28:	31987544 	addi	r6,r6,25045
    2c2c:	39c06804 	addi	r7,r7,416
    2c30:	1009883a 	mov	r4,r2
    2c34:	180b883a 	mov	r5,r3
    2c38:	0004fbc0 	call	4fbc <__subdf3>
    2c3c:	980d883a 	mov	r6,r19
    2c40:	900f883a 	mov	r7,r18
    2c44:	1009883a 	mov	r4,r2
    2c48:	180b883a 	mov	r5,r3
    2c4c:	00047500 	call	4750 <__muldf3>
    2c50:	01844474 	movhi	r6,4369
    2c54:	01cfe074 	movhi	r7,16257
    2c58:	31be2984 	addi	r6,r6,-1882
    2c5c:	39c44444 	addi	r7,r7,4369
    2c60:	1009883a 	mov	r4,r2
    2c64:	180b883a 	mov	r5,r3
    2c68:	00033700 	call	3370 <__adddf3>
    2c6c:	1011883a 	mov	r8,r2
    2c70:	d8800c17 	ldw	r2,48(sp)
    2c74:	1839883a 	mov	fp,r3
    2c78:	10003e26 	beq	r2,zero,2d74 <__kernel_sin+0x264>
    2c7c:	000d883a 	mov	r6,zero
    2c80:	01cff834 	movhi	r7,16352
    2c84:	b809883a 	mov	r4,r23
    2c88:	b00b883a 	mov	r5,r22
    2c8c:	da000015 	stw	r8,0(sp)
    2c90:	00047500 	call	4750 <__muldf3>
    2c94:	da000017 	ldw	r8,0(sp)
    2c98:	e00f883a 	mov	r7,fp
    2c9c:	a809883a 	mov	r4,r21
    2ca0:	400d883a 	mov	r6,r8
    2ca4:	a00b883a 	mov	r5,r20
    2ca8:	d8c00115 	stw	r3,4(sp)
    2cac:	d8800015 	stw	r2,0(sp)
    2cb0:	00047500 	call	4750 <__muldf3>
    2cb4:	da800017 	ldw	r10,0(sp)
    2cb8:	da400117 	ldw	r9,4(sp)
    2cbc:	100d883a 	mov	r6,r2
    2cc0:	5009883a 	mov	r4,r10
    2cc4:	480b883a 	mov	r5,r9
    2cc8:	180f883a 	mov	r7,r3
    2ccc:	0004fbc0 	call	4fbc <__subdf3>
    2cd0:	980d883a 	mov	r6,r19
    2cd4:	900f883a 	mov	r7,r18
    2cd8:	1009883a 	mov	r4,r2
    2cdc:	180b883a 	mov	r5,r3
    2ce0:	00047500 	call	4750 <__muldf3>
    2ce4:	b80d883a 	mov	r6,r23
    2ce8:	b00f883a 	mov	r7,r22
    2cec:	1009883a 	mov	r4,r2
    2cf0:	180b883a 	mov	r5,r3
    2cf4:	0004fbc0 	call	4fbc <__subdf3>
    2cf8:	01955574 	movhi	r6,21845
    2cfc:	01cff174 	movhi	r7,16325
    2d00:	31955244 	addi	r6,r6,21833
    2d04:	39d55544 	addi	r7,r7,21845
    2d08:	a809883a 	mov	r4,r21
    2d0c:	a00b883a 	mov	r5,r20
    2d10:	1027883a 	mov	r19,r2
    2d14:	1825883a 	mov	r18,r3
    2d18:	00047500 	call	4750 <__muldf3>
    2d1c:	100d883a 	mov	r6,r2
    2d20:	180f883a 	mov	r7,r3
    2d24:	9809883a 	mov	r4,r19
    2d28:	900b883a 	mov	r5,r18
    2d2c:	00033700 	call	3370 <__adddf3>
    2d30:	100d883a 	mov	r6,r2
    2d34:	180f883a 	mov	r7,r3
    2d38:	8809883a 	mov	r4,r17
    2d3c:	800b883a 	mov	r5,r16
    2d40:	0004fbc0 	call	4fbc <__subdf3>
    2d44:	dfc00b17 	ldw	ra,44(sp)
    2d48:	df000a17 	ldw	fp,40(sp)
    2d4c:	ddc00917 	ldw	r23,36(sp)
    2d50:	dd800817 	ldw	r22,32(sp)
    2d54:	dd400717 	ldw	r21,28(sp)
    2d58:	dd000617 	ldw	r20,24(sp)
    2d5c:	dcc00517 	ldw	r19,20(sp)
    2d60:	dc800417 	ldw	r18,16(sp)
    2d64:	dc400317 	ldw	r17,12(sp)
    2d68:	dc000217 	ldw	r16,8(sp)
    2d6c:	dec00c04 	addi	sp,sp,48
    2d70:	f800283a 	ret
    2d74:	400d883a 	mov	r6,r8
    2d78:	9809883a 	mov	r4,r19
    2d7c:	900b883a 	mov	r5,r18
    2d80:	180f883a 	mov	r7,r3
    2d84:	00047500 	call	4750 <__muldf3>
    2d88:	01955574 	movhi	r6,21845
    2d8c:	01cff174 	movhi	r7,16325
    2d90:	31955244 	addi	r6,r6,21833
    2d94:	39d55544 	addi	r7,r7,21845
    2d98:	1009883a 	mov	r4,r2
    2d9c:	180b883a 	mov	r5,r3
    2da0:	0004fbc0 	call	4fbc <__subdf3>
    2da4:	a80d883a 	mov	r6,r21
    2da8:	a00f883a 	mov	r7,r20
    2dac:	1009883a 	mov	r4,r2
    2db0:	180b883a 	mov	r5,r3
    2db4:	00047500 	call	4750 <__muldf3>
    2db8:	880d883a 	mov	r6,r17
    2dbc:	800f883a 	mov	r7,r16
    2dc0:	1009883a 	mov	r4,r2
    2dc4:	180b883a 	mov	r5,r3
    2dc8:	00033700 	call	3370 <__adddf3>
    2dcc:	003fdd06 	br	2d44 <__alt_mem_VGA_Subsystem_Char_Buf_Subsystem_Onchip_SRAM+0xf7002d44>
    2dd0:	8805883a 	mov	r2,r17
    2dd4:	8007883a 	mov	r3,r16
    2dd8:	003fda06 	br	2d44 <__alt_mem_VGA_Subsystem_Char_Buf_Subsystem_Onchip_SRAM+0xf7002d44>

00002ddc <fabs>:
    2ddc:	00e00034 	movhi	r3,32768
    2de0:	18ffffc4 	addi	r3,r3,-1
    2de4:	2005883a 	mov	r2,r4
    2de8:	28c6703a 	and	r3,r5,r3
    2dec:	f800283a 	ret

00002df0 <floor>:
    2df0:	2811d53a 	srai	r8,r5,20
    2df4:	defffa04 	addi	sp,sp,-24
    2df8:	dcc00315 	stw	r19,12(sp)
    2dfc:	4201ffcc 	andi	r8,r8,2047
    2e00:	dc800215 	stw	r18,8(sp)
    2e04:	dc400115 	stw	r17,4(sp)
    2e08:	dc000015 	stw	r16,0(sp)
    2e0c:	dfc00515 	stw	ra,20(sp)
    2e10:	dd000415 	stw	r20,16(sp)
    2e14:	44bf0044 	addi	r18,r8,-1023
    2e18:	018004c4 	movi	r6,19
    2e1c:	2821883a 	mov	r16,r5
    2e20:	2005883a 	mov	r2,r4
    2e24:	280f883a 	mov	r7,r5
    2e28:	2827883a 	mov	r19,r5
    2e2c:	2023883a 	mov	r17,r4
    2e30:	34801916 	blt	r6,r18,2e98 <floor+0xa8>
    2e34:	90003c16 	blt	r18,zero,2f28 <floor+0x138>
    2e38:	05000434 	movhi	r20,16
    2e3c:	a53fffc4 	addi	r20,r20,-1
    2e40:	a4a9d83a 	sra	r20,r20,r18
    2e44:	2d0c703a 	and	r6,r5,r20
    2e48:	310cb03a 	or	r6,r6,r4
    2e4c:	30001626 	beq	r6,zero,2ea8 <floor+0xb8>
    2e50:	01a20034 	movhi	r6,34816
    2e54:	01df8e34 	movhi	r7,32312
    2e58:	319d6704 	addi	r6,r6,30108
    2e5c:	39f90f04 	addi	r7,r7,-7108
    2e60:	00033700 	call	3370 <__adddf3>
    2e64:	000d883a 	mov	r6,zero
    2e68:	000f883a 	mov	r7,zero
    2e6c:	1009883a 	mov	r4,r2
    2e70:	180b883a 	mov	r5,r3
    2e74:	00046740 	call	4674 <__gedf2>
    2e78:	0080040e 	bge	zero,r2,2e8c <floor+0x9c>
    2e7c:	80003c16 	blt	r16,zero,2f70 <floor+0x180>
    2e80:	0520303a 	nor	r16,zero,r20
    2e84:	84e0703a 	and	r16,r16,r19
    2e88:	0023883a 	mov	r17,zero
    2e8c:	8805883a 	mov	r2,r17
    2e90:	8007883a 	mov	r3,r16
    2e94:	00000506 	br	2eac <floor+0xbc>
    2e98:	01800cc4 	movi	r6,51
    2e9c:	34800b0e 	bge	r6,r18,2ecc <floor+0xdc>
    2ea0:	01810004 	movi	r6,1024
    2ea4:	91802f26 	beq	r18,r6,2f64 <floor+0x174>
    2ea8:	3807883a 	mov	r3,r7
    2eac:	dfc00517 	ldw	ra,20(sp)
    2eb0:	dd000417 	ldw	r20,16(sp)
    2eb4:	dcc00317 	ldw	r19,12(sp)
    2eb8:	dc800217 	ldw	r18,8(sp)
    2ebc:	dc400117 	ldw	r17,4(sp)
    2ec0:	dc000017 	ldw	r16,0(sp)
    2ec4:	dec00604 	addi	sp,sp,24
    2ec8:	f800283a 	ret
    2ecc:	423efb44 	addi	r8,r8,-1043
    2ed0:	053fffc4 	movi	r20,-1
    2ed4:	a228d83a 	srl	r20,r20,r8
    2ed8:	250c703a 	and	r6,r4,r20
    2edc:	303ff226 	beq	r6,zero,2ea8 <__alt_mem_VGA_Subsystem_Char_Buf_Subsystem_Onchip_SRAM+0xf7002ea8>
    2ee0:	01a20034 	movhi	r6,34816
    2ee4:	01df8e34 	movhi	r7,32312
    2ee8:	319d6704 	addi	r6,r6,30108
    2eec:	39f90f04 	addi	r7,r7,-7108
    2ef0:	00033700 	call	3370 <__adddf3>
    2ef4:	000d883a 	mov	r6,zero
    2ef8:	000f883a 	mov	r7,zero
    2efc:	1009883a 	mov	r4,r2
    2f00:	180b883a 	mov	r5,r3
    2f04:	00046740 	call	4674 <__gedf2>
    2f08:	00bfe00e 	bge	zero,r2,2e8c <__alt_mem_VGA_Subsystem_Char_Buf_Subsystem_Onchip_SRAM+0xf7002e8c>
    2f0c:	80001c16 	blt	r16,zero,2f80 <floor+0x190>
    2f10:	0510303a 	nor	r8,zero,r20
    2f14:	9821883a 	mov	r16,r19
    2f18:	8a22703a 	and	r17,r17,r8
    2f1c:	8805883a 	mov	r2,r17
    2f20:	8007883a 	mov	r3,r16
    2f24:	003fe106 	br	2eac <__alt_mem_VGA_Subsystem_Char_Buf_Subsystem_Onchip_SRAM+0xf7002eac>
    2f28:	01a20034 	movhi	r6,34816
    2f2c:	01df8e34 	movhi	r7,32312
    2f30:	319d6704 	addi	r6,r6,30108
    2f34:	39f90f04 	addi	r7,r7,-7108
    2f38:	00033700 	call	3370 <__adddf3>
    2f3c:	000d883a 	mov	r6,zero
    2f40:	000f883a 	mov	r7,zero
    2f44:	1009883a 	mov	r4,r2
    2f48:	180b883a 	mov	r5,r3
    2f4c:	00046740 	call	4674 <__gedf2>
    2f50:	00bfce0e 	bge	zero,r2,2e8c <__alt_mem_VGA_Subsystem_Char_Buf_Subsystem_Onchip_SRAM+0xf7002e8c>
    2f54:	80001516 	blt	r16,zero,2fac <floor+0x1bc>
    2f58:	0023883a 	mov	r17,zero
    2f5c:	0021883a 	mov	r16,zero
    2f60:	003fca06 	br	2e8c <__alt_mem_VGA_Subsystem_Char_Buf_Subsystem_Onchip_SRAM+0xf7002e8c>
    2f64:	200d883a 	mov	r6,r4
    2f68:	00033700 	call	3370 <__adddf3>
    2f6c:	003fcf06 	br	2eac <__alt_mem_VGA_Subsystem_Char_Buf_Subsystem_Onchip_SRAM+0xf7002eac>
    2f70:	00800434 	movhi	r2,16
    2f74:	14a5d83a 	sra	r18,r2,r18
    2f78:	84a7883a 	add	r19,r16,r18
    2f7c:	003fc006 	br	2e80 <__alt_mem_VGA_Subsystem_Char_Buf_Subsystem_Onchip_SRAM+0xf7002e80>
    2f80:	00800504 	movi	r2,20
    2f84:	90801326 	beq	r18,r2,2fd4 <floor+0x1e4>
    2f88:	00800d04 	movi	r2,52
    2f8c:	14a5c83a 	sub	r18,r2,r18
    2f90:	00800044 	movi	r2,1
    2f94:	1484983a 	sll	r2,r2,r18
    2f98:	1445883a 	add	r2,r2,r17
    2f9c:	14400b2e 	bgeu	r2,r17,2fcc <floor+0x1dc>
    2fa0:	84c00044 	addi	r19,r16,1
    2fa4:	1023883a 	mov	r17,r2
    2fa8:	003fd906 	br	2f10 <__alt_mem_VGA_Subsystem_Char_Buf_Subsystem_Onchip_SRAM+0xf7002f10>
    2fac:	00a00034 	movhi	r2,32768
    2fb0:	10bfffc4 	addi	r2,r2,-1
    2fb4:	8084703a 	and	r2,r16,r2
    2fb8:	1462b03a 	or	r17,r2,r17
    2fbc:	883fb326 	beq	r17,zero,2e8c <__alt_mem_VGA_Subsystem_Char_Buf_Subsystem_Onchip_SRAM+0xf7002e8c>
    2fc0:	0023883a 	mov	r17,zero
    2fc4:	042ffc34 	movhi	r16,49136
    2fc8:	003fb006 	br	2e8c <__alt_mem_VGA_Subsystem_Char_Buf_Subsystem_Onchip_SRAM+0xf7002e8c>
    2fcc:	1023883a 	mov	r17,r2
    2fd0:	003fcf06 	br	2f10 <__alt_mem_VGA_Subsystem_Char_Buf_Subsystem_Onchip_SRAM+0xf7002f10>
    2fd4:	84c00044 	addi	r19,r16,1
    2fd8:	003fcd06 	br	2f10 <__alt_mem_VGA_Subsystem_Char_Buf_Subsystem_Onchip_SRAM+0xf7002f10>

00002fdc <scalbn>:
    2fdc:	2a1ffc2c 	andhi	r8,r5,32752
    2fe0:	4011d53a 	srai	r8,r8,20
    2fe4:	defffe04 	addi	sp,sp,-8
    2fe8:	dc000015 	stw	r16,0(sp)
    2fec:	dfc00115 	stw	ra,4(sp)
    2ff0:	280f883a 	mov	r7,r5
    2ff4:	2015883a 	mov	r10,r4
    2ff8:	3021883a 	mov	r16,r6
    2ffc:	40001e1e 	bne	r8,zero,3078 <scalbn+0x9c>
    3000:	00a00034 	movhi	r2,32768
    3004:	10bfffc4 	addi	r2,r2,-1
    3008:	2884703a 	and	r2,r5,r2
    300c:	1104b03a 	or	r2,r2,r4
    3010:	10002226 	beq	r2,zero,309c <scalbn+0xc0>
    3014:	01d0d434 	movhi	r7,17232
    3018:	000d883a 	mov	r6,zero
    301c:	00047500 	call	4750 <__muldf3>
    3020:	013ffff4 	movhi	r4,65535
    3024:	210f2c04 	addi	r4,r4,15536
    3028:	1015883a 	mov	r10,r2
    302c:	180f883a 	mov	r7,r3
    3030:	81002a16 	blt	r16,r4,30dc <scalbn+0x100>
    3034:	191ffc2c 	andhi	r4,r3,32752
    3038:	2009d53a 	srai	r4,r4,20
    303c:	223ff284 	addi	r8,r4,-54
    3040:	8211883a 	add	r8,r16,r8
    3044:	0081ff84 	movi	r2,2046
    3048:	12002f16 	blt	r2,r8,3108 <scalbn+0x12c>
    304c:	0200190e 	bge	zero,r8,30b4 <scalbn+0xd8>
    3050:	4010953a 	slli	r8,r8,20
    3054:	01600434 	movhi	r5,32784
    3058:	297fffc4 	addi	r5,r5,-1
    305c:	194e703a 	and	r7,r3,r5
    3060:	5005883a 	mov	r2,r10
    3064:	3a06b03a 	or	r3,r7,r8
    3068:	dfc00117 	ldw	ra,4(sp)
    306c:	dc000017 	ldw	r16,0(sp)
    3070:	dec00204 	addi	sp,sp,8
    3074:	f800283a 	ret
    3078:	0081ffc4 	movi	r2,2047
    307c:	2807883a 	mov	r3,r5
    3080:	40bfef1e 	bne	r8,r2,3040 <__alt_mem_VGA_Subsystem_Char_Buf_Subsystem_Onchip_SRAM+0xf7003040>
    3084:	200d883a 	mov	r6,r4
    3088:	00033700 	call	3370 <__adddf3>
    308c:	dfc00117 	ldw	ra,4(sp)
    3090:	dc000017 	ldw	r16,0(sp)
    3094:	dec00204 	addi	sp,sp,8
    3098:	f800283a 	ret
    309c:	2005883a 	mov	r2,r4
    30a0:	2807883a 	mov	r3,r5
    30a4:	dfc00117 	ldw	ra,4(sp)
    30a8:	dc000017 	ldw	r16,0(sp)
    30ac:	dec00204 	addi	sp,sp,8
    30b0:	f800283a 	ret
    30b4:	00bff2c4 	movi	r2,-53
    30b8:	4080240e 	bge	r8,r2,314c <scalbn+0x170>
    30bc:	00b0d414 	movui	r2,50000
    30c0:	14001116 	blt	r2,r16,3108 <scalbn+0x12c>
    30c4:	0130be74 	movhi	r4,49913
    30c8:	01406974 	movhi	r5,421
    30cc:	213cd644 	addi	r4,r4,-3239
    30d0:	295b87c4 	addi	r5,r5,28191
    30d4:	500d883a 	mov	r6,r10
    30d8:	00031780 	call	3178 <copysign>
    30dc:	01b0be74 	movhi	r6,49913
    30e0:	01c06974 	movhi	r7,421
    30e4:	31bcd644 	addi	r6,r6,-3239
    30e8:	39db87c4 	addi	r7,r7,28191
    30ec:	1009883a 	mov	r4,r2
    30f0:	180b883a 	mov	r5,r3
    30f4:	00047500 	call	4750 <__muldf3>
    30f8:	dfc00117 	ldw	ra,4(sp)
    30fc:	dc000017 	ldw	r16,0(sp)
    3100:	dec00204 	addi	sp,sp,8
    3104:	f800283a 	ret
    3108:	01220034 	movhi	r4,34816
    310c:	015f8e34 	movhi	r5,32312
    3110:	500d883a 	mov	r6,r10
    3114:	211d6704 	addi	r4,r4,30108
    3118:	29790f04 	addi	r5,r5,-7108
    311c:	00031780 	call	3178 <copysign>
    3120:	01a20034 	movhi	r6,34816
    3124:	01df8e34 	movhi	r7,32312
    3128:	319d6704 	addi	r6,r6,30108
    312c:	39f90f04 	addi	r7,r7,-7108
    3130:	1009883a 	mov	r4,r2
    3134:	180b883a 	mov	r5,r3
    3138:	00047500 	call	4750 <__muldf3>
    313c:	dfc00117 	ldw	ra,4(sp)
    3140:	dc000017 	ldw	r16,0(sp)
    3144:	dec00204 	addi	sp,sp,8
    3148:	f800283a 	ret
    314c:	42000d84 	addi	r8,r8,54
    3150:	4012953a 	slli	r9,r8,20
    3154:	01e00434 	movhi	r7,32784
    3158:	39ffffc4 	addi	r7,r7,-1
    315c:	19ca703a 	and	r5,r3,r7
    3160:	000d883a 	mov	r6,zero
    3164:	01cf2434 	movhi	r7,15504
    3168:	5009883a 	mov	r4,r10
    316c:	494ab03a 	or	r5,r9,r5
    3170:	00047500 	call	4750 <__muldf3>
    3174:	003fbc06 	br	3068 <__alt_mem_VGA_Subsystem_Char_Buf_Subsystem_Onchip_SRAM+0xf7003068>

00003178 <copysign>:
    3178:	2005883a 	mov	r2,r4
    317c:	01200034 	movhi	r4,32768
    3180:	213fffc4 	addi	r4,r4,-1
    3184:	38e0002c 	andhi	r3,r7,32768
    3188:	290a703a 	and	r5,r5,r4
    318c:	28c6b03a 	or	r3,r5,r3
    3190:	f800283a 	ret

00003194 <__divsi3>:
    3194:	20001b16 	blt	r4,zero,3204 <__divsi3+0x70>
    3198:	000f883a 	mov	r7,zero
    319c:	28001616 	blt	r5,zero,31f8 <__divsi3+0x64>
    31a0:	200d883a 	mov	r6,r4
    31a4:	29001a2e 	bgeu	r5,r4,3210 <__divsi3+0x7c>
    31a8:	00800804 	movi	r2,32
    31ac:	00c00044 	movi	r3,1
    31b0:	00000106 	br	31b8 <__divsi3+0x24>
    31b4:	10000d26 	beq	r2,zero,31ec <__divsi3+0x58>
    31b8:	294b883a 	add	r5,r5,r5
    31bc:	10bfffc4 	addi	r2,r2,-1
    31c0:	18c7883a 	add	r3,r3,r3
    31c4:	293ffb36 	bltu	r5,r4,31b4 <__alt_mem_VGA_Subsystem_Char_Buf_Subsystem_Onchip_SRAM+0xf70031b4>
    31c8:	0005883a 	mov	r2,zero
    31cc:	18000726 	beq	r3,zero,31ec <__divsi3+0x58>
    31d0:	0005883a 	mov	r2,zero
    31d4:	31400236 	bltu	r6,r5,31e0 <__divsi3+0x4c>
    31d8:	314dc83a 	sub	r6,r6,r5
    31dc:	10c4b03a 	or	r2,r2,r3
    31e0:	1806d07a 	srli	r3,r3,1
    31e4:	280ad07a 	srli	r5,r5,1
    31e8:	183ffa1e 	bne	r3,zero,31d4 <__alt_mem_VGA_Subsystem_Char_Buf_Subsystem_Onchip_SRAM+0xf70031d4>
    31ec:	38000126 	beq	r7,zero,31f4 <__divsi3+0x60>
    31f0:	0085c83a 	sub	r2,zero,r2
    31f4:	f800283a 	ret
    31f8:	014bc83a 	sub	r5,zero,r5
    31fc:	39c0005c 	xori	r7,r7,1
    3200:	003fe706 	br	31a0 <__alt_mem_VGA_Subsystem_Char_Buf_Subsystem_Onchip_SRAM+0xf70031a0>
    3204:	0109c83a 	sub	r4,zero,r4
    3208:	01c00044 	movi	r7,1
    320c:	003fe306 	br	319c <__alt_mem_VGA_Subsystem_Char_Buf_Subsystem_Onchip_SRAM+0xf700319c>
    3210:	00c00044 	movi	r3,1
    3214:	003fee06 	br	31d0 <__alt_mem_VGA_Subsystem_Char_Buf_Subsystem_Onchip_SRAM+0xf70031d0>

00003218 <__modsi3>:
    3218:	20001716 	blt	r4,zero,3278 <__modsi3+0x60>
    321c:	000f883a 	mov	r7,zero
    3220:	2005883a 	mov	r2,r4
    3224:	28001216 	blt	r5,zero,3270 <__modsi3+0x58>
    3228:	2900162e 	bgeu	r5,r4,3284 <__modsi3+0x6c>
    322c:	01800804 	movi	r6,32
    3230:	00c00044 	movi	r3,1
    3234:	00000106 	br	323c <__modsi3+0x24>
    3238:	30000a26 	beq	r6,zero,3264 <__modsi3+0x4c>
    323c:	294b883a 	add	r5,r5,r5
    3240:	31bfffc4 	addi	r6,r6,-1
    3244:	18c7883a 	add	r3,r3,r3
    3248:	293ffb36 	bltu	r5,r4,3238 <__alt_mem_VGA_Subsystem_Char_Buf_Subsystem_Onchip_SRAM+0xf7003238>
    324c:	18000526 	beq	r3,zero,3264 <__modsi3+0x4c>
    3250:	1806d07a 	srli	r3,r3,1
    3254:	11400136 	bltu	r2,r5,325c <__modsi3+0x44>
    3258:	1145c83a 	sub	r2,r2,r5
    325c:	280ad07a 	srli	r5,r5,1
    3260:	183ffb1e 	bne	r3,zero,3250 <__alt_mem_VGA_Subsystem_Char_Buf_Subsystem_Onchip_SRAM+0xf7003250>
    3264:	38000126 	beq	r7,zero,326c <__modsi3+0x54>
    3268:	0085c83a 	sub	r2,zero,r2
    326c:	f800283a 	ret
    3270:	014bc83a 	sub	r5,zero,r5
    3274:	003fec06 	br	3228 <__alt_mem_VGA_Subsystem_Char_Buf_Subsystem_Onchip_SRAM+0xf7003228>
    3278:	0109c83a 	sub	r4,zero,r4
    327c:	01c00044 	movi	r7,1
    3280:	003fe706 	br	3220 <__alt_mem_VGA_Subsystem_Char_Buf_Subsystem_Onchip_SRAM+0xf7003220>
    3284:	00c00044 	movi	r3,1
    3288:	003ff106 	br	3250 <__alt_mem_VGA_Subsystem_Char_Buf_Subsystem_Onchip_SRAM+0xf7003250>

0000328c <__udivsi3>:
    328c:	200d883a 	mov	r6,r4
    3290:	2900152e 	bgeu	r5,r4,32e8 <__udivsi3+0x5c>
    3294:	28001416 	blt	r5,zero,32e8 <__udivsi3+0x5c>
    3298:	00800804 	movi	r2,32
    329c:	00c00044 	movi	r3,1
    32a0:	00000206 	br	32ac <__udivsi3+0x20>
    32a4:	10000e26 	beq	r2,zero,32e0 <__udivsi3+0x54>
    32a8:	28000516 	blt	r5,zero,32c0 <__udivsi3+0x34>
    32ac:	294b883a 	add	r5,r5,r5
    32b0:	10bfffc4 	addi	r2,r2,-1
    32b4:	18c7883a 	add	r3,r3,r3
    32b8:	293ffa36 	bltu	r5,r4,32a4 <__alt_mem_VGA_Subsystem_Char_Buf_Subsystem_Onchip_SRAM+0xf70032a4>
    32bc:	18000826 	beq	r3,zero,32e0 <__udivsi3+0x54>
    32c0:	0005883a 	mov	r2,zero
    32c4:	31400236 	bltu	r6,r5,32d0 <__udivsi3+0x44>
    32c8:	314dc83a 	sub	r6,r6,r5
    32cc:	10c4b03a 	or	r2,r2,r3
    32d0:	1806d07a 	srli	r3,r3,1
    32d4:	280ad07a 	srli	r5,r5,1
    32d8:	183ffa1e 	bne	r3,zero,32c4 <__alt_mem_VGA_Subsystem_Char_Buf_Subsystem_Onchip_SRAM+0xf70032c4>
    32dc:	f800283a 	ret
    32e0:	0005883a 	mov	r2,zero
    32e4:	f800283a 	ret
    32e8:	00c00044 	movi	r3,1
    32ec:	003ff406 	br	32c0 <__alt_mem_VGA_Subsystem_Char_Buf_Subsystem_Onchip_SRAM+0xf70032c0>

000032f0 <__umodsi3>:
    32f0:	2005883a 	mov	r2,r4
    32f4:	2900122e 	bgeu	r5,r4,3340 <__umodsi3+0x50>
    32f8:	28001116 	blt	r5,zero,3340 <__umodsi3+0x50>
    32fc:	01800804 	movi	r6,32
    3300:	00c00044 	movi	r3,1
    3304:	00000206 	br	3310 <__umodsi3+0x20>
    3308:	30000c26 	beq	r6,zero,333c <__umodsi3+0x4c>
    330c:	28000516 	blt	r5,zero,3324 <__umodsi3+0x34>
    3310:	294b883a 	add	r5,r5,r5
    3314:	31bfffc4 	addi	r6,r6,-1
    3318:	18c7883a 	add	r3,r3,r3
    331c:	293ffa36 	bltu	r5,r4,3308 <__alt_mem_VGA_Subsystem_Char_Buf_Subsystem_Onchip_SRAM+0xf7003308>
    3320:	18000626 	beq	r3,zero,333c <__umodsi3+0x4c>
    3324:	1806d07a 	srli	r3,r3,1
    3328:	11400136 	bltu	r2,r5,3330 <__umodsi3+0x40>
    332c:	1145c83a 	sub	r2,r2,r5
    3330:	280ad07a 	srli	r5,r5,1
    3334:	183ffb1e 	bne	r3,zero,3324 <__alt_mem_VGA_Subsystem_Char_Buf_Subsystem_Onchip_SRAM+0xf7003324>
    3338:	f800283a 	ret
    333c:	f800283a 	ret
    3340:	00c00044 	movi	r3,1
    3344:	003ff706 	br	3324 <__alt_mem_VGA_Subsystem_Char_Buf_Subsystem_Onchip_SRAM+0xf7003324>

00003348 <__mulsi3>:
    3348:	0005883a 	mov	r2,zero
    334c:	20000726 	beq	r4,zero,336c <__mulsi3+0x24>
    3350:	20c0004c 	andi	r3,r4,1
    3354:	2008d07a 	srli	r4,r4,1
    3358:	18000126 	beq	r3,zero,3360 <__mulsi3+0x18>
    335c:	1145883a 	add	r2,r2,r5
    3360:	294b883a 	add	r5,r5,r5
    3364:	203ffa1e 	bne	r4,zero,3350 <__alt_mem_VGA_Subsystem_Char_Buf_Subsystem_Onchip_SRAM+0xf7003350>
    3368:	f800283a 	ret
    336c:	f800283a 	ret

00003370 <__adddf3>:
    3370:	02c00434 	movhi	r11,16
    3374:	5affffc4 	addi	r11,r11,-1
    3378:	2806d7fa 	srli	r3,r5,31
    337c:	2ad4703a 	and	r10,r5,r11
    3380:	3ad2703a 	and	r9,r7,r11
    3384:	3804d53a 	srli	r2,r7,20
    3388:	3018d77a 	srli	r12,r6,29
    338c:	280ad53a 	srli	r5,r5,20
    3390:	501490fa 	slli	r10,r10,3
    3394:	2010d77a 	srli	r8,r4,29
    3398:	481290fa 	slli	r9,r9,3
    339c:	380ed7fa 	srli	r7,r7,31
    33a0:	defffb04 	addi	sp,sp,-20
    33a4:	dc800215 	stw	r18,8(sp)
    33a8:	dc400115 	stw	r17,4(sp)
    33ac:	dc000015 	stw	r16,0(sp)
    33b0:	dfc00415 	stw	ra,16(sp)
    33b4:	dcc00315 	stw	r19,12(sp)
    33b8:	1c803fcc 	andi	r18,r3,255
    33bc:	2c01ffcc 	andi	r16,r5,2047
    33c0:	5210b03a 	or	r8,r10,r8
    33c4:	202290fa 	slli	r17,r4,3
    33c8:	1081ffcc 	andi	r2,r2,2047
    33cc:	4b12b03a 	or	r9,r9,r12
    33d0:	300c90fa 	slli	r6,r6,3
    33d4:	91c07526 	beq	r18,r7,35ac <__adddf3+0x23c>
    33d8:	8087c83a 	sub	r3,r16,r2
    33dc:	00c0ab0e 	bge	zero,r3,368c <__adddf3+0x31c>
    33e0:	10002a1e 	bne	r2,zero,348c <__adddf3+0x11c>
    33e4:	4984b03a 	or	r2,r9,r6
    33e8:	1000961e 	bne	r2,zero,3644 <__adddf3+0x2d4>
    33ec:	888001cc 	andi	r2,r17,7
    33f0:	10000726 	beq	r2,zero,3410 <__adddf3+0xa0>
    33f4:	888003cc 	andi	r2,r17,15
    33f8:	00c00104 	movi	r3,4
    33fc:	10c00426 	beq	r2,r3,3410 <__adddf3+0xa0>
    3400:	88c7883a 	add	r3,r17,r3
    3404:	1c63803a 	cmpltu	r17,r3,r17
    3408:	4451883a 	add	r8,r8,r17
    340c:	1823883a 	mov	r17,r3
    3410:	4080202c 	andhi	r2,r8,128
    3414:	10005926 	beq	r2,zero,357c <__adddf3+0x20c>
    3418:	84000044 	addi	r16,r16,1
    341c:	0081ffc4 	movi	r2,2047
    3420:	8080ba26 	beq	r16,r2,370c <__adddf3+0x39c>
    3424:	00bfe034 	movhi	r2,65408
    3428:	10bfffc4 	addi	r2,r2,-1
    342c:	4090703a 	and	r8,r8,r2
    3430:	4004977a 	slli	r2,r8,29
    3434:	4010927a 	slli	r8,r8,9
    3438:	8822d0fa 	srli	r17,r17,3
    343c:	8401ffcc 	andi	r16,r16,2047
    3440:	4010d33a 	srli	r8,r8,12
    3444:	9007883a 	mov	r3,r18
    3448:	1444b03a 	or	r2,r2,r17
    344c:	8401ffcc 	andi	r16,r16,2047
    3450:	8020953a 	slli	r16,r16,20
    3454:	18c03fcc 	andi	r3,r3,255
    3458:	01000434 	movhi	r4,16
    345c:	213fffc4 	addi	r4,r4,-1
    3460:	180697fa 	slli	r3,r3,31
    3464:	4110703a 	and	r8,r8,r4
    3468:	4410b03a 	or	r8,r8,r16
    346c:	40c6b03a 	or	r3,r8,r3
    3470:	dfc00417 	ldw	ra,16(sp)
    3474:	dcc00317 	ldw	r19,12(sp)
    3478:	dc800217 	ldw	r18,8(sp)
    347c:	dc400117 	ldw	r17,4(sp)
    3480:	dc000017 	ldw	r16,0(sp)
    3484:	dec00504 	addi	sp,sp,20
    3488:	f800283a 	ret
    348c:	0081ffc4 	movi	r2,2047
    3490:	80bfd626 	beq	r16,r2,33ec <__alt_mem_VGA_Subsystem_Char_Buf_Subsystem_Onchip_SRAM+0xf70033ec>
    3494:	4a402034 	orhi	r9,r9,128
    3498:	00800e04 	movi	r2,56
    349c:	10c09f16 	blt	r2,r3,371c <__adddf3+0x3ac>
    34a0:	008007c4 	movi	r2,31
    34a4:	10c0c216 	blt	r2,r3,37b0 <__adddf3+0x440>
    34a8:	00800804 	movi	r2,32
    34ac:	10c5c83a 	sub	r2,r2,r3
    34b0:	488a983a 	sll	r5,r9,r2
    34b4:	30c8d83a 	srl	r4,r6,r3
    34b8:	3084983a 	sll	r2,r6,r2
    34bc:	48c6d83a 	srl	r3,r9,r3
    34c0:	290cb03a 	or	r6,r5,r4
    34c4:	1004c03a 	cmpne	r2,r2,zero
    34c8:	308cb03a 	or	r6,r6,r2
    34cc:	898dc83a 	sub	r6,r17,r6
    34d0:	89a3803a 	cmpltu	r17,r17,r6
    34d4:	40d1c83a 	sub	r8,r8,r3
    34d8:	4451c83a 	sub	r8,r8,r17
    34dc:	3023883a 	mov	r17,r6
    34e0:	4080202c 	andhi	r2,r8,128
    34e4:	10002326 	beq	r2,zero,3574 <__adddf3+0x204>
    34e8:	04c02034 	movhi	r19,128
    34ec:	9cffffc4 	addi	r19,r19,-1
    34f0:	44e6703a 	and	r19,r8,r19
    34f4:	98007626 	beq	r19,zero,36d0 <__adddf3+0x360>
    34f8:	9809883a 	mov	r4,r19
    34fc:	0005abc0 	call	5abc <__clzsi2>
    3500:	10fffe04 	addi	r3,r2,-8
    3504:	010007c4 	movi	r4,31
    3508:	20c07716 	blt	r4,r3,36e8 <__adddf3+0x378>
    350c:	00800804 	movi	r2,32
    3510:	10c5c83a 	sub	r2,r2,r3
    3514:	8884d83a 	srl	r2,r17,r2
    3518:	98d0983a 	sll	r8,r19,r3
    351c:	88e2983a 	sll	r17,r17,r3
    3520:	1204b03a 	or	r2,r2,r8
    3524:	1c007416 	blt	r3,r16,36f8 <__adddf3+0x388>
    3528:	1c21c83a 	sub	r16,r3,r16
    352c:	82000044 	addi	r8,r16,1
    3530:	00c007c4 	movi	r3,31
    3534:	1a009116 	blt	r3,r8,377c <__adddf3+0x40c>
    3538:	00c00804 	movi	r3,32
    353c:	1a07c83a 	sub	r3,r3,r8
    3540:	8a08d83a 	srl	r4,r17,r8
    3544:	88e2983a 	sll	r17,r17,r3
    3548:	10c6983a 	sll	r3,r2,r3
    354c:	1210d83a 	srl	r8,r2,r8
    3550:	8804c03a 	cmpne	r2,r17,zero
    3554:	1906b03a 	or	r3,r3,r4
    3558:	18a2b03a 	or	r17,r3,r2
    355c:	0021883a 	mov	r16,zero
    3560:	003fa206 	br	33ec <__alt_mem_VGA_Subsystem_Char_Buf_Subsystem_Onchip_SRAM+0xf70033ec>
    3564:	1890b03a 	or	r8,r3,r2
    3568:	40017d26 	beq	r8,zero,3b60 <__adddf3+0x7f0>
    356c:	1011883a 	mov	r8,r2
    3570:	1823883a 	mov	r17,r3
    3574:	888001cc 	andi	r2,r17,7
    3578:	103f9e1e 	bne	r2,zero,33f4 <__alt_mem_VGA_Subsystem_Char_Buf_Subsystem_Onchip_SRAM+0xf70033f4>
    357c:	4004977a 	slli	r2,r8,29
    3580:	8822d0fa 	srli	r17,r17,3
    3584:	4010d0fa 	srli	r8,r8,3
    3588:	9007883a 	mov	r3,r18
    358c:	1444b03a 	or	r2,r2,r17
    3590:	0101ffc4 	movi	r4,2047
    3594:	81002426 	beq	r16,r4,3628 <__adddf3+0x2b8>
    3598:	8120703a 	and	r16,r16,r4
    359c:	01000434 	movhi	r4,16
    35a0:	213fffc4 	addi	r4,r4,-1
    35a4:	4110703a 	and	r8,r8,r4
    35a8:	003fa806 	br	344c <__alt_mem_VGA_Subsystem_Char_Buf_Subsystem_Onchip_SRAM+0xf700344c>
    35ac:	8089c83a 	sub	r4,r16,r2
    35b0:	01005e0e 	bge	zero,r4,372c <__adddf3+0x3bc>
    35b4:	10002b26 	beq	r2,zero,3664 <__adddf3+0x2f4>
    35b8:	0081ffc4 	movi	r2,2047
    35bc:	80bf8b26 	beq	r16,r2,33ec <__alt_mem_VGA_Subsystem_Char_Buf_Subsystem_Onchip_SRAM+0xf70033ec>
    35c0:	4a402034 	orhi	r9,r9,128
    35c4:	00800e04 	movi	r2,56
    35c8:	1100a40e 	bge	r2,r4,385c <__adddf3+0x4ec>
    35cc:	498cb03a 	or	r6,r9,r6
    35d0:	300ac03a 	cmpne	r5,r6,zero
    35d4:	0013883a 	mov	r9,zero
    35d8:	2c4b883a 	add	r5,r5,r17
    35dc:	2c63803a 	cmpltu	r17,r5,r17
    35e0:	4a11883a 	add	r8,r9,r8
    35e4:	8a11883a 	add	r8,r17,r8
    35e8:	2823883a 	mov	r17,r5
    35ec:	4080202c 	andhi	r2,r8,128
    35f0:	103fe026 	beq	r2,zero,3574 <__alt_mem_VGA_Subsystem_Char_Buf_Subsystem_Onchip_SRAM+0xf7003574>
    35f4:	84000044 	addi	r16,r16,1
    35f8:	0081ffc4 	movi	r2,2047
    35fc:	8080d226 	beq	r16,r2,3948 <__adddf3+0x5d8>
    3600:	00bfe034 	movhi	r2,65408
    3604:	10bfffc4 	addi	r2,r2,-1
    3608:	4090703a 	and	r8,r8,r2
    360c:	880ad07a 	srli	r5,r17,1
    3610:	400897fa 	slli	r4,r8,31
    3614:	88c0004c 	andi	r3,r17,1
    3618:	28e2b03a 	or	r17,r5,r3
    361c:	4010d07a 	srli	r8,r8,1
    3620:	2462b03a 	or	r17,r4,r17
    3624:	003f7106 	br	33ec <__alt_mem_VGA_Subsystem_Char_Buf_Subsystem_Onchip_SRAM+0xf70033ec>
    3628:	4088b03a 	or	r4,r8,r2
    362c:	20014526 	beq	r4,zero,3b44 <__adddf3+0x7d4>
    3630:	01000434 	movhi	r4,16
    3634:	42000234 	orhi	r8,r8,8
    3638:	213fffc4 	addi	r4,r4,-1
    363c:	4110703a 	and	r8,r8,r4
    3640:	003f8206 	br	344c <__alt_mem_VGA_Subsystem_Char_Buf_Subsystem_Onchip_SRAM+0xf700344c>
    3644:	18ffffc4 	addi	r3,r3,-1
    3648:	1800491e 	bne	r3,zero,3770 <__adddf3+0x400>
    364c:	898bc83a 	sub	r5,r17,r6
    3650:	8963803a 	cmpltu	r17,r17,r5
    3654:	4251c83a 	sub	r8,r8,r9
    3658:	4451c83a 	sub	r8,r8,r17
    365c:	2823883a 	mov	r17,r5
    3660:	003f9f06 	br	34e0 <__alt_mem_VGA_Subsystem_Char_Buf_Subsystem_Onchip_SRAM+0xf70034e0>
    3664:	4984b03a 	or	r2,r9,r6
    3668:	103f6026 	beq	r2,zero,33ec <__alt_mem_VGA_Subsystem_Char_Buf_Subsystem_Onchip_SRAM+0xf70033ec>
    366c:	213fffc4 	addi	r4,r4,-1
    3670:	2000931e 	bne	r4,zero,38c0 <__adddf3+0x550>
    3674:	898d883a 	add	r6,r17,r6
    3678:	3463803a 	cmpltu	r17,r6,r17
    367c:	4251883a 	add	r8,r8,r9
    3680:	8a11883a 	add	r8,r17,r8
    3684:	3023883a 	mov	r17,r6
    3688:	003fd806 	br	35ec <__alt_mem_VGA_Subsystem_Char_Buf_Subsystem_Onchip_SRAM+0xf70035ec>
    368c:	1800541e 	bne	r3,zero,37e0 <__adddf3+0x470>
    3690:	80800044 	addi	r2,r16,1
    3694:	1081ffcc 	andi	r2,r2,2047
    3698:	00c00044 	movi	r3,1
    369c:	1880a00e 	bge	r3,r2,3920 <__adddf3+0x5b0>
    36a0:	8989c83a 	sub	r4,r17,r6
    36a4:	8905803a 	cmpltu	r2,r17,r4
    36a8:	4267c83a 	sub	r19,r8,r9
    36ac:	98a7c83a 	sub	r19,r19,r2
    36b0:	9880202c 	andhi	r2,r19,128
    36b4:	10006326 	beq	r2,zero,3844 <__adddf3+0x4d4>
    36b8:	3463c83a 	sub	r17,r6,r17
    36bc:	4a07c83a 	sub	r3,r9,r8
    36c0:	344d803a 	cmpltu	r6,r6,r17
    36c4:	19a7c83a 	sub	r19,r3,r6
    36c8:	3825883a 	mov	r18,r7
    36cc:	983f8a1e 	bne	r19,zero,34f8 <__alt_mem_VGA_Subsystem_Char_Buf_Subsystem_Onchip_SRAM+0xf70034f8>
    36d0:	8809883a 	mov	r4,r17
    36d4:	0005abc0 	call	5abc <__clzsi2>
    36d8:	10800804 	addi	r2,r2,32
    36dc:	10fffe04 	addi	r3,r2,-8
    36e0:	010007c4 	movi	r4,31
    36e4:	20ff890e 	bge	r4,r3,350c <__alt_mem_VGA_Subsystem_Char_Buf_Subsystem_Onchip_SRAM+0xf700350c>
    36e8:	10bff604 	addi	r2,r2,-40
    36ec:	8884983a 	sll	r2,r17,r2
    36f0:	0023883a 	mov	r17,zero
    36f4:	1c3f8c0e 	bge	r3,r16,3528 <__alt_mem_VGA_Subsystem_Char_Buf_Subsystem_Onchip_SRAM+0xf7003528>
    36f8:	023fe034 	movhi	r8,65408
    36fc:	423fffc4 	addi	r8,r8,-1
    3700:	80e1c83a 	sub	r16,r16,r3
    3704:	1210703a 	and	r8,r2,r8
    3708:	003f3806 	br	33ec <__alt_mem_VGA_Subsystem_Char_Buf_Subsystem_Onchip_SRAM+0xf70033ec>
    370c:	9007883a 	mov	r3,r18
    3710:	0011883a 	mov	r8,zero
    3714:	0005883a 	mov	r2,zero
    3718:	003f4c06 	br	344c <__alt_mem_VGA_Subsystem_Char_Buf_Subsystem_Onchip_SRAM+0xf700344c>
    371c:	498cb03a 	or	r6,r9,r6
    3720:	300cc03a 	cmpne	r6,r6,zero
    3724:	0007883a 	mov	r3,zero
    3728:	003f6806 	br	34cc <__alt_mem_VGA_Subsystem_Char_Buf_Subsystem_Onchip_SRAM+0xf70034cc>
    372c:	20009c1e 	bne	r4,zero,39a0 <__adddf3+0x630>
    3730:	80800044 	addi	r2,r16,1
    3734:	1141ffcc 	andi	r5,r2,2047
    3738:	01000044 	movi	r4,1
    373c:	2140670e 	bge	r4,r5,38dc <__adddf3+0x56c>
    3740:	0101ffc4 	movi	r4,2047
    3744:	11007f26 	beq	r2,r4,3944 <__adddf3+0x5d4>
    3748:	898d883a 	add	r6,r17,r6
    374c:	4247883a 	add	r3,r8,r9
    3750:	3451803a 	cmpltu	r8,r6,r17
    3754:	40d1883a 	add	r8,r8,r3
    3758:	402297fa 	slli	r17,r8,31
    375c:	300cd07a 	srli	r6,r6,1
    3760:	4010d07a 	srli	r8,r8,1
    3764:	1021883a 	mov	r16,r2
    3768:	89a2b03a 	or	r17,r17,r6
    376c:	003f1f06 	br	33ec <__alt_mem_VGA_Subsystem_Char_Buf_Subsystem_Onchip_SRAM+0xf70033ec>
    3770:	0081ffc4 	movi	r2,2047
    3774:	80bf481e 	bne	r16,r2,3498 <__alt_mem_VGA_Subsystem_Char_Buf_Subsystem_Onchip_SRAM+0xf7003498>
    3778:	003f1c06 	br	33ec <__alt_mem_VGA_Subsystem_Char_Buf_Subsystem_Onchip_SRAM+0xf70033ec>
    377c:	843ff844 	addi	r16,r16,-31
    3780:	01000804 	movi	r4,32
    3784:	1406d83a 	srl	r3,r2,r16
    3788:	41005026 	beq	r8,r4,38cc <__adddf3+0x55c>
    378c:	01001004 	movi	r4,64
    3790:	2211c83a 	sub	r8,r4,r8
    3794:	1204983a 	sll	r2,r2,r8
    3798:	88a2b03a 	or	r17,r17,r2
    379c:	8822c03a 	cmpne	r17,r17,zero
    37a0:	1c62b03a 	or	r17,r3,r17
    37a4:	0011883a 	mov	r8,zero
    37a8:	0021883a 	mov	r16,zero
    37ac:	003f7106 	br	3574 <__alt_mem_VGA_Subsystem_Char_Buf_Subsystem_Onchip_SRAM+0xf7003574>
    37b0:	193ff804 	addi	r4,r3,-32
    37b4:	00800804 	movi	r2,32
    37b8:	4908d83a 	srl	r4,r9,r4
    37bc:	18804526 	beq	r3,r2,38d4 <__adddf3+0x564>
    37c0:	00801004 	movi	r2,64
    37c4:	10c5c83a 	sub	r2,r2,r3
    37c8:	4886983a 	sll	r3,r9,r2
    37cc:	198cb03a 	or	r6,r3,r6
    37d0:	300cc03a 	cmpne	r6,r6,zero
    37d4:	218cb03a 	or	r6,r4,r6
    37d8:	0007883a 	mov	r3,zero
    37dc:	003f3b06 	br	34cc <__alt_mem_VGA_Subsystem_Char_Buf_Subsystem_Onchip_SRAM+0xf70034cc>
    37e0:	80002a26 	beq	r16,zero,388c <__adddf3+0x51c>
    37e4:	0101ffc4 	movi	r4,2047
    37e8:	11006826 	beq	r2,r4,398c <__adddf3+0x61c>
    37ec:	00c7c83a 	sub	r3,zero,r3
    37f0:	42002034 	orhi	r8,r8,128
    37f4:	01000e04 	movi	r4,56
    37f8:	20c07c16 	blt	r4,r3,39ec <__adddf3+0x67c>
    37fc:	010007c4 	movi	r4,31
    3800:	20c0da16 	blt	r4,r3,3b6c <__adddf3+0x7fc>
    3804:	01000804 	movi	r4,32
    3808:	20c9c83a 	sub	r4,r4,r3
    380c:	4114983a 	sll	r10,r8,r4
    3810:	88cad83a 	srl	r5,r17,r3
    3814:	8908983a 	sll	r4,r17,r4
    3818:	40c6d83a 	srl	r3,r8,r3
    381c:	5162b03a 	or	r17,r10,r5
    3820:	2008c03a 	cmpne	r4,r4,zero
    3824:	8922b03a 	or	r17,r17,r4
    3828:	3463c83a 	sub	r17,r6,r17
    382c:	48c7c83a 	sub	r3,r9,r3
    3830:	344d803a 	cmpltu	r6,r6,r17
    3834:	1991c83a 	sub	r8,r3,r6
    3838:	1021883a 	mov	r16,r2
    383c:	3825883a 	mov	r18,r7
    3840:	003f2706 	br	34e0 <__alt_mem_VGA_Subsystem_Char_Buf_Subsystem_Onchip_SRAM+0xf70034e0>
    3844:	24d0b03a 	or	r8,r4,r19
    3848:	40001b1e 	bne	r8,zero,38b8 <__adddf3+0x548>
    384c:	0005883a 	mov	r2,zero
    3850:	0007883a 	mov	r3,zero
    3854:	0021883a 	mov	r16,zero
    3858:	003f4d06 	br	3590 <__alt_mem_VGA_Subsystem_Char_Buf_Subsystem_Onchip_SRAM+0xf7003590>
    385c:	008007c4 	movi	r2,31
    3860:	11003c16 	blt	r2,r4,3954 <__adddf3+0x5e4>
    3864:	00800804 	movi	r2,32
    3868:	1105c83a 	sub	r2,r2,r4
    386c:	488e983a 	sll	r7,r9,r2
    3870:	310ad83a 	srl	r5,r6,r4
    3874:	3084983a 	sll	r2,r6,r2
    3878:	4912d83a 	srl	r9,r9,r4
    387c:	394ab03a 	or	r5,r7,r5
    3880:	1004c03a 	cmpne	r2,r2,zero
    3884:	288ab03a 	or	r5,r5,r2
    3888:	003f5306 	br	35d8 <__alt_mem_VGA_Subsystem_Char_Buf_Subsystem_Onchip_SRAM+0xf70035d8>
    388c:	4448b03a 	or	r4,r8,r17
    3890:	20003e26 	beq	r4,zero,398c <__adddf3+0x61c>
    3894:	00c6303a 	nor	r3,zero,r3
    3898:	18003a1e 	bne	r3,zero,3984 <__adddf3+0x614>
    389c:	3463c83a 	sub	r17,r6,r17
    38a0:	4a07c83a 	sub	r3,r9,r8
    38a4:	344d803a 	cmpltu	r6,r6,r17
    38a8:	1991c83a 	sub	r8,r3,r6
    38ac:	1021883a 	mov	r16,r2
    38b0:	3825883a 	mov	r18,r7
    38b4:	003f0a06 	br	34e0 <__alt_mem_VGA_Subsystem_Char_Buf_Subsystem_Onchip_SRAM+0xf70034e0>
    38b8:	2023883a 	mov	r17,r4
    38bc:	003f0d06 	br	34f4 <__alt_mem_VGA_Subsystem_Char_Buf_Subsystem_Onchip_SRAM+0xf70034f4>
    38c0:	0081ffc4 	movi	r2,2047
    38c4:	80bf3f1e 	bne	r16,r2,35c4 <__alt_mem_VGA_Subsystem_Char_Buf_Subsystem_Onchip_SRAM+0xf70035c4>
    38c8:	003ec806 	br	33ec <__alt_mem_VGA_Subsystem_Char_Buf_Subsystem_Onchip_SRAM+0xf70033ec>
    38cc:	0005883a 	mov	r2,zero
    38d0:	003fb106 	br	3798 <__alt_mem_VGA_Subsystem_Char_Buf_Subsystem_Onchip_SRAM+0xf7003798>
    38d4:	0007883a 	mov	r3,zero
    38d8:	003fbc06 	br	37cc <__alt_mem_VGA_Subsystem_Char_Buf_Subsystem_Onchip_SRAM+0xf70037cc>
    38dc:	4444b03a 	or	r2,r8,r17
    38e0:	8000871e 	bne	r16,zero,3b00 <__adddf3+0x790>
    38e4:	1000ba26 	beq	r2,zero,3bd0 <__adddf3+0x860>
    38e8:	4984b03a 	or	r2,r9,r6
    38ec:	103ebf26 	beq	r2,zero,33ec <__alt_mem_VGA_Subsystem_Char_Buf_Subsystem_Onchip_SRAM+0xf70033ec>
    38f0:	8985883a 	add	r2,r17,r6
    38f4:	4247883a 	add	r3,r8,r9
    38f8:	1451803a 	cmpltu	r8,r2,r17
    38fc:	40d1883a 	add	r8,r8,r3
    3900:	40c0202c 	andhi	r3,r8,128
    3904:	1023883a 	mov	r17,r2
    3908:	183f1a26 	beq	r3,zero,3574 <__alt_mem_VGA_Subsystem_Char_Buf_Subsystem_Onchip_SRAM+0xf7003574>
    390c:	00bfe034 	movhi	r2,65408
    3910:	10bfffc4 	addi	r2,r2,-1
    3914:	2021883a 	mov	r16,r4
    3918:	4090703a 	and	r8,r8,r2
    391c:	003eb306 	br	33ec <__alt_mem_VGA_Subsystem_Char_Buf_Subsystem_Onchip_SRAM+0xf70033ec>
    3920:	4444b03a 	or	r2,r8,r17
    3924:	8000291e 	bne	r16,zero,39cc <__adddf3+0x65c>
    3928:	10004b1e 	bne	r2,zero,3a58 <__adddf3+0x6e8>
    392c:	4990b03a 	or	r8,r9,r6
    3930:	40008b26 	beq	r8,zero,3b60 <__adddf3+0x7f0>
    3934:	4811883a 	mov	r8,r9
    3938:	3023883a 	mov	r17,r6
    393c:	3825883a 	mov	r18,r7
    3940:	003eaa06 	br	33ec <__alt_mem_VGA_Subsystem_Char_Buf_Subsystem_Onchip_SRAM+0xf70033ec>
    3944:	1021883a 	mov	r16,r2
    3948:	0011883a 	mov	r8,zero
    394c:	0005883a 	mov	r2,zero
    3950:	003f0f06 	br	3590 <__alt_mem_VGA_Subsystem_Char_Buf_Subsystem_Onchip_SRAM+0xf7003590>
    3954:	217ff804 	addi	r5,r4,-32
    3958:	00800804 	movi	r2,32
    395c:	494ad83a 	srl	r5,r9,r5
    3960:	20807d26 	beq	r4,r2,3b58 <__adddf3+0x7e8>
    3964:	00801004 	movi	r2,64
    3968:	1109c83a 	sub	r4,r2,r4
    396c:	4912983a 	sll	r9,r9,r4
    3970:	498cb03a 	or	r6,r9,r6
    3974:	300cc03a 	cmpne	r6,r6,zero
    3978:	298ab03a 	or	r5,r5,r6
    397c:	0013883a 	mov	r9,zero
    3980:	003f1506 	br	35d8 <__alt_mem_VGA_Subsystem_Char_Buf_Subsystem_Onchip_SRAM+0xf70035d8>
    3984:	0101ffc4 	movi	r4,2047
    3988:	113f9a1e 	bne	r2,r4,37f4 <__alt_mem_VGA_Subsystem_Char_Buf_Subsystem_Onchip_SRAM+0xf70037f4>
    398c:	4811883a 	mov	r8,r9
    3990:	3023883a 	mov	r17,r6
    3994:	1021883a 	mov	r16,r2
    3998:	3825883a 	mov	r18,r7
    399c:	003e9306 	br	33ec <__alt_mem_VGA_Subsystem_Char_Buf_Subsystem_Onchip_SRAM+0xf70033ec>
    39a0:	8000161e 	bne	r16,zero,39fc <__adddf3+0x68c>
    39a4:	444ab03a 	or	r5,r8,r17
    39a8:	28005126 	beq	r5,zero,3af0 <__adddf3+0x780>
    39ac:	0108303a 	nor	r4,zero,r4
    39b0:	20004d1e 	bne	r4,zero,3ae8 <__adddf3+0x778>
    39b4:	89a3883a 	add	r17,r17,r6
    39b8:	4253883a 	add	r9,r8,r9
    39bc:	898d803a 	cmpltu	r6,r17,r6
    39c0:	3251883a 	add	r8,r6,r9
    39c4:	1021883a 	mov	r16,r2
    39c8:	003f0806 	br	35ec <__alt_mem_VGA_Subsystem_Char_Buf_Subsystem_Onchip_SRAM+0xf70035ec>
    39cc:	1000301e 	bne	r2,zero,3a90 <__adddf3+0x720>
    39d0:	4984b03a 	or	r2,r9,r6
    39d4:	10007126 	beq	r2,zero,3b9c <__adddf3+0x82c>
    39d8:	4811883a 	mov	r8,r9
    39dc:	3023883a 	mov	r17,r6
    39e0:	3825883a 	mov	r18,r7
    39e4:	0401ffc4 	movi	r16,2047
    39e8:	003e8006 	br	33ec <__alt_mem_VGA_Subsystem_Char_Buf_Subsystem_Onchip_SRAM+0xf70033ec>
    39ec:	4462b03a 	or	r17,r8,r17
    39f0:	8822c03a 	cmpne	r17,r17,zero
    39f4:	0007883a 	mov	r3,zero
    39f8:	003f8b06 	br	3828 <__alt_mem_VGA_Subsystem_Char_Buf_Subsystem_Onchip_SRAM+0xf7003828>
    39fc:	0141ffc4 	movi	r5,2047
    3a00:	11403b26 	beq	r2,r5,3af0 <__adddf3+0x780>
    3a04:	0109c83a 	sub	r4,zero,r4
    3a08:	42002034 	orhi	r8,r8,128
    3a0c:	01400e04 	movi	r5,56
    3a10:	29006716 	blt	r5,r4,3bb0 <__adddf3+0x840>
    3a14:	014007c4 	movi	r5,31
    3a18:	29007016 	blt	r5,r4,3bdc <__adddf3+0x86c>
    3a1c:	01400804 	movi	r5,32
    3a20:	290bc83a 	sub	r5,r5,r4
    3a24:	4154983a 	sll	r10,r8,r5
    3a28:	890ed83a 	srl	r7,r17,r4
    3a2c:	894a983a 	sll	r5,r17,r5
    3a30:	4108d83a 	srl	r4,r8,r4
    3a34:	51e2b03a 	or	r17,r10,r7
    3a38:	280ac03a 	cmpne	r5,r5,zero
    3a3c:	8962b03a 	or	r17,r17,r5
    3a40:	89a3883a 	add	r17,r17,r6
    3a44:	2253883a 	add	r9,r4,r9
    3a48:	898d803a 	cmpltu	r6,r17,r6
    3a4c:	3251883a 	add	r8,r6,r9
    3a50:	1021883a 	mov	r16,r2
    3a54:	003ee506 	br	35ec <__alt_mem_VGA_Subsystem_Char_Buf_Subsystem_Onchip_SRAM+0xf70035ec>
    3a58:	4984b03a 	or	r2,r9,r6
    3a5c:	103e6326 	beq	r2,zero,33ec <__alt_mem_VGA_Subsystem_Char_Buf_Subsystem_Onchip_SRAM+0xf70033ec>
    3a60:	8987c83a 	sub	r3,r17,r6
    3a64:	88c9803a 	cmpltu	r4,r17,r3
    3a68:	4245c83a 	sub	r2,r8,r9
    3a6c:	1105c83a 	sub	r2,r2,r4
    3a70:	1100202c 	andhi	r4,r2,128
    3a74:	203ebb26 	beq	r4,zero,3564 <__alt_mem_VGA_Subsystem_Char_Buf_Subsystem_Onchip_SRAM+0xf7003564>
    3a78:	3463c83a 	sub	r17,r6,r17
    3a7c:	4a07c83a 	sub	r3,r9,r8
    3a80:	344d803a 	cmpltu	r6,r6,r17
    3a84:	1991c83a 	sub	r8,r3,r6
    3a88:	3825883a 	mov	r18,r7
    3a8c:	003e5706 	br	33ec <__alt_mem_VGA_Subsystem_Char_Buf_Subsystem_Onchip_SRAM+0xf70033ec>
    3a90:	4984b03a 	or	r2,r9,r6
    3a94:	10002e26 	beq	r2,zero,3b50 <__adddf3+0x7e0>
    3a98:	4004d0fa 	srli	r2,r8,3
    3a9c:	8822d0fa 	srli	r17,r17,3
    3aa0:	4010977a 	slli	r8,r8,29
    3aa4:	10c0022c 	andhi	r3,r2,8
    3aa8:	4462b03a 	or	r17,r8,r17
    3aac:	18000826 	beq	r3,zero,3ad0 <__adddf3+0x760>
    3ab0:	4808d0fa 	srli	r4,r9,3
    3ab4:	20c0022c 	andhi	r3,r4,8
    3ab8:	1800051e 	bne	r3,zero,3ad0 <__adddf3+0x760>
    3abc:	300cd0fa 	srli	r6,r6,3
    3ac0:	4806977a 	slli	r3,r9,29
    3ac4:	2005883a 	mov	r2,r4
    3ac8:	3825883a 	mov	r18,r7
    3acc:	19a2b03a 	or	r17,r3,r6
    3ad0:	8810d77a 	srli	r8,r17,29
    3ad4:	100490fa 	slli	r2,r2,3
    3ad8:	882290fa 	slli	r17,r17,3
    3adc:	0401ffc4 	movi	r16,2047
    3ae0:	4090b03a 	or	r8,r8,r2
    3ae4:	003e4106 	br	33ec <__alt_mem_VGA_Subsystem_Char_Buf_Subsystem_Onchip_SRAM+0xf70033ec>
    3ae8:	0141ffc4 	movi	r5,2047
    3aec:	117fc71e 	bne	r2,r5,3a0c <__alt_mem_VGA_Subsystem_Char_Buf_Subsystem_Onchip_SRAM+0xf7003a0c>
    3af0:	4811883a 	mov	r8,r9
    3af4:	3023883a 	mov	r17,r6
    3af8:	1021883a 	mov	r16,r2
    3afc:	003e3b06 	br	33ec <__alt_mem_VGA_Subsystem_Char_Buf_Subsystem_Onchip_SRAM+0xf70033ec>
    3b00:	10002f26 	beq	r2,zero,3bc0 <__adddf3+0x850>
    3b04:	4984b03a 	or	r2,r9,r6
    3b08:	10001126 	beq	r2,zero,3b50 <__adddf3+0x7e0>
    3b0c:	4004d0fa 	srli	r2,r8,3
    3b10:	8822d0fa 	srli	r17,r17,3
    3b14:	4010977a 	slli	r8,r8,29
    3b18:	10c0022c 	andhi	r3,r2,8
    3b1c:	4462b03a 	or	r17,r8,r17
    3b20:	183feb26 	beq	r3,zero,3ad0 <__alt_mem_VGA_Subsystem_Char_Buf_Subsystem_Onchip_SRAM+0xf7003ad0>
    3b24:	4808d0fa 	srli	r4,r9,3
    3b28:	20c0022c 	andhi	r3,r4,8
    3b2c:	183fe81e 	bne	r3,zero,3ad0 <__alt_mem_VGA_Subsystem_Char_Buf_Subsystem_Onchip_SRAM+0xf7003ad0>
    3b30:	300cd0fa 	srli	r6,r6,3
    3b34:	4806977a 	slli	r3,r9,29
    3b38:	2005883a 	mov	r2,r4
    3b3c:	19a2b03a 	or	r17,r3,r6
    3b40:	003fe306 	br	3ad0 <__alt_mem_VGA_Subsystem_Char_Buf_Subsystem_Onchip_SRAM+0xf7003ad0>
    3b44:	0011883a 	mov	r8,zero
    3b48:	0005883a 	mov	r2,zero
    3b4c:	003e3f06 	br	344c <__alt_mem_VGA_Subsystem_Char_Buf_Subsystem_Onchip_SRAM+0xf700344c>
    3b50:	0401ffc4 	movi	r16,2047
    3b54:	003e2506 	br	33ec <__alt_mem_VGA_Subsystem_Char_Buf_Subsystem_Onchip_SRAM+0xf70033ec>
    3b58:	0013883a 	mov	r9,zero
    3b5c:	003f8406 	br	3970 <__alt_mem_VGA_Subsystem_Char_Buf_Subsystem_Onchip_SRAM+0xf7003970>
    3b60:	0005883a 	mov	r2,zero
    3b64:	0007883a 	mov	r3,zero
    3b68:	003e8906 	br	3590 <__alt_mem_VGA_Subsystem_Char_Buf_Subsystem_Onchip_SRAM+0xf7003590>
    3b6c:	197ff804 	addi	r5,r3,-32
    3b70:	01000804 	movi	r4,32
    3b74:	414ad83a 	srl	r5,r8,r5
    3b78:	19002426 	beq	r3,r4,3c0c <__adddf3+0x89c>
    3b7c:	01001004 	movi	r4,64
    3b80:	20c7c83a 	sub	r3,r4,r3
    3b84:	40c6983a 	sll	r3,r8,r3
    3b88:	1c46b03a 	or	r3,r3,r17
    3b8c:	1806c03a 	cmpne	r3,r3,zero
    3b90:	28e2b03a 	or	r17,r5,r3
    3b94:	0007883a 	mov	r3,zero
    3b98:	003f2306 	br	3828 <__alt_mem_VGA_Subsystem_Char_Buf_Subsystem_Onchip_SRAM+0xf7003828>
    3b9c:	0007883a 	mov	r3,zero
    3ba0:	5811883a 	mov	r8,r11
    3ba4:	00bfffc4 	movi	r2,-1
    3ba8:	0401ffc4 	movi	r16,2047
    3bac:	003e7806 	br	3590 <__alt_mem_VGA_Subsystem_Char_Buf_Subsystem_Onchip_SRAM+0xf7003590>
    3bb0:	4462b03a 	or	r17,r8,r17
    3bb4:	8822c03a 	cmpne	r17,r17,zero
    3bb8:	0009883a 	mov	r4,zero
    3bbc:	003fa006 	br	3a40 <__alt_mem_VGA_Subsystem_Char_Buf_Subsystem_Onchip_SRAM+0xf7003a40>
    3bc0:	4811883a 	mov	r8,r9
    3bc4:	3023883a 	mov	r17,r6
    3bc8:	0401ffc4 	movi	r16,2047
    3bcc:	003e0706 	br	33ec <__alt_mem_VGA_Subsystem_Char_Buf_Subsystem_Onchip_SRAM+0xf70033ec>
    3bd0:	4811883a 	mov	r8,r9
    3bd4:	3023883a 	mov	r17,r6
    3bd8:	003e0406 	br	33ec <__alt_mem_VGA_Subsystem_Char_Buf_Subsystem_Onchip_SRAM+0xf70033ec>
    3bdc:	21fff804 	addi	r7,r4,-32
    3be0:	01400804 	movi	r5,32
    3be4:	41ced83a 	srl	r7,r8,r7
    3be8:	21400a26 	beq	r4,r5,3c14 <__adddf3+0x8a4>
    3bec:	01401004 	movi	r5,64
    3bf0:	2909c83a 	sub	r4,r5,r4
    3bf4:	4108983a 	sll	r4,r8,r4
    3bf8:	2448b03a 	or	r4,r4,r17
    3bfc:	2008c03a 	cmpne	r4,r4,zero
    3c00:	3922b03a 	or	r17,r7,r4
    3c04:	0009883a 	mov	r4,zero
    3c08:	003f8d06 	br	3a40 <__alt_mem_VGA_Subsystem_Char_Buf_Subsystem_Onchip_SRAM+0xf7003a40>
    3c0c:	0007883a 	mov	r3,zero
    3c10:	003fdd06 	br	3b88 <__alt_mem_VGA_Subsystem_Char_Buf_Subsystem_Onchip_SRAM+0xf7003b88>
    3c14:	0009883a 	mov	r4,zero
    3c18:	003ff706 	br	3bf8 <__alt_mem_VGA_Subsystem_Char_Buf_Subsystem_Onchip_SRAM+0xf7003bf8>

00003c1c <__divdf3>:
    3c1c:	defff004 	addi	sp,sp,-64
    3c20:	dc800815 	stw	r18,32(sp)
    3c24:	2824d53a 	srli	r18,r5,20
    3c28:	dd800c15 	stw	r22,48(sp)
    3c2c:	282cd7fa 	srli	r22,r5,31
    3c30:	dc000615 	stw	r16,24(sp)
    3c34:	04000434 	movhi	r16,16
    3c38:	843fffc4 	addi	r16,r16,-1
    3c3c:	dfc00f15 	stw	ra,60(sp)
    3c40:	df000e15 	stw	fp,56(sp)
    3c44:	ddc00d15 	stw	r23,52(sp)
    3c48:	dd400b15 	stw	r21,44(sp)
    3c4c:	dd000a15 	stw	r20,40(sp)
    3c50:	dcc00915 	stw	r19,36(sp)
    3c54:	dc400715 	stw	r17,28(sp)
    3c58:	9481ffcc 	andi	r18,r18,2047
    3c5c:	2c20703a 	and	r16,r5,r16
    3c60:	b2003fcc 	andi	r8,r22,255
    3c64:	90006126 	beq	r18,zero,3dec <__divdf3+0x1d0>
    3c68:	0081ffc4 	movi	r2,2047
    3c6c:	202b883a 	mov	r21,r4
    3c70:	90803726 	beq	r18,r2,3d50 <__divdf3+0x134>
    3c74:	80800434 	orhi	r2,r16,16
    3c78:	100490fa 	slli	r2,r2,3
    3c7c:	2020d77a 	srli	r16,r4,29
    3c80:	202a90fa 	slli	r21,r4,3
    3c84:	94bf0044 	addi	r18,r18,-1023
    3c88:	80a0b03a 	or	r16,r16,r2
    3c8c:	0013883a 	mov	r9,zero
    3c90:	000b883a 	mov	r5,zero
    3c94:	3806d53a 	srli	r3,r7,20
    3c98:	382ed7fa 	srli	r23,r7,31
    3c9c:	04400434 	movhi	r17,16
    3ca0:	8c7fffc4 	addi	r17,r17,-1
    3ca4:	18c1ffcc 	andi	r3,r3,2047
    3ca8:	3029883a 	mov	r20,r6
    3cac:	3c62703a 	and	r17,r7,r17
    3cb0:	bf003fcc 	andi	fp,r23,255
    3cb4:	18006e26 	beq	r3,zero,3e70 <__divdf3+0x254>
    3cb8:	0081ffc4 	movi	r2,2047
    3cbc:	18806626 	beq	r3,r2,3e58 <__divdf3+0x23c>
    3cc0:	88800434 	orhi	r2,r17,16
    3cc4:	100490fa 	slli	r2,r2,3
    3cc8:	3022d77a 	srli	r17,r6,29
    3ccc:	302890fa 	slli	r20,r6,3
    3cd0:	18ff0044 	addi	r3,r3,-1023
    3cd4:	88a2b03a 	or	r17,r17,r2
    3cd8:	000f883a 	mov	r7,zero
    3cdc:	b5e6f03a 	xor	r19,r22,r23
    3ce0:	3a4cb03a 	or	r6,r7,r9
    3ce4:	008003c4 	movi	r2,15
    3ce8:	9809883a 	mov	r4,r19
    3cec:	90c7c83a 	sub	r3,r18,r3
    3cf0:	9cc03fcc 	andi	r19,r19,255
    3cf4:	11809636 	bltu	r2,r6,3f50 <__divdf3+0x334>
    3cf8:	300c90ba 	slli	r6,r6,2
    3cfc:	00800034 	movhi	r2,0
    3d00:	108f4404 	addi	r2,r2,15632
    3d04:	308d883a 	add	r6,r6,r2
    3d08:	30800017 	ldw	r2,0(r6)
    3d0c:	1000683a 	jmp	r2
    3d10:	00003f50 	cmplti	zero,zero,253
    3d14:	00003d88 	cmpgei	zero,zero,246
    3d18:	00003f40 	call	3f4 <cm_to_px+0x30>
    3d1c:	00003d7c 	xorhi	zero,zero,245
    3d20:	00003f40 	call	3f4 <cm_to_px+0x30>
    3d24:	00003f14 	movui	zero,252
    3d28:	00003f40 	call	3f4 <cm_to_px+0x30>
    3d2c:	00003d7c 	xorhi	zero,zero,245
    3d30:	00003d88 	cmpgei	zero,zero,246
    3d34:	00003d88 	cmpgei	zero,zero,246
    3d38:	00003f14 	movui	zero,252
    3d3c:	00003d7c 	xorhi	zero,zero,245
    3d40:	00003d6c 	andhi	zero,zero,245
    3d44:	00003d6c 	andhi	zero,zero,245
    3d48:	00003d6c 	andhi	zero,zero,245
    3d4c:	000042d8 	cmpnei	zero,zero,267
    3d50:	2404b03a 	or	r2,r4,r16
    3d54:	10006c1e 	bne	r2,zero,3f08 <__divdf3+0x2ec>
    3d58:	02400204 	movi	r9,8
    3d5c:	0021883a 	mov	r16,zero
    3d60:	002b883a 	mov	r21,zero
    3d64:	01400084 	movi	r5,2
    3d68:	003fca06 	br	3c94 <__alt_mem_VGA_Subsystem_Char_Buf_Subsystem_Onchip_SRAM+0xf7003c94>
    3d6c:	8023883a 	mov	r17,r16
    3d70:	a829883a 	mov	r20,r21
    3d74:	4039883a 	mov	fp,r8
    3d78:	280f883a 	mov	r7,r5
    3d7c:	00800084 	movi	r2,2
    3d80:	3881601e 	bne	r7,r2,4304 <__divdf3+0x6e8>
    3d84:	e027883a 	mov	r19,fp
    3d88:	9900004c 	andi	r4,r19,1
    3d8c:	0081ffc4 	movi	r2,2047
    3d90:	0021883a 	mov	r16,zero
    3d94:	002b883a 	mov	r21,zero
    3d98:	1004953a 	slli	r2,r2,20
    3d9c:	20c03fcc 	andi	r3,r4,255
    3da0:	01400434 	movhi	r5,16
    3da4:	297fffc4 	addi	r5,r5,-1
    3da8:	180697fa 	slli	r3,r3,31
    3dac:	8160703a 	and	r16,r16,r5
    3db0:	80a0b03a 	or	r16,r16,r2
    3db4:	80c6b03a 	or	r3,r16,r3
    3db8:	a805883a 	mov	r2,r21
    3dbc:	dfc00f17 	ldw	ra,60(sp)
    3dc0:	df000e17 	ldw	fp,56(sp)
    3dc4:	ddc00d17 	ldw	r23,52(sp)
    3dc8:	dd800c17 	ldw	r22,48(sp)
    3dcc:	dd400b17 	ldw	r21,44(sp)
    3dd0:	dd000a17 	ldw	r20,40(sp)
    3dd4:	dcc00917 	ldw	r19,36(sp)
    3dd8:	dc800817 	ldw	r18,32(sp)
    3ddc:	dc400717 	ldw	r17,28(sp)
    3de0:	dc000617 	ldw	r16,24(sp)
    3de4:	dec01004 	addi	sp,sp,64
    3de8:	f800283a 	ret
    3dec:	2404b03a 	or	r2,r4,r16
    3df0:	2023883a 	mov	r17,r4
    3df4:	10003f26 	beq	r2,zero,3ef4 <__divdf3+0x2d8>
    3df8:	80015e26 	beq	r16,zero,4374 <__divdf3+0x758>
    3dfc:	8009883a 	mov	r4,r16
    3e00:	d9800215 	stw	r6,8(sp)
    3e04:	d9c00515 	stw	r7,20(sp)
    3e08:	da000415 	stw	r8,16(sp)
    3e0c:	0005abc0 	call	5abc <__clzsi2>
    3e10:	d9800217 	ldw	r6,8(sp)
    3e14:	d9c00517 	ldw	r7,20(sp)
    3e18:	da000417 	ldw	r8,16(sp)
    3e1c:	113ffd44 	addi	r4,r2,-11
    3e20:	00c00704 	movi	r3,28
    3e24:	19014f16 	blt	r3,r4,4364 <__divdf3+0x748>
    3e28:	00c00744 	movi	r3,29
    3e2c:	157ffe04 	addi	r21,r2,-8
    3e30:	1907c83a 	sub	r3,r3,r4
    3e34:	8560983a 	sll	r16,r16,r21
    3e38:	88c6d83a 	srl	r3,r17,r3
    3e3c:	8d6a983a 	sll	r21,r17,r21
    3e40:	1c20b03a 	or	r16,r3,r16
    3e44:	1080fcc4 	addi	r2,r2,1011
    3e48:	00a5c83a 	sub	r18,zero,r2
    3e4c:	0013883a 	mov	r9,zero
    3e50:	000b883a 	mov	r5,zero
    3e54:	003f8f06 	br	3c94 <__alt_mem_VGA_Subsystem_Char_Buf_Subsystem_Onchip_SRAM+0xf7003c94>
    3e58:	3444b03a 	or	r2,r6,r17
    3e5c:	1000231e 	bne	r2,zero,3eec <__divdf3+0x2d0>
    3e60:	0023883a 	mov	r17,zero
    3e64:	0029883a 	mov	r20,zero
    3e68:	01c00084 	movi	r7,2
    3e6c:	003f9b06 	br	3cdc <__alt_mem_VGA_Subsystem_Char_Buf_Subsystem_Onchip_SRAM+0xf7003cdc>
    3e70:	3444b03a 	or	r2,r6,r17
    3e74:	10001926 	beq	r2,zero,3edc <__divdf3+0x2c0>
    3e78:	88014b26 	beq	r17,zero,43a8 <__divdf3+0x78c>
    3e7c:	8809883a 	mov	r4,r17
    3e80:	d9400115 	stw	r5,4(sp)
    3e84:	d9800215 	stw	r6,8(sp)
    3e88:	da000415 	stw	r8,16(sp)
    3e8c:	da400315 	stw	r9,12(sp)
    3e90:	0005abc0 	call	5abc <__clzsi2>
    3e94:	d9400117 	ldw	r5,4(sp)
    3e98:	d9800217 	ldw	r6,8(sp)
    3e9c:	da000417 	ldw	r8,16(sp)
    3ea0:	da400317 	ldw	r9,12(sp)
    3ea4:	113ffd44 	addi	r4,r2,-11
    3ea8:	00c00704 	movi	r3,28
    3eac:	19013a16 	blt	r3,r4,4398 <__divdf3+0x77c>
    3eb0:	00c00744 	movi	r3,29
    3eb4:	153ffe04 	addi	r20,r2,-8
    3eb8:	1907c83a 	sub	r3,r3,r4
    3ebc:	8d22983a 	sll	r17,r17,r20
    3ec0:	30c6d83a 	srl	r3,r6,r3
    3ec4:	3528983a 	sll	r20,r6,r20
    3ec8:	1c62b03a 	or	r17,r3,r17
    3ecc:	1080fcc4 	addi	r2,r2,1011
    3ed0:	0087c83a 	sub	r3,zero,r2
    3ed4:	000f883a 	mov	r7,zero
    3ed8:	003f8006 	br	3cdc <__alt_mem_VGA_Subsystem_Char_Buf_Subsystem_Onchip_SRAM+0xf7003cdc>
    3edc:	0023883a 	mov	r17,zero
    3ee0:	0029883a 	mov	r20,zero
    3ee4:	01c00044 	movi	r7,1
    3ee8:	003f7c06 	br	3cdc <__alt_mem_VGA_Subsystem_Char_Buf_Subsystem_Onchip_SRAM+0xf7003cdc>
    3eec:	01c000c4 	movi	r7,3
    3ef0:	003f7a06 	br	3cdc <__alt_mem_VGA_Subsystem_Char_Buf_Subsystem_Onchip_SRAM+0xf7003cdc>
    3ef4:	02400104 	movi	r9,4
    3ef8:	0021883a 	mov	r16,zero
    3efc:	002b883a 	mov	r21,zero
    3f00:	01400044 	movi	r5,1
    3f04:	003f6306 	br	3c94 <__alt_mem_VGA_Subsystem_Char_Buf_Subsystem_Onchip_SRAM+0xf7003c94>
    3f08:	02400304 	movi	r9,12
    3f0c:	014000c4 	movi	r5,3
    3f10:	003f6006 	br	3c94 <__alt_mem_VGA_Subsystem_Char_Buf_Subsystem_Onchip_SRAM+0xf7003c94>
    3f14:	04000434 	movhi	r16,16
    3f18:	0009883a 	mov	r4,zero
    3f1c:	843fffc4 	addi	r16,r16,-1
    3f20:	057fffc4 	movi	r21,-1
    3f24:	0081ffc4 	movi	r2,2047
    3f28:	003f9b06 	br	3d98 <__alt_mem_VGA_Subsystem_Char_Buf_Subsystem_Onchip_SRAM+0xf7003d98>
    3f2c:	00c00044 	movi	r3,1
    3f30:	1887c83a 	sub	r3,r3,r2
    3f34:	01000e04 	movi	r4,56
    3f38:	20c1530e 	bge	r4,r3,4488 <__divdf3+0x86c>
    3f3c:	9900004c 	andi	r4,r19,1
    3f40:	0005883a 	mov	r2,zero
    3f44:	0021883a 	mov	r16,zero
    3f48:	002b883a 	mov	r21,zero
    3f4c:	003f9206 	br	3d98 <__alt_mem_VGA_Subsystem_Char_Buf_Subsystem_Onchip_SRAM+0xf7003d98>
    3f50:	8c012e36 	bltu	r17,r16,440c <__divdf3+0x7f0>
    3f54:	84412c26 	beq	r16,r17,4408 <__divdf3+0x7ec>
    3f58:	a82f883a 	mov	r23,r21
    3f5c:	18ffffc4 	addi	r3,r3,-1
    3f60:	002b883a 	mov	r21,zero
    3f64:	a004d63a 	srli	r2,r20,24
    3f68:	8822923a 	slli	r17,r17,8
    3f6c:	a028923a 	slli	r20,r20,8
    3f70:	8009883a 	mov	r4,r16
    3f74:	88acb03a 	or	r22,r17,r2
    3f78:	dd000015 	stw	r20,0(sp)
    3f7c:	b028d43a 	srli	r20,r22,16
    3f80:	d8c00215 	stw	r3,8(sp)
    3f84:	b4bfffcc 	andi	r18,r22,65535
    3f88:	a00b883a 	mov	r5,r20
    3f8c:	000328c0 	call	328c <__udivsi3>
    3f90:	100b883a 	mov	r5,r2
    3f94:	9009883a 	mov	r4,r18
    3f98:	1023883a 	mov	r17,r2
    3f9c:	00033480 	call	3348 <__mulsi3>
    3fa0:	8009883a 	mov	r4,r16
    3fa4:	a00b883a 	mov	r5,r20
    3fa8:	1039883a 	mov	fp,r2
    3fac:	00032f00 	call	32f0 <__umodsi3>
    3fb0:	1004943a 	slli	r2,r2,16
    3fb4:	b808d43a 	srli	r4,r23,16
    3fb8:	d8c00217 	ldw	r3,8(sp)
    3fbc:	2084b03a 	or	r2,r4,r2
    3fc0:	1700062e 	bgeu	r2,fp,3fdc <__divdf3+0x3c0>
    3fc4:	1585883a 	add	r2,r2,r22
    3fc8:	893fffc4 	addi	r4,r17,-1
    3fcc:	15811d36 	bltu	r2,r22,4444 <__divdf3+0x828>
    3fd0:	17011c2e 	bgeu	r2,fp,4444 <__divdf3+0x828>
    3fd4:	8c7fff84 	addi	r17,r17,-2
    3fd8:	1585883a 	add	r2,r2,r22
    3fdc:	1739c83a 	sub	fp,r2,fp
    3fe0:	a00b883a 	mov	r5,r20
    3fe4:	e009883a 	mov	r4,fp
    3fe8:	d8c00215 	stw	r3,8(sp)
    3fec:	000328c0 	call	328c <__udivsi3>
    3ff0:	100b883a 	mov	r5,r2
    3ff4:	9009883a 	mov	r4,r18
    3ff8:	1021883a 	mov	r16,r2
    3ffc:	00033480 	call	3348 <__mulsi3>
    4000:	a00b883a 	mov	r5,r20
    4004:	e009883a 	mov	r4,fp
    4008:	d8800415 	stw	r2,16(sp)
    400c:	00032f00 	call	32f0 <__umodsi3>
    4010:	1004943a 	slli	r2,r2,16
    4014:	da000417 	ldw	r8,16(sp)
    4018:	bdffffcc 	andi	r23,r23,65535
    401c:	b884b03a 	or	r2,r23,r2
    4020:	d8c00217 	ldw	r3,8(sp)
    4024:	1200062e 	bgeu	r2,r8,4040 <__divdf3+0x424>
    4028:	1585883a 	add	r2,r2,r22
    402c:	813fffc4 	addi	r4,r16,-1
    4030:	15810236 	bltu	r2,r22,443c <__divdf3+0x820>
    4034:	1201012e 	bgeu	r2,r8,443c <__divdf3+0x820>
    4038:	843fff84 	addi	r16,r16,-2
    403c:	1585883a 	add	r2,r2,r22
    4040:	8822943a 	slli	r17,r17,16
    4044:	d9800017 	ldw	r6,0(sp)
    4048:	1211c83a 	sub	r8,r2,r8
    404c:	8c22b03a 	or	r17,r17,r16
    4050:	373fffcc 	andi	fp,r6,65535
    4054:	8abfffcc 	andi	r10,r17,65535
    4058:	8820d43a 	srli	r16,r17,16
    405c:	5009883a 	mov	r4,r10
    4060:	e00b883a 	mov	r5,fp
    4064:	302ed43a 	srli	r23,r6,16
    4068:	d8c00215 	stw	r3,8(sp)
    406c:	da000415 	stw	r8,16(sp)
    4070:	da800115 	stw	r10,4(sp)
    4074:	00033480 	call	3348 <__mulsi3>
    4078:	800b883a 	mov	r5,r16
    407c:	e009883a 	mov	r4,fp
    4080:	d8800515 	stw	r2,20(sp)
    4084:	00033480 	call	3348 <__mulsi3>
    4088:	8009883a 	mov	r4,r16
    408c:	b80b883a 	mov	r5,r23
    4090:	d8800315 	stw	r2,12(sp)
    4094:	00033480 	call	3348 <__mulsi3>
    4098:	da800117 	ldw	r10,4(sp)
    409c:	b80b883a 	mov	r5,r23
    40a0:	1021883a 	mov	r16,r2
    40a4:	5009883a 	mov	r4,r10
    40a8:	00033480 	call	3348 <__mulsi3>
    40ac:	d9c00517 	ldw	r7,20(sp)
    40b0:	da400317 	ldw	r9,12(sp)
    40b4:	d8c00217 	ldw	r3,8(sp)
    40b8:	3808d43a 	srli	r4,r7,16
    40bc:	1245883a 	add	r2,r2,r9
    40c0:	da000417 	ldw	r8,16(sp)
    40c4:	2085883a 	add	r2,r4,r2
    40c8:	1240022e 	bgeu	r2,r9,40d4 <__divdf3+0x4b8>
    40cc:	01000074 	movhi	r4,1
    40d0:	8121883a 	add	r16,r16,r4
    40d4:	1008d43a 	srli	r4,r2,16
    40d8:	1004943a 	slli	r2,r2,16
    40dc:	39ffffcc 	andi	r7,r7,65535
    40e0:	2409883a 	add	r4,r4,r16
    40e4:	11c5883a 	add	r2,r2,r7
    40e8:	4100bb36 	bltu	r8,r4,43d8 <__divdf3+0x7bc>
    40ec:	4100d726 	beq	r8,r4,444c <__divdf3+0x830>
    40f0:	4109c83a 	sub	r4,r8,r4
    40f4:	a8a1c83a 	sub	r16,r21,r2
    40f8:	ac2b803a 	cmpltu	r21,r21,r16
    40fc:	256bc83a 	sub	r21,r4,r21
    4100:	b540d926 	beq	r22,r21,4468 <__divdf3+0x84c>
    4104:	a00b883a 	mov	r5,r20
    4108:	a809883a 	mov	r4,r21
    410c:	d8c00215 	stw	r3,8(sp)
    4110:	000328c0 	call	328c <__udivsi3>
    4114:	100b883a 	mov	r5,r2
    4118:	9009883a 	mov	r4,r18
    411c:	d8800515 	stw	r2,20(sp)
    4120:	00033480 	call	3348 <__mulsi3>
    4124:	a809883a 	mov	r4,r21
    4128:	a00b883a 	mov	r5,r20
    412c:	d8800415 	stw	r2,16(sp)
    4130:	00032f00 	call	32f0 <__umodsi3>
    4134:	1004943a 	slli	r2,r2,16
    4138:	8008d43a 	srli	r4,r16,16
    413c:	da000417 	ldw	r8,16(sp)
    4140:	d8c00217 	ldw	r3,8(sp)
    4144:	2084b03a 	or	r2,r4,r2
    4148:	d9c00517 	ldw	r7,20(sp)
    414c:	1200062e 	bgeu	r2,r8,4168 <__divdf3+0x54c>
    4150:	1585883a 	add	r2,r2,r22
    4154:	393fffc4 	addi	r4,r7,-1
    4158:	1580c536 	bltu	r2,r22,4470 <__divdf3+0x854>
    415c:	1200c42e 	bgeu	r2,r8,4470 <__divdf3+0x854>
    4160:	39ffff84 	addi	r7,r7,-2
    4164:	1585883a 	add	r2,r2,r22
    4168:	122bc83a 	sub	r21,r2,r8
    416c:	a00b883a 	mov	r5,r20
    4170:	a809883a 	mov	r4,r21
    4174:	d8c00215 	stw	r3,8(sp)
    4178:	d9c00515 	stw	r7,20(sp)
    417c:	000328c0 	call	328c <__udivsi3>
    4180:	9009883a 	mov	r4,r18
    4184:	100b883a 	mov	r5,r2
    4188:	d8800415 	stw	r2,16(sp)
    418c:	00033480 	call	3348 <__mulsi3>
    4190:	a809883a 	mov	r4,r21
    4194:	a00b883a 	mov	r5,r20
    4198:	1025883a 	mov	r18,r2
    419c:	00032f00 	call	32f0 <__umodsi3>
    41a0:	1004943a 	slli	r2,r2,16
    41a4:	813fffcc 	andi	r4,r16,65535
    41a8:	d8c00217 	ldw	r3,8(sp)
    41ac:	20a0b03a 	or	r16,r4,r2
    41b0:	d9c00517 	ldw	r7,20(sp)
    41b4:	da000417 	ldw	r8,16(sp)
    41b8:	8480062e 	bgeu	r16,r18,41d4 <__divdf3+0x5b8>
    41bc:	85a1883a 	add	r16,r16,r22
    41c0:	40bfffc4 	addi	r2,r8,-1
    41c4:	8580ac36 	bltu	r16,r22,4478 <__divdf3+0x85c>
    41c8:	8480ab2e 	bgeu	r16,r18,4478 <__divdf3+0x85c>
    41cc:	423fff84 	addi	r8,r8,-2
    41d0:	85a1883a 	add	r16,r16,r22
    41d4:	3804943a 	slli	r2,r7,16
    41d8:	84a1c83a 	sub	r16,r16,r18
    41dc:	e009883a 	mov	r4,fp
    41e0:	1228b03a 	or	r20,r2,r8
    41e4:	a1ffffcc 	andi	r7,r20,65535
    41e8:	a024d43a 	srli	r18,r20,16
    41ec:	380b883a 	mov	r5,r7
    41f0:	d8c00215 	stw	r3,8(sp)
    41f4:	d9c00515 	stw	r7,20(sp)
    41f8:	00033480 	call	3348 <__mulsi3>
    41fc:	900b883a 	mov	r5,r18
    4200:	e009883a 	mov	r4,fp
    4204:	102b883a 	mov	r21,r2
    4208:	00033480 	call	3348 <__mulsi3>
    420c:	900b883a 	mov	r5,r18
    4210:	b809883a 	mov	r4,r23
    4214:	1039883a 	mov	fp,r2
    4218:	00033480 	call	3348 <__mulsi3>
    421c:	d9c00517 	ldw	r7,20(sp)
    4220:	b80b883a 	mov	r5,r23
    4224:	1025883a 	mov	r18,r2
    4228:	3809883a 	mov	r4,r7
    422c:	00033480 	call	3348 <__mulsi3>
    4230:	a808d43a 	srli	r4,r21,16
    4234:	1705883a 	add	r2,r2,fp
    4238:	d8c00217 	ldw	r3,8(sp)
    423c:	2085883a 	add	r2,r4,r2
    4240:	1700022e 	bgeu	r2,fp,424c <__divdf3+0x630>
    4244:	01000074 	movhi	r4,1
    4248:	9125883a 	add	r18,r18,r4
    424c:	1008d43a 	srli	r4,r2,16
    4250:	1004943a 	slli	r2,r2,16
    4254:	ad7fffcc 	andi	r21,r21,65535
    4258:	2489883a 	add	r4,r4,r18
    425c:	1545883a 	add	r2,r2,r21
    4260:	81003836 	bltu	r16,r4,4344 <__divdf3+0x728>
    4264:	81003626 	beq	r16,r4,4340 <__divdf3+0x724>
    4268:	a5000054 	ori	r20,r20,1
    426c:	1880ffc4 	addi	r2,r3,1023
    4270:	00bf2e0e 	bge	zero,r2,3f2c <__alt_mem_VGA_Subsystem_Char_Buf_Subsystem_Onchip_SRAM+0xf7003f2c>
    4274:	a10001cc 	andi	r4,r20,7
    4278:	20000726 	beq	r4,zero,4298 <__divdf3+0x67c>
    427c:	a10003cc 	andi	r4,r20,15
    4280:	01400104 	movi	r5,4
    4284:	21400426 	beq	r4,r5,4298 <__divdf3+0x67c>
    4288:	a149883a 	add	r4,r20,r5
    428c:	2529803a 	cmpltu	r20,r4,r20
    4290:	8d23883a 	add	r17,r17,r20
    4294:	2029883a 	mov	r20,r4
    4298:	8900402c 	andhi	r4,r17,256
    429c:	20000426 	beq	r4,zero,42b0 <__divdf3+0x694>
    42a0:	18810004 	addi	r2,r3,1024
    42a4:	00ffc034 	movhi	r3,65280
    42a8:	18ffffc4 	addi	r3,r3,-1
    42ac:	88e2703a 	and	r17,r17,r3
    42b0:	00c1ff84 	movi	r3,2046
    42b4:	18beb416 	blt	r3,r2,3d88 <__alt_mem_VGA_Subsystem_Char_Buf_Subsystem_Onchip_SRAM+0xf7003d88>
    42b8:	a028d0fa 	srli	r20,r20,3
    42bc:	882a977a 	slli	r21,r17,29
    42c0:	8820927a 	slli	r16,r17,9
    42c4:	1081ffcc 	andi	r2,r2,2047
    42c8:	ad2ab03a 	or	r21,r21,r20
    42cc:	8020d33a 	srli	r16,r16,12
    42d0:	9900004c 	andi	r4,r19,1
    42d4:	003eb006 	br	3d98 <__alt_mem_VGA_Subsystem_Char_Buf_Subsystem_Onchip_SRAM+0xf7003d98>
    42d8:	8080022c 	andhi	r2,r16,8
    42dc:	10001226 	beq	r2,zero,4328 <__divdf3+0x70c>
    42e0:	8880022c 	andhi	r2,r17,8
    42e4:	1000101e 	bne	r2,zero,4328 <__divdf3+0x70c>
    42e8:	00800434 	movhi	r2,16
    42ec:	8c000234 	orhi	r16,r17,8
    42f0:	10bfffc4 	addi	r2,r2,-1
    42f4:	b809883a 	mov	r4,r23
    42f8:	80a0703a 	and	r16,r16,r2
    42fc:	a02b883a 	mov	r21,r20
    4300:	003f0806 	br	3f24 <__alt_mem_VGA_Subsystem_Char_Buf_Subsystem_Onchip_SRAM+0xf7003f24>
    4304:	008000c4 	movi	r2,3
    4308:	3880b126 	beq	r7,r2,45d0 <__divdf3+0x9b4>
    430c:	00800044 	movi	r2,1
    4310:	38805b1e 	bne	r7,r2,4480 <__divdf3+0x864>
    4314:	e009883a 	mov	r4,fp
    4318:	0005883a 	mov	r2,zero
    431c:	0021883a 	mov	r16,zero
    4320:	002b883a 	mov	r21,zero
    4324:	003e9c06 	br	3d98 <__alt_mem_VGA_Subsystem_Char_Buf_Subsystem_Onchip_SRAM+0xf7003d98>
    4328:	00800434 	movhi	r2,16
    432c:	84000234 	orhi	r16,r16,8
    4330:	10bfffc4 	addi	r2,r2,-1
    4334:	b009883a 	mov	r4,r22
    4338:	80a0703a 	and	r16,r16,r2
    433c:	003ef906 	br	3f24 <__alt_mem_VGA_Subsystem_Char_Buf_Subsystem_Onchip_SRAM+0xf7003f24>
    4340:	103fca26 	beq	r2,zero,426c <__alt_mem_VGA_Subsystem_Char_Buf_Subsystem_Onchip_SRAM+0xf700426c>
    4344:	b421883a 	add	r16,r22,r16
    4348:	a17fffc4 	addi	r5,r20,-1
    434c:	8580422e 	bgeu	r16,r22,4458 <__divdf3+0x83c>
    4350:	2829883a 	mov	r20,r5
    4354:	813fc41e 	bne	r16,r4,4268 <__alt_mem_VGA_Subsystem_Char_Buf_Subsystem_Onchip_SRAM+0xf7004268>
    4358:	d9800017 	ldw	r6,0(sp)
    435c:	30bfc21e 	bne	r6,r2,4268 <__alt_mem_VGA_Subsystem_Char_Buf_Subsystem_Onchip_SRAM+0xf7004268>
    4360:	003fc206 	br	426c <__alt_mem_VGA_Subsystem_Char_Buf_Subsystem_Onchip_SRAM+0xf700426c>
    4364:	143ff604 	addi	r16,r2,-40
    4368:	8c20983a 	sll	r16,r17,r16
    436c:	002b883a 	mov	r21,zero
    4370:	003eb406 	br	3e44 <__alt_mem_VGA_Subsystem_Char_Buf_Subsystem_Onchip_SRAM+0xf7003e44>
    4374:	d9800215 	stw	r6,8(sp)
    4378:	d9c00515 	stw	r7,20(sp)
    437c:	da000415 	stw	r8,16(sp)
    4380:	0005abc0 	call	5abc <__clzsi2>
    4384:	10800804 	addi	r2,r2,32
    4388:	da000417 	ldw	r8,16(sp)
    438c:	d9c00517 	ldw	r7,20(sp)
    4390:	d9800217 	ldw	r6,8(sp)
    4394:	003ea106 	br	3e1c <__alt_mem_VGA_Subsystem_Char_Buf_Subsystem_Onchip_SRAM+0xf7003e1c>
    4398:	147ff604 	addi	r17,r2,-40
    439c:	3462983a 	sll	r17,r6,r17
    43a0:	0029883a 	mov	r20,zero
    43a4:	003ec906 	br	3ecc <__alt_mem_VGA_Subsystem_Char_Buf_Subsystem_Onchip_SRAM+0xf7003ecc>
    43a8:	3009883a 	mov	r4,r6
    43ac:	d9400115 	stw	r5,4(sp)
    43b0:	d9800215 	stw	r6,8(sp)
    43b4:	da000415 	stw	r8,16(sp)
    43b8:	da400315 	stw	r9,12(sp)
    43bc:	0005abc0 	call	5abc <__clzsi2>
    43c0:	10800804 	addi	r2,r2,32
    43c4:	da400317 	ldw	r9,12(sp)
    43c8:	da000417 	ldw	r8,16(sp)
    43cc:	d9800217 	ldw	r6,8(sp)
    43d0:	d9400117 	ldw	r5,4(sp)
    43d4:	003eb306 	br	3ea4 <__alt_mem_VGA_Subsystem_Char_Buf_Subsystem_Onchip_SRAM+0xf7003ea4>
    43d8:	d9800017 	ldw	r6,0(sp)
    43dc:	a9ab883a 	add	r21,r21,r6
    43e0:	a98b803a 	cmpltu	r5,r21,r6
    43e4:	2d8b883a 	add	r5,r5,r22
    43e8:	2a11883a 	add	r8,r5,r8
    43ec:	897fffc4 	addi	r5,r17,-1
    43f0:	b2000c2e 	bgeu	r22,r8,4424 <__divdf3+0x808>
    43f4:	41003f36 	bltu	r8,r4,44f4 <__divdf3+0x8d8>
    43f8:	22006c26 	beq	r4,r8,45ac <__divdf3+0x990>
    43fc:	4109c83a 	sub	r4,r8,r4
    4400:	2823883a 	mov	r17,r5
    4404:	003f3b06 	br	40f4 <__alt_mem_VGA_Subsystem_Char_Buf_Subsystem_Onchip_SRAM+0xf70040f4>
    4408:	ad3ed336 	bltu	r21,r20,3f58 <__alt_mem_VGA_Subsystem_Char_Buf_Subsystem_Onchip_SRAM+0xf7003f58>
    440c:	a804d07a 	srli	r2,r21,1
    4410:	802e97fa 	slli	r23,r16,31
    4414:	a82a97fa 	slli	r21,r21,31
    4418:	8020d07a 	srli	r16,r16,1
    441c:	b8aeb03a 	or	r23,r23,r2
    4420:	003ed006 	br	3f64 <__alt_mem_VGA_Subsystem_Char_Buf_Subsystem_Onchip_SRAM+0xf7003f64>
    4424:	b23ff51e 	bne	r22,r8,43fc <__alt_mem_VGA_Subsystem_Char_Buf_Subsystem_Onchip_SRAM+0xf70043fc>
    4428:	d9800017 	ldw	r6,0(sp)
    442c:	a9bff12e 	bgeu	r21,r6,43f4 <__alt_mem_VGA_Subsystem_Char_Buf_Subsystem_Onchip_SRAM+0xf70043f4>
    4430:	b109c83a 	sub	r4,r22,r4
    4434:	2823883a 	mov	r17,r5
    4438:	003f2e06 	br	40f4 <__alt_mem_VGA_Subsystem_Char_Buf_Subsystem_Onchip_SRAM+0xf70040f4>
    443c:	2021883a 	mov	r16,r4
    4440:	003eff06 	br	4040 <__alt_mem_VGA_Subsystem_Char_Buf_Subsystem_Onchip_SRAM+0xf7004040>
    4444:	2023883a 	mov	r17,r4
    4448:	003ee406 	br	3fdc <__alt_mem_VGA_Subsystem_Char_Buf_Subsystem_Onchip_SRAM+0xf7003fdc>
    444c:	a8bfe236 	bltu	r21,r2,43d8 <__alt_mem_VGA_Subsystem_Char_Buf_Subsystem_Onchip_SRAM+0xf70043d8>
    4450:	0009883a 	mov	r4,zero
    4454:	003f2706 	br	40f4 <__alt_mem_VGA_Subsystem_Char_Buf_Subsystem_Onchip_SRAM+0xf70040f4>
    4458:	81002d36 	bltu	r16,r4,4510 <__divdf3+0x8f4>
    445c:	24005626 	beq	r4,r16,45b8 <__divdf3+0x99c>
    4460:	2829883a 	mov	r20,r5
    4464:	003f8006 	br	4268 <__alt_mem_VGA_Subsystem_Char_Buf_Subsystem_Onchip_SRAM+0xf7004268>
    4468:	053fffc4 	movi	r20,-1
    446c:	003f7f06 	br	426c <__alt_mem_VGA_Subsystem_Char_Buf_Subsystem_Onchip_SRAM+0xf700426c>
    4470:	200f883a 	mov	r7,r4
    4474:	003f3c06 	br	4168 <__alt_mem_VGA_Subsystem_Char_Buf_Subsystem_Onchip_SRAM+0xf7004168>
    4478:	1011883a 	mov	r8,r2
    447c:	003f5506 	br	41d4 <__alt_mem_VGA_Subsystem_Char_Buf_Subsystem_Onchip_SRAM+0xf70041d4>
    4480:	e027883a 	mov	r19,fp
    4484:	003f7906 	br	426c <__alt_mem_VGA_Subsystem_Char_Buf_Subsystem_Onchip_SRAM+0xf700426c>
    4488:	010007c4 	movi	r4,31
    448c:	20c02816 	blt	r4,r3,4530 <__divdf3+0x914>
    4490:	00800804 	movi	r2,32
    4494:	10c5c83a 	sub	r2,r2,r3
    4498:	888a983a 	sll	r5,r17,r2
    449c:	a0c8d83a 	srl	r4,r20,r3
    44a0:	a084983a 	sll	r2,r20,r2
    44a4:	88e2d83a 	srl	r17,r17,r3
    44a8:	2906b03a 	or	r3,r5,r4
    44ac:	1004c03a 	cmpne	r2,r2,zero
    44b0:	1886b03a 	or	r3,r3,r2
    44b4:	188001cc 	andi	r2,r3,7
    44b8:	10000726 	beq	r2,zero,44d8 <__divdf3+0x8bc>
    44bc:	188003cc 	andi	r2,r3,15
    44c0:	01000104 	movi	r4,4
    44c4:	11000426 	beq	r2,r4,44d8 <__divdf3+0x8bc>
    44c8:	1805883a 	mov	r2,r3
    44cc:	10c00104 	addi	r3,r2,4
    44d0:	1885803a 	cmpltu	r2,r3,r2
    44d4:	88a3883a 	add	r17,r17,r2
    44d8:	8880202c 	andhi	r2,r17,128
    44dc:	10002926 	beq	r2,zero,4584 <__divdf3+0x968>
    44e0:	9900004c 	andi	r4,r19,1
    44e4:	00800044 	movi	r2,1
    44e8:	0021883a 	mov	r16,zero
    44ec:	002b883a 	mov	r21,zero
    44f0:	003e2906 	br	3d98 <__alt_mem_VGA_Subsystem_Char_Buf_Subsystem_Onchip_SRAM+0xf7003d98>
    44f4:	d9800017 	ldw	r6,0(sp)
    44f8:	8c7fff84 	addi	r17,r17,-2
    44fc:	a9ab883a 	add	r21,r21,r6
    4500:	a98b803a 	cmpltu	r5,r21,r6
    4504:	2d8b883a 	add	r5,r5,r22
    4508:	2a11883a 	add	r8,r5,r8
    450c:	003ef806 	br	40f0 <__alt_mem_VGA_Subsystem_Char_Buf_Subsystem_Onchip_SRAM+0xf70040f0>
    4510:	d9800017 	ldw	r6,0(sp)
    4514:	318f883a 	add	r7,r6,r6
    4518:	398b803a 	cmpltu	r5,r7,r6
    451c:	2d8d883a 	add	r6,r5,r22
    4520:	81a1883a 	add	r16,r16,r6
    4524:	a17fff84 	addi	r5,r20,-2
    4528:	d9c00015 	stw	r7,0(sp)
    452c:	003f8806 	br	4350 <__alt_mem_VGA_Subsystem_Char_Buf_Subsystem_Onchip_SRAM+0xf7004350>
    4530:	013ff844 	movi	r4,-31
    4534:	2085c83a 	sub	r2,r4,r2
    4538:	8888d83a 	srl	r4,r17,r2
    453c:	00800804 	movi	r2,32
    4540:	18802126 	beq	r3,r2,45c8 <__divdf3+0x9ac>
    4544:	04001004 	movi	r16,64
    4548:	80c7c83a 	sub	r3,r16,r3
    454c:	88e0983a 	sll	r16,r17,r3
    4550:	8504b03a 	or	r2,r16,r20
    4554:	1004c03a 	cmpne	r2,r2,zero
    4558:	2084b03a 	or	r2,r4,r2
    455c:	144001cc 	andi	r17,r2,7
    4560:	88000d1e 	bne	r17,zero,4598 <__divdf3+0x97c>
    4564:	0021883a 	mov	r16,zero
    4568:	102ad0fa 	srli	r21,r2,3
    456c:	9900004c 	andi	r4,r19,1
    4570:	0005883a 	mov	r2,zero
    4574:	ac6ab03a 	or	r21,r21,r17
    4578:	003e0706 	br	3d98 <__alt_mem_VGA_Subsystem_Char_Buf_Subsystem_Onchip_SRAM+0xf7003d98>
    457c:	1007883a 	mov	r3,r2
    4580:	0023883a 	mov	r17,zero
    4584:	8820927a 	slli	r16,r17,9
    4588:	1805883a 	mov	r2,r3
    458c:	8822977a 	slli	r17,r17,29
    4590:	8020d33a 	srli	r16,r16,12
    4594:	003ff406 	br	4568 <__alt_mem_VGA_Subsystem_Char_Buf_Subsystem_Onchip_SRAM+0xf7004568>
    4598:	10c003cc 	andi	r3,r2,15
    459c:	01000104 	movi	r4,4
    45a0:	193ff626 	beq	r3,r4,457c <__alt_mem_VGA_Subsystem_Char_Buf_Subsystem_Onchip_SRAM+0xf700457c>
    45a4:	0023883a 	mov	r17,zero
    45a8:	003fc806 	br	44cc <__alt_mem_VGA_Subsystem_Char_Buf_Subsystem_Onchip_SRAM+0xf70044cc>
    45ac:	a8bfd136 	bltu	r21,r2,44f4 <__alt_mem_VGA_Subsystem_Char_Buf_Subsystem_Onchip_SRAM+0xf70044f4>
    45b0:	2823883a 	mov	r17,r5
    45b4:	003fa606 	br	4450 <__alt_mem_VGA_Subsystem_Char_Buf_Subsystem_Onchip_SRAM+0xf7004450>
    45b8:	d9800017 	ldw	r6,0(sp)
    45bc:	30bfd436 	bltu	r6,r2,4510 <__alt_mem_VGA_Subsystem_Char_Buf_Subsystem_Onchip_SRAM+0xf7004510>
    45c0:	2829883a 	mov	r20,r5
    45c4:	003f6406 	br	4358 <__alt_mem_VGA_Subsystem_Char_Buf_Subsystem_Onchip_SRAM+0xf7004358>
    45c8:	0021883a 	mov	r16,zero
    45cc:	003fe006 	br	4550 <__alt_mem_VGA_Subsystem_Char_Buf_Subsystem_Onchip_SRAM+0xf7004550>
    45d0:	00800434 	movhi	r2,16
    45d4:	8c000234 	orhi	r16,r17,8
    45d8:	10bfffc4 	addi	r2,r2,-1
    45dc:	e009883a 	mov	r4,fp
    45e0:	80a0703a 	and	r16,r16,r2
    45e4:	a02b883a 	mov	r21,r20
    45e8:	003e4e06 	br	3f24 <__alt_mem_VGA_Subsystem_Char_Buf_Subsystem_Onchip_SRAM+0xf7003f24>

000045ec <__eqdf2>:
    45ec:	2804d53a 	srli	r2,r5,20
    45f0:	3806d53a 	srli	r3,r7,20
    45f4:	02000434 	movhi	r8,16
    45f8:	423fffc4 	addi	r8,r8,-1
    45fc:	1081ffcc 	andi	r2,r2,2047
    4600:	0281ffc4 	movi	r10,2047
    4604:	2a12703a 	and	r9,r5,r8
    4608:	18c1ffcc 	andi	r3,r3,2047
    460c:	3a10703a 	and	r8,r7,r8
    4610:	280ad7fa 	srli	r5,r5,31
    4614:	380ed7fa 	srli	r7,r7,31
    4618:	12801026 	beq	r2,r10,465c <__eqdf2+0x70>
    461c:	0281ffc4 	movi	r10,2047
    4620:	1a800a26 	beq	r3,r10,464c <__eqdf2+0x60>
    4624:	10c00226 	beq	r2,r3,4630 <__eqdf2+0x44>
    4628:	00800044 	movi	r2,1
    462c:	f800283a 	ret
    4630:	4a3ffd1e 	bne	r9,r8,4628 <__alt_mem_VGA_Subsystem_Char_Buf_Subsystem_Onchip_SRAM+0xf7004628>
    4634:	21bffc1e 	bne	r4,r6,4628 <__alt_mem_VGA_Subsystem_Char_Buf_Subsystem_Onchip_SRAM+0xf7004628>
    4638:	29c00c26 	beq	r5,r7,466c <__eqdf2+0x80>
    463c:	103ffa1e 	bne	r2,zero,4628 <__alt_mem_VGA_Subsystem_Char_Buf_Subsystem_Onchip_SRAM+0xf7004628>
    4640:	2244b03a 	or	r2,r4,r9
    4644:	1004c03a 	cmpne	r2,r2,zero
    4648:	f800283a 	ret
    464c:	3214b03a 	or	r10,r6,r8
    4650:	503ff426 	beq	r10,zero,4624 <__alt_mem_VGA_Subsystem_Char_Buf_Subsystem_Onchip_SRAM+0xf7004624>
    4654:	00800044 	movi	r2,1
    4658:	f800283a 	ret
    465c:	2254b03a 	or	r10,r4,r9
    4660:	503fee26 	beq	r10,zero,461c <__alt_mem_VGA_Subsystem_Char_Buf_Subsystem_Onchip_SRAM+0xf700461c>
    4664:	00800044 	movi	r2,1
    4668:	f800283a 	ret
    466c:	0005883a 	mov	r2,zero
    4670:	f800283a 	ret

00004674 <__gedf2>:
    4674:	2804d53a 	srli	r2,r5,20
    4678:	3806d53a 	srli	r3,r7,20
    467c:	02000434 	movhi	r8,16
    4680:	423fffc4 	addi	r8,r8,-1
    4684:	1081ffcc 	andi	r2,r2,2047
    4688:	0241ffc4 	movi	r9,2047
    468c:	2a14703a 	and	r10,r5,r8
    4690:	18c1ffcc 	andi	r3,r3,2047
    4694:	3a10703a 	and	r8,r7,r8
    4698:	280ad7fa 	srli	r5,r5,31
    469c:	380ed7fa 	srli	r7,r7,31
    46a0:	12401d26 	beq	r2,r9,4718 <__gedf2+0xa4>
    46a4:	0241ffc4 	movi	r9,2047
    46a8:	1a401226 	beq	r3,r9,46f4 <__gedf2+0x80>
    46ac:	1000081e 	bne	r2,zero,46d0 <__gedf2+0x5c>
    46b0:	2296b03a 	or	r11,r4,r10
    46b4:	5813003a 	cmpeq	r9,r11,zero
    46b8:	1800091e 	bne	r3,zero,46e0 <__gedf2+0x6c>
    46bc:	3218b03a 	or	r12,r6,r8
    46c0:	6000071e 	bne	r12,zero,46e0 <__gedf2+0x6c>
    46c4:	0005883a 	mov	r2,zero
    46c8:	5800101e 	bne	r11,zero,470c <__gedf2+0x98>
    46cc:	f800283a 	ret
    46d0:	18000c1e 	bne	r3,zero,4704 <__gedf2+0x90>
    46d4:	3212b03a 	or	r9,r6,r8
    46d8:	48000c26 	beq	r9,zero,470c <__gedf2+0x98>
    46dc:	0013883a 	mov	r9,zero
    46e0:	39c03fcc 	andi	r7,r7,255
    46e4:	48000826 	beq	r9,zero,4708 <__gedf2+0x94>
    46e8:	38000926 	beq	r7,zero,4710 <__gedf2+0x9c>
    46ec:	00800044 	movi	r2,1
    46f0:	f800283a 	ret
    46f4:	3212b03a 	or	r9,r6,r8
    46f8:	483fec26 	beq	r9,zero,46ac <__alt_mem_VGA_Subsystem_Char_Buf_Subsystem_Onchip_SRAM+0xf70046ac>
    46fc:	00bfff84 	movi	r2,-2
    4700:	f800283a 	ret
    4704:	39c03fcc 	andi	r7,r7,255
    4708:	29c00626 	beq	r5,r7,4724 <__gedf2+0xb0>
    470c:	283ff726 	beq	r5,zero,46ec <__alt_mem_VGA_Subsystem_Char_Buf_Subsystem_Onchip_SRAM+0xf70046ec>
    4710:	00bfffc4 	movi	r2,-1
    4714:	f800283a 	ret
    4718:	2292b03a 	or	r9,r4,r10
    471c:	483fe126 	beq	r9,zero,46a4 <__alt_mem_VGA_Subsystem_Char_Buf_Subsystem_Onchip_SRAM+0xf70046a4>
    4720:	003ff606 	br	46fc <__alt_mem_VGA_Subsystem_Char_Buf_Subsystem_Onchip_SRAM+0xf70046fc>
    4724:	18bff916 	blt	r3,r2,470c <__alt_mem_VGA_Subsystem_Char_Buf_Subsystem_Onchip_SRAM+0xf700470c>
    4728:	10c00316 	blt	r2,r3,4738 <__gedf2+0xc4>
    472c:	42bff736 	bltu	r8,r10,470c <__alt_mem_VGA_Subsystem_Char_Buf_Subsystem_Onchip_SRAM+0xf700470c>
    4730:	52000326 	beq	r10,r8,4740 <__gedf2+0xcc>
    4734:	5200042e 	bgeu	r10,r8,4748 <__gedf2+0xd4>
    4738:	283fec1e 	bne	r5,zero,46ec <__alt_mem_VGA_Subsystem_Char_Buf_Subsystem_Onchip_SRAM+0xf70046ec>
    473c:	003ff406 	br	4710 <__alt_mem_VGA_Subsystem_Char_Buf_Subsystem_Onchip_SRAM+0xf7004710>
    4740:	313ff236 	bltu	r6,r4,470c <__alt_mem_VGA_Subsystem_Char_Buf_Subsystem_Onchip_SRAM+0xf700470c>
    4744:	21bffc36 	bltu	r4,r6,4738 <__alt_mem_VGA_Subsystem_Char_Buf_Subsystem_Onchip_SRAM+0xf7004738>
    4748:	0005883a 	mov	r2,zero
    474c:	f800283a 	ret

00004750 <__muldf3>:
    4750:	deffee04 	addi	sp,sp,-72
    4754:	dd000c15 	stw	r20,48(sp)
    4758:	2828d53a 	srli	r20,r5,20
    475c:	ddc00f15 	stw	r23,60(sp)
    4760:	282ed7fa 	srli	r23,r5,31
    4764:	dc000815 	stw	r16,32(sp)
    4768:	04000434 	movhi	r16,16
    476c:	dcc00b15 	stw	r19,44(sp)
    4770:	843fffc4 	addi	r16,r16,-1
    4774:	dfc01115 	stw	ra,68(sp)
    4778:	df001015 	stw	fp,64(sp)
    477c:	dd800e15 	stw	r22,56(sp)
    4780:	dd400d15 	stw	r21,52(sp)
    4784:	dc800a15 	stw	r18,40(sp)
    4788:	dc400915 	stw	r17,36(sp)
    478c:	a501ffcc 	andi	r20,r20,2047
    4790:	2c20703a 	and	r16,r5,r16
    4794:	b827883a 	mov	r19,r23
    4798:	ba403fcc 	andi	r9,r23,255
    479c:	a0006026 	beq	r20,zero,4920 <__muldf3+0x1d0>
    47a0:	0081ffc4 	movi	r2,2047
    47a4:	202d883a 	mov	r22,r4
    47a8:	a0803626 	beq	r20,r2,4884 <__muldf3+0x134>
    47ac:	84000434 	orhi	r16,r16,16
    47b0:	200ad77a 	srli	r5,r4,29
    47b4:	800490fa 	slli	r2,r16,3
    47b8:	202c90fa 	slli	r22,r4,3
    47bc:	a53f0044 	addi	r20,r20,-1023
    47c0:	28a0b03a 	or	r16,r5,r2
    47c4:	002b883a 	mov	r21,zero
    47c8:	000b883a 	mov	r5,zero
    47cc:	3804d53a 	srli	r2,r7,20
    47d0:	3838d7fa 	srli	fp,r7,31
    47d4:	04400434 	movhi	r17,16
    47d8:	8c7fffc4 	addi	r17,r17,-1
    47dc:	1081ffcc 	andi	r2,r2,2047
    47e0:	3025883a 	mov	r18,r6
    47e4:	3c62703a 	and	r17,r7,r17
    47e8:	e2803fcc 	andi	r10,fp,255
    47ec:	10006d26 	beq	r2,zero,49a4 <__muldf3+0x254>
    47f0:	00c1ffc4 	movi	r3,2047
    47f4:	10c06526 	beq	r2,r3,498c <__muldf3+0x23c>
    47f8:	8c400434 	orhi	r17,r17,16
    47fc:	300ed77a 	srli	r7,r6,29
    4800:	880690fa 	slli	r3,r17,3
    4804:	302490fa 	slli	r18,r6,3
    4808:	10bf0044 	addi	r2,r2,-1023
    480c:	38e2b03a 	or	r17,r7,r3
    4810:	000f883a 	mov	r7,zero
    4814:	a087883a 	add	r3,r20,r2
    4818:	010003c4 	movi	r4,15
    481c:	3d44b03a 	or	r2,r7,r21
    4820:	e5ccf03a 	xor	r6,fp,r23
    4824:	1a000044 	addi	r8,r3,1
    4828:	20809b36 	bltu	r4,r2,4a98 <__muldf3+0x348>
    482c:	100490ba 	slli	r2,r2,2
    4830:	01000034 	movhi	r4,0
    4834:	21121104 	addi	r4,r4,18500
    4838:	1105883a 	add	r2,r2,r4
    483c:	10800017 	ldw	r2,0(r2)
    4840:	1000683a 	jmp	r2
    4844:	00004a98 	cmpnei	zero,zero,298
    4848:	000048a4 	muli	zero,zero,290
    484c:	000048a4 	muli	zero,zero,290
    4850:	000048a0 	cmpeqi	zero,zero,290
    4854:	00004a74 	movhi	zero,297
    4858:	00004a74 	movhi	zero,297
    485c:	00004a5c 	xori	zero,zero,297
    4860:	000048a0 	cmpeqi	zero,zero,290
    4864:	00004a74 	movhi	zero,297
    4868:	00004a5c 	xori	zero,zero,297
    486c:	00004a74 	movhi	zero,297
    4870:	000048a0 	cmpeqi	zero,zero,290
    4874:	00004a84 	movi	zero,298
    4878:	00004a84 	movi	zero,298
    487c:	00004a84 	movi	zero,298
    4880:	00004de4 	muli	zero,zero,311
    4884:	2404b03a 	or	r2,r4,r16
    4888:	1000711e 	bne	r2,zero,4a50 <__muldf3+0x300>
    488c:	05400204 	movi	r21,8
    4890:	0021883a 	mov	r16,zero
    4894:	002d883a 	mov	r22,zero
    4898:	01400084 	movi	r5,2
    489c:	003fcb06 	br	47cc <__alt_mem_VGA_Subsystem_Char_Buf_Subsystem_Onchip_SRAM+0xf70047cc>
    48a0:	500d883a 	mov	r6,r10
    48a4:	00800084 	movi	r2,2
    48a8:	38805926 	beq	r7,r2,4a10 <__muldf3+0x2c0>
    48ac:	008000c4 	movi	r2,3
    48b0:	3881bb26 	beq	r7,r2,4fa0 <__muldf3+0x850>
    48b4:	00800044 	movi	r2,1
    48b8:	3881961e 	bne	r7,r2,4f14 <__muldf3+0x7c4>
    48bc:	3027883a 	mov	r19,r6
    48c0:	0005883a 	mov	r2,zero
    48c4:	0021883a 	mov	r16,zero
    48c8:	002d883a 	mov	r22,zero
    48cc:	1004953a 	slli	r2,r2,20
    48d0:	98c03fcc 	andi	r3,r19,255
    48d4:	04400434 	movhi	r17,16
    48d8:	8c7fffc4 	addi	r17,r17,-1
    48dc:	180697fa 	slli	r3,r3,31
    48e0:	8460703a 	and	r16,r16,r17
    48e4:	80a0b03a 	or	r16,r16,r2
    48e8:	80c6b03a 	or	r3,r16,r3
    48ec:	b005883a 	mov	r2,r22
    48f0:	dfc01117 	ldw	ra,68(sp)
    48f4:	df001017 	ldw	fp,64(sp)
    48f8:	ddc00f17 	ldw	r23,60(sp)
    48fc:	dd800e17 	ldw	r22,56(sp)
    4900:	dd400d17 	ldw	r21,52(sp)
    4904:	dd000c17 	ldw	r20,48(sp)
    4908:	dcc00b17 	ldw	r19,44(sp)
    490c:	dc800a17 	ldw	r18,40(sp)
    4910:	dc400917 	ldw	r17,36(sp)
    4914:	dc000817 	ldw	r16,32(sp)
    4918:	dec01204 	addi	sp,sp,72
    491c:	f800283a 	ret
    4920:	2404b03a 	or	r2,r4,r16
    4924:	202b883a 	mov	r21,r4
    4928:	10004426 	beq	r2,zero,4a3c <__muldf3+0x2ec>
    492c:	80015126 	beq	r16,zero,4e74 <__muldf3+0x724>
    4930:	8009883a 	mov	r4,r16
    4934:	d9800715 	stw	r6,28(sp)
    4938:	d9c00215 	stw	r7,8(sp)
    493c:	da400415 	stw	r9,16(sp)
    4940:	0005abc0 	call	5abc <__clzsi2>
    4944:	d9800717 	ldw	r6,28(sp)
    4948:	d9c00217 	ldw	r7,8(sp)
    494c:	da400417 	ldw	r9,16(sp)
    4950:	113ffd44 	addi	r4,r2,-11
    4954:	00c00704 	movi	r3,28
    4958:	19014216 	blt	r3,r4,4e64 <__muldf3+0x714>
    495c:	00c00744 	movi	r3,29
    4960:	15bffe04 	addi	r22,r2,-8
    4964:	1907c83a 	sub	r3,r3,r4
    4968:	85a0983a 	sll	r16,r16,r22
    496c:	a8c6d83a 	srl	r3,r21,r3
    4970:	adac983a 	sll	r22,r21,r22
    4974:	1c20b03a 	or	r16,r3,r16
    4978:	1080fcc4 	addi	r2,r2,1011
    497c:	00a9c83a 	sub	r20,zero,r2
    4980:	002b883a 	mov	r21,zero
    4984:	000b883a 	mov	r5,zero
    4988:	003f9006 	br	47cc <__alt_mem_VGA_Subsystem_Char_Buf_Subsystem_Onchip_SRAM+0xf70047cc>
    498c:	3446b03a 	or	r3,r6,r17
    4990:	1800281e 	bne	r3,zero,4a34 <__muldf3+0x2e4>
    4994:	0023883a 	mov	r17,zero
    4998:	0025883a 	mov	r18,zero
    499c:	01c00084 	movi	r7,2
    49a0:	003f9c06 	br	4814 <__alt_mem_VGA_Subsystem_Char_Buf_Subsystem_Onchip_SRAM+0xf7004814>
    49a4:	3446b03a 	or	r3,r6,r17
    49a8:	18001e26 	beq	r3,zero,4a24 <__muldf3+0x2d4>
    49ac:	88012126 	beq	r17,zero,4e34 <__muldf3+0x6e4>
    49b0:	8809883a 	mov	r4,r17
    49b4:	d9400215 	stw	r5,8(sp)
    49b8:	d9800715 	stw	r6,28(sp)
    49bc:	da400415 	stw	r9,16(sp)
    49c0:	da800315 	stw	r10,12(sp)
    49c4:	0005abc0 	call	5abc <__clzsi2>
    49c8:	d9400217 	ldw	r5,8(sp)
    49cc:	d9800717 	ldw	r6,28(sp)
    49d0:	da400417 	ldw	r9,16(sp)
    49d4:	da800317 	ldw	r10,12(sp)
    49d8:	113ffd44 	addi	r4,r2,-11
    49dc:	00c00704 	movi	r3,28
    49e0:	19011016 	blt	r3,r4,4e24 <__muldf3+0x6d4>
    49e4:	00c00744 	movi	r3,29
    49e8:	14bffe04 	addi	r18,r2,-8
    49ec:	1907c83a 	sub	r3,r3,r4
    49f0:	8ca2983a 	sll	r17,r17,r18
    49f4:	30c6d83a 	srl	r3,r6,r3
    49f8:	34a4983a 	sll	r18,r6,r18
    49fc:	1c62b03a 	or	r17,r3,r17
    4a00:	1080fcc4 	addi	r2,r2,1011
    4a04:	0085c83a 	sub	r2,zero,r2
    4a08:	000f883a 	mov	r7,zero
    4a0c:	003f8106 	br	4814 <__alt_mem_VGA_Subsystem_Char_Buf_Subsystem_Onchip_SRAM+0xf7004814>
    4a10:	3027883a 	mov	r19,r6
    4a14:	0081ffc4 	movi	r2,2047
    4a18:	0021883a 	mov	r16,zero
    4a1c:	002d883a 	mov	r22,zero
    4a20:	003faa06 	br	48cc <__alt_mem_VGA_Subsystem_Char_Buf_Subsystem_Onchip_SRAM+0xf70048cc>
    4a24:	0023883a 	mov	r17,zero
    4a28:	0025883a 	mov	r18,zero
    4a2c:	01c00044 	movi	r7,1
    4a30:	003f7806 	br	4814 <__alt_mem_VGA_Subsystem_Char_Buf_Subsystem_Onchip_SRAM+0xf7004814>
    4a34:	01c000c4 	movi	r7,3
    4a38:	003f7606 	br	4814 <__alt_mem_VGA_Subsystem_Char_Buf_Subsystem_Onchip_SRAM+0xf7004814>
    4a3c:	05400104 	movi	r21,4
    4a40:	0021883a 	mov	r16,zero
    4a44:	002d883a 	mov	r22,zero
    4a48:	01400044 	movi	r5,1
    4a4c:	003f5f06 	br	47cc <__alt_mem_VGA_Subsystem_Char_Buf_Subsystem_Onchip_SRAM+0xf70047cc>
    4a50:	05400304 	movi	r21,12
    4a54:	014000c4 	movi	r5,3
    4a58:	003f5c06 	br	47cc <__alt_mem_VGA_Subsystem_Char_Buf_Subsystem_Onchip_SRAM+0xf70047cc>
    4a5c:	04000434 	movhi	r16,16
    4a60:	0027883a 	mov	r19,zero
    4a64:	843fffc4 	addi	r16,r16,-1
    4a68:	05bfffc4 	movi	r22,-1
    4a6c:	0081ffc4 	movi	r2,2047
    4a70:	003f9606 	br	48cc <__alt_mem_VGA_Subsystem_Char_Buf_Subsystem_Onchip_SRAM+0xf70048cc>
    4a74:	8023883a 	mov	r17,r16
    4a78:	b025883a 	mov	r18,r22
    4a7c:	280f883a 	mov	r7,r5
    4a80:	003f8806 	br	48a4 <__alt_mem_VGA_Subsystem_Char_Buf_Subsystem_Onchip_SRAM+0xf70048a4>
    4a84:	8023883a 	mov	r17,r16
    4a88:	b025883a 	mov	r18,r22
    4a8c:	480d883a 	mov	r6,r9
    4a90:	280f883a 	mov	r7,r5
    4a94:	003f8306 	br	48a4 <__alt_mem_VGA_Subsystem_Char_Buf_Subsystem_Onchip_SRAM+0xf70048a4>
    4a98:	b026d43a 	srli	r19,r22,16
    4a9c:	902ed43a 	srli	r23,r18,16
    4aa0:	b5bfffcc 	andi	r22,r22,65535
    4aa4:	94bfffcc 	andi	r18,r18,65535
    4aa8:	b00b883a 	mov	r5,r22
    4aac:	9009883a 	mov	r4,r18
    4ab0:	d8c00515 	stw	r3,20(sp)
    4ab4:	d9800715 	stw	r6,28(sp)
    4ab8:	da000615 	stw	r8,24(sp)
    4abc:	00033480 	call	3348 <__mulsi3>
    4ac0:	980b883a 	mov	r5,r19
    4ac4:	9009883a 	mov	r4,r18
    4ac8:	1029883a 	mov	r20,r2
    4acc:	00033480 	call	3348 <__mulsi3>
    4ad0:	b80b883a 	mov	r5,r23
    4ad4:	9809883a 	mov	r4,r19
    4ad8:	102b883a 	mov	r21,r2
    4adc:	00033480 	call	3348 <__mulsi3>
    4ae0:	b809883a 	mov	r4,r23
    4ae4:	b00b883a 	mov	r5,r22
    4ae8:	1039883a 	mov	fp,r2
    4aec:	00033480 	call	3348 <__mulsi3>
    4af0:	a008d43a 	srli	r4,r20,16
    4af4:	1545883a 	add	r2,r2,r21
    4af8:	d8c00517 	ldw	r3,20(sp)
    4afc:	2085883a 	add	r2,r4,r2
    4b00:	d9800717 	ldw	r6,28(sp)
    4b04:	da000617 	ldw	r8,24(sp)
    4b08:	1540022e 	bgeu	r2,r21,4b14 <__muldf3+0x3c4>
    4b0c:	01000074 	movhi	r4,1
    4b10:	e139883a 	add	fp,fp,r4
    4b14:	100e943a 	slli	r7,r2,16
    4b18:	1004d43a 	srli	r2,r2,16
    4b1c:	882ad43a 	srli	r21,r17,16
    4b20:	a53fffcc 	andi	r20,r20,65535
    4b24:	8c7fffcc 	andi	r17,r17,65535
    4b28:	3d29883a 	add	r20,r7,r20
    4b2c:	b00b883a 	mov	r5,r22
    4b30:	8809883a 	mov	r4,r17
    4b34:	d8c00515 	stw	r3,20(sp)
    4b38:	d9800715 	stw	r6,28(sp)
    4b3c:	da000615 	stw	r8,24(sp)
    4b40:	dd000115 	stw	r20,4(sp)
    4b44:	d8800015 	stw	r2,0(sp)
    4b48:	00033480 	call	3348 <__mulsi3>
    4b4c:	980b883a 	mov	r5,r19
    4b50:	8809883a 	mov	r4,r17
    4b54:	d8800215 	stw	r2,8(sp)
    4b58:	00033480 	call	3348 <__mulsi3>
    4b5c:	9809883a 	mov	r4,r19
    4b60:	a80b883a 	mov	r5,r21
    4b64:	1029883a 	mov	r20,r2
    4b68:	00033480 	call	3348 <__mulsi3>
    4b6c:	b00b883a 	mov	r5,r22
    4b70:	a809883a 	mov	r4,r21
    4b74:	d8800415 	stw	r2,16(sp)
    4b78:	00033480 	call	3348 <__mulsi3>
    4b7c:	d9c00217 	ldw	r7,8(sp)
    4b80:	1505883a 	add	r2,r2,r20
    4b84:	d8c00517 	ldw	r3,20(sp)
    4b88:	3826d43a 	srli	r19,r7,16
    4b8c:	d9800717 	ldw	r6,28(sp)
    4b90:	da000617 	ldw	r8,24(sp)
    4b94:	9885883a 	add	r2,r19,r2
    4b98:	da400417 	ldw	r9,16(sp)
    4b9c:	1500022e 	bgeu	r2,r20,4ba8 <__muldf3+0x458>
    4ba0:	01000074 	movhi	r4,1
    4ba4:	4913883a 	add	r9,r9,r4
    4ba8:	1028d43a 	srli	r20,r2,16
    4bac:	1004943a 	slli	r2,r2,16
    4bb0:	802cd43a 	srli	r22,r16,16
    4bb4:	843fffcc 	andi	r16,r16,65535
    4bb8:	3cffffcc 	andi	r19,r7,65535
    4bbc:	9009883a 	mov	r4,r18
    4bc0:	800b883a 	mov	r5,r16
    4bc4:	a269883a 	add	r20,r20,r9
    4bc8:	d8c00515 	stw	r3,20(sp)
    4bcc:	d9800715 	stw	r6,28(sp)
    4bd0:	da000615 	stw	r8,24(sp)
    4bd4:	14e7883a 	add	r19,r2,r19
    4bd8:	00033480 	call	3348 <__mulsi3>
    4bdc:	9009883a 	mov	r4,r18
    4be0:	b00b883a 	mov	r5,r22
    4be4:	d8800315 	stw	r2,12(sp)
    4be8:	00033480 	call	3348 <__mulsi3>
    4bec:	b809883a 	mov	r4,r23
    4bf0:	b00b883a 	mov	r5,r22
    4bf4:	d8800215 	stw	r2,8(sp)
    4bf8:	00033480 	call	3348 <__mulsi3>
    4bfc:	b80b883a 	mov	r5,r23
    4c00:	8009883a 	mov	r4,r16
    4c04:	d8800415 	stw	r2,16(sp)
    4c08:	00033480 	call	3348 <__mulsi3>
    4c0c:	da800317 	ldw	r10,12(sp)
    4c10:	d9c00217 	ldw	r7,8(sp)
    4c14:	d9000017 	ldw	r4,0(sp)
    4c18:	502ed43a 	srli	r23,r10,16
    4c1c:	11c5883a 	add	r2,r2,r7
    4c20:	24e5883a 	add	r18,r4,r19
    4c24:	b885883a 	add	r2,r23,r2
    4c28:	d8c00517 	ldw	r3,20(sp)
    4c2c:	d9800717 	ldw	r6,28(sp)
    4c30:	da000617 	ldw	r8,24(sp)
    4c34:	da400417 	ldw	r9,16(sp)
    4c38:	11c0022e 	bgeu	r2,r7,4c44 <__muldf3+0x4f4>
    4c3c:	01000074 	movhi	r4,1
    4c40:	4913883a 	add	r9,r9,r4
    4c44:	100ed43a 	srli	r7,r2,16
    4c48:	1004943a 	slli	r2,r2,16
    4c4c:	55ffffcc 	andi	r23,r10,65535
    4c50:	3a53883a 	add	r9,r7,r9
    4c54:	8809883a 	mov	r4,r17
    4c58:	800b883a 	mov	r5,r16
    4c5c:	d8c00515 	stw	r3,20(sp)
    4c60:	d9800715 	stw	r6,28(sp)
    4c64:	da000615 	stw	r8,24(sp)
    4c68:	da400415 	stw	r9,16(sp)
    4c6c:	15ef883a 	add	r23,r2,r23
    4c70:	00033480 	call	3348 <__mulsi3>
    4c74:	8809883a 	mov	r4,r17
    4c78:	b00b883a 	mov	r5,r22
    4c7c:	d8800215 	stw	r2,8(sp)
    4c80:	00033480 	call	3348 <__mulsi3>
    4c84:	b00b883a 	mov	r5,r22
    4c88:	a809883a 	mov	r4,r21
    4c8c:	d8800315 	stw	r2,12(sp)
    4c90:	00033480 	call	3348 <__mulsi3>
    4c94:	8009883a 	mov	r4,r16
    4c98:	a80b883a 	mov	r5,r21
    4c9c:	1023883a 	mov	r17,r2
    4ca0:	00033480 	call	3348 <__mulsi3>
    4ca4:	d9c00217 	ldw	r7,8(sp)
    4ca8:	da800317 	ldw	r10,12(sp)
    4cac:	d8c00517 	ldw	r3,20(sp)
    4cb0:	3808d43a 	srli	r4,r7,16
    4cb4:	1285883a 	add	r2,r2,r10
    4cb8:	d9800717 	ldw	r6,28(sp)
    4cbc:	2085883a 	add	r2,r4,r2
    4cc0:	da000617 	ldw	r8,24(sp)
    4cc4:	da400417 	ldw	r9,16(sp)
    4cc8:	1280022e 	bgeu	r2,r10,4cd4 <__muldf3+0x584>
    4ccc:	01000074 	movhi	r4,1
    4cd0:	8923883a 	add	r17,r17,r4
    4cd4:	1008943a 	slli	r4,r2,16
    4cd8:	39ffffcc 	andi	r7,r7,65535
    4cdc:	e4b9883a 	add	fp,fp,r18
    4ce0:	21cf883a 	add	r7,r4,r7
    4ce4:	e4e7803a 	cmpltu	r19,fp,r19
    4ce8:	3d0f883a 	add	r7,r7,r20
    4cec:	bf39883a 	add	fp,r23,fp
    4cf0:	99c9883a 	add	r4,r19,r7
    4cf4:	e5ef803a 	cmpltu	r23,fp,r23
    4cf8:	490b883a 	add	r5,r9,r4
    4cfc:	1004d43a 	srli	r2,r2,16
    4d00:	b965883a 	add	r18,r23,r5
    4d04:	24c9803a 	cmpltu	r4,r4,r19
    4d08:	3d29803a 	cmpltu	r20,r7,r20
    4d0c:	a128b03a 	or	r20,r20,r4
    4d10:	95ef803a 	cmpltu	r23,r18,r23
    4d14:	2a53803a 	cmpltu	r9,r5,r9
    4d18:	a0a9883a 	add	r20,r20,r2
    4d1c:	4deeb03a 	or	r23,r9,r23
    4d20:	a5ef883a 	add	r23,r20,r23
    4d24:	bc63883a 	add	r17,r23,r17
    4d28:	e004927a 	slli	r2,fp,9
    4d2c:	d9000117 	ldw	r4,4(sp)
    4d30:	882e927a 	slli	r23,r17,9
    4d34:	9022d5fa 	srli	r17,r18,23
    4d38:	e038d5fa 	srli	fp,fp,23
    4d3c:	1104b03a 	or	r2,r2,r4
    4d40:	9024927a 	slli	r18,r18,9
    4d44:	1004c03a 	cmpne	r2,r2,zero
    4d48:	bc62b03a 	or	r17,r23,r17
    4d4c:	1738b03a 	or	fp,r2,fp
    4d50:	8880402c 	andhi	r2,r17,256
    4d54:	e4a4b03a 	or	r18,fp,r18
    4d58:	10000726 	beq	r2,zero,4d78 <__muldf3+0x628>
    4d5c:	9006d07a 	srli	r3,r18,1
    4d60:	880497fa 	slli	r2,r17,31
    4d64:	9480004c 	andi	r18,r18,1
    4d68:	8822d07a 	srli	r17,r17,1
    4d6c:	1ca4b03a 	or	r18,r3,r18
    4d70:	14a4b03a 	or	r18,r2,r18
    4d74:	4007883a 	mov	r3,r8
    4d78:	1880ffc4 	addi	r2,r3,1023
    4d7c:	0080460e 	bge	zero,r2,4e98 <__muldf3+0x748>
    4d80:	910001cc 	andi	r4,r18,7
    4d84:	20000726 	beq	r4,zero,4da4 <__muldf3+0x654>
    4d88:	910003cc 	andi	r4,r18,15
    4d8c:	01400104 	movi	r5,4
    4d90:	21400426 	beq	r4,r5,4da4 <__muldf3+0x654>
    4d94:	9149883a 	add	r4,r18,r5
    4d98:	24a5803a 	cmpltu	r18,r4,r18
    4d9c:	8ca3883a 	add	r17,r17,r18
    4da0:	2025883a 	mov	r18,r4
    4da4:	8900402c 	andhi	r4,r17,256
    4da8:	20000426 	beq	r4,zero,4dbc <__muldf3+0x66c>
    4dac:	18810004 	addi	r2,r3,1024
    4db0:	00ffc034 	movhi	r3,65280
    4db4:	18ffffc4 	addi	r3,r3,-1
    4db8:	88e2703a 	and	r17,r17,r3
    4dbc:	00c1ff84 	movi	r3,2046
    4dc0:	18bf1316 	blt	r3,r2,4a10 <__alt_mem_VGA_Subsystem_Char_Buf_Subsystem_Onchip_SRAM+0xf7004a10>
    4dc4:	882c977a 	slli	r22,r17,29
    4dc8:	9024d0fa 	srli	r18,r18,3
    4dcc:	8822927a 	slli	r17,r17,9
    4dd0:	1081ffcc 	andi	r2,r2,2047
    4dd4:	b4acb03a 	or	r22,r22,r18
    4dd8:	8820d33a 	srli	r16,r17,12
    4ddc:	3027883a 	mov	r19,r6
    4de0:	003eba06 	br	48cc <__alt_mem_VGA_Subsystem_Char_Buf_Subsystem_Onchip_SRAM+0xf70048cc>
    4de4:	8080022c 	andhi	r2,r16,8
    4de8:	10000926 	beq	r2,zero,4e10 <__muldf3+0x6c0>
    4dec:	8880022c 	andhi	r2,r17,8
    4df0:	1000071e 	bne	r2,zero,4e10 <__muldf3+0x6c0>
    4df4:	00800434 	movhi	r2,16
    4df8:	8c000234 	orhi	r16,r17,8
    4dfc:	10bfffc4 	addi	r2,r2,-1
    4e00:	e027883a 	mov	r19,fp
    4e04:	80a0703a 	and	r16,r16,r2
    4e08:	902d883a 	mov	r22,r18
    4e0c:	003f1706 	br	4a6c <__alt_mem_VGA_Subsystem_Char_Buf_Subsystem_Onchip_SRAM+0xf7004a6c>
    4e10:	00800434 	movhi	r2,16
    4e14:	84000234 	orhi	r16,r16,8
    4e18:	10bfffc4 	addi	r2,r2,-1
    4e1c:	80a0703a 	and	r16,r16,r2
    4e20:	003f1206 	br	4a6c <__alt_mem_VGA_Subsystem_Char_Buf_Subsystem_Onchip_SRAM+0xf7004a6c>
    4e24:	147ff604 	addi	r17,r2,-40
    4e28:	3462983a 	sll	r17,r6,r17
    4e2c:	0025883a 	mov	r18,zero
    4e30:	003ef306 	br	4a00 <__alt_mem_VGA_Subsystem_Char_Buf_Subsystem_Onchip_SRAM+0xf7004a00>
    4e34:	3009883a 	mov	r4,r6
    4e38:	d9400215 	stw	r5,8(sp)
    4e3c:	d9800715 	stw	r6,28(sp)
    4e40:	da400415 	stw	r9,16(sp)
    4e44:	da800315 	stw	r10,12(sp)
    4e48:	0005abc0 	call	5abc <__clzsi2>
    4e4c:	10800804 	addi	r2,r2,32
    4e50:	da800317 	ldw	r10,12(sp)
    4e54:	da400417 	ldw	r9,16(sp)
    4e58:	d9800717 	ldw	r6,28(sp)
    4e5c:	d9400217 	ldw	r5,8(sp)
    4e60:	003edd06 	br	49d8 <__alt_mem_VGA_Subsystem_Char_Buf_Subsystem_Onchip_SRAM+0xf70049d8>
    4e64:	143ff604 	addi	r16,r2,-40
    4e68:	ac20983a 	sll	r16,r21,r16
    4e6c:	002d883a 	mov	r22,zero
    4e70:	003ec106 	br	4978 <__alt_mem_VGA_Subsystem_Char_Buf_Subsystem_Onchip_SRAM+0xf7004978>
    4e74:	d9800715 	stw	r6,28(sp)
    4e78:	d9c00215 	stw	r7,8(sp)
    4e7c:	da400415 	stw	r9,16(sp)
    4e80:	0005abc0 	call	5abc <__clzsi2>
    4e84:	10800804 	addi	r2,r2,32
    4e88:	da400417 	ldw	r9,16(sp)
    4e8c:	d9c00217 	ldw	r7,8(sp)
    4e90:	d9800717 	ldw	r6,28(sp)
    4e94:	003eae06 	br	4950 <__alt_mem_VGA_Subsystem_Char_Buf_Subsystem_Onchip_SRAM+0xf7004950>
    4e98:	00c00044 	movi	r3,1
    4e9c:	1887c83a 	sub	r3,r3,r2
    4ea0:	01000e04 	movi	r4,56
    4ea4:	20fe8516 	blt	r4,r3,48bc <__alt_mem_VGA_Subsystem_Char_Buf_Subsystem_Onchip_SRAM+0xf70048bc>
    4ea8:	010007c4 	movi	r4,31
    4eac:	20c01b16 	blt	r4,r3,4f1c <__muldf3+0x7cc>
    4eb0:	00800804 	movi	r2,32
    4eb4:	10c5c83a 	sub	r2,r2,r3
    4eb8:	888a983a 	sll	r5,r17,r2
    4ebc:	90c8d83a 	srl	r4,r18,r3
    4ec0:	9084983a 	sll	r2,r18,r2
    4ec4:	88e2d83a 	srl	r17,r17,r3
    4ec8:	2906b03a 	or	r3,r5,r4
    4ecc:	1004c03a 	cmpne	r2,r2,zero
    4ed0:	1886b03a 	or	r3,r3,r2
    4ed4:	188001cc 	andi	r2,r3,7
    4ed8:	10000726 	beq	r2,zero,4ef8 <__muldf3+0x7a8>
    4edc:	188003cc 	andi	r2,r3,15
    4ee0:	01000104 	movi	r4,4
    4ee4:	11000426 	beq	r2,r4,4ef8 <__muldf3+0x7a8>
    4ee8:	1805883a 	mov	r2,r3
    4eec:	10c00104 	addi	r3,r2,4
    4ef0:	1885803a 	cmpltu	r2,r3,r2
    4ef4:	88a3883a 	add	r17,r17,r2
    4ef8:	8880202c 	andhi	r2,r17,128
    4efc:	10001c26 	beq	r2,zero,4f70 <__muldf3+0x820>
    4f00:	3027883a 	mov	r19,r6
    4f04:	00800044 	movi	r2,1
    4f08:	0021883a 	mov	r16,zero
    4f0c:	002d883a 	mov	r22,zero
    4f10:	003e6e06 	br	48cc <__alt_mem_VGA_Subsystem_Char_Buf_Subsystem_Onchip_SRAM+0xf70048cc>
    4f14:	4007883a 	mov	r3,r8
    4f18:	003f9706 	br	4d78 <__alt_mem_VGA_Subsystem_Char_Buf_Subsystem_Onchip_SRAM+0xf7004d78>
    4f1c:	017ff844 	movi	r5,-31
    4f20:	2885c83a 	sub	r2,r5,r2
    4f24:	888ad83a 	srl	r5,r17,r2
    4f28:	00800804 	movi	r2,32
    4f2c:	18801a26 	beq	r3,r2,4f98 <__muldf3+0x848>
    4f30:	01001004 	movi	r4,64
    4f34:	20c7c83a 	sub	r3,r4,r3
    4f38:	88e2983a 	sll	r17,r17,r3
    4f3c:	8ca4b03a 	or	r18,r17,r18
    4f40:	9004c03a 	cmpne	r2,r18,zero
    4f44:	2884b03a 	or	r2,r5,r2
    4f48:	144001cc 	andi	r17,r2,7
    4f4c:	88000d1e 	bne	r17,zero,4f84 <__muldf3+0x834>
    4f50:	0021883a 	mov	r16,zero
    4f54:	102cd0fa 	srli	r22,r2,3
    4f58:	3027883a 	mov	r19,r6
    4f5c:	0005883a 	mov	r2,zero
    4f60:	b46cb03a 	or	r22,r22,r17
    4f64:	003e5906 	br	48cc <__alt_mem_VGA_Subsystem_Char_Buf_Subsystem_Onchip_SRAM+0xf70048cc>
    4f68:	1007883a 	mov	r3,r2
    4f6c:	0023883a 	mov	r17,zero
    4f70:	8820927a 	slli	r16,r17,9
    4f74:	1805883a 	mov	r2,r3
    4f78:	8822977a 	slli	r17,r17,29
    4f7c:	8020d33a 	srli	r16,r16,12
    4f80:	003ff406 	br	4f54 <__alt_mem_VGA_Subsystem_Char_Buf_Subsystem_Onchip_SRAM+0xf7004f54>
    4f84:	10c003cc 	andi	r3,r2,15
    4f88:	01000104 	movi	r4,4
    4f8c:	193ff626 	beq	r3,r4,4f68 <__alt_mem_VGA_Subsystem_Char_Buf_Subsystem_Onchip_SRAM+0xf7004f68>
    4f90:	0023883a 	mov	r17,zero
    4f94:	003fd506 	br	4eec <__alt_mem_VGA_Subsystem_Char_Buf_Subsystem_Onchip_SRAM+0xf7004eec>
    4f98:	0023883a 	mov	r17,zero
    4f9c:	003fe706 	br	4f3c <__alt_mem_VGA_Subsystem_Char_Buf_Subsystem_Onchip_SRAM+0xf7004f3c>
    4fa0:	00800434 	movhi	r2,16
    4fa4:	8c000234 	orhi	r16,r17,8
    4fa8:	10bfffc4 	addi	r2,r2,-1
    4fac:	3027883a 	mov	r19,r6
    4fb0:	80a0703a 	and	r16,r16,r2
    4fb4:	902d883a 	mov	r22,r18
    4fb8:	003eac06 	br	4a6c <__alt_mem_VGA_Subsystem_Char_Buf_Subsystem_Onchip_SRAM+0xf7004a6c>

00004fbc <__subdf3>:
    4fbc:	02000434 	movhi	r8,16
    4fc0:	423fffc4 	addi	r8,r8,-1
    4fc4:	defffb04 	addi	sp,sp,-20
    4fc8:	2a14703a 	and	r10,r5,r8
    4fcc:	3812d53a 	srli	r9,r7,20
    4fd0:	3a10703a 	and	r8,r7,r8
    4fd4:	2006d77a 	srli	r3,r4,29
    4fd8:	3004d77a 	srli	r2,r6,29
    4fdc:	dc000015 	stw	r16,0(sp)
    4fe0:	501490fa 	slli	r10,r10,3
    4fe4:	2820d53a 	srli	r16,r5,20
    4fe8:	401090fa 	slli	r8,r8,3
    4fec:	dc800215 	stw	r18,8(sp)
    4ff0:	dc400115 	stw	r17,4(sp)
    4ff4:	dfc00415 	stw	ra,16(sp)
    4ff8:	202290fa 	slli	r17,r4,3
    4ffc:	dcc00315 	stw	r19,12(sp)
    5000:	4a41ffcc 	andi	r9,r9,2047
    5004:	0101ffc4 	movi	r4,2047
    5008:	2824d7fa 	srli	r18,r5,31
    500c:	8401ffcc 	andi	r16,r16,2047
    5010:	50c6b03a 	or	r3,r10,r3
    5014:	380ed7fa 	srli	r7,r7,31
    5018:	408ab03a 	or	r5,r8,r2
    501c:	300c90fa 	slli	r6,r6,3
    5020:	49009626 	beq	r9,r4,527c <__subdf3+0x2c0>
    5024:	39c0005c 	xori	r7,r7,1
    5028:	8245c83a 	sub	r2,r16,r9
    502c:	3c807426 	beq	r7,r18,5200 <__subdf3+0x244>
    5030:	0080af0e 	bge	zero,r2,52f0 <__subdf3+0x334>
    5034:	48002a1e 	bne	r9,zero,50e0 <__subdf3+0x124>
    5038:	2988b03a 	or	r4,r5,r6
    503c:	20009a1e 	bne	r4,zero,52a8 <__subdf3+0x2ec>
    5040:	888001cc 	andi	r2,r17,7
    5044:	10000726 	beq	r2,zero,5064 <__subdf3+0xa8>
    5048:	888003cc 	andi	r2,r17,15
    504c:	01000104 	movi	r4,4
    5050:	11000426 	beq	r2,r4,5064 <__subdf3+0xa8>
    5054:	890b883a 	add	r5,r17,r4
    5058:	2c63803a 	cmpltu	r17,r5,r17
    505c:	1c47883a 	add	r3,r3,r17
    5060:	2823883a 	mov	r17,r5
    5064:	1880202c 	andhi	r2,r3,128
    5068:	10005926 	beq	r2,zero,51d0 <__subdf3+0x214>
    506c:	84000044 	addi	r16,r16,1
    5070:	0081ffc4 	movi	r2,2047
    5074:	8080be26 	beq	r16,r2,5370 <__subdf3+0x3b4>
    5078:	017fe034 	movhi	r5,65408
    507c:	297fffc4 	addi	r5,r5,-1
    5080:	1946703a 	and	r3,r3,r5
    5084:	1804977a 	slli	r2,r3,29
    5088:	1806927a 	slli	r3,r3,9
    508c:	8822d0fa 	srli	r17,r17,3
    5090:	8401ffcc 	andi	r16,r16,2047
    5094:	180ad33a 	srli	r5,r3,12
    5098:	9100004c 	andi	r4,r18,1
    509c:	1444b03a 	or	r2,r2,r17
    50a0:	80c1ffcc 	andi	r3,r16,2047
    50a4:	1820953a 	slli	r16,r3,20
    50a8:	20c03fcc 	andi	r3,r4,255
    50ac:	180897fa 	slli	r4,r3,31
    50b0:	00c00434 	movhi	r3,16
    50b4:	18ffffc4 	addi	r3,r3,-1
    50b8:	28c6703a 	and	r3,r5,r3
    50bc:	1c06b03a 	or	r3,r3,r16
    50c0:	1906b03a 	or	r3,r3,r4
    50c4:	dfc00417 	ldw	ra,16(sp)
    50c8:	dcc00317 	ldw	r19,12(sp)
    50cc:	dc800217 	ldw	r18,8(sp)
    50d0:	dc400117 	ldw	r17,4(sp)
    50d4:	dc000017 	ldw	r16,0(sp)
    50d8:	dec00504 	addi	sp,sp,20
    50dc:	f800283a 	ret
    50e0:	0101ffc4 	movi	r4,2047
    50e4:	813fd626 	beq	r16,r4,5040 <__alt_mem_VGA_Subsystem_Char_Buf_Subsystem_Onchip_SRAM+0xf7005040>
    50e8:	29402034 	orhi	r5,r5,128
    50ec:	01000e04 	movi	r4,56
    50f0:	2080a316 	blt	r4,r2,5380 <__subdf3+0x3c4>
    50f4:	010007c4 	movi	r4,31
    50f8:	2080c616 	blt	r4,r2,5414 <__subdf3+0x458>
    50fc:	01000804 	movi	r4,32
    5100:	2089c83a 	sub	r4,r4,r2
    5104:	2910983a 	sll	r8,r5,r4
    5108:	308ed83a 	srl	r7,r6,r2
    510c:	3108983a 	sll	r4,r6,r4
    5110:	2884d83a 	srl	r2,r5,r2
    5114:	41ccb03a 	or	r6,r8,r7
    5118:	2008c03a 	cmpne	r4,r4,zero
    511c:	310cb03a 	or	r6,r6,r4
    5120:	898dc83a 	sub	r6,r17,r6
    5124:	89a3803a 	cmpltu	r17,r17,r6
    5128:	1887c83a 	sub	r3,r3,r2
    512c:	1c47c83a 	sub	r3,r3,r17
    5130:	3023883a 	mov	r17,r6
    5134:	1880202c 	andhi	r2,r3,128
    5138:	10002326 	beq	r2,zero,51c8 <__subdf3+0x20c>
    513c:	04c02034 	movhi	r19,128
    5140:	9cffffc4 	addi	r19,r19,-1
    5144:	1ce6703a 	and	r19,r3,r19
    5148:	98007a26 	beq	r19,zero,5334 <__subdf3+0x378>
    514c:	9809883a 	mov	r4,r19
    5150:	0005abc0 	call	5abc <__clzsi2>
    5154:	113ffe04 	addi	r4,r2,-8
    5158:	00c007c4 	movi	r3,31
    515c:	19007b16 	blt	r3,r4,534c <__subdf3+0x390>
    5160:	00800804 	movi	r2,32
    5164:	1105c83a 	sub	r2,r2,r4
    5168:	8884d83a 	srl	r2,r17,r2
    516c:	9906983a 	sll	r3,r19,r4
    5170:	8922983a 	sll	r17,r17,r4
    5174:	10c4b03a 	or	r2,r2,r3
    5178:	24007816 	blt	r4,r16,535c <__subdf3+0x3a0>
    517c:	2421c83a 	sub	r16,r4,r16
    5180:	80c00044 	addi	r3,r16,1
    5184:	010007c4 	movi	r4,31
    5188:	20c09516 	blt	r4,r3,53e0 <__subdf3+0x424>
    518c:	01400804 	movi	r5,32
    5190:	28cbc83a 	sub	r5,r5,r3
    5194:	88c8d83a 	srl	r4,r17,r3
    5198:	8962983a 	sll	r17,r17,r5
    519c:	114a983a 	sll	r5,r2,r5
    51a0:	10c6d83a 	srl	r3,r2,r3
    51a4:	8804c03a 	cmpne	r2,r17,zero
    51a8:	290ab03a 	or	r5,r5,r4
    51ac:	28a2b03a 	or	r17,r5,r2
    51b0:	0021883a 	mov	r16,zero
    51b4:	003fa206 	br	5040 <__alt_mem_VGA_Subsystem_Char_Buf_Subsystem_Onchip_SRAM+0xf7005040>
    51b8:	2090b03a 	or	r8,r4,r2
    51bc:	40018e26 	beq	r8,zero,57f8 <__subdf3+0x83c>
    51c0:	1007883a 	mov	r3,r2
    51c4:	2023883a 	mov	r17,r4
    51c8:	888001cc 	andi	r2,r17,7
    51cc:	103f9e1e 	bne	r2,zero,5048 <__alt_mem_VGA_Subsystem_Char_Buf_Subsystem_Onchip_SRAM+0xf7005048>
    51d0:	1804977a 	slli	r2,r3,29
    51d4:	8822d0fa 	srli	r17,r17,3
    51d8:	1810d0fa 	srli	r8,r3,3
    51dc:	9100004c 	andi	r4,r18,1
    51e0:	1444b03a 	or	r2,r2,r17
    51e4:	00c1ffc4 	movi	r3,2047
    51e8:	80c02826 	beq	r16,r3,528c <__subdf3+0x2d0>
    51ec:	01400434 	movhi	r5,16
    51f0:	297fffc4 	addi	r5,r5,-1
    51f4:	80e0703a 	and	r16,r16,r3
    51f8:	414a703a 	and	r5,r8,r5
    51fc:	003fa806 	br	50a0 <__alt_mem_VGA_Subsystem_Char_Buf_Subsystem_Onchip_SRAM+0xf70050a0>
    5200:	0080630e 	bge	zero,r2,5390 <__subdf3+0x3d4>
    5204:	48003026 	beq	r9,zero,52c8 <__subdf3+0x30c>
    5208:	0101ffc4 	movi	r4,2047
    520c:	813f8c26 	beq	r16,r4,5040 <__alt_mem_VGA_Subsystem_Char_Buf_Subsystem_Onchip_SRAM+0xf7005040>
    5210:	29402034 	orhi	r5,r5,128
    5214:	01000e04 	movi	r4,56
    5218:	2080a90e 	bge	r4,r2,54c0 <__subdf3+0x504>
    521c:	298cb03a 	or	r6,r5,r6
    5220:	3012c03a 	cmpne	r9,r6,zero
    5224:	0005883a 	mov	r2,zero
    5228:	4c53883a 	add	r9,r9,r17
    522c:	4c63803a 	cmpltu	r17,r9,r17
    5230:	10c7883a 	add	r3,r2,r3
    5234:	88c7883a 	add	r3,r17,r3
    5238:	4823883a 	mov	r17,r9
    523c:	1880202c 	andhi	r2,r3,128
    5240:	1000d026 	beq	r2,zero,5584 <__subdf3+0x5c8>
    5244:	84000044 	addi	r16,r16,1
    5248:	0081ffc4 	movi	r2,2047
    524c:	8080fe26 	beq	r16,r2,5648 <__subdf3+0x68c>
    5250:	00bfe034 	movhi	r2,65408
    5254:	10bfffc4 	addi	r2,r2,-1
    5258:	1886703a 	and	r3,r3,r2
    525c:	880ad07a 	srli	r5,r17,1
    5260:	180497fa 	slli	r2,r3,31
    5264:	8900004c 	andi	r4,r17,1
    5268:	2922b03a 	or	r17,r5,r4
    526c:	1806d07a 	srli	r3,r3,1
    5270:	1462b03a 	or	r17,r2,r17
    5274:	3825883a 	mov	r18,r7
    5278:	003f7106 	br	5040 <__alt_mem_VGA_Subsystem_Char_Buf_Subsystem_Onchip_SRAM+0xf7005040>
    527c:	2984b03a 	or	r2,r5,r6
    5280:	103f6826 	beq	r2,zero,5024 <__alt_mem_VGA_Subsystem_Char_Buf_Subsystem_Onchip_SRAM+0xf7005024>
    5284:	39c03fcc 	andi	r7,r7,255
    5288:	003f6706 	br	5028 <__alt_mem_VGA_Subsystem_Char_Buf_Subsystem_Onchip_SRAM+0xf7005028>
    528c:	4086b03a 	or	r3,r8,r2
    5290:	18015226 	beq	r3,zero,57dc <__subdf3+0x820>
    5294:	00c00434 	movhi	r3,16
    5298:	41400234 	orhi	r5,r8,8
    529c:	18ffffc4 	addi	r3,r3,-1
    52a0:	28ca703a 	and	r5,r5,r3
    52a4:	003f7e06 	br	50a0 <__alt_mem_VGA_Subsystem_Char_Buf_Subsystem_Onchip_SRAM+0xf70050a0>
    52a8:	10bfffc4 	addi	r2,r2,-1
    52ac:	1000491e 	bne	r2,zero,53d4 <__subdf3+0x418>
    52b0:	898fc83a 	sub	r7,r17,r6
    52b4:	89e3803a 	cmpltu	r17,r17,r7
    52b8:	1947c83a 	sub	r3,r3,r5
    52bc:	1c47c83a 	sub	r3,r3,r17
    52c0:	3823883a 	mov	r17,r7
    52c4:	003f9b06 	br	5134 <__alt_mem_VGA_Subsystem_Char_Buf_Subsystem_Onchip_SRAM+0xf7005134>
    52c8:	2988b03a 	or	r4,r5,r6
    52cc:	203f5c26 	beq	r4,zero,5040 <__alt_mem_VGA_Subsystem_Char_Buf_Subsystem_Onchip_SRAM+0xf7005040>
    52d0:	10bfffc4 	addi	r2,r2,-1
    52d4:	1000931e 	bne	r2,zero,5524 <__subdf3+0x568>
    52d8:	898d883a 	add	r6,r17,r6
    52dc:	3463803a 	cmpltu	r17,r6,r17
    52e0:	1947883a 	add	r3,r3,r5
    52e4:	88c7883a 	add	r3,r17,r3
    52e8:	3023883a 	mov	r17,r6
    52ec:	003fd306 	br	523c <__alt_mem_VGA_Subsystem_Char_Buf_Subsystem_Onchip_SRAM+0xf700523c>
    52f0:	1000541e 	bne	r2,zero,5444 <__subdf3+0x488>
    52f4:	80800044 	addi	r2,r16,1
    52f8:	1081ffcc 	andi	r2,r2,2047
    52fc:	01000044 	movi	r4,1
    5300:	2080a20e 	bge	r4,r2,558c <__subdf3+0x5d0>
    5304:	8989c83a 	sub	r4,r17,r6
    5308:	8905803a 	cmpltu	r2,r17,r4
    530c:	1967c83a 	sub	r19,r3,r5
    5310:	98a7c83a 	sub	r19,r19,r2
    5314:	9880202c 	andhi	r2,r19,128
    5318:	10006326 	beq	r2,zero,54a8 <__subdf3+0x4ec>
    531c:	3463c83a 	sub	r17,r6,r17
    5320:	28c7c83a 	sub	r3,r5,r3
    5324:	344d803a 	cmpltu	r6,r6,r17
    5328:	19a7c83a 	sub	r19,r3,r6
    532c:	3825883a 	mov	r18,r7
    5330:	983f861e 	bne	r19,zero,514c <__alt_mem_VGA_Subsystem_Char_Buf_Subsystem_Onchip_SRAM+0xf700514c>
    5334:	8809883a 	mov	r4,r17
    5338:	0005abc0 	call	5abc <__clzsi2>
    533c:	10800804 	addi	r2,r2,32
    5340:	113ffe04 	addi	r4,r2,-8
    5344:	00c007c4 	movi	r3,31
    5348:	193f850e 	bge	r3,r4,5160 <__alt_mem_VGA_Subsystem_Char_Buf_Subsystem_Onchip_SRAM+0xf7005160>
    534c:	10bff604 	addi	r2,r2,-40
    5350:	8884983a 	sll	r2,r17,r2
    5354:	0023883a 	mov	r17,zero
    5358:	243f880e 	bge	r4,r16,517c <__alt_mem_VGA_Subsystem_Char_Buf_Subsystem_Onchip_SRAM+0xf700517c>
    535c:	00ffe034 	movhi	r3,65408
    5360:	18ffffc4 	addi	r3,r3,-1
    5364:	8121c83a 	sub	r16,r16,r4
    5368:	10c6703a 	and	r3,r2,r3
    536c:	003f3406 	br	5040 <__alt_mem_VGA_Subsystem_Char_Buf_Subsystem_Onchip_SRAM+0xf7005040>
    5370:	9100004c 	andi	r4,r18,1
    5374:	000b883a 	mov	r5,zero
    5378:	0005883a 	mov	r2,zero
    537c:	003f4806 	br	50a0 <__alt_mem_VGA_Subsystem_Char_Buf_Subsystem_Onchip_SRAM+0xf70050a0>
    5380:	298cb03a 	or	r6,r5,r6
    5384:	300cc03a 	cmpne	r6,r6,zero
    5388:	0005883a 	mov	r2,zero
    538c:	003f6406 	br	5120 <__alt_mem_VGA_Subsystem_Char_Buf_Subsystem_Onchip_SRAM+0xf7005120>
    5390:	10009a1e 	bne	r2,zero,55fc <__subdf3+0x640>
    5394:	82400044 	addi	r9,r16,1
    5398:	4881ffcc 	andi	r2,r9,2047
    539c:	02800044 	movi	r10,1
    53a0:	5080670e 	bge	r10,r2,5540 <__subdf3+0x584>
    53a4:	0081ffc4 	movi	r2,2047
    53a8:	4880af26 	beq	r9,r2,5668 <__subdf3+0x6ac>
    53ac:	898d883a 	add	r6,r17,r6
    53b0:	1945883a 	add	r2,r3,r5
    53b4:	3447803a 	cmpltu	r3,r6,r17
    53b8:	1887883a 	add	r3,r3,r2
    53bc:	182297fa 	slli	r17,r3,31
    53c0:	300cd07a 	srli	r6,r6,1
    53c4:	1806d07a 	srli	r3,r3,1
    53c8:	4821883a 	mov	r16,r9
    53cc:	89a2b03a 	or	r17,r17,r6
    53d0:	003f1b06 	br	5040 <__alt_mem_VGA_Subsystem_Char_Buf_Subsystem_Onchip_SRAM+0xf7005040>
    53d4:	0101ffc4 	movi	r4,2047
    53d8:	813f441e 	bne	r16,r4,50ec <__alt_mem_VGA_Subsystem_Char_Buf_Subsystem_Onchip_SRAM+0xf70050ec>
    53dc:	003f1806 	br	5040 <__alt_mem_VGA_Subsystem_Char_Buf_Subsystem_Onchip_SRAM+0xf7005040>
    53e0:	843ff844 	addi	r16,r16,-31
    53e4:	01400804 	movi	r5,32
    53e8:	1408d83a 	srl	r4,r2,r16
    53ec:	19405026 	beq	r3,r5,5530 <__subdf3+0x574>
    53f0:	01401004 	movi	r5,64
    53f4:	28c7c83a 	sub	r3,r5,r3
    53f8:	10c4983a 	sll	r2,r2,r3
    53fc:	88a2b03a 	or	r17,r17,r2
    5400:	8822c03a 	cmpne	r17,r17,zero
    5404:	2462b03a 	or	r17,r4,r17
    5408:	0007883a 	mov	r3,zero
    540c:	0021883a 	mov	r16,zero
    5410:	003f6d06 	br	51c8 <__alt_mem_VGA_Subsystem_Char_Buf_Subsystem_Onchip_SRAM+0xf70051c8>
    5414:	11fff804 	addi	r7,r2,-32
    5418:	01000804 	movi	r4,32
    541c:	29ced83a 	srl	r7,r5,r7
    5420:	11004526 	beq	r2,r4,5538 <__subdf3+0x57c>
    5424:	01001004 	movi	r4,64
    5428:	2089c83a 	sub	r4,r4,r2
    542c:	2904983a 	sll	r2,r5,r4
    5430:	118cb03a 	or	r6,r2,r6
    5434:	300cc03a 	cmpne	r6,r6,zero
    5438:	398cb03a 	or	r6,r7,r6
    543c:	0005883a 	mov	r2,zero
    5440:	003f3706 	br	5120 <__alt_mem_VGA_Subsystem_Char_Buf_Subsystem_Onchip_SRAM+0xf7005120>
    5444:	80002a26 	beq	r16,zero,54f0 <__subdf3+0x534>
    5448:	0101ffc4 	movi	r4,2047
    544c:	49006626 	beq	r9,r4,55e8 <__subdf3+0x62c>
    5450:	0085c83a 	sub	r2,zero,r2
    5454:	18c02034 	orhi	r3,r3,128
    5458:	01000e04 	movi	r4,56
    545c:	20807e16 	blt	r4,r2,5658 <__subdf3+0x69c>
    5460:	010007c4 	movi	r4,31
    5464:	2080e716 	blt	r4,r2,5804 <__subdf3+0x848>
    5468:	01000804 	movi	r4,32
    546c:	2089c83a 	sub	r4,r4,r2
    5470:	1914983a 	sll	r10,r3,r4
    5474:	8890d83a 	srl	r8,r17,r2
    5478:	8908983a 	sll	r4,r17,r4
    547c:	1884d83a 	srl	r2,r3,r2
    5480:	5222b03a 	or	r17,r10,r8
    5484:	2006c03a 	cmpne	r3,r4,zero
    5488:	88e2b03a 	or	r17,r17,r3
    548c:	3463c83a 	sub	r17,r6,r17
    5490:	2885c83a 	sub	r2,r5,r2
    5494:	344d803a 	cmpltu	r6,r6,r17
    5498:	1187c83a 	sub	r3,r2,r6
    549c:	4821883a 	mov	r16,r9
    54a0:	3825883a 	mov	r18,r7
    54a4:	003f2306 	br	5134 <__alt_mem_VGA_Subsystem_Char_Buf_Subsystem_Onchip_SRAM+0xf7005134>
    54a8:	24d0b03a 	or	r8,r4,r19
    54ac:	40001b1e 	bne	r8,zero,551c <__subdf3+0x560>
    54b0:	0005883a 	mov	r2,zero
    54b4:	0009883a 	mov	r4,zero
    54b8:	0021883a 	mov	r16,zero
    54bc:	003f4906 	br	51e4 <__alt_mem_VGA_Subsystem_Char_Buf_Subsystem_Onchip_SRAM+0xf70051e4>
    54c0:	010007c4 	movi	r4,31
    54c4:	20803a16 	blt	r4,r2,55b0 <__subdf3+0x5f4>
    54c8:	01000804 	movi	r4,32
    54cc:	2089c83a 	sub	r4,r4,r2
    54d0:	2912983a 	sll	r9,r5,r4
    54d4:	3090d83a 	srl	r8,r6,r2
    54d8:	3108983a 	sll	r4,r6,r4
    54dc:	2884d83a 	srl	r2,r5,r2
    54e0:	4a12b03a 	or	r9,r9,r8
    54e4:	2008c03a 	cmpne	r4,r4,zero
    54e8:	4912b03a 	or	r9,r9,r4
    54ec:	003f4e06 	br	5228 <__alt_mem_VGA_Subsystem_Char_Buf_Subsystem_Onchip_SRAM+0xf7005228>
    54f0:	1c48b03a 	or	r4,r3,r17
    54f4:	20003c26 	beq	r4,zero,55e8 <__subdf3+0x62c>
    54f8:	0084303a 	nor	r2,zero,r2
    54fc:	1000381e 	bne	r2,zero,55e0 <__subdf3+0x624>
    5500:	3463c83a 	sub	r17,r6,r17
