
radar_final.elf:     file format elf32-littlenios2
radar_final.elf
architecture: nios2:r1, flags 0x00000112:
EXEC_P, HAS_SYMS, D_PAGED
start address 0x00000230

Program Header:
    LOAD off    0x00001000 vaddr 0x00000000 paddr 0x00000000 align 2**12
         filesz 0x00000020 memsz 0x00000020 flags r-x
    LOAD off    0x00001020 vaddr 0x00000020 paddr 0x00000020 align 2**12
         filesz 0x00009ab0 memsz 0x00009ab0 flags r-x
    LOAD off    0x0000aad0 vaddr 0x00009ad0 paddr 0x0000b234 align 2**12
         filesz 0x00001764 memsz 0x00001764 flags rw-
    LOAD off    0x0000c998 vaddr 0x0000c998 paddr 0x0000c998 align 2**12
         filesz 0x00000000 memsz 0x0000017c flags rw-

Sections:
Idx Name          Size      VMA       LMA       File off  Algn
  0 .entry        00000020  00000000  00000000  00001000  2**5
                  CONTENTS, ALLOC, LOAD, READONLY, CODE
  1 .exceptions   00000210  00000020  00000020  00001020  2**2
                  CONTENTS, ALLOC, LOAD, READONLY, CODE
  2 .text         0000942c  00000230  00000230  00001230  2**2
                  CONTENTS, ALLOC, LOAD, READONLY, CODE
  3 .rodata       00000474  0000965c  0000965c  0000a65c  2**2
                  CONTENTS, ALLOC, LOAD, READONLY, DATA
  4 .rwdata       00001764  00009ad0  0000b234  0000aad0  2**2
                  CONTENTS, ALLOC, LOAD, DATA, SMALL_DATA
  5 .bss          0000017c  0000c998  0000c998  0000c998  2**2
                  ALLOC, SMALL_DATA
  6 .SDRAM        00000000  0000cb14  0000cb14  0000c234  2**0
                  CONTENTS
  7 .Onchip_SRAM  00000000  08000000  08000000  0000c234  2**0
                  CONTENTS
  8 .VGA_Subsystem_Char_Buf_Subsystem_Onchip_SRAM 00000000  09000000  09000000  0000c234  2**0
                  CONTENTS
  9 .comment      00000023  00000000  00000000  0000c234  2**0
                  CONTENTS, READONLY
 10 .debug_aranges 000008d0  00000000  00000000  0000c258  2**3
                  CONTENTS, READONLY, DEBUGGING
 11 .debug_info   0000bc64  00000000  00000000  0000cb28  2**0
                  CONTENTS, READONLY, DEBUGGING
 12 .debug_abbrev 000042e4  00000000  00000000  0001878c  2**0
                  CONTENTS, READONLY, DEBUGGING
 13 .debug_line   00005616  00000000  00000000  0001ca70  2**0
                  CONTENTS, READONLY, DEBUGGING
 14 .debug_frame  00001634  00000000  00000000  00022088  2**2
                  CONTENTS, READONLY, DEBUGGING
 15 .debug_str    00002c33  00000000  00000000  000236bc  2**0
                  CONTENTS, READONLY, DEBUGGING
 16 .debug_loc    00008c2c  00000000  00000000  000262ef  2**0
                  CONTENTS, READONLY, DEBUGGING
 17 .debug_alt_sim_info 00000040  00000000  00000000  0002ef1c  2**2
                  CONTENTS, READONLY, DEBUGGING
 18 .debug_ranges 00000bd0  00000000  00000000  0002ef60  2**3
                  CONTENTS, READONLY, DEBUGGING
 19 .thread_model 00000003  00000000  00000000  000322b6  2**0
                  CONTENTS, READONLY
 20 .cpu          00000005  00000000  00000000  000322b9  2**0
                  CONTENTS, READONLY
 21 .qsys         00000001  00000000  00000000  000322be  2**0
                  CONTENTS, READONLY
 22 .simulation_enabled 00000001  00000000  00000000  000322bf  2**0
                  CONTENTS, READONLY
 23 .sysid_hash   00000004  00000000  00000000  000322c0  2**0
                  CONTENTS, READONLY
 24 .sysid_base   00000004  00000000  00000000  000322c4  2**0
                  CONTENTS, READONLY
 25 .sysid_time   00000004  00000000  00000000  000322c8  2**0
                  CONTENTS, READONLY
 26 .stderr_dev   00000009  00000000  00000000  000322cc  2**0
                  CONTENTS, READONLY
 27 .stdin_dev    00000009  00000000  00000000  000322d5  2**0
                  CONTENTS, READONLY
 28 .stdout_dev   00000009  00000000  00000000  000322de  2**0
                  CONTENTS, READONLY
 29 .sopc_system_name 0000000f  00000000  00000000  000322e7  2**0
                  CONTENTS, READONLY
 30 .quartus_project_dir 00000055  00000000  00000000  000322f6  2**0
                  CONTENTS, READONLY
 31 .jdi          000080a5  00000000  00000000  0003234b  2**0
                  CONTENTS, READONLY
 32 .sopcinfo     0010915a  00000000  00000000  0003a3f0  2**0
                  CONTENTS, READONLY
SYMBOL TABLE:
00000000 l    d  .entry	00000000 .entry
00000020 l    d  .exceptions	00000000 .exceptions
00000230 l    d  .text	00000000 .text
0000965c l    d  .rodata	00000000 .rodata
00009ad0 l    d  .rwdata	00000000 .rwdata
0000c998 l    d  .bss	00000000 .bss
0000cb14 l    d  .SDRAM	00000000 .SDRAM
08000000 l    d  .Onchip_SRAM	00000000 .Onchip_SRAM
09000000 l    d  .VGA_Subsystem_Char_Buf_Subsystem_Onchip_SRAM	00000000 .VGA_Subsystem_Char_Buf_Subsystem_Onchip_SRAM
00000000 l    d  .comment	00000000 .comment
00000000 l    d  .debug_aranges	00000000 .debug_aranges
00000000 l    d  .debug_info	00000000 .debug_info
00000000 l    d  .debug_abbrev	00000000 .debug_abbrev
00000000 l    d  .debug_line	00000000 .debug_line
00000000 l    d  .debug_frame	00000000 .debug_frame
00000000 l    d  .debug_str	00000000 .debug_str
00000000 l    d  .debug_loc	00000000 .debug_loc
00000000 l    d  .debug_alt_sim_info	00000000 .debug_alt_sim_info
00000000 l    d  .debug_ranges	00000000 .debug_ranges
00000000 l    df *ABS*	00000000 ../radar_final_bsp//obj/HAL/src/crt0.o
00000268 l       .text	00000000 alt_after_alt_main
00000000 l    df *ABS*	00000000 alt_irq_handler.c
00000000 l    df *ABS*	00000000 alt_instruction_exception_entry.c
00000000 l    df *ABS*	00000000 radar_final.c
0000965c l     O .rodata	0000000a SEG7_LUT
0000c998 l     O .bss	00000004 res_offset
0000c99c l     O .bss	00000004 col_offset
0000c9a0 l     O .bss	00000004 cx
0000c9a4 l     O .bss	00000004 cy
0000c9a8 l     O .bss	00000004 radar_r
0000c9ac l     O .bss	00000004 angle_min
0000b1f8 l     O .rwdata	00000004 angle_max
0000b1fc l     O .rwdata	00000004 step_deg
0000b200 l     O .rwdata	00000004 dist_max_cm
0000c9b0 l     O .bss	00000004 state
0000b204 l     O .rwdata	00000004 stop_level_sw0
0000026c l     F .text	0000004c seg7
000002b8 l     F .text	000000b8 split3
00000370 l     F .text	00000054 clamp_u32
000003c4 l     F .text	00000054 pos_from_angle
00000418 l     F .text	0000007c cm_to_px
00000494 l     F .text	00000028 uart_status
000004bc l     F .text	00000054 uart_putchar
00000510 l     F .text	0000006c uart_puts
0000057c l     F .text	00000058 uart_getchar_blocking
000005d4 l     F .text	000000d8 uart_put_u32
000006ac l     F .text	00000060 is_space
0000070c l     F .text	0000004c up
00000758 l     F .text	0000003c sw0_level
00000794 l     F .text	00000034 msg_init
000007c8 l     F .text	00000034 reply_ok
000007fc l     F .text	00000034 reply_run
00000830 l     F .text	00000034 reply_stop
00000864 l     F .text	00000034 reply_err
00000898 l     F .text	00000034 reply_unknown
000008cc l     F .text	00000094 clear_char_buffer
00000960 l     F .text	00000140 video_box
00000aa0 l     F .text	000000fc plot
00000b9c l     F .text	00000178 draw_line
00000d14 l     F .text	000001b0 draw_arc_cm
00000ec4 l     F .text	00000120 draw_static
00000fe4 l     F .text	00000088 print_help
0000106c l     F .text	00000090 print_params
000010fc l     F .text	00000084 skip_spaces
00001180 l     F .text	000000e0 parse_u32_adv
00001260 l     F .text	00000174 is_run_cmd
000013d4 l     F .text	00000190 is_help_cmd
00001564 l     F .text	000000f4 is_p_cmd
00001658 l     F .text	000002b0 handle_cmd_line
00001908 l     F .text	000000dc cmd_wait_and_process
0000c9d4 l     O .bss	00000040 ln.3545
000019e4 l     F .text	00000090 init_hex_displays_zero
00001a74 l     F .text	000004d0 run_step
00000000 l    df *ABS*	00000000 s_cos.c
00000000 l    df *ABS*	00000000 s_sin.c
00000000 l    df *ABS*	00000000 e_rem_pio2.c
000097c4 l     O .rodata	00000108 two_over_pi
00009744 l     O .rodata	00000080 npio2_hw
00000000 l    df *ABS*	00000000 k_cos.c
00000000 l    df *ABS*	00000000 k_rem_pio2.c
0000990c l     O .rodata	00000010 init_jk
000098cc l     O .rodata	00000040 PIo2
00000000 l    df *ABS*	00000000 k_sin.c
00000000 l    df *ABS*	00000000 s_fabs.c
00000000 l    df *ABS*	00000000 s_floor.c
00000000 l    df *ABS*	00000000 s_scalbn.c
00000000 l    df *ABS*	00000000 s_copysign.c
00000000 l    df *ABS*	00000000 lib2-divmod.c
00000000 l    df *ABS*	00000000 lib2-mul.c
00000000 l    df *ABS*	00000000 adddf3.c
00000000 l    df *ABS*	00000000 divdf3.c
00000000 l    df *ABS*	00000000 eqdf2.c
00000000 l    df *ABS*	00000000 gedf2.c
00000000 l    df *ABS*	00000000 muldf3.c
00000000 l    df *ABS*	00000000 subdf3.c
00000000 l    df *ABS*	00000000 fixdfsi.c
00000000 l    df *ABS*	00000000 floatsidf.c
00000000 l    df *ABS*	00000000 floatunsidf.c
00000000 l    df *ABS*	00000000 libgcc2.c
00000000 l    df *ABS*	00000000 libgcc2.c
00000000 l    df *ABS*	00000000 alt_load.c
00006bb8 l     F .text	00000068 alt_load_section
00000000 l    df *ABS*	00000000 alt_main.c
00000000 l    df *ABS*	00000000 alt_usleep.c
00000000 l    df *ABS*	00000000 alt_sys_init.c
00006d50 l     F .text	00000034 alt_dev_reg
00009ad0 l     O .rwdata	00001060 JTAG_UART
0000ab30 l     O .rwdata	0000005c VGA_Subsystem_Char_Buf_Subsystem_Char_Buf_DMA
0000ab8c l     O .rwdata	0000005c VGA_Subsystem_VGA_Pixel_DMA
0000abe8 l     O .rwdata	00000044 VGA_Subsystem_VGA_Pixel_RGB_Resampler
00000000 l    df *ABS*	00000000 altera_avalon_jtag_uart_fd.c
00000000 l    df *ABS*	00000000 altera_avalon_jtag_uart_init.c
00007644 l     F .text	0000020c altera_avalon_jtag_uart_irq
00007850 l     F .text	000000a0 altera_avalon_jtag_uart_timeout
00000000 l    df *ABS*	00000000 altera_avalon_jtag_uart_ioctl.c
00000000 l    df *ABS*	00000000 altera_avalon_jtag_uart_read.c
00000000 l    df *ABS*	00000000 altera_avalon_jtag_uart_write.c
00000000 l    df *ABS*	00000000 altera_avalon_timer_sc.c
00007e88 l     F .text	00000078 alt_avalon_timer_sc_irq
00000000 l    df *ABS*	00000000 alt_alarm_start.c
00000000 l    df *ABS*	00000000 alt_busy_sleep.c
00000000 l    df *ABS*	00000000 alt_close.c
00008200 l     F .text	0000003c alt_get_errno
00000000 l    df *ABS*	00000000 alt_dcache_flush_all.c
00000000 l    df *ABS*	00000000 alt_dev.c
00008334 l     F .text	0000002c alt_dev_null_write
00000000 l    df *ABS*	00000000 alt_dev_llist_insert.c
00008360 l     F .text	0000003c alt_get_errno
00000000 l    df *ABS*	00000000 alt_do_ctors.c
00000000 l    df *ABS*	00000000 alt_do_dtors.c
00000000 l    df *ABS*	00000000 alt_errno.c
00000000 l    df *ABS*	00000000 alt_icache_flush_all.c
00000000 l    df *ABS*	00000000 alt_iic.c
00000000 l    df *ABS*	00000000 alt_iic_isr_register.c
00000000 l    df *ABS*	00000000 alt_io_redirect.c
000087c0 l     F .text	000000e4 alt_open_fd
00000000 l    df *ABS*	00000000 alt_irq_vars.c
00000000 l    df *ABS*	00000000 alt_open.c
00008920 l     F .text	0000003c alt_get_errno
0000895c l     F .text	000000ec alt_file_locked
00000000 l    df *ABS*	00000000 alt_release_fd.c
00000000 l    df *ABS*	00000000 alt_tick.c
00000000 l    df *ABS*	00000000 altera_nios2_gen2_irq.c
00000000 l    df *ABS*	00000000 alt_find_dev.c
00000000 l    df *ABS*	00000000 alt_find_file.c
00000000 l    df *ABS*	00000000 alt_get_fd.c
00000000 l    df *ABS*	00000000 atexit.c
00000000 l    df *ABS*	00000000 exit.c
00000000 l    df *ABS*	00000000 impure.c
0000add4 l     O .rwdata	00000424 impure_data
00000000 l    df *ABS*	00000000 int_errno.c
00000000 l    df *ABS*	00000000 memcmp.c
00000000 l    df *ABS*	00000000 memcpy.c
00000000 l    df *ABS*	00000000 strlen.c
00000000 l    df *ABS*	00000000 __atexit.c
00000000 l    df *ABS*	00000000 __call_atexit.c
00000000 l    df *ABS*	00000000 alt_exit.c
0000c9cc g     O .bss	00000004 alt_instruction_exception_handler
00006ca4 g     F .text	0000007c alt_main
0000ca14 g     O .bss	00000100 alt_irq
00003e74 g     F .text	00000014 fabs
0000b234 g       *ABS*	00000000 __flash_rwdata_start
00005684 g     F .text	00000088 .hidden __eqdf2
0000570c g     F .text	000000dc .hidden __gtdf2
00008dcc g     F .text	00000024 altera_nios2_gen2_irq_init
00000000 g     F .entry	0000000c __reset
00000020 g       *ABS*	00000000 __flash_exceptions_start
0000c9d0 g     O .bss	00000004 errno
00003e88 g     F .text	000001ec floor
0000c9b8 g     O .bss	00000004 alt_argv
000131f8 g       *ABS*	00000000 _gp
00006d20 g     F .text	00000030 usleep
0000ac54 g     O .rwdata	00000180 alt_fd_list
00002200 g     F .text	0000076c __ieee754_rem_pio2
00008df0 g     F .text	00000090 alt_find_dev
000091b0 g     F .text	00000148 memcpy
000069d0 g     F .text	000000dc .hidden __floatsidf
000088a4 g     F .text	0000007c alt_io_redirect
0000965c g       *ABS*	00000000 __DTOR_END__
0000904c g     F .text	0000009c alt_exception_cause_generated_bad_addr
00007a48 g     F .text	0000021c altera_avalon_jtag_uart_read
00004324 g     F .text	00000064 .hidden __udivsi3
0000296c g     F .text	000004a4 __kernel_cos
0000b218 g     O .rwdata	00000004 alt_max_fd
00003ba8 g     F .text	000002cc __kernel_sin
00004408 g     F .text	000008ac .hidden __adddf3
0000b22c g     O .rwdata	00000004 _global_impure_ptr
0000cb14 g       *ABS*	00000000 __bss_end
000086d0 g     F .text	000000f0 alt_iic_isr_register
00008cc4 g     F .text	00000108 alt_tick
00006aac g     F .text	000000a8 .hidden __floatunsidf
00008684 g     F .text	0000004c alt_ic_irq_enabled
00008c28 g     F .text	0000009c alt_alarm_stop
0000c9c0 g     O .bss	00000004 alt_irq_active
000000fc g     F .exceptions	000000d4 alt_irq_handler
0000ac2c g     O .rwdata	00000028 alt_dev_null
00002e10 g     F .text	00000d98 __kernel_rem_pio2
00008314 g     F .text	00000020 alt_dcache_flush_all
00006950 g     F .text	00000080 .hidden __fixdfsi
0000b234 g       *ABS*	00000000 __ram_rwdata_end
0000b210 g     O .rwdata	00000008 alt_dev_list
00009ad0 g       *ABS*	00000000 __ram_rodata_end
00000000 g       *ABS*	00000000 __alt_mem_SDRAM
00004388 g     F .text	00000058 .hidden __umodsi3
0000cb14 g       *ABS*	00000000 end
00007584 g     F .text	000000c0 altera_avalon_jtag_uart_init
000001d0 g     F .exceptions	00000060 alt_instruction_exception_entry
0000965c g       *ABS*	00000000 __CTOR_LIST__
04000000 g       *ABS*	00000000 __alt_stack_pointer
00007f00 g     F .text	0000007c alt_avalon_timer_sc_init
00006b54 g     F .text	00000064 .hidden __clzsi2
00007c64 g     F .text	00000224 altera_avalon_jtag_uart_write
00002024 g     F .text	000000ec cos
000094a8 g     F .text	00000180 __call_exitprocs
00000230 g     F .text	0000003c _start
0000c9c4 g     O .bss	00000004 _alt_tick_rate
00002110 g     F .text	000000f0 sin
0000c9c8 g     O .bss	00000004 _alt_nticks
00006dbc g     F .text	00000664 alt_sys_init
00009390 g     F .text	00000118 __register_exitproc
000078f0 g     F .text	00000068 altera_avalon_jtag_uart_close
000043e0 g     F .text	00000028 .hidden __mulsi3
00009ad0 g       *ABS*	00000000 __ram_rwdata_start
0000965c g       *ABS*	00000000 __ram_rodata_start
00007420 g     F .text	00000060 altera_avalon_jtag_uart_read_fd
00008f88 g     F .text	000000c4 alt_get_fd
000080a8 g     F .text	00000158 alt_busy_sleep
00009134 g     F .text	0000007c memcmp
000074e0 g     F .text	00000050 altera_avalon_jtag_uart_close_fd
0000cb14 g       *ABS*	00000000 __alt_stack_base
00007530 g     F .text	00000054 altera_avalon_jtag_uart_ioctl_fd
00004cb4 g     F .text	000009d0 .hidden __divdf3
000057e8 g     F .text	0000086c .hidden __muldf3
00008e80 g     F .text	00000108 alt_find_file
0000839c g     F .text	000000a4 alt_dev_llist_insert
0000c998 g       *ABS*	00000000 __bss_start
00001f44 g     F .text	000000e0 main
0000c9bc g     O .bss	00000004 alt_envp
00007480 g     F .text	00000060 altera_avalon_jtag_uart_write_fd
0000b21c g     O .rwdata	00000004 alt_errno
0000422c g     F .text	00000084 .hidden __divsi3
0000965c g       *ABS*	00000000 __CTOR_END__
0000965c g       *ABS*	00000000 __flash_rodata_start
0000965c g       *ABS*	00000000 __DTOR_LIST__
00004210 g     F .text	0000001c copysign
00005684 g     F .text	00000088 .hidden __nedf2
00006d84 g     F .text	00000038 alt_irq_init
00008ba4 g     F .text	00000084 alt_release_fd
0000991c g     O .rodata	00000100 .hidden __clz_tab
000090e8 g     F .text	00000014 atexit
0000b230 g     O .rwdata	00000004 _impure_ptr
0000c9b4 g     O .bss	00000004 alt_argc
00004074 g     F .text	0000019c scalbn
000084a0 g     F .text	00000060 _do_dtors
09000000 g       *ABS*	00000000 __alt_mem_VGA_Subsystem_Char_Buf_Subsystem_Onchip_SRAM
00000020 g       .exceptions	00000000 alt_irq_entry
0000b208 g     O .rwdata	00000008 alt_fs_list
00000020 g       *ABS*	00000000 __ram_exceptions_start
00008520 g     F .text	00000050 alt_ic_isr_register
0000b234 g       *ABS*	00000000 _edata
0000cb14 g       *ABS*	00000000 _end
00000230 g       *ABS*	00000000 __ram_exceptions_end
00007958 g     F .text	000000f0 altera_avalon_jtag_uart_ioctl
08000000 g       *ABS*	00000000 __alt_mem_Onchip_SRAM
000085f8 g     F .text	0000008c alt_ic_irq_disable
000090fc g     F .text	00000038 exit
000042b0 g     F .text	00000074 .hidden __modsi3
04000000 g       *ABS*	00000000 __alt_data_end
00000020 g     F .exceptions	00000000 alt_exception
00009628 g     F .text	00000034 _exit
00007f7c g     F .text	0000012c alt_alarm_start
000092f8 g     F .text	00000098 strlen
00008a48 g     F .text	0000015c open
0000570c g     F .text	000000dc .hidden __gedf2
00008500 g     F .text	00000020 alt_icache_flush_all
0000b220 g     O .rwdata	00000004 alt_priority_mask
00008570 g     F .text	00000088 alt_ic_irq_enable
00006054 g     F .text	000008fc .hidden __subdf3
0000b224 g     O .rwdata	00000008 alt_alarm_list
00008440 g     F .text	00000060 _do_ctors
0000823c g     F .text	000000d8 close
00006c20 g     F .text	00000084 alt_load



Disassembly of section .entry:

00000000 <__reset>:
 * Jump to the _start entry point in the .text section if reset code
 * is allowed or if optimizing for RTL simulation.
 */
#if defined(ALT_ALLOW_CODE_AT_RESET) || defined(ALT_SIM_OPTIMIZE)
    /* Jump to the _start entry point in the .text section. */
    movhi r1, %hi(_start)
   0:	00400034 	movhi	at,0
    ori r1, r1, %lo(_start)
   4:	08408c14 	ori	at,at,560
    jmp r1
   8:	0800683a 	jmp	at
	...

Disassembly of section .exceptions:

00000020 <alt_exception>:

#else /* ALT_EXCEPTION_STACK disabled */
        /* 
         * Reserve space on normal stack for registers about to be pushed.
         */
        addi  sp, sp, -76
  20:	deffed04 	addi	sp,sp,-76
         * documentation for details).
         *
         * Leave a gap in the stack frame at 4(sp) for the muldiv handler to
         * store zero into.
         */
        stw   ra,  0(sp)
  24:	dfc00015 	stw	ra,0(sp)
        stw   r1,   8(sp)
  28:	d8400215 	stw	at,8(sp)
        stw   r2,  12(sp)
  2c:	d8800315 	stw	r2,12(sp)
        stw   r3,  16(sp)
  30:	d8c00415 	stw	r3,16(sp)
        stw   r4,  20(sp)
  34:	d9000515 	stw	r4,20(sp)
        stw   r5,  24(sp)
  38:	d9400615 	stw	r5,24(sp)
        stw   r6,  28(sp)
  3c:	d9800715 	stw	r6,28(sp)
        stw   r7,  32(sp)
  40:	d9c00815 	stw	r7,32(sp)
        rdctl r5, estatus   /* Read early to avoid usage stall */
  44:	000b307a 	rdctl	r5,estatus
        stw   r8,  36(sp)
  48:	da000915 	stw	r8,36(sp)
        stw   r9,  40(sp)
  4c:	da400a15 	stw	r9,40(sp)
        stw   r10, 44(sp)
  50:	da800b15 	stw	r10,44(sp)
        stw   r11, 48(sp)
  54:	dac00c15 	stw	r11,48(sp)
        stw   r12, 52(sp)
  58:	db000d15 	stw	r12,52(sp)
        stw   r13, 56(sp)
  5c:	db400e15 	stw	r13,56(sp)
        stw   r14, 60(sp)
  60:	db800f15 	stw	r14,60(sp)
        stw   r15, 64(sp)
  64:	dbc01015 	stw	r15,64(sp)
        /*
         * ea-4 contains the address of the instruction being executed
         * when the exception occured. For interrupt exceptions, we will
         * will be re-issue the isntruction. Store it in 72(sp)
         */
        stw   r5,  68(sp)  /* estatus */
  68:	d9401115 	stw	r5,68(sp)
        addi  r15, ea, -4  /* instruction that caused exception */
  6c:	ebffff04 	addi	r15,ea,-4
        stw   r15,  72(sp)
  70:	dbc01215 	stw	r15,72(sp)
#else
        /*
         * Test to see if the exception was a software exception or caused 
         * by an external interrupt, and vector accordingly.
         */
        rdctl r4, ipending
  74:	0009313a 	rdctl	r4,ipending
        andi  r2, r5, 1
  78:	2880004c 	andi	r2,r5,1
        beq   r2, zero, .Lnot_irq
  7c:	10000326 	beq	r2,zero,8c <alt_exception+0x6c>
        beq   r4, zero, .Lnot_irq
  80:	20000226 	beq	r4,zero,8c <alt_exception+0x6c>
        /*
         * Now that all necessary registers have been preserved, call 
         * alt_irq_handler() to process the interrupts.
         */

        call alt_irq_handler
  84:	00000fc0 	call	fc <alt_irq_handler>

        .section .exceptions.irqreturn, "xa"

        br    .Lexception_exit
  88:	00000706 	br	a8 <alt_exception+0x88>
         * upon completion, so we write ea (address of instruction *after*
         * the one where the exception occured) into 72(sp). The actual
         * instruction that caused the exception is written in r2, which these
         * handlers will utilize.
         */
        stw ea, 72(sp) /* EA is PC+4 so will skip over instruction causing exception */
  8c:	df401215 	stw	ea,72(sp)
.Lunknown_16bit:
        addi.n r4, r4, 2 /* Need PC+2 to skip over instruction causing exception */
        stw r4, 72(sp)

#else /* CDX is not Enabled and all instructions are 32bits */
        ldw r2, -4(ea) /* Instruction value that caused exception */
  90:	e8bfff17 	ldw	r2,-4(ea)
         * debugger is present) or go into an infinite loop since the
         * handling behavior is undefined; in that case we will not return here.
         */

        /* Load exception-causing address as first argument (r4) */
        addi   r4, ea, -4
  94:	e93fff04 	addi	r4,ea,-4

        /* Call the instruction-exception entry */
        call   alt_instruction_exception_entry
  98:	00001d00 	call	1d0 <alt_instruction_exception_entry>
         * instruction
         *
         * Return code was 0: Skip. The instruction after the exception is
         * already stored in 72(sp).
         */
        bne   r2, r0, .Lexception_exit
  9c:	1000021e 	bne	r2,zero,a8 <alt_exception+0x88>

        /*
         * Otherwise, modify 72(sp) to re-issue the instruction that caused the
         * exception.
         */
        addi  r15, ea, -4  /* instruction that caused exception */
  a0:	ebffff04 	addi	r15,ea,-4
        stw   r15,  72(sp)
  a4:	dbc01215 	stw	r15,72(sp)
        /* 
         * Restore the saved registers, so that all general purpose registers 
         * have been restored to their state at the time the interrupt occured.
         */

        ldw   r5,  68(sp)
  a8:	d9401117 	ldw	r5,68(sp)
        ldw   ea,  72(sp)  /* This becomes the PC once eret is executed */
  ac:	df401217 	ldw	ea,72(sp)
        ldw   ra,   0(sp)
  b0:	dfc00017 	ldw	ra,0(sp)

        wrctl estatus, r5
  b4:	2801707a 	wrctl	estatus,r5

        ldw   r1,   8(sp)
  b8:	d8400217 	ldw	at,8(sp)
        ldw   r2,  12(sp)
  bc:	d8800317 	ldw	r2,12(sp)
        ldw   r3,  16(sp)
  c0:	d8c00417 	ldw	r3,16(sp)
        ldw   r4,  20(sp)
  c4:	d9000517 	ldw	r4,20(sp)
        ldw   r5,  24(sp)
  c8:	d9400617 	ldw	r5,24(sp)
        ldw   r6,  28(sp)
  cc:	d9800717 	ldw	r6,28(sp)
        ldw   r7,  32(sp)
  d0:	d9c00817 	ldw	r7,32(sp)

#if defined(ALT_EXCEPTION_STACK) && defined(ALT_STACK_CHECK)
        ldw   et, %gprel(alt_exception_old_stack_limit)(gp)
#endif

        ldw   r8,  36(sp)
  d4:	da000917 	ldw	r8,36(sp)
        ldw   r9,  40(sp)
  d8:	da400a17 	ldw	r9,40(sp)
        ldw   r10, 44(sp)
  dc:	da800b17 	ldw	r10,44(sp)
        ldw   r11, 48(sp)
  e0:	dac00c17 	ldw	r11,48(sp)
        ldw   r12, 52(sp)
  e4:	db000d17 	ldw	r12,52(sp)
        ldw   r13, 56(sp)
  e8:	db400e17 	ldw	r13,56(sp)
        ldw   r14, 60(sp)
  ec:	db800f17 	ldw	r14,60(sp)
        ldw   r15, 64(sp)
  f0:	dbc01017 	ldw	r15,64(sp)
        stw   et, %gprel(alt_stack_limit_value)(gp)
        stw   zero, %gprel(alt_exception_old_stack_limit)(gp)
#endif /* ALT_STACK_CHECK */
        ldw   sp,  76(sp)
#else /* ALT_EXCEPTION_STACK disabled */
        addi  sp, sp, 76
  f4:	dec01304 	addi	sp,sp,76

        /*
         * Return to the interrupted instruction.
         */

        eret
  f8:	ef80083a 	eret

000000fc <alt_irq_handler>:
 * instruction is present if the macro ALT_CI_INTERRUPT_VECTOR defined.
 */

void alt_irq_handler (void) __attribute__ ((section (".exceptions")));
void alt_irq_handler (void)
{
  fc:	defff904 	addi	sp,sp,-28
 100:	dfc00615 	stw	ra,24(sp)
 104:	df000515 	stw	fp,20(sp)
 108:	df000504 	addi	fp,sp,20
  
  /*
   * Notify the operating system that we are at interrupt level.
   */ 
  
  ALT_OS_INT_ENTER();
 10c:	0001883a 	nop
#ifndef NIOS2_EIC_PRESENT
static ALT_INLINE alt_u32 ALT_ALWAYS_INLINE alt_irq_pending (void)
{
  alt_u32 active;

  NIOS2_READ_IPENDING (active);
 110:	0005313a 	rdctl	r2,ipending
 114:	e0bffe15 	stw	r2,-8(fp)

  return active;
 118:	e0bffe17 	ldw	r2,-8(fp)
   * Consider the case where the high priority interupt is asserted during
   * the interrupt entry sequence for a lower priority interrupt to see why
   * this is the case.
   */

  active = alt_irq_pending ();
 11c:	e0bffb15 	stw	r2,-20(fp)

  do
  {
    i = 0;
 120:	e03ffd15 	stw	zero,-12(fp)
    mask = 1;
 124:	00800044 	movi	r2,1
 128:	e0bffc15 	stw	r2,-16(fp)
     * called to clear the interrupt condition.
     */

    do
    {
      if (active & mask)
 12c:	e0fffb17 	ldw	r3,-20(fp)
 130:	e0bffc17 	ldw	r2,-16(fp)
 134:	1884703a 	and	r2,r3,r2
 138:	10001426 	beq	r2,zero,18c <alt_irq_handler+0x90>
      { 
#ifdef ALT_ENHANCED_INTERRUPT_API_PRESENT
        alt_irq[i].handler(alt_irq[i].context); 
 13c:	00800074 	movhi	r2,1
 140:	10b28504 	addi	r2,r2,-13804
 144:	e0fffd17 	ldw	r3,-12(fp)
 148:	180690fa 	slli	r3,r3,3
 14c:	10c5883a 	add	r2,r2,r3
 150:	10c00017 	ldw	r3,0(r2)
 154:	00800074 	movhi	r2,1
 158:	10b28504 	addi	r2,r2,-13804
 15c:	e13ffd17 	ldw	r4,-12(fp)
 160:	200890fa 	slli	r4,r4,3
 164:	1105883a 	add	r2,r2,r4
 168:	10800104 	addi	r2,r2,4
 16c:	10800017 	ldw	r2,0(r2)
 170:	1009883a 	mov	r4,r2
 174:	183ee83a 	callr	r3
#else
        alt_irq[i].handler(alt_irq[i].context, i); 
#endif
        break;
 178:	0001883a 	nop
#ifndef NIOS2_EIC_PRESENT
static ALT_INLINE alt_u32 ALT_ALWAYS_INLINE alt_irq_pending (void)
{
  alt_u32 active;

  NIOS2_READ_IPENDING (active);
 17c:	0005313a 	rdctl	r2,ipending
 180:	e0bfff15 	stw	r2,-4(fp)

  return active;
 184:	e0bfff17 	ldw	r2,-4(fp)
 188:	00000706 	br	1a8 <alt_irq_handler+0xac>
      }
      mask <<= 1;
 18c:	e0bffc17 	ldw	r2,-16(fp)
 190:	1085883a 	add	r2,r2,r2
 194:	e0bffc15 	stw	r2,-16(fp)
      i++;
 198:	e0bffd17 	ldw	r2,-12(fp)
 19c:	10800044 	addi	r2,r2,1
 1a0:	e0bffd15 	stw	r2,-12(fp)

    } while (1);
 1a4:	003fe106 	br	12c <__alt_mem_VGA_Subsystem_Char_Buf_Subsystem_Onchip_SRAM+0xf700012c>

    active = alt_irq_pending ();
 1a8:	e0bffb15 	stw	r2,-20(fp)
    
  } while (active);
 1ac:	e0bffb17 	ldw	r2,-20(fp)
 1b0:	103fdb1e 	bne	r2,zero,120 <__alt_mem_VGA_Subsystem_Char_Buf_Subsystem_Onchip_SRAM+0xf7000120>

  /*
   * Notify the operating system that interrupt processing is complete.
   */ 

  ALT_OS_INT_EXIT();
 1b4:	0001883a 	nop
}
 1b8:	0001883a 	nop
 1bc:	e037883a 	mov	sp,fp
 1c0:	dfc00117 	ldw	ra,4(sp)
 1c4:	df000017 	ldw	fp,0(sp)
 1c8:	dec00204 	addi	sp,sp,8
 1cc:	f800283a 	ret

000001d0 <alt_instruction_exception_entry>:
 * that handler if it has been registered. Absent a handler, it will
 * break break or hang as discussed below.
 */
int 
alt_instruction_exception_entry (alt_u32 exception_pc)
{
 1d0:	defffb04 	addi	sp,sp,-20
 1d4:	dfc00415 	stw	ra,16(sp)
 1d8:	df000315 	stw	fp,12(sp)
 1dc:	df000304 	addi	fp,sp,12
 1e0:	e13fff15 	stw	r4,-4(fp)
  cause = ( (cause & NIOS2_EXCEPTION_REG_CAUSE_MASK) >>
              NIOS2_EXCEPTION_REG_CAUSE_OFST );

  NIOS2_READ_BADADDR(badaddr);
#else
  cause = NIOS2_EXCEPTION_CAUSE_NOT_PRESENT;
 1e4:	00bfffc4 	movi	r2,-1
 1e8:	e0bffd15 	stw	r2,-12(fp)
  badaddr = 0;
 1ec:	e03ffe15 	stw	zero,-8(fp)
#endif /* NIOS2_HAS_EXTRA_EXCEPTION_INFO */

  if(alt_instruction_exception_handler) {
 1f0:	d0a5f517 	ldw	r2,-26668(gp)
 1f4:	10000726 	beq	r2,zero,214 <alt_instruction_exception_entry+0x44>
     * Call handler. Its return value indicates whether the exception-causing
     * instruction should be re-issued. The code that called us,
     * alt_eceptions_entry.S, will look at this value and adjust the ea
     * register as necessary
     */
    return alt_instruction_exception_handler(cause, exception_pc, badaddr);
 1f8:	d0a5f517 	ldw	r2,-26668(gp)
 1fc:	e0fffd17 	ldw	r3,-12(fp)
 200:	e1bffe17 	ldw	r6,-8(fp)
 204:	e17fff17 	ldw	r5,-4(fp)
 208:	1809883a 	mov	r4,r3
 20c:	103ee83a 	callr	r2
 210:	00000206 	br	21c <alt_instruction_exception_entry+0x4c>
   *    (a peripheral which negates its interrupt output before its
   *    interrupt handler has been executed will cause spurious interrupts)
   */
  else {
#ifdef NIOS2_HAS_DEBUG_STUB
    NIOS2_BREAK();
 214:	003da03a 	break	0
      ;
#endif /* NIOS2_HAS_DEBUG_STUB */
  }

  /* We should not get here. Remove compiler warning. */
  return NIOS2_EXCEPTION_RETURN_REISSUE_INST;
 218:	0005883a 	mov	r2,zero
}
 21c:	e037883a 	mov	sp,fp
 220:	dfc00117 	ldw	ra,4(sp)
 224:	df000017 	ldw	fp,0(sp)
 228:	dec00204 	addi	sp,sp,8
 22c:	f800283a 	ret

Disassembly of section .text:

00000230 <_start>:

    /*
     * Now that the caches are initialized, set up the stack pointer and global pointer.
     * The values provided by the linker are assumed to be correctly aligned.
     */
    movhi sp, %hi(__alt_stack_pointer)
     230:	06c10034 	movhi	sp,1024
    ori sp, sp, %lo(__alt_stack_pointer)
     234:	dec00014 	ori	sp,sp,0
    movhi gp, %hi(_gp)
     238:	06800074 	movhi	gp,1
    ori gp, gp, %lo(_gp)
     23c:	d68c7e14 	ori	gp,gp,12792
 */
#ifndef ALT_SIM_OPTIMIZE
    /* Log that the BSS is about to be cleared. */
    ALT_LOG_PUTS(alt_log_msg_bss)

    movhi r2, %hi(__bss_start)
     240:	00800034 	movhi	r2,0
    ori r2, r2, %lo(__bss_start)
     244:	10b26614 	ori	r2,r2,51608

    movhi r3, %hi(__bss_end)
     248:	00c00034 	movhi	r3,0
    ori r3, r3, %lo(__bss_end)
     24c:	18f2c514 	ori	r3,r3,51988

    beq r2, r3, 1f
     250:	10c00326 	beq	r2,r3,260 <_start+0x30>

0:
    stw zero, (r2)
     254:	10000015 	stw	zero,0(r2)
    addi r2, r2, 4
     258:	10800104 	addi	r2,r2,4
    bltu r2, r3, 0b
     25c:	10fffd36 	bltu	r2,r3,254 <__alt_mem_VGA_Subsystem_Char_Buf_Subsystem_Onchip_SRAM+0xf7000254>
     * section aren't defined until alt_load() has been called).
     */
    mov   et, zero
#endif

    call alt_load
     260:	0006c200 	call	6c20 <alt_load>

    /* Log that alt_main is about to be called. */
    ALT_LOG_PUTS(alt_log_msg_alt_main)

    /* Call the C entry point. It should never return. */
    call alt_main
     264:	0006ca40 	call	6ca4 <alt_main>

00000268 <alt_after_alt_main>:

    /* Wait in infinite loop in case alt_main does return. */
alt_after_alt_main:
    br alt_after_alt_main
     268:	003fff06 	br	268 <__alt_mem_VGA_Subsystem_Char_Buf_Subsystem_Onchip_SRAM+0xf7000268>

0000026c <seg7>:
typedef enum { STATE_CMD = 0, STATE_RUN = 1 } radar_state_t;
static radar_state_t state = STATE_CMD;

static int stop_level_sw0 = 1;

static inline uint8_t seg7(uint8_t d) { return (d < 10u) ? SEG7_LUT[d] : 0u; }
     26c:	defffe04 	addi	sp,sp,-8
     270:	df000115 	stw	fp,4(sp)
     274:	df000104 	addi	fp,sp,4
     278:	2005883a 	mov	r2,r4
     27c:	e0bfff05 	stb	r2,-4(fp)
     280:	e0bfff03 	ldbu	r2,-4(fp)
     284:	108002a8 	cmpgeui	r2,r2,10
     288:	1000061e 	bne	r2,zero,2a4 <seg7+0x38>
     28c:	e0ffff03 	ldbu	r3,-4(fp)
     290:	00800074 	movhi	r2,1
     294:	10a59704 	addi	r2,r2,-27044
     298:	10c5883a 	add	r2,r2,r3
     29c:	10800003 	ldbu	r2,0(r2)
     2a0:	00000106 	br	2a8 <seg7+0x3c>
     2a4:	0005883a 	mov	r2,zero
     2a8:	e037883a 	mov	sp,fp
     2ac:	df000017 	ldw	fp,0(sp)
     2b0:	dec00104 	addi	sp,sp,4
     2b4:	f800283a 	ret

000002b8 <split3>:

static inline void split3(uint32_t v, uint8_t *h, uint8_t *t, uint8_t *u)
{
     2b8:	defffa04 	addi	sp,sp,-24
     2bc:	dfc00515 	stw	ra,20(sp)
     2c0:	df000415 	stw	fp,16(sp)
     2c4:	df000404 	addi	fp,sp,16
     2c8:	e13ffc15 	stw	r4,-16(fp)
     2cc:	e17ffd15 	stw	r5,-12(fp)
     2d0:	e1bffe15 	stw	r6,-8(fp)
     2d4:	e1ffff15 	stw	r7,-4(fp)
    if (v > 999u) v = 999u;
     2d8:	e0bffc17 	ldw	r2,-16(fp)
     2dc:	1080fa30 	cmpltui	r2,r2,1000
     2e0:	1000021e 	bne	r2,zero,2ec <split3+0x34>
     2e4:	0080f9c4 	movi	r2,999
     2e8:	e0bffc15 	stw	r2,-16(fp)
    *u = (uint8_t)(v % 10u);
     2ec:	e0bffc17 	ldw	r2,-16(fp)
     2f0:	01400284 	movi	r5,10
     2f4:	1009883a 	mov	r4,r2
     2f8:	00043880 	call	4388 <__umodsi3>
     2fc:	1007883a 	mov	r3,r2
     300:	e0bfff17 	ldw	r2,-4(fp)
     304:	10c00005 	stb	r3,0(r2)
    *t = (uint8_t)((v / 10u) % 10u);
     308:	e0bffc17 	ldw	r2,-16(fp)
     30c:	01400284 	movi	r5,10
     310:	1009883a 	mov	r4,r2
     314:	00043240 	call	4324 <__udivsi3>
     318:	01400284 	movi	r5,10
     31c:	1009883a 	mov	r4,r2
     320:	00043880 	call	4388 <__umodsi3>
     324:	1007883a 	mov	r3,r2
     328:	e0bffe17 	ldw	r2,-8(fp)
     32c:	10c00005 	stb	r3,0(r2)
    *h = (uint8_t)((v / 100u) % 10u);
     330:	e0bffc17 	ldw	r2,-16(fp)
     334:	01401904 	movi	r5,100
     338:	1009883a 	mov	r4,r2
     33c:	00043240 	call	4324 <__udivsi3>
     340:	01400284 	movi	r5,10
     344:	1009883a 	mov	r4,r2
     348:	00043880 	call	4388 <__umodsi3>
     34c:	1007883a 	mov	r3,r2
     350:	e0bffd17 	ldw	r2,-12(fp)
     354:	10c00005 	stb	r3,0(r2)
}
     358:	0001883a 	nop
     35c:	e037883a 	mov	sp,fp
     360:	dfc00117 	ldw	ra,4(sp)
     364:	df000017 	ldw	fp,0(sp)
     368:	dec00204 	addi	sp,sp,8
     36c:	f800283a 	ret

00000370 <clamp_u32>:

static inline uint32_t clamp_u32(uint32_t v, uint32_t lo, uint32_t hi)
{
     370:	defffc04 	addi	sp,sp,-16
     374:	df000315 	stw	fp,12(sp)
     378:	df000304 	addi	fp,sp,12
     37c:	e13ffd15 	stw	r4,-12(fp)
     380:	e17ffe15 	stw	r5,-8(fp)
     384:	e1bfff15 	stw	r6,-4(fp)
    if (v < lo) return lo;
     388:	e0fffd17 	ldw	r3,-12(fp)
     38c:	e0bffe17 	ldw	r2,-8(fp)
     390:	1880022e 	bgeu	r3,r2,39c <clamp_u32+0x2c>
     394:	e0bffe17 	ldw	r2,-8(fp)
     398:	00000606 	br	3b4 <clamp_u32+0x44>
    if (v > hi) return hi;
     39c:	e0bffd17 	ldw	r2,-12(fp)
     3a0:	e0ffff17 	ldw	r3,-4(fp)
     3a4:	1880022e 	bgeu	r3,r2,3b0 <clamp_u32+0x40>
     3a8:	e0bfff17 	ldw	r2,-4(fp)
     3ac:	00000106 	br	3b4 <clamp_u32+0x44>
    return v;
     3b0:	e0bffd17 	ldw	r2,-12(fp)
}
     3b4:	e037883a 	mov	sp,fp
     3b8:	df000017 	ldw	fp,0(sp)
     3bc:	dec00104 	addi	sp,sp,4
     3c0:	f800283a 	ret

000003c4 <pos_from_angle>:

static inline uint32_t pos_from_angle(uint32_t a)
{
     3c4:	defffd04 	addi	sp,sp,-12
     3c8:	dfc00215 	stw	ra,8(sp)
     3cc:	df000115 	stw	fp,4(sp)
     3d0:	df000104 	addi	fp,sp,4
     3d4:	e13fff15 	stw	r4,-4(fp)
    a = clamp_u32(a, 0u, 180u);
     3d8:	01802d04 	movi	r6,180
     3dc:	000b883a 	mov	r5,zero
     3e0:	e13fff17 	ldw	r4,-4(fp)
     3e4:	00003700 	call	370 <clamp_u32>
     3e8:	e0bfff15 	stw	r2,-4(fp)
    return (a * 1023u) / 180u;
     3ec:	0140ffc4 	movi	r5,1023
     3f0:	e13fff17 	ldw	r4,-4(fp)
     3f4:	00043e00 	call	43e0 <__mulsi3>
     3f8:	01402d04 	movi	r5,180
     3fc:	1009883a 	mov	r4,r2
     400:	00043240 	call	4324 <__udivsi3>
}
     404:	e037883a 	mov	sp,fp
     408:	dfc00117 	ldw	ra,4(sp)
     40c:	df000017 	ldw	fp,0(sp)
     410:	dec00204 	addi	sp,sp,8
     414:	f800283a 	ret

00000418 <cm_to_px>:

static inline int cm_to_px(int cm)
{
     418:	defffc04 	addi	sp,sp,-16
     41c:	dfc00315 	stw	ra,12(sp)
     420:	df000215 	stw	fp,8(sp)
     424:	df000204 	addi	fp,sp,8
     428:	e13fff15 	stw	r4,-4(fp)
    if (cm < 0) cm = 0;
     42c:	e0bfff17 	ldw	r2,-4(fp)
     430:	1000010e 	bge	r2,zero,438 <cm_to_px+0x20>
     434:	e03fff15 	stw	zero,-4(fp)
    int m = (int)dist_max_cm;
     438:	d0a00217 	ldw	r2,-32760(gp)
     43c:	e0bffe15 	stw	r2,-8(fp)
    if (m < 1) m = 1;
     440:	e0bffe17 	ldw	r2,-8(fp)
     444:	00800216 	blt	zero,r2,450 <cm_to_px+0x38>
     448:	00800044 	movi	r2,1
     44c:	e0bffe15 	stw	r2,-8(fp)
    if (cm > m) cm = m;
     450:	e0bfff17 	ldw	r2,-4(fp)
     454:	e0fffe17 	ldw	r3,-8(fp)
     458:	1880020e 	bge	r3,r2,464 <cm_to_px+0x4c>
     45c:	e0bffe17 	ldw	r2,-8(fp)
     460:	e0bfff15 	stw	r2,-4(fp)
    return (cm * radar_r) / m;
     464:	d0a5ec17 	ldw	r2,-26704(gp)
     468:	e17fff17 	ldw	r5,-4(fp)
     46c:	1009883a 	mov	r4,r2
     470:	00043e00 	call	43e0 <__mulsi3>
     474:	e17ffe17 	ldw	r5,-8(fp)
     478:	1009883a 	mov	r4,r2
     47c:	000422c0 	call	422c <__divsi3>
}
     480:	e037883a 	mov	sp,fp
     484:	dfc00117 	ldw	ra,4(sp)
     488:	df000017 	ldw	fp,0(sp)
     48c:	dec00204 	addi	sp,sp,8
     490:	f800283a 	ret

00000494 <uart_status>:

static inline uint32_t uart_status(void)
{
     494:	deffff04 	addi	sp,sp,-4
     498:	df000015 	stw	fp,0(sp)
     49c:	d839883a 	mov	fp,sp
    return IORD_32DIRECT(UART_0_BASE, UART_STATUS_OFFSET);
     4a0:	00810034 	movhi	r2,1024
     4a4:	10800504 	addi	r2,r2,20
     4a8:	10800037 	ldwio	r2,0(r2)
}
     4ac:	e037883a 	mov	sp,fp
     4b0:	df000017 	ldw	fp,0(sp)
     4b4:	dec00104 	addi	sp,sp,4
     4b8:	f800283a 	ret

000004bc <uart_putchar>:

static void uart_putchar(char c)
{
     4bc:	defffd04 	addi	sp,sp,-12
     4c0:	dfc00215 	stw	ra,8(sp)
     4c4:	df000115 	stw	fp,4(sp)
     4c8:	df000104 	addi	fp,sp,4
     4cc:	2005883a 	mov	r2,r4
     4d0:	e0bfff05 	stb	r2,-4(fp)
    while (uart_status() & UART_TX_BUSY) { }
     4d4:	0001883a 	nop
     4d8:	00004940 	call	494 <uart_status>
     4dc:	1080008c 	andi	r2,r2,2
     4e0:	103ffd1e 	bne	r2,zero,4d8 <__alt_mem_VGA_Subsystem_Char_Buf_Subsystem_Onchip_SRAM+0xf70004d8>
    IOWR_32DIRECT(UART_0_BASE, UART_DATA_OFFSET, (uint32_t)(uint8_t)c);
     4e4:	e0bfff03 	ldbu	r2,-4(fp)
     4e8:	10c03fcc 	andi	r3,r2,255
     4ec:	00810034 	movhi	r2,1024
     4f0:	10800404 	addi	r2,r2,16
     4f4:	10c00035 	stwio	r3,0(r2)
}
     4f8:	0001883a 	nop
     4fc:	e037883a 	mov	sp,fp
     500:	dfc00117 	ldw	ra,4(sp)
     504:	df000017 	ldw	fp,0(sp)
     508:	dec00204 	addi	sp,sp,8
     50c:	f800283a 	ret

00000510 <uart_puts>:

static void uart_puts(const char *s)
{
     510:	defffd04 	addi	sp,sp,-12
     514:	dfc00215 	stw	ra,8(sp)
     518:	df000115 	stw	fp,4(sp)
     51c:	df000104 	addi	fp,sp,4
     520:	e13fff15 	stw	r4,-4(fp)
    while (*s) uart_putchar(*s++);
     524:	00000906 	br	54c <uart_puts+0x3c>
     528:	e0bfff17 	ldw	r2,-4(fp)
     52c:	10c00044 	addi	r3,r2,1
     530:	e0ffff15 	stw	r3,-4(fp)
     534:	10800003 	ldbu	r2,0(r2)
     538:	10803fcc 	andi	r2,r2,255
     53c:	1080201c 	xori	r2,r2,128
     540:	10bfe004 	addi	r2,r2,-128
     544:	1009883a 	mov	r4,r2
     548:	00004bc0 	call	4bc <uart_putchar>
     54c:	e0bfff17 	ldw	r2,-4(fp)
     550:	10800003 	ldbu	r2,0(r2)
     554:	10803fcc 	andi	r2,r2,255
     558:	1080201c 	xori	r2,r2,128
     55c:	10bfe004 	addi	r2,r2,-128
     560:	103ff11e 	bne	r2,zero,528 <__alt_mem_VGA_Subsystem_Char_Buf_Subsystem_Onchip_SRAM+0xf7000528>
}
     564:	0001883a 	nop
     568:	e037883a 	mov	sp,fp
     56c:	dfc00117 	ldw	ra,4(sp)
     570:	df000017 	ldw	fp,0(sp)
     574:	dec00204 	addi	sp,sp,8
     578:	f800283a 	ret

0000057c <uart_getchar_blocking>:

static char uart_getchar_blocking(void)
{
     57c:	defffd04 	addi	sp,sp,-12
     580:	dfc00215 	stw	ra,8(sp)
     584:	df000115 	stw	fp,4(sp)
     588:	df000104 	addi	fp,sp,4
    while ((uart_status() & UART_RX_VALID) == 0u) { }
     58c:	0001883a 	nop
     590:	00004940 	call	494 <uart_status>
     594:	1080004c 	andi	r2,r2,1
     598:	103ffd26 	beq	r2,zero,590 <__alt_mem_VGA_Subsystem_Char_Buf_Subsystem_Onchip_SRAM+0xf7000590>
    char c = (char)(IORD_32DIRECT(UART_0_BASE, UART_DATA_OFFSET) & 0xFFu);
     59c:	00810034 	movhi	r2,1024
     5a0:	10800404 	addi	r2,r2,16
     5a4:	10800037 	ldwio	r2,0(r2)
     5a8:	e0bfff05 	stb	r2,-4(fp)
    IOWR_32DIRECT(UART_0_BASE, UART_STATUS_OFFSET, UART_RX_ACK);
     5ac:	00c00044 	movi	r3,1
     5b0:	00810034 	movhi	r2,1024
     5b4:	10800504 	addi	r2,r2,20
     5b8:	10c00035 	stwio	r3,0(r2)
    return c;
     5bc:	e0bfff03 	ldbu	r2,-4(fp)
}
     5c0:	e037883a 	mov	sp,fp
     5c4:	dfc00117 	ldw	ra,4(sp)
     5c8:	df000017 	ldw	fp,0(sp)
     5cc:	dec00204 	addi	sp,sp,8
     5d0:	f800283a 	ret

000005d4 <uart_put_u32>:

static void uart_put_u32(uint32_t v)
{
     5d4:	defff804 	addi	sp,sp,-32
     5d8:	dfc00715 	stw	ra,28(sp)
     5dc:	df000615 	stw	fp,24(sp)
     5e0:	dc000515 	stw	r16,20(sp)
     5e4:	df000604 	addi	fp,sp,24
     5e8:	e13ffe15 	stw	r4,-8(fp)
    char buf[11];
    int i = 0;
     5ec:	e03ffa15 	stw	zero,-24(fp)
    if (v == 0u) { uart_putchar('0'); return; }
     5f0:	e0bffe17 	ldw	r2,-8(fp)
     5f4:	1000141e 	bne	r2,zero,648 <uart_put_u32+0x74>
     5f8:	01000c04 	movi	r4,48
     5fc:	00004bc0 	call	4bc <uart_putchar>
     600:	00002406 	br	694 <uart_put_u32+0xc0>
    while (v && i < 10) {
        buf[i++] = (char)('0' + (v % 10u));
     604:	e43ffa17 	ldw	r16,-24(fp)
     608:	80800044 	addi	r2,r16,1
     60c:	e0bffa15 	stw	r2,-24(fp)
     610:	e0bffe17 	ldw	r2,-8(fp)
     614:	01400284 	movi	r5,10
     618:	1009883a 	mov	r4,r2
     61c:	00043880 	call	4388 <__umodsi3>
     620:	10800c04 	addi	r2,r2,48
     624:	1007883a 	mov	r3,r2
     628:	e0bffb04 	addi	r2,fp,-20
     62c:	1405883a 	add	r2,r2,r16
     630:	10c00005 	stb	r3,0(r2)
        v /= 10u;
     634:	e0bffe17 	ldw	r2,-8(fp)
     638:	01400284 	movi	r5,10
     63c:	1009883a 	mov	r4,r2
     640:	00043240 	call	4324 <__udivsi3>
     644:	e0bffe15 	stw	r2,-8(fp)
static void uart_put_u32(uint32_t v)
{
    char buf[11];
    int i = 0;
    if (v == 0u) { uart_putchar('0'); return; }
    while (v && i < 10) {
     648:	e0bffe17 	ldw	r2,-8(fp)
     64c:	10000d26 	beq	r2,zero,684 <uart_put_u32+0xb0>
     650:	e0bffa17 	ldw	r2,-24(fp)
     654:	10800290 	cmplti	r2,r2,10
     658:	103fea1e 	bne	r2,zero,604 <__alt_mem_VGA_Subsystem_Char_Buf_Subsystem_Onchip_SRAM+0xf7000604>
        buf[i++] = (char)('0' + (v % 10u));
        v /= 10u;
    }
    while (i--) uart_putchar(buf[i]);
     65c:	00000906 	br	684 <uart_put_u32+0xb0>
     660:	e0fffb04 	addi	r3,fp,-20
     664:	e0bffa17 	ldw	r2,-24(fp)
     668:	1885883a 	add	r2,r3,r2
     66c:	10800003 	ldbu	r2,0(r2)
     670:	10803fcc 	andi	r2,r2,255
     674:	1080201c 	xori	r2,r2,128
     678:	10bfe004 	addi	r2,r2,-128
     67c:	1009883a 	mov	r4,r2
     680:	00004bc0 	call	4bc <uart_putchar>
     684:	e0bffa17 	ldw	r2,-24(fp)
     688:	10ffffc4 	addi	r3,r2,-1
     68c:	e0fffa15 	stw	r3,-24(fp)
     690:	103ff31e 	bne	r2,zero,660 <__alt_mem_VGA_Subsystem_Char_Buf_Subsystem_Onchip_SRAM+0xf7000660>
}
     694:	e6ffff04 	addi	sp,fp,-4
     698:	dfc00217 	ldw	ra,8(sp)
     69c:	df000117 	ldw	fp,4(sp)
     6a0:	dc000017 	ldw	r16,0(sp)
     6a4:	dec00304 	addi	sp,sp,12
     6a8:	f800283a 	ret

000006ac <is_space>:

static int is_space(char c)
{
     6ac:	defffe04 	addi	sp,sp,-8
     6b0:	df000115 	stw	fp,4(sp)
     6b4:	df000104 	addi	fp,sp,4
     6b8:	2005883a 	mov	r2,r4
     6bc:	e0bfff05 	stb	r2,-4(fp)
    return (c == ' ' || c == '\t' || c == '\r' || c == '\n');
     6c0:	e0bfff07 	ldb	r2,-4(fp)
     6c4:	10800820 	cmpeqi	r2,r2,32
     6c8:	1000091e 	bne	r2,zero,6f0 <is_space+0x44>
     6cc:	e0bfff07 	ldb	r2,-4(fp)
     6d0:	10800260 	cmpeqi	r2,r2,9
     6d4:	1000061e 	bne	r2,zero,6f0 <is_space+0x44>
     6d8:	e0bfff07 	ldb	r2,-4(fp)
     6dc:	10800360 	cmpeqi	r2,r2,13
     6e0:	1000031e 	bne	r2,zero,6f0 <is_space+0x44>
     6e4:	e0bfff07 	ldb	r2,-4(fp)
     6e8:	10800298 	cmpnei	r2,r2,10
     6ec:	1000021e 	bne	r2,zero,6f8 <is_space+0x4c>
     6f0:	00800044 	movi	r2,1
     6f4:	00000106 	br	6fc <is_space+0x50>
     6f8:	0005883a 	mov	r2,zero
}
     6fc:	e037883a 	mov	sp,fp
     700:	df000017 	ldw	fp,0(sp)
     704:	dec00104 	addi	sp,sp,4
     708:	f800283a 	ret

0000070c <up>:

static char up(char c)
{
     70c:	defffe04 	addi	sp,sp,-8
     710:	df000115 	stw	fp,4(sp)
     714:	df000104 	addi	fp,sp,4
     718:	2005883a 	mov	r2,r4
     71c:	e0bfff05 	stb	r2,-4(fp)
    if (c >= 'a' && c <= 'z') return (char)(c - 'a' + 'A');
     720:	e0bfff07 	ldb	r2,-4(fp)
     724:	10801850 	cmplti	r2,r2,97
     728:	1000061e 	bne	r2,zero,744 <up+0x38>
     72c:	e0bfff07 	ldb	r2,-4(fp)
     730:	10801ec8 	cmpgei	r2,r2,123
     734:	1000031e 	bne	r2,zero,744 <up+0x38>
     738:	e0bfff03 	ldbu	r2,-4(fp)
     73c:	10bff804 	addi	r2,r2,-32
     740:	00000106 	br	748 <up+0x3c>
    return c;
     744:	e0bfff03 	ldbu	r2,-4(fp)
}
     748:	e037883a 	mov	sp,fp
     74c:	df000017 	ldw	fp,0(sp)
     750:	dec00104 	addi	sp,sp,4
     754:	f800283a 	ret

00000758 <sw0_level>:

static inline int sw0_level(void)
{
     758:	defffe04 	addi	sp,sp,-8
     75c:	df000115 	stw	fp,4(sp)
     760:	df000104 	addi	fp,sp,4
    uint32_t sw = IORD_32DIRECT(SLIDER_SWITCHES_BASE, 0);
     764:	00bfc834 	movhi	r2,65312
     768:	10801004 	addi	r2,r2,64
     76c:	10800037 	ldwio	r2,0(r2)
     770:	e0bfff15 	stw	r2,-4(fp)
    return ((sw & 0x1u) != 0u);
     774:	e0bfff17 	ldw	r2,-4(fp)
     778:	1080004c 	andi	r2,r2,1
     77c:	1004c03a 	cmpne	r2,r2,zero
     780:	10803fcc 	andi	r2,r2,255
}
     784:	e037883a 	mov	sp,fp
     788:	df000017 	ldw	fp,0(sp)
     78c:	dec00104 	addi	sp,sp,4
     790:	f800283a 	ret

00000794 <msg_init>:

static void msg_init(void) { uart_puts("Radar ready. Use HELP.\r\n"); }
     794:	defffe04 	addi	sp,sp,-8
     798:	dfc00115 	stw	ra,4(sp)
     79c:	df000015 	stw	fp,0(sp)
     7a0:	d839883a 	mov	fp,sp
     7a4:	01000074 	movhi	r4,1
     7a8:	21259a04 	addi	r4,r4,-27032
     7ac:	00005100 	call	510 <uart_puts>
     7b0:	0001883a 	nop
     7b4:	e037883a 	mov	sp,fp
     7b8:	dfc00117 	ldw	ra,4(sp)
     7bc:	df000017 	ldw	fp,0(sp)
     7c0:	dec00204 	addi	sp,sp,8
     7c4:	f800283a 	ret

000007c8 <reply_ok>:
static void reply_ok(void) { uart_puts("OK\r\n"); }
     7c8:	defffe04 	addi	sp,sp,-8
     7cc:	dfc00115 	stw	ra,4(sp)
     7d0:	df000015 	stw	fp,0(sp)
     7d4:	d839883a 	mov	fp,sp
     7d8:	01000074 	movhi	r4,1
     7dc:	2125a104 	addi	r4,r4,-27004
     7e0:	00005100 	call	510 <uart_puts>
     7e4:	0001883a 	nop
     7e8:	e037883a 	mov	sp,fp
     7ec:	dfc00117 	ldw	ra,4(sp)
     7f0:	df000017 	ldw	fp,0(sp)
     7f4:	dec00204 	addi	sp,sp,8
     7f8:	f800283a 	ret

000007fc <reply_run>:
static void reply_run(void) { uart_puts("RUN\r\n"); }
     7fc:	defffe04 	addi	sp,sp,-8
     800:	dfc00115 	stw	ra,4(sp)
     804:	df000015 	stw	fp,0(sp)
     808:	d839883a 	mov	fp,sp
     80c:	01000074 	movhi	r4,1
     810:	2125a304 	addi	r4,r4,-26996
     814:	00005100 	call	510 <uart_puts>
     818:	0001883a 	nop
     81c:	e037883a 	mov	sp,fp
     820:	dfc00117 	ldw	ra,4(sp)
     824:	df000017 	ldw	fp,0(sp)
     828:	dec00204 	addi	sp,sp,8
     82c:	f800283a 	ret

00000830 <reply_stop>:
static void reply_stop(void) { uart_puts("STOP\r\n"); }
     830:	defffe04 	addi	sp,sp,-8
     834:	dfc00115 	stw	ra,4(sp)
     838:	df000015 	stw	fp,0(sp)
     83c:	d839883a 	mov	fp,sp
     840:	01000074 	movhi	r4,1
     844:	2125a504 	addi	r4,r4,-26988
     848:	00005100 	call	510 <uart_puts>
     84c:	0001883a 	nop
     850:	e037883a 	mov	sp,fp
     854:	dfc00117 	ldw	ra,4(sp)
     858:	df000017 	ldw	fp,0(sp)
     85c:	dec00204 	addi	sp,sp,8
     860:	f800283a 	ret

00000864 <reply_err>:
static void reply_err(void) { uart_puts("ERR\r\n"); }
     864:	defffe04 	addi	sp,sp,-8
     868:	dfc00115 	stw	ra,4(sp)
     86c:	df000015 	stw	fp,0(sp)
     870:	d839883a 	mov	fp,sp
     874:	01000074 	movhi	r4,1
     878:	2125a704 	addi	r4,r4,-26980
     87c:	00005100 	call	510 <uart_puts>
     880:	0001883a 	nop
     884:	e037883a 	mov	sp,fp
     888:	dfc00117 	ldw	ra,4(sp)
     88c:	df000017 	ldw	fp,0(sp)
     890:	dec00204 	addi	sp,sp,8
     894:	f800283a 	ret

00000898 <reply_unknown>:
static void reply_unknown(void) { uart_puts("UNKNOWN\r\n"); }
     898:	defffe04 	addi	sp,sp,-8
     89c:	dfc00115 	stw	ra,4(sp)
     8a0:	df000015 	stw	fp,0(sp)
     8a4:	d839883a 	mov	fp,sp
     8a8:	01000074 	movhi	r4,1
     8ac:	2125a904 	addi	r4,r4,-26972
     8b0:	00005100 	call	510 <uart_puts>
     8b4:	0001883a 	nop
     8b8:	e037883a 	mov	sp,fp
     8bc:	dfc00117 	ldw	ra,4(sp)
     8c0:	df000017 	ldw	fp,0(sp)
     8c4:	dec00204 	addi	sp,sp,8
     8c8:	f800283a 	ret

000008cc <clear_char_buffer>:

static void clear_char_buffer(void)
{
     8cc:	defffb04 	addi	sp,sp,-20
     8d0:	df000415 	stw	fp,16(sp)
     8d4:	df000404 	addi	fp,sp,16
    volatile char *cb = (volatile char *)CHAR_BUF_BASE;
     8d8:	00824034 	movhi	r2,2304
     8dc:	e0bffe15 	stw	r2,-8(fp)
    for (int y = 0; y < 60; y++) {
     8e0:	e03ffc15 	stw	zero,-16(fp)
     8e4:	00001606 	br	940 <clear_char_buffer+0x74>
        int off = (y << 7);
     8e8:	e0bffc17 	ldw	r2,-16(fp)
     8ec:	100491fa 	slli	r2,r2,7
     8f0:	e0bfff15 	stw	r2,-4(fp)
        for (int x = 0; x < 128; x++) cb[off + x] = ' ';
     8f4:	e03ffd15 	stw	zero,-12(fp)
     8f8:	00000b06 	br	928 <clear_char_buffer+0x5c>
     8fc:	e0ffff17 	ldw	r3,-4(fp)
     900:	e0bffd17 	ldw	r2,-12(fp)
     904:	1885883a 	add	r2,r3,r2
     908:	1007883a 	mov	r3,r2
     90c:	e0bffe17 	ldw	r2,-8(fp)
     910:	10c5883a 	add	r2,r2,r3
     914:	00c00804 	movi	r3,32
     918:	10c00005 	stb	r3,0(r2)
     91c:	e0bffd17 	ldw	r2,-12(fp)
     920:	10800044 	addi	r2,r2,1
     924:	e0bffd15 	stw	r2,-12(fp)
     928:	e0bffd17 	ldw	r2,-12(fp)
     92c:	10802010 	cmplti	r2,r2,128
     930:	103ff21e 	bne	r2,zero,8fc <__alt_mem_VGA_Subsystem_Char_Buf_Subsystem_Onchip_SRAM+0xf70008fc>
static void reply_unknown(void) { uart_puts("UNKNOWN\r\n"); }

static void clear_char_buffer(void)
{
    volatile char *cb = (volatile char *)CHAR_BUF_BASE;
    for (int y = 0; y < 60; y++) {
     934:	e0bffc17 	ldw	r2,-16(fp)
     938:	10800044 	addi	r2,r2,1
     93c:	e0bffc15 	stw	r2,-16(fp)
     940:	e0bffc17 	ldw	r2,-16(fp)
     944:	10800f10 	cmplti	r2,r2,60
     948:	103fe71e 	bne	r2,zero,8e8 <__alt_mem_VGA_Subsystem_Char_Buf_Subsystem_Onchip_SRAM+0xf70008e8>
        int off = (y << 7);
        for (int x = 0; x < 128; x++) cb[off + x] = ' ';
    }
}
     94c:	0001883a 	nop
     950:	e037883a 	mov	sp,fp
     954:	df000017 	ldw	fp,0(sp)
     958:	dec00104 	addi	sp,sp,4
     95c:	f800283a 	ret

00000960 <video_box>:

static void video_box(int x1, int y1, int x2, int y2, uint16_t color)
{
     960:	defff304 	addi	sp,sp,-52
     964:	dfc00c15 	stw	ra,48(sp)
     968:	df000b15 	stw	fp,44(sp)
     96c:	df000b04 	addi	fp,sp,44
     970:	e13ffb15 	stw	r4,-20(fp)
     974:	e17ffc15 	stw	r5,-16(fp)
     978:	e1bffd15 	stw	r6,-12(fp)
     97c:	e1fffe15 	stw	r7,-8(fp)
     980:	e0800217 	ldw	r2,8(fp)
     984:	e0bfff0d 	sth	r2,-4(fp)
    int base = *(volatile int *)PIXEL_BUF_CTRL_BASE;
     988:	00bfc834 	movhi	r2,65312
     98c:	108c0804 	addi	r2,r2,12320
     990:	10800017 	ldw	r2,0(r2)
     994:	e0bff715 	stw	r2,-36(fp)
    int xf = 1 << (res_offset + col_offset);
     998:	d0e5e817 	ldw	r3,-26720(gp)
     99c:	d0a5e917 	ldw	r2,-26716(gp)
     9a0:	1885883a 	add	r2,r3,r2
     9a4:	00c00044 	movi	r3,1
     9a8:	1884983a 	sll	r2,r3,r2
     9ac:	e0bff815 	stw	r2,-32(fp)
    int yf = 1 << res_offset;
     9b0:	d0a5e817 	ldw	r2,-26720(gp)
     9b4:	00c00044 	movi	r3,1
     9b8:	1884983a 	sll	r2,r3,r2
     9bc:	e0bff915 	stw	r2,-28(fp)

    x1 /= xf; x2 /= xf;
     9c0:	e17ff817 	ldw	r5,-32(fp)
     9c4:	e13ffb17 	ldw	r4,-20(fp)
     9c8:	000422c0 	call	422c <__divsi3>
     9cc:	e0bffb15 	stw	r2,-20(fp)
     9d0:	e17ff817 	ldw	r5,-32(fp)
     9d4:	e13ffd17 	ldw	r4,-12(fp)
     9d8:	000422c0 	call	422c <__divsi3>
     9dc:	e0bffd15 	stw	r2,-12(fp)
    y1 /= yf; y2 /= yf;
     9e0:	e17ff917 	ldw	r5,-28(fp)
     9e4:	e13ffc17 	ldw	r4,-16(fp)
     9e8:	000422c0 	call	422c <__divsi3>
     9ec:	e0bffc15 	stw	r2,-16(fp)
     9f0:	e17ff917 	ldw	r5,-28(fp)
     9f4:	e13ffe17 	ldw	r4,-8(fp)
     9f8:	000422c0 	call	422c <__divsi3>
     9fc:	e0bffe15 	stw	r2,-8(fp)

    for (int row = y1; row <= y2; row++) {
     a00:	e0bffc17 	ldw	r2,-16(fp)
     a04:	e0bff515 	stw	r2,-44(fp)
     a08:	00001c06 	br	a7c <video_box+0x11c>
        for (int col = x1; col <= x2; col++) {
     a0c:	e0bffb17 	ldw	r2,-20(fp)
     a10:	e0bff615 	stw	r2,-40(fp)
     a14:	00001306 	br	a64 <video_box+0x104>
            int ptr = base + (row << (10 - res_offset - col_offset)) + (col << 1);
     a18:	d0a5e817 	ldw	r2,-26720(gp)
     a1c:	00c00284 	movi	r3,10
     a20:	1887c83a 	sub	r3,r3,r2
     a24:	d0a5e917 	ldw	r2,-26716(gp)
     a28:	1885c83a 	sub	r2,r3,r2
     a2c:	e0fff517 	ldw	r3,-44(fp)
     a30:	1886983a 	sll	r3,r3,r2
     a34:	e0bff717 	ldw	r2,-36(fp)
     a38:	1887883a 	add	r3,r3,r2
     a3c:	e0bff617 	ldw	r2,-40(fp)
     a40:	1085883a 	add	r2,r2,r2
     a44:	1885883a 	add	r2,r3,r2
     a48:	e0bffa15 	stw	r2,-24(fp)
            *(volatile uint16_t *)ptr = color;
     a4c:	e0bffa17 	ldw	r2,-24(fp)
     a50:	e0ffff0b 	ldhu	r3,-4(fp)
     a54:	10c0000d 	sth	r3,0(r2)

    x1 /= xf; x2 /= xf;
    y1 /= yf; y2 /= yf;

    for (int row = y1; row <= y2; row++) {
        for (int col = x1; col <= x2; col++) {
     a58:	e0bff617 	ldw	r2,-40(fp)
     a5c:	10800044 	addi	r2,r2,1
     a60:	e0bff615 	stw	r2,-40(fp)
     a64:	e0bff617 	ldw	r2,-40(fp)
     a68:	e0fffd17 	ldw	r3,-12(fp)
     a6c:	18bfea0e 	bge	r3,r2,a18 <__alt_mem_VGA_Subsystem_Char_Buf_Subsystem_Onchip_SRAM+0xf7000a18>
    int yf = 1 << res_offset;

    x1 /= xf; x2 /= xf;
    y1 /= yf; y2 /= yf;

    for (int row = y1; row <= y2; row++) {
     a70:	e0bff517 	ldw	r2,-44(fp)
     a74:	10800044 	addi	r2,r2,1
     a78:	e0bff515 	stw	r2,-44(fp)
     a7c:	e0bff517 	ldw	r2,-44(fp)
     a80:	e0fffe17 	ldw	r3,-8(fp)
     a84:	18bfe10e 	bge	r3,r2,a0c <__alt_mem_VGA_Subsystem_Char_Buf_Subsystem_Onchip_SRAM+0xf7000a0c>
        for (int col = x1; col <= x2; col++) {
            int ptr = base + (row << (10 - res_offset - col_offset)) + (col << 1);
            *(volatile uint16_t *)ptr = color;
        }
    }
}
     a88:	0001883a 	nop
     a8c:	e037883a 	mov	sp,fp
     a90:	dfc00117 	ldw	ra,4(sp)
     a94:	df000017 	ldw	fp,0(sp)
     a98:	dec00204 	addi	sp,sp,8
     a9c:	f800283a 	ret

00000aa0 <plot>:

static void plot(int x, int y, uint16_t c)
{
     aa0:	defff704 	addi	sp,sp,-36
     aa4:	dfc00815 	stw	ra,32(sp)
     aa8:	df000715 	stw	fp,28(sp)
     aac:	df000704 	addi	fp,sp,28
     ab0:	e13ffd15 	stw	r4,-12(fp)
     ab4:	e17ffe15 	stw	r5,-8(fp)
     ab8:	3005883a 	mov	r2,r6
     abc:	e0bfff0d 	sth	r2,-4(fp)
    if (x < 0 || x >= SCREEN_W || y < 0 || y >= SCREEN_H) return;
     ac0:	e0bffd17 	ldw	r2,-12(fp)
     ac4:	10002f16 	blt	r2,zero,b84 <plot+0xe4>
     ac8:	e0bffd17 	ldw	r2,-12(fp)
     acc:	10805008 	cmpgei	r2,r2,320
     ad0:	10002c1e 	bne	r2,zero,b84 <plot+0xe4>
     ad4:	e0bffe17 	ldw	r2,-8(fp)
     ad8:	10002a16 	blt	r2,zero,b84 <plot+0xe4>
     adc:	e0bffe17 	ldw	r2,-8(fp)
     ae0:	10803c10 	cmplti	r2,r2,240
     ae4:	10002726 	beq	r2,zero,b84 <plot+0xe4>

    int base = *(volatile int *)PIXEL_BUF_CTRL_BASE;
     ae8:	00bfc834 	movhi	r2,65312
     aec:	108c0804 	addi	r2,r2,12320
     af0:	10800017 	ldw	r2,0(r2)
     af4:	e0bff915 	stw	r2,-28(fp)
    int xf = 1 << (res_offset + col_offset);
     af8:	d0e5e817 	ldw	r3,-26720(gp)
     afc:	d0a5e917 	ldw	r2,-26716(gp)
     b00:	1885883a 	add	r2,r3,r2
     b04:	00c00044 	movi	r3,1
     b08:	1884983a 	sll	r2,r3,r2
     b0c:	e0bffa15 	stw	r2,-24(fp)
    int yf = 1 << res_offset;
     b10:	d0a5e817 	ldw	r2,-26720(gp)
     b14:	00c00044 	movi	r3,1
     b18:	1884983a 	sll	r2,r3,r2
     b1c:	e0bffb15 	stw	r2,-20(fp)

    x /= xf;
     b20:	e17ffa17 	ldw	r5,-24(fp)
     b24:	e13ffd17 	ldw	r4,-12(fp)
     b28:	000422c0 	call	422c <__divsi3>
     b2c:	e0bffd15 	stw	r2,-12(fp)
    y /= yf;
     b30:	e17ffb17 	ldw	r5,-20(fp)
     b34:	e13ffe17 	ldw	r4,-8(fp)
     b38:	000422c0 	call	422c <__divsi3>
     b3c:	e0bffe15 	stw	r2,-8(fp)

    int ptr = base + (y << (10 - res_offset - col_offset)) + (x << 1);
     b40:	d0a5e817 	ldw	r2,-26720(gp)
     b44:	00c00284 	movi	r3,10
     b48:	1887c83a 	sub	r3,r3,r2
     b4c:	d0a5e917 	ldw	r2,-26716(gp)
     b50:	1885c83a 	sub	r2,r3,r2
     b54:	e0fffe17 	ldw	r3,-8(fp)
     b58:	1886983a 	sll	r3,r3,r2
     b5c:	e0bff917 	ldw	r2,-28(fp)
     b60:	1887883a 	add	r3,r3,r2
     b64:	e0bffd17 	ldw	r2,-12(fp)
     b68:	1085883a 	add	r2,r2,r2
     b6c:	1885883a 	add	r2,r3,r2
     b70:	e0bffc15 	stw	r2,-16(fp)
    *(volatile uint16_t *)ptr = c;
     b74:	e0bffc17 	ldw	r2,-16(fp)
     b78:	e0ffff0b 	ldhu	r3,-4(fp)
     b7c:	10c0000d 	sth	r3,0(r2)
     b80:	00000106 	br	b88 <plot+0xe8>
    }
}

static void plot(int x, int y, uint16_t c)
{
    if (x < 0 || x >= SCREEN_W || y < 0 || y >= SCREEN_H) return;
     b84:	0001883a 	nop
    x /= xf;
    y /= yf;

    int ptr = base + (y << (10 - res_offset - col_offset)) + (x << 1);
    *(volatile uint16_t *)ptr = c;
}
     b88:	e037883a 	mov	sp,fp
     b8c:	dfc00117 	ldw	ra,4(sp)
     b90:	df000017 	ldw	fp,0(sp)
     b94:	dec00204 	addi	sp,sp,8
     b98:	f800283a 	ret

00000b9c <draw_line>:

static void draw_line(int x0, int y0, int x1, int y1, uint16_t c)
{
     b9c:	defff304 	addi	sp,sp,-52
     ba0:	dfc00c15 	stw	ra,48(sp)
     ba4:	df000b15 	stw	fp,44(sp)
     ba8:	df000b04 	addi	fp,sp,44
     bac:	e13ffb15 	stw	r4,-20(fp)
     bb0:	e17ffc15 	stw	r5,-16(fp)
     bb4:	e1bffd15 	stw	r6,-12(fp)
     bb8:	e1fffe15 	stw	r7,-8(fp)
     bbc:	e0800217 	ldw	r2,8(fp)
     bc0:	e0bfff0d 	sth	r2,-4(fp)
    int dx = (x1 > x0) ? (x1 - x0) : (x0 - x1);
     bc4:	e0bffd17 	ldw	r2,-12(fp)
     bc8:	e0fffb17 	ldw	r3,-20(fp)
     bcc:	1880040e 	bge	r3,r2,be0 <draw_line+0x44>
     bd0:	e0fffd17 	ldw	r3,-12(fp)
     bd4:	e0bffb17 	ldw	r2,-20(fp)
     bd8:	1885c83a 	sub	r2,r3,r2
     bdc:	00000306 	br	bec <draw_line+0x50>
     be0:	e0fffb17 	ldw	r3,-20(fp)
     be4:	e0bffd17 	ldw	r2,-12(fp)
     be8:	1885c83a 	sub	r2,r3,r2
     bec:	e0bff615 	stw	r2,-40(fp)
    int sx = (x0 < x1) ? 1 : -1;
     bf0:	e0fffb17 	ldw	r3,-20(fp)
     bf4:	e0bffd17 	ldw	r2,-12(fp)
     bf8:	1880020e 	bge	r3,r2,c04 <draw_line+0x68>
     bfc:	00800044 	movi	r2,1
     c00:	00000106 	br	c08 <draw_line+0x6c>
     c04:	00bfffc4 	movi	r2,-1
     c08:	e0bff715 	stw	r2,-36(fp)
    int dy = (y1 > y0) ? -(y1 - y0) : -(y0 - y1);
     c0c:	e0bffe17 	ldw	r2,-8(fp)
     c10:	e0fffc17 	ldw	r3,-16(fp)
     c14:	1880040e 	bge	r3,r2,c28 <draw_line+0x8c>
     c18:	e0fffc17 	ldw	r3,-16(fp)
     c1c:	e0bffe17 	ldw	r2,-8(fp)
     c20:	1885c83a 	sub	r2,r3,r2
     c24:	00000306 	br	c34 <draw_line+0x98>
     c28:	e0fffe17 	ldw	r3,-8(fp)
     c2c:	e0bffc17 	ldw	r2,-16(fp)
     c30:	1885c83a 	sub	r2,r3,r2
     c34:	e0bff815 	stw	r2,-32(fp)
    int sy = (y0 < y1) ? 1 : -1;
     c38:	e0fffc17 	ldw	r3,-16(fp)
     c3c:	e0bffe17 	ldw	r2,-8(fp)
     c40:	1880020e 	bge	r3,r2,c4c <draw_line+0xb0>
     c44:	00800044 	movi	r2,1
     c48:	00000106 	br	c50 <draw_line+0xb4>
     c4c:	00bfffc4 	movi	r2,-1
     c50:	e0bff915 	stw	r2,-28(fp)
    int err = dx + dy;
     c54:	e0fff617 	ldw	r3,-40(fp)
     c58:	e0bff817 	ldw	r2,-32(fp)
     c5c:	1885883a 	add	r2,r3,r2
     c60:	e0bff515 	stw	r2,-44(fp)

    for (;;) {
        plot(x0, y0, c);
     c64:	e0bfff0b 	ldhu	r2,-4(fp)
     c68:	100d883a 	mov	r6,r2
     c6c:	e17ffc17 	ldw	r5,-16(fp)
     c70:	e13ffb17 	ldw	r4,-20(fp)
     c74:	0000aa00 	call	aa0 <plot>
        if (x0 == x1 && y0 == y1) break;
     c78:	e0fffb17 	ldw	r3,-20(fp)
     c7c:	e0bffd17 	ldw	r2,-12(fp)
     c80:	1880031e 	bne	r3,r2,c90 <draw_line+0xf4>
     c84:	e0fffc17 	ldw	r3,-16(fp)
     c88:	e0bffe17 	ldw	r2,-8(fp)
     c8c:	18801a26 	beq	r3,r2,cf8 <draw_line+0x15c>
        int e2 = err << 1;
     c90:	e0bff517 	ldw	r2,-44(fp)
     c94:	1085883a 	add	r2,r2,r2
     c98:	e0bffa15 	stw	r2,-24(fp)
        if (e2 >= dy) { err += dy; x0 += sx; }
     c9c:	e0fffa17 	ldw	r3,-24(fp)
     ca0:	e0bff817 	ldw	r2,-32(fp)
     ca4:	18800816 	blt	r3,r2,cc8 <draw_line+0x12c>
     ca8:	e0fff517 	ldw	r3,-44(fp)
     cac:	e0bff817 	ldw	r2,-32(fp)
     cb0:	1885883a 	add	r2,r3,r2
     cb4:	e0bff515 	stw	r2,-44(fp)
     cb8:	e0fffb17 	ldw	r3,-20(fp)
     cbc:	e0bff717 	ldw	r2,-36(fp)
     cc0:	1885883a 	add	r2,r3,r2
     cc4:	e0bffb15 	stw	r2,-20(fp)
        if (e2 <= dx) { err += dx; y0 += sy; }
     cc8:	e0bffa17 	ldw	r2,-24(fp)
     ccc:	e0fff617 	ldw	r3,-40(fp)
     cd0:	18bfe416 	blt	r3,r2,c64 <__alt_mem_VGA_Subsystem_Char_Buf_Subsystem_Onchip_SRAM+0xf7000c64>
     cd4:	e0fff517 	ldw	r3,-44(fp)
     cd8:	e0bff617 	ldw	r2,-40(fp)
     cdc:	1885883a 	add	r2,r3,r2
     ce0:	e0bff515 	stw	r2,-44(fp)
     ce4:	e0fffc17 	ldw	r3,-16(fp)
     ce8:	e0bff917 	ldw	r2,-28(fp)
     cec:	1885883a 	add	r2,r3,r2
     cf0:	e0bffc15 	stw	r2,-16(fp)
    }
     cf4:	003fdb06 	br	c64 <__alt_mem_VGA_Subsystem_Char_Buf_Subsystem_Onchip_SRAM+0xf7000c64>
    int sy = (y0 < y1) ? 1 : -1;
    int err = dx + dy;

    for (;;) {
        plot(x0, y0, c);
        if (x0 == x1 && y0 == y1) break;
     cf8:	0001883a 	nop
        int e2 = err << 1;
        if (e2 >= dy) { err += dy; x0 += sx; }
        if (e2 <= dx) { err += dx; y0 += sy; }
    }
}
     cfc:	0001883a 	nop
     d00:	e037883a 	mov	sp,fp
     d04:	dfc00117 	ldw	ra,4(sp)
     d08:	df000017 	ldw	fp,0(sp)
     d0c:	dec00204 	addi	sp,sp,8
     d10:	f800283a 	ret

00000d14 <draw_arc_cm>:

static void draw_arc_cm(int cm, uint16_t c)
{
     d14:	defff304 	addi	sp,sp,-52
     d18:	dfc00c15 	stw	ra,48(sp)
     d1c:	df000b15 	stw	fp,44(sp)
     d20:	dc800a15 	stw	r18,40(sp)
     d24:	dc400915 	stw	r17,36(sp)
     d28:	dc000815 	stw	r16,32(sp)
     d2c:	df000b04 	addi	fp,sp,44
     d30:	e13ffb15 	stw	r4,-20(fp)
     d34:	2805883a 	mov	r2,r5
     d38:	e0bffc0d 	sth	r2,-16(fp)
    int r = cm_to_px(cm);
     d3c:	e13ffb17 	ldw	r4,-20(fp)
     d40:	00004180 	call	418 <cm_to_px>
     d44:	e0bff615 	stw	r2,-40(fp)
    for (int a = 0; a <= 180; a += 2) {
     d48:	e03ff515 	stw	zero,-44(fp)
     d4c:	00005106 	br	e94 <draw_arc_cm+0x180>
        double rad = (double)a * PI / 180.0;
     d50:	e13ff517 	ldw	r4,-44(fp)
     d54:	00069d00 	call	69d0 <__floatsidf>
     d58:	1011883a 	mov	r8,r2
     d5c:	1813883a 	mov	r9,r3
     d60:	01980034 	movhi	r6,24576
     d64:	01d00274 	movhi	r7,16393
     d68:	39c87ec4 	addi	r7,r7,8699
     d6c:	4009883a 	mov	r4,r8
     d70:	480b883a 	mov	r5,r9
     d74:	00057e80 	call	57e8 <__muldf3>
     d78:	1009883a 	mov	r4,r2
     d7c:	180b883a 	mov	r5,r3
     d80:	2005883a 	mov	r2,r4
     d84:	2807883a 	mov	r3,r5
     d88:	000d883a 	mov	r6,zero
     d8c:	01d019f4 	movhi	r7,16487
     d90:	39e00004 	addi	r7,r7,-32768
     d94:	1009883a 	mov	r4,r2
     d98:	180b883a 	mov	r5,r3
     d9c:	0004cb40 	call	4cb4 <__divdf3>
     da0:	1009883a 	mov	r4,r2
     da4:	180b883a 	mov	r5,r3
     da8:	e13ff715 	stw	r4,-36(fp)
     dac:	e17ff815 	stw	r5,-32(fp)
        int x = cx + (int)(cos(rad) * r);
     db0:	e13ff717 	ldw	r4,-36(fp)
     db4:	e17ff817 	ldw	r5,-32(fp)
     db8:	00020240 	call	2024 <cos>
     dbc:	1021883a 	mov	r16,r2
     dc0:	1823883a 	mov	r17,r3
     dc4:	e13ff617 	ldw	r4,-40(fp)
     dc8:	00069d00 	call	69d0 <__floatsidf>
     dcc:	1009883a 	mov	r4,r2
     dd0:	180b883a 	mov	r5,r3
     dd4:	200d883a 	mov	r6,r4
     dd8:	280f883a 	mov	r7,r5
     ddc:	8009883a 	mov	r4,r16
     de0:	880b883a 	mov	r5,r17
     de4:	00057e80 	call	57e8 <__muldf3>
     de8:	1009883a 	mov	r4,r2
     dec:	180b883a 	mov	r5,r3
     df0:	2005883a 	mov	r2,r4
     df4:	2807883a 	mov	r3,r5
     df8:	1009883a 	mov	r4,r2
     dfc:	180b883a 	mov	r5,r3
     e00:	00069500 	call	6950 <__fixdfsi>
     e04:	1007883a 	mov	r3,r2
     e08:	d0a5ea17 	ldw	r2,-26712(gp)
     e0c:	1885883a 	add	r2,r3,r2
     e10:	e0bff915 	stw	r2,-28(fp)
        int y = cy - (int)(sin(rad) * r);
     e14:	d4a5eb17 	ldw	r18,-26708(gp)
     e18:	e13ff717 	ldw	r4,-36(fp)
     e1c:	e17ff817 	ldw	r5,-32(fp)
     e20:	00021100 	call	2110 <sin>
     e24:	1021883a 	mov	r16,r2
     e28:	1823883a 	mov	r17,r3
     e2c:	e13ff617 	ldw	r4,-40(fp)
     e30:	00069d00 	call	69d0 <__floatsidf>
     e34:	1009883a 	mov	r4,r2
     e38:	180b883a 	mov	r5,r3
     e3c:	200d883a 	mov	r6,r4
     e40:	280f883a 	mov	r7,r5
     e44:	8009883a 	mov	r4,r16
     e48:	880b883a 	mov	r5,r17
     e4c:	00057e80 	call	57e8 <__muldf3>
     e50:	1009883a 	mov	r4,r2
     e54:	180b883a 	mov	r5,r3
     e58:	2005883a 	mov	r2,r4
     e5c:	2807883a 	mov	r3,r5
     e60:	1009883a 	mov	r4,r2
     e64:	180b883a 	mov	r5,r3
     e68:	00069500 	call	6950 <__fixdfsi>
     e6c:	9085c83a 	sub	r2,r18,r2
     e70:	e0bffa15 	stw	r2,-24(fp)
        plot(x, y, c);
     e74:	e0bffc0b 	ldhu	r2,-16(fp)
     e78:	100d883a 	mov	r6,r2
     e7c:	e17ffa17 	ldw	r5,-24(fp)
     e80:	e13ff917 	ldw	r4,-28(fp)
     e84:	0000aa00 	call	aa0 <plot>
}

static void draw_arc_cm(int cm, uint16_t c)
{
    int r = cm_to_px(cm);
    for (int a = 0; a <= 180; a += 2) {
     e88:	e0bff517 	ldw	r2,-44(fp)
     e8c:	10800084 	addi	r2,r2,2
     e90:	e0bff515 	stw	r2,-44(fp)
     e94:	e0bff517 	ldw	r2,-44(fp)
     e98:	10802d50 	cmplti	r2,r2,181
     e9c:	103fac1e 	bne	r2,zero,d50 <__alt_mem_VGA_Subsystem_Char_Buf_Subsystem_Onchip_SRAM+0xf7000d50>
        double rad = (double)a * PI / 180.0;
        int x = cx + (int)(cos(rad) * r);
        int y = cy - (int)(sin(rad) * r);
        plot(x, y, c);
    }
}
     ea0:	0001883a 	nop
     ea4:	e6fffd04 	addi	sp,fp,-12
     ea8:	dfc00417 	ldw	ra,16(sp)
     eac:	df000317 	ldw	fp,12(sp)
     eb0:	dc800217 	ldw	r18,8(sp)
     eb4:	dc400117 	ldw	r17,4(sp)
     eb8:	dc000017 	ldw	r16,0(sp)
     ebc:	dec00504 	addi	sp,sp,20
     ec0:	f800283a 	ret

00000ec4 <draw_static>:

static void draw_static(void)
{
     ec4:	defff904 	addi	sp,sp,-28
     ec8:	dfc00615 	stw	ra,24(sp)
     ecc:	df000515 	stw	fp,20(sp)
     ed0:	df000504 	addi	fp,sp,20
    video_box(0, 0, SCREEN_W - 1, SCREEN_H - 1, BLACK);
     ed4:	d8000015 	stw	zero,0(sp)
     ed8:	01c03bc4 	movi	r7,239
     edc:	01804fc4 	movi	r6,319
     ee0:	000b883a 	mov	r5,zero
     ee4:	0009883a 	mov	r4,zero
     ee8:	00009600 	call	960 <video_box>
    clear_char_buffer();
     eec:	00008cc0 	call	8cc <clear_char_buffer>

    int m = (int)dist_max_cm;
     ef0:	d0a00217 	ldw	r2,-32760(gp)
     ef4:	e0bffd15 	stw	r2,-12(fp)
    int a1 = (m * 1) / 4;
     ef8:	e0bffd17 	ldw	r2,-12(fp)
     efc:	1000010e 	bge	r2,zero,f04 <draw_static+0x40>
     f00:	108000c4 	addi	r2,r2,3
     f04:	1005d0ba 	srai	r2,r2,2
     f08:	e0bffc15 	stw	r2,-16(fp)
    int a2 = (m * 2) / 4;
     f0c:	e0bffd17 	ldw	r2,-12(fp)
     f10:	1085883a 	add	r2,r2,r2
     f14:	1000010e 	bge	r2,zero,f1c <draw_static+0x58>
     f18:	108000c4 	addi	r2,r2,3
     f1c:	1005d0ba 	srai	r2,r2,2
     f20:	e0bffe15 	stw	r2,-8(fp)
    int a3 = (m * 3) / 4;
     f24:	e0fffd17 	ldw	r3,-12(fp)
     f28:	1805883a 	mov	r2,r3
     f2c:	1085883a 	add	r2,r2,r2
     f30:	10c5883a 	add	r2,r2,r3
     f34:	1000010e 	bge	r2,zero,f3c <draw_static+0x78>
     f38:	108000c4 	addi	r2,r2,3
     f3c:	1005d0ba 	srai	r2,r2,2
     f40:	e0bfff15 	stw	r2,-4(fp)
    if (a1 < 1) a1 = 1;
     f44:	e0bffc17 	ldw	r2,-16(fp)
     f48:	00800216 	blt	zero,r2,f54 <draw_static+0x90>
     f4c:	00800044 	movi	r2,1
     f50:	e0bffc15 	stw	r2,-16(fp)

    draw_arc_cm(m, WHITE);
     f54:	017fffd4 	movui	r5,65535
     f58:	e13ffd17 	ldw	r4,-12(fp)
     f5c:	0000d140 	call	d14 <draw_arc_cm>
    draw_arc_cm(a3, GRAY);
     f60:	01610414 	movui	r5,33808
     f64:	e13fff17 	ldw	r4,-4(fp)
     f68:	0000d140 	call	d14 <draw_arc_cm>
    draw_arc_cm(a2, GRAY);
     f6c:	01610414 	movui	r5,33808
     f70:	e13ffe17 	ldw	r4,-8(fp)
     f74:	0000d140 	call	d14 <draw_arc_cm>
    draw_arc_cm(a1, GRAY);
     f78:	01610414 	movui	r5,33808
     f7c:	e13ffc17 	ldw	r4,-16(fp)
     f80:	0000d140 	call	d14 <draw_arc_cm>

    draw_line(0, cy, SCREEN_W - 1, cy, BLUE);
     f84:	d0e5eb17 	ldw	r3,-26708(gp)
     f88:	d125eb17 	ldw	r4,-26708(gp)
     f8c:	008007c4 	movi	r2,31
     f90:	d8800015 	stw	r2,0(sp)
     f94:	200f883a 	mov	r7,r4
     f98:	01804fc4 	movi	r6,319
     f9c:	180b883a 	mov	r5,r3
     fa0:	0009883a 	mov	r4,zero
     fa4:	0000b9c0 	call	b9c <draw_line>
    draw_line(cx, 0, cx, SCREEN_H - 1, BLUE);
     fa8:	d0e5ea17 	ldw	r3,-26712(gp)
     fac:	d125ea17 	ldw	r4,-26712(gp)
     fb0:	008007c4 	movi	r2,31
     fb4:	d8800015 	stw	r2,0(sp)
     fb8:	01c03bc4 	movi	r7,239
     fbc:	200d883a 	mov	r6,r4
     fc0:	000b883a 	mov	r5,zero
     fc4:	1809883a 	mov	r4,r3
     fc8:	0000b9c0 	call	b9c <draw_line>
}
     fcc:	0001883a 	nop
     fd0:	e037883a 	mov	sp,fp
     fd4:	dfc00117 	ldw	ra,4(sp)
     fd8:	df000017 	ldw	fp,0(sp)
     fdc:	dec00204 	addi	sp,sp,8
     fe0:	f800283a 	ret

00000fe4 <print_help>:

static void print_help(void)
{
     fe4:	defffe04 	addi	sp,sp,-8
     fe8:	dfc00115 	stw	ra,4(sp)
     fec:	df000015 	stw	fp,0(sp)
     ff0:	d839883a 	mov	fp,sp
    uart_puts("HELP\r\n");
     ff4:	01000074 	movhi	r4,1
     ff8:	2125ac04 	addi	r4,r4,-26960
     ffc:	00005100 	call	510 <uart_puts>
    uart_puts("  HELP\r\n");
    1000:	01000074 	movhi	r4,1
    1004:	2125ae04 	addi	r4,r4,-26952
    1008:	00005100 	call	510 <uart_puts>
    uart_puts("  P\r\n");
    100c:	01000074 	movhi	r4,1
    1010:	2125b104 	addi	r4,r4,-26940
    1014:	00005100 	call	510 <uart_puts>
    uart_puts("  R <min_deg> <max_deg>\r\n");
    1018:	01000074 	movhi	r4,1
    101c:	2125b304 	addi	r4,r4,-26932
    1020:	00005100 	call	510 <uart_puts>
    uart_puts("  S <step_deg>\r\n");
    1024:	01000074 	movhi	r4,1
    1028:	2125ba04 	addi	r4,r4,-26904
    102c:	00005100 	call	510 <uart_puts>
    uart_puts("  D <max_cm>\r\n");
    1030:	01000074 	movhi	r4,1
    1034:	2125bf04 	addi	r4,r4,-26884
    1038:	00005100 	call	510 <uart_puts>
    uart_puts("  RUN\r\n");
    103c:	01000074 	movhi	r4,1
    1040:	2125c304 	addi	r4,r4,-26868
    1044:	00005100 	call	510 <uart_puts>
    uart_puts("  (stop: toggle SW0)\r\n");
    1048:	01000074 	movhi	r4,1
    104c:	2125c504 	addi	r4,r4,-26860
    1050:	00005100 	call	510 <uart_puts>
}
    1054:	0001883a 	nop
    1058:	e037883a 	mov	sp,fp
    105c:	dfc00117 	ldw	ra,4(sp)
    1060:	df000017 	ldw	fp,0(sp)
    1064:	dec00204 	addi	sp,sp,8
    1068:	f800283a 	ret

0000106c <print_params>:

static void print_params(void)
{
    106c:	defffe04 	addi	sp,sp,-8
    1070:	dfc00115 	stw	ra,4(sp)
    1074:	df000015 	stw	fp,0(sp)
    1078:	d839883a 	mov	fp,sp
    uart_puts("R ");
    107c:	01000074 	movhi	r4,1
    1080:	2125cb04 	addi	r4,r4,-26836
    1084:	00005100 	call	510 <uart_puts>
    uart_put_u32(angle_min);
    1088:	d0a5ed17 	ldw	r2,-26700(gp)
    108c:	1009883a 	mov	r4,r2
    1090:	00005d40 	call	5d4 <uart_put_u32>
    uart_putchar(' ');
    1094:	01000804 	movi	r4,32
    1098:	00004bc0 	call	4bc <uart_putchar>
    uart_put_u32(angle_max);
    109c:	d0a00017 	ldw	r2,-32768(gp)
    10a0:	1009883a 	mov	r4,r2
    10a4:	00005d40 	call	5d4 <uart_put_u32>
    uart_puts("  S ");
    10a8:	01000074 	movhi	r4,1
    10ac:	2125cc04 	addi	r4,r4,-26832
    10b0:	00005100 	call	510 <uart_puts>
    uart_put_u32(step_deg);
    10b4:	d0a00117 	ldw	r2,-32764(gp)
    10b8:	1009883a 	mov	r4,r2
    10bc:	00005d40 	call	5d4 <uart_put_u32>
    uart_puts("  D ");
    10c0:	01000074 	movhi	r4,1
    10c4:	2125ce04 	addi	r4,r4,-26824
    10c8:	00005100 	call	510 <uart_puts>
    uart_put_u32(dist_max_cm);
    10cc:	d0a00217 	ldw	r2,-32760(gp)
    10d0:	1009883a 	mov	r4,r2
    10d4:	00005d40 	call	5d4 <uart_put_u32>
    uart_puts("\r\n");
    10d8:	01000074 	movhi	r4,1
    10dc:	2125d004 	addi	r4,r4,-26816
    10e0:	00005100 	call	510 <uart_puts>
}
    10e4:	0001883a 	nop
    10e8:	e037883a 	mov	sp,fp
    10ec:	dfc00117 	ldw	ra,4(sp)
    10f0:	df000017 	ldw	fp,0(sp)
    10f4:	dec00204 	addi	sp,sp,8
    10f8:	f800283a 	ret

000010fc <skip_spaces>:

static void skip_spaces(char **pp)
{
    10fc:	defffd04 	addi	sp,sp,-12
    1100:	dfc00215 	stw	ra,8(sp)
    1104:	df000115 	stw	fp,4(sp)
    1108:	df000104 	addi	fp,sp,4
    110c:	e13fff15 	stw	r4,-4(fp)
    while (**pp && is_space(**pp)) (*pp)++;
    1110:	00000506 	br	1128 <skip_spaces+0x2c>
    1114:	e0bfff17 	ldw	r2,-4(fp)
    1118:	10800017 	ldw	r2,0(r2)
    111c:	10c00044 	addi	r3,r2,1
    1120:	e0bfff17 	ldw	r2,-4(fp)
    1124:	10c00015 	stw	r3,0(r2)
    1128:	e0bfff17 	ldw	r2,-4(fp)
    112c:	10800017 	ldw	r2,0(r2)
    1130:	10800003 	ldbu	r2,0(r2)
    1134:	10803fcc 	andi	r2,r2,255
    1138:	1080201c 	xori	r2,r2,128
    113c:	10bfe004 	addi	r2,r2,-128
    1140:	10000926 	beq	r2,zero,1168 <skip_spaces+0x6c>
    1144:	e0bfff17 	ldw	r2,-4(fp)
    1148:	10800017 	ldw	r2,0(r2)
    114c:	10800003 	ldbu	r2,0(r2)
    1150:	10803fcc 	andi	r2,r2,255
    1154:	1080201c 	xori	r2,r2,128
    1158:	10bfe004 	addi	r2,r2,-128
    115c:	1009883a 	mov	r4,r2
    1160:	00006ac0 	call	6ac <is_space>
    1164:	103feb1e 	bne	r2,zero,1114 <__alt_mem_VGA_Subsystem_Char_Buf_Subsystem_Onchip_SRAM+0xf7001114>
}
    1168:	0001883a 	nop
    116c:	e037883a 	mov	sp,fp
    1170:	dfc00117 	ldw	ra,4(sp)
    1174:	df000017 	ldw	fp,0(sp)
    1178:	dec00204 	addi	sp,sp,8
    117c:	f800283a 	ret

00001180 <parse_u32_adv>:

static uint32_t parse_u32_adv(char **pp, int *ok)
{
    1180:	defffa04 	addi	sp,sp,-24
    1184:	dfc00515 	stw	ra,20(sp)
    1188:	df000415 	stw	fp,16(sp)
    118c:	df000404 	addi	fp,sp,16
    1190:	e13ffe15 	stw	r4,-8(fp)
    1194:	e17fff15 	stw	r5,-4(fp)
    uint32_t v = 0;
    1198:	e03ffc15 	stw	zero,-16(fp)
    int any = 0;
    119c:	e03ffd15 	stw	zero,-12(fp)

    skip_spaces(pp);
    11a0:	e13ffe17 	ldw	r4,-8(fp)
    11a4:	00010fc0 	call	10fc <skip_spaces>

    while (**pp >= '0' && **pp <= '9') {
    11a8:	00001406 	br	11fc <parse_u32_adv+0x7c>
        any = 1;
    11ac:	00800044 	movi	r2,1
    11b0:	e0bffd15 	stw	r2,-12(fp)
        v = (uint32_t)(v * 10u + (uint32_t)(**pp - '0'));
    11b4:	01400284 	movi	r5,10
    11b8:	e13ffc17 	ldw	r4,-16(fp)
    11bc:	00043e00 	call	43e0 <__mulsi3>
    11c0:	1007883a 	mov	r3,r2
    11c4:	e0bffe17 	ldw	r2,-8(fp)
    11c8:	10800017 	ldw	r2,0(r2)
    11cc:	10800003 	ldbu	r2,0(r2)
    11d0:	10803fcc 	andi	r2,r2,255
    11d4:	1080201c 	xori	r2,r2,128
    11d8:	10bfe004 	addi	r2,r2,-128
    11dc:	1885883a 	add	r2,r3,r2
    11e0:	10bff404 	addi	r2,r2,-48
    11e4:	e0bffc15 	stw	r2,-16(fp)
        (*pp)++;
    11e8:	e0bffe17 	ldw	r2,-8(fp)
    11ec:	10800017 	ldw	r2,0(r2)
    11f0:	10c00044 	addi	r3,r2,1
    11f4:	e0bffe17 	ldw	r2,-8(fp)
    11f8:	10c00015 	stw	r3,0(r2)
    uint32_t v = 0;
    int any = 0;

    skip_spaces(pp);

    while (**pp >= '0' && **pp <= '9') {
    11fc:	e0bffe17 	ldw	r2,-8(fp)
    1200:	10800017 	ldw	r2,0(r2)
    1204:	10800003 	ldbu	r2,0(r2)
    1208:	10803fcc 	andi	r2,r2,255
    120c:	1080201c 	xori	r2,r2,128
    1210:	10bfe004 	addi	r2,r2,-128
    1214:	10800c10 	cmplti	r2,r2,48
    1218:	1000081e 	bne	r2,zero,123c <parse_u32_adv+0xbc>
    121c:	e0bffe17 	ldw	r2,-8(fp)
    1220:	10800017 	ldw	r2,0(r2)
    1224:	10800003 	ldbu	r2,0(r2)
    1228:	10803fcc 	andi	r2,r2,255
    122c:	1080201c 	xori	r2,r2,128
    1230:	10bfe004 	addi	r2,r2,-128
    1234:	10800e90 	cmplti	r2,r2,58
    1238:	103fdc1e 	bne	r2,zero,11ac <__alt_mem_VGA_Subsystem_Char_Buf_Subsystem_Onchip_SRAM+0xf70011ac>
        any = 1;
        v = (uint32_t)(v * 10u + (uint32_t)(**pp - '0'));
        (*pp)++;
    }

    *ok = any;
    123c:	e0bfff17 	ldw	r2,-4(fp)
    1240:	e0fffd17 	ldw	r3,-12(fp)
    1244:	10c00015 	stw	r3,0(r2)
    return v;
    1248:	e0bffc17 	ldw	r2,-16(fp)
}
    124c:	e037883a 	mov	sp,fp
    1250:	dfc00117 	ldw	ra,4(sp)
    1254:	df000017 	ldw	fp,0(sp)
    1258:	dec00204 	addi	sp,sp,8
    125c:	f800283a 	ret

00001260 <is_run_cmd>:

static int is_run_cmd(const char *ln)
{
    1260:	defffc04 	addi	sp,sp,-16
    1264:	dfc00315 	stw	ra,12(sp)
    1268:	df000215 	stw	fp,8(sp)
    126c:	df000204 	addi	fp,sp,8
    1270:	e13fff15 	stw	r4,-4(fp)
    const char *p = ln;
    1274:	e0bfff17 	ldw	r2,-4(fp)
    1278:	e0bffe15 	stw	r2,-8(fp)
    while (*p && is_space(*p)) p++;
    127c:	00000306 	br	128c <is_run_cmd+0x2c>
    1280:	e0bffe17 	ldw	r2,-8(fp)
    1284:	10800044 	addi	r2,r2,1
    1288:	e0bffe15 	stw	r2,-8(fp)
    128c:	e0bffe17 	ldw	r2,-8(fp)
    1290:	10800003 	ldbu	r2,0(r2)
    1294:	10803fcc 	andi	r2,r2,255
    1298:	1080201c 	xori	r2,r2,128
    129c:	10bfe004 	addi	r2,r2,-128
    12a0:	10000826 	beq	r2,zero,12c4 <is_run_cmd+0x64>
    12a4:	e0bffe17 	ldw	r2,-8(fp)
    12a8:	10800003 	ldbu	r2,0(r2)
    12ac:	10803fcc 	andi	r2,r2,255
    12b0:	1080201c 	xori	r2,r2,128
    12b4:	10bfe004 	addi	r2,r2,-128
    12b8:	1009883a 	mov	r4,r2
    12bc:	00006ac0 	call	6ac <is_space>
    12c0:	103fef1e 	bne	r2,zero,1280 <__alt_mem_VGA_Subsystem_Char_Buf_Subsystem_Onchip_SRAM+0xf7001280>
    if (up(p[0]) != 'R') return 0;
    12c4:	e0bffe17 	ldw	r2,-8(fp)
    12c8:	10800003 	ldbu	r2,0(r2)
    12cc:	10803fcc 	andi	r2,r2,255
    12d0:	1080201c 	xori	r2,r2,128
    12d4:	10bfe004 	addi	r2,r2,-128
    12d8:	1009883a 	mov	r4,r2
    12dc:	000070c0 	call	70c <up>
    12e0:	10803fcc 	andi	r2,r2,255
    12e4:	1080201c 	xori	r2,r2,128
    12e8:	10bfe004 	addi	r2,r2,-128
    12ec:	108014a0 	cmpeqi	r2,r2,82
    12f0:	1000021e 	bne	r2,zero,12fc <is_run_cmd+0x9c>
    12f4:	0005883a 	mov	r2,zero
    12f8:	00003106 	br	13c0 <is_run_cmd+0x160>
    if (up(p[1]) != 'U') return 0;
    12fc:	e0bffe17 	ldw	r2,-8(fp)
    1300:	10800044 	addi	r2,r2,1
    1304:	10800003 	ldbu	r2,0(r2)
    1308:	10803fcc 	andi	r2,r2,255
    130c:	1080201c 	xori	r2,r2,128
    1310:	10bfe004 	addi	r2,r2,-128
    1314:	1009883a 	mov	r4,r2
    1318:	000070c0 	call	70c <up>
    131c:	10803fcc 	andi	r2,r2,255
    1320:	1080201c 	xori	r2,r2,128
    1324:	10bfe004 	addi	r2,r2,-128
    1328:	10801560 	cmpeqi	r2,r2,85
    132c:	1000021e 	bne	r2,zero,1338 <is_run_cmd+0xd8>
    1330:	0005883a 	mov	r2,zero
    1334:	00002206 	br	13c0 <is_run_cmd+0x160>
    if (up(p[2]) != 'N') return 0;
    1338:	e0bffe17 	ldw	r2,-8(fp)
    133c:	10800084 	addi	r2,r2,2
    1340:	10800003 	ldbu	r2,0(r2)
    1344:	10803fcc 	andi	r2,r2,255
    1348:	1080201c 	xori	r2,r2,128
    134c:	10bfe004 	addi	r2,r2,-128
    1350:	1009883a 	mov	r4,r2
    1354:	000070c0 	call	70c <up>
    1358:	10803fcc 	andi	r2,r2,255
    135c:	1080201c 	xori	r2,r2,128
    1360:	10bfe004 	addi	r2,r2,-128
    1364:	108013a0 	cmpeqi	r2,r2,78
    1368:	1000021e 	bne	r2,zero,1374 <is_run_cmd+0x114>
    136c:	0005883a 	mov	r2,zero
    1370:	00001306 	br	13c0 <is_run_cmd+0x160>
    if (p[3] != '\0' && !is_space(p[3])) return 0;
    1374:	e0bffe17 	ldw	r2,-8(fp)
    1378:	108000c4 	addi	r2,r2,3
    137c:	10800003 	ldbu	r2,0(r2)
    1380:	10803fcc 	andi	r2,r2,255
    1384:	1080201c 	xori	r2,r2,128
    1388:	10bfe004 	addi	r2,r2,-128
    138c:	10000b26 	beq	r2,zero,13bc <is_run_cmd+0x15c>
    1390:	e0bffe17 	ldw	r2,-8(fp)
    1394:	108000c4 	addi	r2,r2,3
    1398:	10800003 	ldbu	r2,0(r2)
    139c:	10803fcc 	andi	r2,r2,255
    13a0:	1080201c 	xori	r2,r2,128
    13a4:	10bfe004 	addi	r2,r2,-128
    13a8:	1009883a 	mov	r4,r2
    13ac:	00006ac0 	call	6ac <is_space>
    13b0:	1000021e 	bne	r2,zero,13bc <is_run_cmd+0x15c>
    13b4:	0005883a 	mov	r2,zero
    13b8:	00000106 	br	13c0 <is_run_cmd+0x160>
    return 1;
    13bc:	00800044 	movi	r2,1
}
    13c0:	e037883a 	mov	sp,fp
    13c4:	dfc00117 	ldw	ra,4(sp)
    13c8:	df000017 	ldw	fp,0(sp)
    13cc:	dec00204 	addi	sp,sp,8
    13d0:	f800283a 	ret

000013d4 <is_help_cmd>:

static int is_help_cmd(const char *ln)
{
    13d4:	defffc04 	addi	sp,sp,-16
    13d8:	dfc00315 	stw	ra,12(sp)
    13dc:	df000215 	stw	fp,8(sp)
    13e0:	df000204 	addi	fp,sp,8
    13e4:	e13fff15 	stw	r4,-4(fp)
    const char *p = ln;
    13e8:	e0bfff17 	ldw	r2,-4(fp)
    13ec:	e0bffe15 	stw	r2,-8(fp)
    while (*p && is_space(*p)) p++;
    13f0:	00000306 	br	1400 <is_help_cmd+0x2c>
    13f4:	e0bffe17 	ldw	r2,-8(fp)
    13f8:	10800044 	addi	r2,r2,1
    13fc:	e0bffe15 	stw	r2,-8(fp)
    1400:	e0bffe17 	ldw	r2,-8(fp)
    1404:	10800003 	ldbu	r2,0(r2)
    1408:	10803fcc 	andi	r2,r2,255
    140c:	1080201c 	xori	r2,r2,128
    1410:	10bfe004 	addi	r2,r2,-128
    1414:	10000826 	beq	r2,zero,1438 <is_help_cmd+0x64>
    1418:	e0bffe17 	ldw	r2,-8(fp)
    141c:	10800003 	ldbu	r2,0(r2)
    1420:	10803fcc 	andi	r2,r2,255
    1424:	1080201c 	xori	r2,r2,128
    1428:	10bfe004 	addi	r2,r2,-128
    142c:	1009883a 	mov	r4,r2
    1430:	00006ac0 	call	6ac <is_space>
    1434:	103fef1e 	bne	r2,zero,13f4 <__alt_mem_VGA_Subsystem_Char_Buf_Subsystem_Onchip_SRAM+0xf70013f4>
    return (up(p[0]) == 'H' && up(p[1]) == 'E' && up(p[2]) == 'L' && up(p[3]) == 'P' &&
    1438:	e0bffe17 	ldw	r2,-8(fp)
    143c:	10800003 	ldbu	r2,0(r2)
    1440:	10803fcc 	andi	r2,r2,255
    1444:	1080201c 	xori	r2,r2,128
    1448:	10bfe004 	addi	r2,r2,-128
    144c:	1009883a 	mov	r4,r2
    1450:	000070c0 	call	70c <up>
    1454:	10803fcc 	andi	r2,r2,255
    1458:	1080201c 	xori	r2,r2,128
    145c:	10bfe004 	addi	r2,r2,-128
    1460:	10801218 	cmpnei	r2,r2,72
    1464:	1000391e 	bne	r2,zero,154c <is_help_cmd+0x178>
    1468:	e0bffe17 	ldw	r2,-8(fp)
    146c:	10800044 	addi	r2,r2,1
    1470:	10800003 	ldbu	r2,0(r2)
    1474:	10803fcc 	andi	r2,r2,255
    1478:	1080201c 	xori	r2,r2,128
    147c:	10bfe004 	addi	r2,r2,-128
    1480:	1009883a 	mov	r4,r2
    1484:	000070c0 	call	70c <up>
    1488:	10803fcc 	andi	r2,r2,255
    148c:	1080201c 	xori	r2,r2,128
    1490:	10bfe004 	addi	r2,r2,-128
    1494:	10801158 	cmpnei	r2,r2,69
    1498:	10002c1e 	bne	r2,zero,154c <is_help_cmd+0x178>
    149c:	e0bffe17 	ldw	r2,-8(fp)
    14a0:	10800084 	addi	r2,r2,2
    14a4:	10800003 	ldbu	r2,0(r2)
    14a8:	10803fcc 	andi	r2,r2,255
    14ac:	1080201c 	xori	r2,r2,128
    14b0:	10bfe004 	addi	r2,r2,-128
    14b4:	1009883a 	mov	r4,r2
    14b8:	000070c0 	call	70c <up>
    14bc:	10803fcc 	andi	r2,r2,255
    14c0:	1080201c 	xori	r2,r2,128
    14c4:	10bfe004 	addi	r2,r2,-128
    14c8:	10801318 	cmpnei	r2,r2,76
    14cc:	10001f1e 	bne	r2,zero,154c <is_help_cmd+0x178>
    14d0:	e0bffe17 	ldw	r2,-8(fp)
    14d4:	108000c4 	addi	r2,r2,3
    14d8:	10800003 	ldbu	r2,0(r2)
    14dc:	10803fcc 	andi	r2,r2,255
    14e0:	1080201c 	xori	r2,r2,128
    14e4:	10bfe004 	addi	r2,r2,-128
    14e8:	1009883a 	mov	r4,r2
    14ec:	000070c0 	call	70c <up>
    14f0:	10803fcc 	andi	r2,r2,255
    14f4:	1080201c 	xori	r2,r2,128
    14f8:	10bfe004 	addi	r2,r2,-128
    14fc:	10801418 	cmpnei	r2,r2,80
    1500:	1000121e 	bne	r2,zero,154c <is_help_cmd+0x178>
            (p[4] == '\0' || is_space(p[4])));
    1504:	e0bffe17 	ldw	r2,-8(fp)
    1508:	10800104 	addi	r2,r2,4
    150c:	10800003 	ldbu	r2,0(r2)

static int is_help_cmd(const char *ln)
{
    const char *p = ln;
    while (*p && is_space(*p)) p++;
    return (up(p[0]) == 'H' && up(p[1]) == 'E' && up(p[2]) == 'L' && up(p[3]) == 'P' &&
    1510:	10803fcc 	andi	r2,r2,255
    1514:	1080201c 	xori	r2,r2,128
    1518:	10bfe004 	addi	r2,r2,-128
    151c:	10000926 	beq	r2,zero,1544 <is_help_cmd+0x170>
            (p[4] == '\0' || is_space(p[4])));
    1520:	e0bffe17 	ldw	r2,-8(fp)
    1524:	10800104 	addi	r2,r2,4
    1528:	10800003 	ldbu	r2,0(r2)
    152c:	10803fcc 	andi	r2,r2,255
    1530:	1080201c 	xori	r2,r2,128
    1534:	10bfe004 	addi	r2,r2,-128
    1538:	1009883a 	mov	r4,r2
    153c:	00006ac0 	call	6ac <is_space>
    1540:	10000226 	beq	r2,zero,154c <is_help_cmd+0x178>

static int is_help_cmd(const char *ln)
{
    const char *p = ln;
    while (*p && is_space(*p)) p++;
    return (up(p[0]) == 'H' && up(p[1]) == 'E' && up(p[2]) == 'L' && up(p[3]) == 'P' &&
    1544:	00800044 	movi	r2,1
    1548:	00000106 	br	1550 <is_help_cmd+0x17c>
    154c:	0005883a 	mov	r2,zero
            (p[4] == '\0' || is_space(p[4])));
}
    1550:	e037883a 	mov	sp,fp
    1554:	dfc00117 	ldw	ra,4(sp)
    1558:	df000017 	ldw	fp,0(sp)
    155c:	dec00204 	addi	sp,sp,8
    1560:	f800283a 	ret

00001564 <is_p_cmd>:

static int is_p_cmd(const char *ln)
{
    1564:	defffc04 	addi	sp,sp,-16
    1568:	dfc00315 	stw	ra,12(sp)
    156c:	df000215 	stw	fp,8(sp)
    1570:	df000204 	addi	fp,sp,8
    1574:	e13fff15 	stw	r4,-4(fp)
    const char *p = ln;
    1578:	e0bfff17 	ldw	r2,-4(fp)
    157c:	e0bffe15 	stw	r2,-8(fp)
    while (*p && is_space(*p)) p++;
    1580:	00000306 	br	1590 <is_p_cmd+0x2c>
    1584:	e0bffe17 	ldw	r2,-8(fp)
    1588:	10800044 	addi	r2,r2,1
    158c:	e0bffe15 	stw	r2,-8(fp)
    1590:	e0bffe17 	ldw	r2,-8(fp)
    1594:	10800003 	ldbu	r2,0(r2)
    1598:	10803fcc 	andi	r2,r2,255
    159c:	1080201c 	xori	r2,r2,128
    15a0:	10bfe004 	addi	r2,r2,-128
    15a4:	10000826 	beq	r2,zero,15c8 <is_p_cmd+0x64>
    15a8:	e0bffe17 	ldw	r2,-8(fp)
    15ac:	10800003 	ldbu	r2,0(r2)
    15b0:	10803fcc 	andi	r2,r2,255
    15b4:	1080201c 	xori	r2,r2,128
    15b8:	10bfe004 	addi	r2,r2,-128
    15bc:	1009883a 	mov	r4,r2
    15c0:	00006ac0 	call	6ac <is_space>
    15c4:	103fef1e 	bne	r2,zero,1584 <__alt_mem_VGA_Subsystem_Char_Buf_Subsystem_Onchip_SRAM+0xf7001584>
    return (up(p[0]) == 'P' && (p[1] == '\0' || is_space(p[1])));
    15c8:	e0bffe17 	ldw	r2,-8(fp)
    15cc:	10800003 	ldbu	r2,0(r2)
    15d0:	10803fcc 	andi	r2,r2,255
    15d4:	1080201c 	xori	r2,r2,128
    15d8:	10bfe004 	addi	r2,r2,-128
    15dc:	1009883a 	mov	r4,r2
    15e0:	000070c0 	call	70c <up>
    15e4:	10803fcc 	andi	r2,r2,255
    15e8:	1080201c 	xori	r2,r2,128
    15ec:	10bfe004 	addi	r2,r2,-128
    15f0:	10801418 	cmpnei	r2,r2,80
    15f4:	1000121e 	bne	r2,zero,1640 <is_p_cmd+0xdc>
    15f8:	e0bffe17 	ldw	r2,-8(fp)
    15fc:	10800044 	addi	r2,r2,1
    1600:	10800003 	ldbu	r2,0(r2)
    1604:	10803fcc 	andi	r2,r2,255
    1608:	1080201c 	xori	r2,r2,128
    160c:	10bfe004 	addi	r2,r2,-128
    1610:	10000926 	beq	r2,zero,1638 <is_p_cmd+0xd4>
    1614:	e0bffe17 	ldw	r2,-8(fp)
    1618:	10800044 	addi	r2,r2,1
    161c:	10800003 	ldbu	r2,0(r2)
    1620:	10803fcc 	andi	r2,r2,255
    1624:	1080201c 	xori	r2,r2,128
    1628:	10bfe004 	addi	r2,r2,-128
    162c:	1009883a 	mov	r4,r2
    1630:	00006ac0 	call	6ac <is_space>
    1634:	10000226 	beq	r2,zero,1640 <is_p_cmd+0xdc>
    1638:	00800044 	movi	r2,1
    163c:	00000106 	br	1644 <is_p_cmd+0xe0>
    1640:	0005883a 	mov	r2,zero
}
    1644:	e037883a 	mov	sp,fp
    1648:	dfc00117 	ldw	ra,4(sp)
    164c:	df000017 	ldw	fp,0(sp)
    1650:	dec00204 	addi	sp,sp,8
    1654:	f800283a 	ret

00001658 <handle_cmd_line>:

static void handle_cmd_line(char *ln)
{
    1658:	defff204 	addi	sp,sp,-56
    165c:	dfc00d15 	stw	ra,52(sp)
    1660:	df000c15 	stw	fp,48(sp)
    1664:	df000c04 	addi	fp,sp,48
    1668:	e13fff15 	stw	r4,-4(fp)
    char *p = ln;
    166c:	e0bfff17 	ldw	r2,-4(fp)
    1670:	e0bffa15 	stw	r2,-24(fp)
    while (*p && is_space(*p)) p++;
    1674:	00000306 	br	1684 <handle_cmd_line+0x2c>
    1678:	e0bffa17 	ldw	r2,-24(fp)
    167c:	10800044 	addi	r2,r2,1
    1680:	e0bffa15 	stw	r2,-24(fp)
    1684:	e0bffa17 	ldw	r2,-24(fp)
    1688:	10800003 	ldbu	r2,0(r2)
    168c:	10803fcc 	andi	r2,r2,255
    1690:	1080201c 	xori	r2,r2,128
    1694:	10bfe004 	addi	r2,r2,-128
    1698:	10000826 	beq	r2,zero,16bc <handle_cmd_line+0x64>
    169c:	e0bffa17 	ldw	r2,-24(fp)
    16a0:	10800003 	ldbu	r2,0(r2)
    16a4:	10803fcc 	andi	r2,r2,255
    16a8:	1080201c 	xori	r2,r2,128
    16ac:	10bfe004 	addi	r2,r2,-128
    16b0:	1009883a 	mov	r4,r2
    16b4:	00006ac0 	call	6ac <is_space>
    16b8:	103fef1e 	bne	r2,zero,1678 <__alt_mem_VGA_Subsystem_Char_Buf_Subsystem_Onchip_SRAM+0xf7001678>
    if (*p == '\0') return;
    16bc:	e0bffa17 	ldw	r2,-24(fp)
    16c0:	10800003 	ldbu	r2,0(r2)
    16c4:	10803fcc 	andi	r2,r2,255
    16c8:	1080201c 	xori	r2,r2,128
    16cc:	10bfe004 	addi	r2,r2,-128
    16d0:	10008726 	beq	r2,zero,18f0 <handle_cmd_line+0x298>

    char cmd0 = up(*p);
    16d4:	e0bffa17 	ldw	r2,-24(fp)
    16d8:	10800003 	ldbu	r2,0(r2)
    16dc:	10803fcc 	andi	r2,r2,255
    16e0:	1080201c 	xori	r2,r2,128
    16e4:	10bfe004 	addi	r2,r2,-128
    16e8:	1009883a 	mov	r4,r2
    16ec:	000070c0 	call	70c <up>
    16f0:	e0bff605 	stb	r2,-40(fp)

    if (cmd0 == 'H') {
    16f4:	e0bff607 	ldb	r2,-40(fp)
    16f8:	10801218 	cmpnei	r2,r2,72
    16fc:	1000081e 	bne	r2,zero,1720 <handle_cmd_line+0xc8>
        if (is_help_cmd(p)) { print_help(); return; }
    1700:	e0bffa17 	ldw	r2,-24(fp)
    1704:	1009883a 	mov	r4,r2
    1708:	00013d40 	call	13d4 <is_help_cmd>
    170c:	10000226 	beq	r2,zero,1718 <handle_cmd_line+0xc0>
    1710:	0000fe40 	call	fe4 <print_help>
    1714:	00007706 	br	18f4 <handle_cmd_line+0x29c>
        reply_unknown();
    1718:	00008980 	call	898 <reply_unknown>
        return;
    171c:	00007506 	br	18f4 <handle_cmd_line+0x29c>
    }

    if (cmd0 == 'P') {
    1720:	e0bff607 	ldb	r2,-40(fp)
    1724:	10801418 	cmpnei	r2,r2,80
    1728:	1000081e 	bne	r2,zero,174c <handle_cmd_line+0xf4>
        if (is_p_cmd(p)) { print_params(); return; }
    172c:	e0bffa17 	ldw	r2,-24(fp)
    1730:	1009883a 	mov	r4,r2
    1734:	00015640 	call	1564 <is_p_cmd>
    1738:	10000226 	beq	r2,zero,1744 <handle_cmd_line+0xec>
    173c:	000106c0 	call	106c <print_params>
    1740:	00006c06 	br	18f4 <handle_cmd_line+0x29c>
        reply_unknown();
    1744:	00008980 	call	898 <reply_unknown>
        return;
    1748:	00006a06 	br	18f4 <handle_cmd_line+0x29c>
    }

    if (cmd0 == 'R') {
    174c:	e0bff607 	ldb	r2,-40(fp)
    1750:	10801498 	cmpnei	r2,r2,82
    1754:	1000311e 	bne	r2,zero,181c <handle_cmd_line+0x1c4>
        p++;
    1758:	e0bffa17 	ldw	r2,-24(fp)
    175c:	10800044 	addi	r2,r2,1
    1760:	e0bffa15 	stw	r2,-24(fp)
        int ok1 = 0, ok2 = 0;
    1764:	e03ffb15 	stw	zero,-20(fp)
    1768:	e03ffc15 	stw	zero,-16(fp)
        uint32_t a = parse_u32_adv(&p, &ok1);
    176c:	e0fffb04 	addi	r3,fp,-20
    1770:	e0bffa04 	addi	r2,fp,-24
    1774:	180b883a 	mov	r5,r3
    1778:	1009883a 	mov	r4,r2
    177c:	00011800 	call	1180 <parse_u32_adv>
    1780:	e0bff415 	stw	r2,-48(fp)
        uint32_t b = parse_u32_adv(&p, &ok2);
    1784:	e0fffc04 	addi	r3,fp,-16
    1788:	e0bffa04 	addi	r2,fp,-24
    178c:	180b883a 	mov	r5,r3
    1790:	1009883a 	mov	r4,r2
    1794:	00011800 	call	1180 <parse_u32_adv>
    1798:	e0bff515 	stw	r2,-44(fp)
        if (!(ok1 && ok2)) { reply_err(); return; }
    179c:	e0bffb17 	ldw	r2,-20(fp)
    17a0:	10000226 	beq	r2,zero,17ac <handle_cmd_line+0x154>
    17a4:	e0bffc17 	ldw	r2,-16(fp)
    17a8:	1000021e 	bne	r2,zero,17b4 <handle_cmd_line+0x15c>
    17ac:	00008640 	call	864 <reply_err>
    17b0:	00005006 	br	18f4 <handle_cmd_line+0x29c>
        a = clamp_u32(a, 0u, 180u);
    17b4:	01802d04 	movi	r6,180
    17b8:	000b883a 	mov	r5,zero
    17bc:	e13ff417 	ldw	r4,-48(fp)
    17c0:	00003700 	call	370 <clamp_u32>
    17c4:	e0bff415 	stw	r2,-48(fp)
        b = clamp_u32(b, 0u, 180u);
    17c8:	01802d04 	movi	r6,180
    17cc:	000b883a 	mov	r5,zero
    17d0:	e13ff517 	ldw	r4,-44(fp)
    17d4:	00003700 	call	370 <clamp_u32>
    17d8:	e0bff515 	stw	r2,-44(fp)
        if (a > b) { uint32_t t = a; a = b; b = t; }
    17dc:	e0bff417 	ldw	r2,-48(fp)
    17e0:	e0fff517 	ldw	r3,-44(fp)
    17e4:	1880062e 	bgeu	r3,r2,1800 <handle_cmd_line+0x1a8>
    17e8:	e0bff417 	ldw	r2,-48(fp)
    17ec:	e0bff915 	stw	r2,-28(fp)
    17f0:	e0bff517 	ldw	r2,-44(fp)
    17f4:	e0bff415 	stw	r2,-48(fp)
    17f8:	e0bff917 	ldw	r2,-28(fp)
    17fc:	e0bff515 	stw	r2,-44(fp)
        angle_min = a;
    1800:	e0bff417 	ldw	r2,-48(fp)
    1804:	d0a5ed15 	stw	r2,-26700(gp)
        angle_max = b;
    1808:	e0bff517 	ldw	r2,-44(fp)
    180c:	d0a00015 	stw	r2,-32768(gp)
        reply_ok();
    1810:	00007c80 	call	7c8 <reply_ok>
        return;
    1814:	0001883a 	nop
    1818:	00003606 	br	18f4 <handle_cmd_line+0x29c>
    }

    if (cmd0 == 'S') {
    181c:	e0bff607 	ldb	r2,-40(fp)
    1820:	108014d8 	cmpnei	r2,r2,83
    1824:	1000161e 	bne	r2,zero,1880 <handle_cmd_line+0x228>
        p++;
    1828:	e0bffa17 	ldw	r2,-24(fp)
    182c:	10800044 	addi	r2,r2,1
    1830:	e0bffa15 	stw	r2,-24(fp)
        int ok1 = 0;
    1834:	e03ffd15 	stw	zero,-12(fp)
        uint32_t s = parse_u32_adv(&p, &ok1);
    1838:	e0fffd04 	addi	r3,fp,-12
    183c:	e0bffa04 	addi	r2,fp,-24
    1840:	180b883a 	mov	r5,r3
    1844:	1009883a 	mov	r4,r2
    1848:	00011800 	call	1180 <parse_u32_adv>
    184c:	e0bff815 	stw	r2,-32(fp)
        if (!ok1) { reply_err(); return; }
    1850:	e0bffd17 	ldw	r2,-12(fp)
    1854:	1000021e 	bne	r2,zero,1860 <handle_cmd_line+0x208>
    1858:	00008640 	call	864 <reply_err>
    185c:	00002506 	br	18f4 <handle_cmd_line+0x29c>
        step_deg = clamp_u32(s, 1u, 30u);
    1860:	01800784 	movi	r6,30
    1864:	01400044 	movi	r5,1
    1868:	e13ff817 	ldw	r4,-32(fp)
    186c:	00003700 	call	370 <clamp_u32>
    1870:	d0a00115 	stw	r2,-32764(gp)
        reply_ok();
    1874:	00007c80 	call	7c8 <reply_ok>
        return;
    1878:	0001883a 	nop
    187c:	00001d06 	br	18f4 <handle_cmd_line+0x29c>
    }

    if (cmd0 == 'D') {
    1880:	e0bff607 	ldb	r2,-40(fp)
    1884:	10801118 	cmpnei	r2,r2,68
    1888:	1000171e 	bne	r2,zero,18e8 <handle_cmd_line+0x290>
        p++;
    188c:	e0bffa17 	ldw	r2,-24(fp)
    1890:	10800044 	addi	r2,r2,1
    1894:	e0bffa15 	stw	r2,-24(fp)
        int ok1 = 0;
    1898:	e03ffe15 	stw	zero,-8(fp)
        uint32_t d = parse_u32_adv(&p, &ok1);
    189c:	e0fffe04 	addi	r3,fp,-8
    18a0:	e0bffa04 	addi	r2,fp,-24
    18a4:	180b883a 	mov	r5,r3
    18a8:	1009883a 	mov	r4,r2
    18ac:	00011800 	call	1180 <parse_u32_adv>
    18b0:	e0bff715 	stw	r2,-36(fp)
        if (!ok1) { reply_err(); return; }
    18b4:	e0bffe17 	ldw	r2,-8(fp)
    18b8:	1000021e 	bne	r2,zero,18c4 <handle_cmd_line+0x26c>
    18bc:	00008640 	call	864 <reply_err>
    18c0:	00000c06 	br	18f4 <handle_cmd_line+0x29c>
        dist_max_cm = clamp_u32(d, 1u, 200u);
    18c4:	01803204 	movi	r6,200
    18c8:	01400044 	movi	r5,1
    18cc:	e13ff717 	ldw	r4,-36(fp)
    18d0:	00003700 	call	370 <clamp_u32>
    18d4:	d0a00215 	stw	r2,-32760(gp)
        draw_static();
    18d8:	0000ec40 	call	ec4 <draw_static>
        reply_ok();
    18dc:	00007c80 	call	7c8 <reply_ok>
        return;
    18e0:	0001883a 	nop
    18e4:	00000306 	br	18f4 <handle_cmd_line+0x29c>
    }

    reply_unknown();
    18e8:	00008980 	call	898 <reply_unknown>
    18ec:	00000106 	br	18f4 <handle_cmd_line+0x29c>

static void handle_cmd_line(char *ln)
{
    char *p = ln;
    while (*p && is_space(*p)) p++;
    if (*p == '\0') return;
    18f0:	0001883a 	nop
        reply_ok();
        return;
    }

    reply_unknown();
}
    18f4:	e037883a 	mov	sp,fp
    18f8:	dfc00117 	ldw	ra,4(sp)
    18fc:	df000017 	ldw	fp,0(sp)
    1900:	dec00204 	addi	sp,sp,8
    1904:	f800283a 	ret

00001908 <cmd_wait_and_process>:

static void cmd_wait_and_process(void)
{
    1908:	defffb04 	addi	sp,sp,-20
    190c:	dfc00415 	stw	ra,16(sp)
    1910:	df000315 	stw	fp,12(sp)
    1914:	df000304 	addi	fp,sp,12
    static char ln[64];
    int i = 0;
    1918:	e03ffd15 	stw	zero,-12(fp)

    for (;;) {
        char c = uart_getchar_blocking();
    191c:	000057c0 	call	57c <uart_getchar_blocking>
    1920:	e0bffe05 	stb	r2,-8(fp)

        if (c == '\r' || c == '\n') {
    1924:	e0bffe07 	ldb	r2,-8(fp)
    1928:	10800360 	cmpeqi	r2,r2,13
    192c:	1000031e 	bne	r2,zero,193c <cmd_wait_and_process+0x34>
    1930:	e0bffe07 	ldb	r2,-8(fp)
    1934:	10800298 	cmpnei	r2,r2,10
    1938:	1000191e 	bne	r2,zero,19a0 <cmd_wait_and_process+0x98>
            ln[i] = '\0';
    193c:	00800074 	movhi	r2,1
    1940:	10b27504 	addi	r2,r2,-13868
    1944:	e0fffd17 	ldw	r3,-12(fp)
    1948:	10c5883a 	add	r2,r2,r3
    194c:	10000005 	stb	zero,0(r2)

            if (is_run_cmd(ln)) {
    1950:	01000074 	movhi	r4,1
    1954:	21327504 	addi	r4,r4,-13868
    1958:	00012600 	call	1260 <is_run_cmd>
    195c:	10000b26 	beq	r2,zero,198c <cmd_wait_and_process+0x84>
                int start_level = sw0_level();
    1960:	00007580 	call	758 <sw0_level>
    1964:	e0bfff15 	stw	r2,-4(fp)
                stop_level_sw0 = start_level ? 0 : 1;
    1968:	e0bfff17 	ldw	r2,-4(fp)
    196c:	1005003a 	cmpeq	r2,r2,zero
    1970:	10803fcc 	andi	r2,r2,255
    1974:	d0a00315 	stw	r2,-32756(gp)
                draw_static();
    1978:	0000ec40 	call	ec4 <draw_static>
                state = STATE_RUN;
    197c:	00800044 	movi	r2,1
    1980:	d0a5ee15 	stw	r2,-26696(gp)
                reply_run();
    1984:	00007fc0 	call	7fc <reply_run>
                return;
    1988:	00001106 	br	19d0 <cmd_wait_and_process+0xc8>
            }

            handle_cmd_line(ln);
    198c:	01000074 	movhi	r4,1
    1990:	21327504 	addi	r4,r4,-13868
    1994:	00016580 	call	1658 <handle_cmd_line>
            i = 0;
    1998:	e03ffd15 	stw	zero,-12(fp)
    199c:	00000b06 	br	19cc <cmd_wait_and_process+0xc4>
        } else {
            if (i < (int)sizeof(ln) - 1) ln[i++] = c;
    19a0:	e0bffd17 	ldw	r2,-12(fp)
    19a4:	10800fc8 	cmpgei	r2,r2,63
    19a8:	103fdc1e 	bne	r2,zero,191c <__alt_mem_VGA_Subsystem_Char_Buf_Subsystem_Onchip_SRAM+0xf700191c>
    19ac:	e0fffd17 	ldw	r3,-12(fp)
    19b0:	18800044 	addi	r2,r3,1
    19b4:	e0bffd15 	stw	r2,-12(fp)
    19b8:	00800074 	movhi	r2,1
    19bc:	10b27504 	addi	r2,r2,-13868
    19c0:	10c5883a 	add	r2,r2,r3
    19c4:	e0fffe03 	ldbu	r3,-8(fp)
    19c8:	10c00005 	stb	r3,0(r2)
        }
    }
    19cc:	003fd306 	br	191c <__alt_mem_VGA_Subsystem_Char_Buf_Subsystem_Onchip_SRAM+0xf700191c>
}
    19d0:	e037883a 	mov	sp,fp
    19d4:	dfc00117 	ldw	ra,4(sp)
    19d8:	df000017 	ldw	fp,0(sp)
    19dc:	dec00204 	addi	sp,sp,8
    19e0:	f800283a 	ret

000019e4 <init_hex_displays_zero>:

static void init_hex_displays_zero(void)
{
    19e4:	defffd04 	addi	sp,sp,-12
    19e8:	dfc00215 	stw	ra,8(sp)
    19ec:	df000115 	stw	fp,4(sp)
    19f0:	df000104 	addi	fp,sp,4
    uint32_t z = seg7(0);
    19f4:	0009883a 	mov	r4,zero
    19f8:	000026c0 	call	26c <seg7>
    19fc:	10803fcc 	andi	r2,r2,255
    1a00:	e0bfff15 	stw	r2,-4(fp)
    IOWR_32DIRECT(HEX3_HEX0_BASE, 0,
    1a04:	e0bfff17 	ldw	r2,-4(fp)
    1a08:	1006923a 	slli	r3,r2,8
    1a0c:	e0bfff17 	ldw	r2,-4(fp)
    1a10:	1886b03a 	or	r3,r3,r2
    1a14:	e0bfff17 	ldw	r2,-4(fp)
    1a18:	1004943a 	slli	r2,r2,16
    1a1c:	1886b03a 	or	r3,r3,r2
    1a20:	e0bfff17 	ldw	r2,-4(fp)
    1a24:	1004963a 	slli	r2,r2,24
    1a28:	1884b03a 	or	r2,r3,r2
    1a2c:	1007883a 	mov	r3,r2
    1a30:	00bfc834 	movhi	r2,65312
    1a34:	10800804 	addi	r2,r2,32
    1a38:	10c00035 	stwio	r3,0(r2)
        (z << 0) | (z << 8) | (z << 16) | (z << 24));
    IOWR_32DIRECT(HEX5_HEX4_BASE, 0,
    1a3c:	e0bfff17 	ldw	r2,-4(fp)
    1a40:	1006923a 	slli	r3,r2,8
    1a44:	e0bfff17 	ldw	r2,-4(fp)
    1a48:	1884b03a 	or	r2,r3,r2
    1a4c:	1007883a 	mov	r3,r2
    1a50:	00bfc834 	movhi	r2,65312
    1a54:	10800c04 	addi	r2,r2,48
    1a58:	10c00035 	stwio	r3,0(r2)
        (z << 0) | (z << 8));
}
    1a5c:	0001883a 	nop
    1a60:	e037883a 	mov	sp,fp
    1a64:	dfc00117 	ldw	ra,4(sp)
    1a68:	df000017 	ldw	fp,0(sp)
    1a6c:	dec00204 	addi	sp,sp,8
    1a70:	f800283a 	ret

00001a74 <run_step>:

static void run_step(uint32_t *angle, int *dir)
{
    1a74:	deffed04 	addi	sp,sp,-76
    1a78:	dfc01215 	stw	ra,72(sp)
    1a7c:	df001115 	stw	fp,68(sp)
    1a80:	dc801015 	stw	r18,64(sp)
    1a84:	dc400f15 	stw	r17,60(sp)
    1a88:	dc000e15 	stw	r16,56(sp)
    1a8c:	df001104 	addi	fp,sp,68
    1a90:	e13ffb15 	stw	r4,-20(fp)
    1a94:	e17ffc15 	stw	r5,-16(fp)
    if (*angle < angle_min) *angle = angle_min;
    1a98:	e0bffb17 	ldw	r2,-20(fp)
    1a9c:	10c00017 	ldw	r3,0(r2)
    1aa0:	d0a5ed17 	ldw	r2,-26700(gp)
    1aa4:	1880032e 	bgeu	r3,r2,1ab4 <run_step+0x40>
    1aa8:	d0e5ed17 	ldw	r3,-26700(gp)
    1aac:	e0bffb17 	ldw	r2,-20(fp)
    1ab0:	10c00015 	stw	r3,0(r2)
    if (*angle > angle_max) *angle = angle_max;
    1ab4:	e0bffb17 	ldw	r2,-20(fp)
    1ab8:	10800017 	ldw	r2,0(r2)
    1abc:	d0e00017 	ldw	r3,-32768(gp)
    1ac0:	1880032e 	bgeu	r3,r2,1ad0 <run_step+0x5c>
    1ac4:	d0e00017 	ldw	r3,-32768(gp)
    1ac8:	e0bffb17 	ldw	r2,-20(fp)
    1acc:	10c00015 	stw	r3,0(r2)

    IOWR_32DIRECT(SERVOMOTEUR_0_BASE, 0, pos_from_angle(*angle));
    1ad0:	e0bffb17 	ldw	r2,-20(fp)
    1ad4:	10800017 	ldw	r2,0(r2)
    1ad8:	1009883a 	mov	r4,r2
    1adc:	00003c40 	call	3c4 <pos_from_angle>
    1ae0:	1007883a 	mov	r3,r2
    1ae4:	00810034 	movhi	r2,1024
    1ae8:	10800104 	addi	r2,r2,4
    1aec:	10c00035 	stwio	r3,0(r2)
    usleep(60000);
    1af0:	013a9814 	movui	r4,60000
    1af4:	0006d200 	call	6d20 <usleep>

    uint32_t raw = IORD_32DIRECT(TELEMETRE_0_BASE, 0);
    1af8:	00810034 	movhi	r2,1024
    1afc:	10800204 	addi	r2,r2,8
    1b00:	10800037 	ldwio	r2,0(r2)
    1b04:	e0bff115 	stw	r2,-60(fp)
    uint32_t dist = raw & 0x3FFu;
    1b08:	e0bff117 	ldw	r2,-60(fp)
    1b0c:	1080ffcc 	andi	r2,r2,1023
    1b10:	e0bff015 	stw	r2,-64(fp)
    if (dist > dist_max_cm) dist = dist_max_cm;
    1b14:	d0e00217 	ldw	r3,-32760(gp)
    1b18:	e0bff017 	ldw	r2,-64(fp)
    1b1c:	1880022e 	bgeu	r3,r2,1b28 <run_step+0xb4>
    1b20:	d0a00217 	ldw	r2,-32760(gp)
    1b24:	e0bff015 	stw	r2,-64(fp)

    double rad = (double)(*angle) * PI / 180.0;
    1b28:	e0bffb17 	ldw	r2,-20(fp)
    1b2c:	10800017 	ldw	r2,0(r2)
    1b30:	1009883a 	mov	r4,r2
    1b34:	0006aac0 	call	6aac <__floatunsidf>
    1b38:	1011883a 	mov	r8,r2
    1b3c:	1813883a 	mov	r9,r3
    1b40:	01980034 	movhi	r6,24576
    1b44:	01d00274 	movhi	r7,16393
    1b48:	39c87ec4 	addi	r7,r7,8699
    1b4c:	4009883a 	mov	r4,r8
    1b50:	480b883a 	mov	r5,r9
    1b54:	00057e80 	call	57e8 <__muldf3>
    1b58:	1009883a 	mov	r4,r2
    1b5c:	180b883a 	mov	r5,r3
    1b60:	2005883a 	mov	r2,r4
    1b64:	2807883a 	mov	r3,r5
    1b68:	000d883a 	mov	r6,zero
    1b6c:	01d019f4 	movhi	r7,16487
    1b70:	39e00004 	addi	r7,r7,-32768
    1b74:	1009883a 	mov	r4,r2
    1b78:	180b883a 	mov	r5,r3
    1b7c:	0004cb40 	call	4cb4 <__divdf3>
    1b80:	1009883a 	mov	r4,r2
    1b84:	180b883a 	mov	r5,r3
    1b88:	e13ff215 	stw	r4,-56(fp)
    1b8c:	e17ff315 	stw	r5,-52(fp)
    int r_obj = cm_to_px((int)dist);
    1b90:	e0bff017 	ldw	r2,-64(fp)
    1b94:	1009883a 	mov	r4,r2
    1b98:	00004180 	call	418 <cm_to_px>
    1b9c:	e0bff415 	stw	r2,-48(fp)

    int x_obj = cx + (int)(cos(rad) * r_obj);
    1ba0:	e13ff217 	ldw	r4,-56(fp)
    1ba4:	e17ff317 	ldw	r5,-52(fp)
    1ba8:	00020240 	call	2024 <cos>
    1bac:	1021883a 	mov	r16,r2
    1bb0:	1823883a 	mov	r17,r3
    1bb4:	e13ff417 	ldw	r4,-48(fp)
    1bb8:	00069d00 	call	69d0 <__floatsidf>
    1bbc:	1009883a 	mov	r4,r2
    1bc0:	180b883a 	mov	r5,r3
    1bc4:	200d883a 	mov	r6,r4
    1bc8:	280f883a 	mov	r7,r5
    1bcc:	8009883a 	mov	r4,r16
    1bd0:	880b883a 	mov	r5,r17
    1bd4:	00057e80 	call	57e8 <__muldf3>
    1bd8:	1009883a 	mov	r4,r2
    1bdc:	180b883a 	mov	r5,r3
    1be0:	2005883a 	mov	r2,r4
    1be4:	2807883a 	mov	r3,r5
    1be8:	1009883a 	mov	r4,r2
    1bec:	180b883a 	mov	r5,r3
    1bf0:	00069500 	call	6950 <__fixdfsi>
    1bf4:	1007883a 	mov	r3,r2
    1bf8:	d0a5ea17 	ldw	r2,-26712(gp)
    1bfc:	1885883a 	add	r2,r3,r2
    1c00:	e0bff515 	stw	r2,-44(fp)
    int y_obj = cy - (int)(sin(rad) * r_obj);
    1c04:	d4a5eb17 	ldw	r18,-26708(gp)
    1c08:	e13ff217 	ldw	r4,-56(fp)
    1c0c:	e17ff317 	ldw	r5,-52(fp)
    1c10:	00021100 	call	2110 <sin>
    1c14:	1021883a 	mov	r16,r2
    1c18:	1823883a 	mov	r17,r3
    1c1c:	e13ff417 	ldw	r4,-48(fp)
    1c20:	00069d00 	call	69d0 <__floatsidf>
    1c24:	1009883a 	mov	r4,r2
    1c28:	180b883a 	mov	r5,r3
    1c2c:	200d883a 	mov	r6,r4
    1c30:	280f883a 	mov	r7,r5
    1c34:	8009883a 	mov	r4,r16
    1c38:	880b883a 	mov	r5,r17
    1c3c:	00057e80 	call	57e8 <__muldf3>
    1c40:	1009883a 	mov	r4,r2
    1c44:	180b883a 	mov	r5,r3
    1c48:	2005883a 	mov	r2,r4
    1c4c:	2807883a 	mov	r3,r5
    1c50:	1009883a 	mov	r4,r2
    1c54:	180b883a 	mov	r5,r3
    1c58:	00069500 	call	6950 <__fixdfsi>
    1c5c:	9085c83a 	sub	r2,r18,r2
    1c60:	e0bff615 	stw	r2,-40(fp)
    int x_max = cx + (int)(cos(rad) * radar_r);
    1c64:	e13ff217 	ldw	r4,-56(fp)
    1c68:	e17ff317 	ldw	r5,-52(fp)
    1c6c:	00020240 	call	2024 <cos>
    1c70:	1021883a 	mov	r16,r2
    1c74:	1823883a 	mov	r17,r3
    1c78:	d0a5ec17 	ldw	r2,-26704(gp)
    1c7c:	1009883a 	mov	r4,r2
    1c80:	00069d00 	call	69d0 <__floatsidf>
    1c84:	1009883a 	mov	r4,r2
    1c88:	180b883a 	mov	r5,r3
    1c8c:	200d883a 	mov	r6,r4
    1c90:	280f883a 	mov	r7,r5
    1c94:	8009883a 	mov	r4,r16
    1c98:	880b883a 	mov	r5,r17
    1c9c:	00057e80 	call	57e8 <__muldf3>
    1ca0:	1009883a 	mov	r4,r2
    1ca4:	180b883a 	mov	r5,r3
    1ca8:	2005883a 	mov	r2,r4
    1cac:	2807883a 	mov	r3,r5
    1cb0:	1009883a 	mov	r4,r2
    1cb4:	180b883a 	mov	r5,r3
    1cb8:	00069500 	call	6950 <__fixdfsi>
    1cbc:	1007883a 	mov	r3,r2
    1cc0:	d0a5ea17 	ldw	r2,-26712(gp)
    1cc4:	1885883a 	add	r2,r3,r2
    1cc8:	e0bff715 	stw	r2,-36(fp)
    int y_max = cy - (int)(sin(rad) * radar_r);
    1ccc:	d4a5eb17 	ldw	r18,-26708(gp)
    1cd0:	e13ff217 	ldw	r4,-56(fp)
    1cd4:	e17ff317 	ldw	r5,-52(fp)
    1cd8:	00021100 	call	2110 <sin>
    1cdc:	1021883a 	mov	r16,r2
    1ce0:	1823883a 	mov	r17,r3
    1ce4:	d0a5ec17 	ldw	r2,-26704(gp)
    1ce8:	1009883a 	mov	r4,r2
    1cec:	00069d00 	call	69d0 <__floatsidf>
    1cf0:	1009883a 	mov	r4,r2
    1cf4:	180b883a 	mov	r5,r3
    1cf8:	200d883a 	mov	r6,r4
    1cfc:	280f883a 	mov	r7,r5
    1d00:	8009883a 	mov	r4,r16
    1d04:	880b883a 	mov	r5,r17
    1d08:	00057e80 	call	57e8 <__muldf3>
    1d0c:	1009883a 	mov	r4,r2
    1d10:	180b883a 	mov	r5,r3
    1d14:	2005883a 	mov	r2,r4
    1d18:	2807883a 	mov	r3,r5
    1d1c:	1009883a 	mov	r4,r2
    1d20:	180b883a 	mov	r5,r3
    1d24:	00069500 	call	6950 <__fixdfsi>
    1d28:	9085c83a 	sub	r2,r18,r2
    1d2c:	e0bff815 	stw	r2,-32(fp)

    draw_line(cx, cy, x_obj, y_obj, GREEN);
    1d30:	d0e5ea17 	ldw	r3,-26712(gp)
    1d34:	d125eb17 	ldw	r4,-26708(gp)
    1d38:	0081f804 	movi	r2,2016
    1d3c:	d8800015 	stw	r2,0(sp)
    1d40:	e1fff617 	ldw	r7,-40(fp)
    1d44:	e1bff517 	ldw	r6,-44(fp)
    1d48:	200b883a 	mov	r5,r4
    1d4c:	1809883a 	mov	r4,r3
    1d50:	0000b9c0 	call	b9c <draw_line>
    draw_line(x_obj, y_obj, x_max, y_max, RED);
    1d54:	00be0014 	movui	r2,63488
    1d58:	d8800015 	stw	r2,0(sp)
    1d5c:	e1fff817 	ldw	r7,-32(fp)
    1d60:	e1bff717 	ldw	r6,-36(fp)
    1d64:	e17ff617 	ldw	r5,-40(fp)
    1d68:	e13ff517 	ldw	r4,-44(fp)
    1d6c:	0000b9c0 	call	b9c <draw_line>

    uint8_t ah, at, au, dh, dt, du;
    split3(*angle, &ah, &at, &au);
    1d70:	e0bffb17 	ldw	r2,-20(fp)
    1d74:	10800017 	ldw	r2,0(r2)
    1d78:	e17ff984 	addi	r5,fp,-26
    1d7c:	e13ff944 	addi	r4,fp,-27
    1d80:	e0fff904 	addi	r3,fp,-28
    1d84:	280f883a 	mov	r7,r5
    1d88:	200d883a 	mov	r6,r4
    1d8c:	180b883a 	mov	r5,r3
    1d90:	1009883a 	mov	r4,r2
    1d94:	00002b80 	call	2b8 <split3>
    split3(dist,  &dh, &dt, &du);
    1d98:	e13ffa44 	addi	r4,fp,-23
    1d9c:	e0fffa04 	addi	r3,fp,-24
    1da0:	e0bff9c4 	addi	r2,fp,-25
    1da4:	200f883a 	mov	r7,r4
    1da8:	180d883a 	mov	r6,r3
    1dac:	100b883a 	mov	r5,r2
    1db0:	e13ff017 	ldw	r4,-64(fp)
    1db4:	00002b80 	call	2b8 <split3>

    IOWR_32DIRECT(HEX3_HEX0_BASE, 0,
    1db8:	e0bff983 	ldbu	r2,-26(fp)
    1dbc:	10803fcc 	andi	r2,r2,255
    1dc0:	1009883a 	mov	r4,r2
    1dc4:	000026c0 	call	26c <seg7>
    1dc8:	14003fcc 	andi	r16,r2,255
    1dcc:	e0bff943 	ldbu	r2,-27(fp)
    1dd0:	10803fcc 	andi	r2,r2,255
    1dd4:	1009883a 	mov	r4,r2
    1dd8:	000026c0 	call	26c <seg7>
    1ddc:	10803fcc 	andi	r2,r2,255
    1de0:	1004923a 	slli	r2,r2,8
    1de4:	80a0b03a 	or	r16,r16,r2
    1de8:	e0bff903 	ldbu	r2,-28(fp)
    1dec:	10803fcc 	andi	r2,r2,255
    1df0:	1009883a 	mov	r4,r2
    1df4:	000026c0 	call	26c <seg7>
    1df8:	10803fcc 	andi	r2,r2,255
    1dfc:	1004943a 	slli	r2,r2,16
    1e00:	80a0b03a 	or	r16,r16,r2
    1e04:	e0bffa43 	ldbu	r2,-23(fp)
    1e08:	10803fcc 	andi	r2,r2,255
    1e0c:	1009883a 	mov	r4,r2
    1e10:	000026c0 	call	26c <seg7>
    1e14:	10803fcc 	andi	r2,r2,255
    1e18:	1004963a 	slli	r2,r2,24
    1e1c:	8084b03a 	or	r2,r16,r2
    1e20:	1007883a 	mov	r3,r2
    1e24:	00bfc834 	movhi	r2,65312
    1e28:	10800804 	addi	r2,r2,32
    1e2c:	10c00035 	stwio	r3,0(r2)
        ((uint32_t)seg7(au) << 0)  |
        ((uint32_t)seg7(at) << 8)  |
        ((uint32_t)seg7(ah) << 16) |
        ((uint32_t)seg7(du) << 24));

    IOWR_32DIRECT(HEX5_HEX4_BASE, 0,
    1e30:	e0bffa03 	ldbu	r2,-24(fp)
    1e34:	10803fcc 	andi	r2,r2,255
    1e38:	1009883a 	mov	r4,r2
    1e3c:	000026c0 	call	26c <seg7>
    1e40:	14003fcc 	andi	r16,r2,255
    1e44:	e0bff9c3 	ldbu	r2,-25(fp)
    1e48:	10803fcc 	andi	r2,r2,255
    1e4c:	1009883a 	mov	r4,r2
    1e50:	000026c0 	call	26c <seg7>
    1e54:	10803fcc 	andi	r2,r2,255
    1e58:	1004923a 	slli	r2,r2,8
    1e5c:	8084b03a 	or	r2,r16,r2
    1e60:	1007883a 	mov	r3,r2
    1e64:	00bfc834 	movhi	r2,65312
    1e68:	10800c04 	addi	r2,r2,48
    1e6c:	10c00035 	stwio	r3,0(r2)
        ((uint32_t)seg7(dt) << 0) |
        ((uint32_t)seg7(dh) << 8));

    if (*dir > 0) {
    1e70:	e0bffc17 	ldw	r2,-16(fp)
    1e74:	10800017 	ldw	r2,0(r2)
    1e78:	0080140e 	bge	zero,r2,1ecc <run_step+0x458>
        if (*angle + step_deg >= angle_max) { *angle = angle_max; *dir = -1; }
    1e7c:	e0bffb17 	ldw	r2,-20(fp)
    1e80:	10c00017 	ldw	r3,0(r2)
    1e84:	d0a00117 	ldw	r2,-32764(gp)
    1e88:	1887883a 	add	r3,r3,r2
    1e8c:	d0a00017 	ldw	r2,-32768(gp)
    1e90:	18800736 	bltu	r3,r2,1eb0 <run_step+0x43c>
    1e94:	d0e00017 	ldw	r3,-32768(gp)
    1e98:	e0bffb17 	ldw	r2,-20(fp)
    1e9c:	10c00015 	stw	r3,0(r2)
    1ea0:	e0bffc17 	ldw	r2,-16(fp)
    1ea4:	00ffffc4 	movi	r3,-1
    1ea8:	10c00015 	stw	r3,0(r2)
    1eac:	00001a06 	br	1f18 <run_step+0x4a4>
        else *angle += step_deg;
    1eb0:	e0bffb17 	ldw	r2,-20(fp)
    1eb4:	10c00017 	ldw	r3,0(r2)
    1eb8:	d0a00117 	ldw	r2,-32764(gp)
    1ebc:	1887883a 	add	r3,r3,r2
    1ec0:	e0bffb17 	ldw	r2,-20(fp)
    1ec4:	10c00015 	stw	r3,0(r2)
    1ec8:	00001306 	br	1f18 <run_step+0x4a4>
    } else {
        if (*angle <= angle_min + step_deg) { *angle = angle_min; *dir = +1; }
    1ecc:	e0bffb17 	ldw	r2,-20(fp)
    1ed0:	10800017 	ldw	r2,0(r2)
    1ed4:	d125ed17 	ldw	r4,-26700(gp)
    1ed8:	d0e00117 	ldw	r3,-32764(gp)
    1edc:	20c7883a 	add	r3,r4,r3
    1ee0:	18800736 	bltu	r3,r2,1f00 <run_step+0x48c>
    1ee4:	d0e5ed17 	ldw	r3,-26700(gp)
    1ee8:	e0bffb17 	ldw	r2,-20(fp)
    1eec:	10c00015 	stw	r3,0(r2)
    1ef0:	e0bffc17 	ldw	r2,-16(fp)
    1ef4:	00c00044 	movi	r3,1
    1ef8:	10c00015 	stw	r3,0(r2)
    1efc:	00000606 	br	1f18 <run_step+0x4a4>
        else *angle -= step_deg;
    1f00:	e0bffb17 	ldw	r2,-20(fp)
    1f04:	10c00017 	ldw	r3,0(r2)
    1f08:	d0a00117 	ldw	r2,-32764(gp)
    1f0c:	1887c83a 	sub	r3,r3,r2
    1f10:	e0bffb17 	ldw	r2,-20(fp)
    1f14:	10c00015 	stw	r3,0(r2)
    }

    usleep(40000);
    1f18:	01271014 	movui	r4,40000
    1f1c:	0006d200 	call	6d20 <usleep>
}
    1f20:	0001883a 	nop
    1f24:	e6fffd04 	addi	sp,fp,-12
    1f28:	dfc00417 	ldw	ra,16(sp)
    1f2c:	df000317 	ldw	fp,12(sp)
    1f30:	dc800217 	ldw	r18,8(sp)
    1f34:	dc400117 	ldw	r17,4(sp)
    1f38:	dc000017 	ldw	r16,0(sp)
    1f3c:	dec00504 	addi	sp,sp,20
    1f40:	f800283a 	ret

00001f44 <main>:

int main(void)
{
    1f44:	defff804 	addi	sp,sp,-32
    1f48:	dfc00715 	stw	ra,28(sp)
    1f4c:	df000615 	stw	fp,24(sp)
    1f50:	df000604 	addi	fp,sp,24
    volatile int *res = (int *)(PIXEL_BUF_CTRL_BASE + 8);
    1f54:	00bfc834 	movhi	r2,65312
    1f58:	108c0a04 	addi	r2,r2,12328
    1f5c:	e0bffa15 	stw	r2,-24(fp)
    int sx = (*res) & 0xFFFF;
    1f60:	e0bffa17 	ldw	r2,-24(fp)
    1f64:	10800017 	ldw	r2,0(r2)
    1f68:	10bfffcc 	andi	r2,r2,65535
    1f6c:	e0bffb15 	stw	r2,-20(fp)

    volatile int *rgb = (int *)(RGB_RESAMPLER_BASE);
    1f70:	00810034 	movhi	r2,1024
    1f74:	e0bffc15 	stw	r2,-16(fp)
    int db = (*rgb) & 0x3F;
    1f78:	e0bffc17 	ldw	r2,-16(fp)
    1f7c:	10800017 	ldw	r2,0(r2)
    1f80:	10800fcc 	andi	r2,r2,63
    1f84:	e0bffd15 	stw	r2,-12(fp)

    res_offset = (sx == 160) ? 1 : 0;
    1f88:	e0bffb17 	ldw	r2,-20(fp)
    1f8c:	10802820 	cmpeqi	r2,r2,160
    1f90:	10803fcc 	andi	r2,r2,255
    1f94:	d0a5e815 	stw	r2,-26720(gp)
    col_offset = (db == 8) ? 1 : 0;
    1f98:	e0bffd17 	ldw	r2,-12(fp)
    1f9c:	10800220 	cmpeqi	r2,r2,8
    1fa0:	10803fcc 	andi	r2,r2,255
    1fa4:	d0a5e915 	stw	r2,-26716(gp)

    cx = SCREEN_W / 2;
    1fa8:	00802804 	movi	r2,160
    1fac:	d0a5ea15 	stw	r2,-26712(gp)
    cy = SCREEN_H - 10;
    1fb0:	00803984 	movi	r2,230
    1fb4:	d0a5eb15 	stw	r2,-26708(gp)
    radar_r = 200;
    1fb8:	00803204 	movi	r2,200
    1fbc:	d0a5ec15 	stw	r2,-26704(gp)

    draw_static();
    1fc0:	0000ec40 	call	ec4 <draw_static>
    init_hex_displays_zero();
    1fc4:	00019e40 	call	19e4 <init_hex_displays_zero>
    msg_init();
    1fc8:	00007940 	call	794 <msg_init>

    uint32_t angle = 0;
    1fcc:	e03ffe15 	stw	zero,-8(fp)
    int dir = +1;
    1fd0:	00800044 	movi	r2,1
    1fd4:	e0bfff15 	stw	r2,-4(fp)

    for (;;) {
        if (state == STATE_CMD) {
    1fd8:	d0a5ee17 	ldw	r2,-26696(gp)
    1fdc:	1000021e 	bne	r2,zero,1fe8 <main+0xa4>
            cmd_wait_and_process();
    1fe0:	00019080 	call	1908 <cmd_wait_and_process>
            continue;
    1fe4:	00000e06 	br	2020 <main+0xdc>
        }

        if (sw0_level() == stop_level_sw0) {
    1fe8:	00007580 	call	758 <sw0_level>
    1fec:	1007883a 	mov	r3,r2
    1ff0:	d0a00317 	ldw	r2,-32756(gp)
    1ff4:	1880051e 	bne	r3,r2,200c <main+0xc8>
            state = STATE_CMD;
    1ff8:	d025ee15 	stw	zero,-26696(gp)
            reply_stop();
    1ffc:	00008300 	call	830 <reply_stop>
            init_hex_displays_zero();
    2000:	00019e40 	call	19e4 <init_hex_displays_zero>
            msg_init();
    2004:	00007940 	call	794 <msg_init>
            continue;
    2008:	00000506 	br	2020 <main+0xdc>
        }

        run_step(&angle, &dir);
    200c:	e0ffff04 	addi	r3,fp,-4
    2010:	e0bffe04 	addi	r2,fp,-8
    2014:	180b883a 	mov	r5,r3
    2018:	1009883a 	mov	r4,r2
    201c:	0001a740 	call	1a74 <run_step>
    }
    2020:	003fed06 	br	1fd8 <__alt_mem_VGA_Subsystem_Char_Buf_Subsystem_Onchip_SRAM+0xf7001fd8>

00002024 <cos>:
    2024:	00a00034 	movhi	r2,32768
    2028:	defffa04 	addi	sp,sp,-24
    202c:	10bfffc4 	addi	r2,r2,-1
    2030:	00cffa74 	movhi	r3,16361
    2034:	dfc00515 	stw	ra,20(sp)
    2038:	2884703a 	and	r2,r5,r2
    203c:	18c87ec4 	addi	r3,r3,8699
    2040:	1880180e 	bge	r3,r2,20a4 <cos+0x80>
    2044:	00dffc34 	movhi	r3,32752
    2048:	18ffffc4 	addi	r3,r3,-1
    204c:	1880060e 	bge	r3,r2,2068 <cos+0x44>
    2050:	280f883a 	mov	r7,r5
    2054:	200d883a 	mov	r6,r4
    2058:	00060540 	call	6054 <__subdf3>
    205c:	dfc00517 	ldw	ra,20(sp)
    2060:	dec00604 	addi	sp,sp,24
    2064:	f800283a 	ret
    2068:	d9800104 	addi	r6,sp,4
    206c:	00022000 	call	2200 <__ieee754_rem_pio2>
    2070:	108000cc 	andi	r2,r2,3
    2074:	00c00044 	movi	r3,1
    2078:	10c01726 	beq	r2,r3,20d8 <cos+0xb4>
    207c:	01000084 	movi	r4,2
    2080:	11000e26 	beq	r2,r4,20bc <cos+0x98>
    2084:	10001c26 	beq	r2,zero,20f8 <cos+0xd4>
    2088:	d9800317 	ldw	r6,12(sp)
    208c:	d9c00417 	ldw	r7,16(sp)
    2090:	d9000117 	ldw	r4,4(sp)
    2094:	d9400217 	ldw	r5,8(sp)
    2098:	d8c00015 	stw	r3,0(sp)
    209c:	0003ba80 	call	3ba8 <__kernel_sin>
    20a0:	003fee06 	br	205c <__alt_mem_VGA_Subsystem_Char_Buf_Subsystem_Onchip_SRAM+0xf700205c>
    20a4:	000d883a 	mov	r6,zero
    20a8:	000f883a 	mov	r7,zero
    20ac:	000296c0 	call	296c <__kernel_cos>
    20b0:	dfc00517 	ldw	ra,20(sp)
    20b4:	dec00604 	addi	sp,sp,24
    20b8:	f800283a 	ret
    20bc:	d9800317 	ldw	r6,12(sp)
    20c0:	d9c00417 	ldw	r7,16(sp)
    20c4:	d9000117 	ldw	r4,4(sp)
    20c8:	d9400217 	ldw	r5,8(sp)
    20cc:	000296c0 	call	296c <__kernel_cos>
    20d0:	18e0003c 	xorhi	r3,r3,32768
    20d4:	003fe106 	br	205c <__alt_mem_VGA_Subsystem_Char_Buf_Subsystem_Onchip_SRAM+0xf700205c>
    20d8:	d9800317 	ldw	r6,12(sp)
    20dc:	d9c00417 	ldw	r7,16(sp)
    20e0:	d9000117 	ldw	r4,4(sp)
    20e4:	d9400217 	ldw	r5,8(sp)
    20e8:	d8800015 	stw	r2,0(sp)
    20ec:	0003ba80 	call	3ba8 <__kernel_sin>
    20f0:	18e0003c 	xorhi	r3,r3,32768
    20f4:	003fd906 	br	205c <__alt_mem_VGA_Subsystem_Char_Buf_Subsystem_Onchip_SRAM+0xf700205c>
    20f8:	d9800317 	ldw	r6,12(sp)
    20fc:	d9c00417 	ldw	r7,16(sp)
    2100:	d9000117 	ldw	r4,4(sp)
    2104:	d9400217 	ldw	r5,8(sp)
    2108:	000296c0 	call	296c <__kernel_cos>
    210c:	003fd306 	br	205c <__alt_mem_VGA_Subsystem_Char_Buf_Subsystem_Onchip_SRAM+0xf700205c>

00002110 <sin>:
    2110:	00a00034 	movhi	r2,32768
    2114:	defffa04 	addi	sp,sp,-24
    2118:	10bfffc4 	addi	r2,r2,-1
    211c:	00cffa74 	movhi	r3,16361
    2120:	dfc00515 	stw	ra,20(sp)
    2124:	2884703a 	and	r2,r5,r2
    2128:	18c87ec4 	addi	r3,r3,8699
    212c:	1880180e 	bge	r3,r2,2190 <sin+0x80>
    2130:	00dffc34 	movhi	r3,32752
    2134:	18ffffc4 	addi	r3,r3,-1
    2138:	1880060e 	bge	r3,r2,2154 <sin+0x44>
    213c:	280f883a 	mov	r7,r5
    2140:	200d883a 	mov	r6,r4
    2144:	00060540 	call	6054 <__subdf3>
    2148:	dfc00517 	ldw	ra,20(sp)
    214c:	dec00604 	addi	sp,sp,24
    2150:	f800283a 	ret
    2154:	d9800104 	addi	r6,sp,4
    2158:	00022000 	call	2200 <__ieee754_rem_pio2>
    215c:	108000cc 	andi	r2,r2,3
    2160:	00c00044 	movi	r3,1
    2164:	10c01926 	beq	r2,r3,21cc <sin+0xbc>
    2168:	01000084 	movi	r4,2
    216c:	11000f26 	beq	r2,r4,21ac <sin+0x9c>
    2170:	10001c26 	beq	r2,zero,21e4 <sin+0xd4>
    2174:	d9800317 	ldw	r6,12(sp)
    2178:	d9c00417 	ldw	r7,16(sp)
    217c:	d9000117 	ldw	r4,4(sp)
    2180:	d9400217 	ldw	r5,8(sp)
    2184:	000296c0 	call	296c <__kernel_cos>
    2188:	18e0003c 	xorhi	r3,r3,32768
    218c:	003fee06 	br	2148 <__alt_mem_VGA_Subsystem_Char_Buf_Subsystem_Onchip_SRAM+0xf7002148>
    2190:	d8000015 	stw	zero,0(sp)
    2194:	000d883a 	mov	r6,zero
    2198:	000f883a 	mov	r7,zero
    219c:	0003ba80 	call	3ba8 <__kernel_sin>
    21a0:	dfc00517 	ldw	ra,20(sp)
    21a4:	dec00604 	addi	sp,sp,24
    21a8:	f800283a 	ret
    21ac:	d9800317 	ldw	r6,12(sp)
    21b0:	d9c00417 	ldw	r7,16(sp)
    21b4:	d9000117 	ldw	r4,4(sp)
    21b8:	d9400217 	ldw	r5,8(sp)
    21bc:	d8c00015 	stw	r3,0(sp)
    21c0:	0003ba80 	call	3ba8 <__kernel_sin>
    21c4:	18e0003c 	xorhi	r3,r3,32768
    21c8:	003fdf06 	br	2148 <__alt_mem_VGA_Subsystem_Char_Buf_Subsystem_Onchip_SRAM+0xf7002148>
    21cc:	d9800317 	ldw	r6,12(sp)
    21d0:	d9c00417 	ldw	r7,16(sp)
    21d4:	d9000117 	ldw	r4,4(sp)
    21d8:	d9400217 	ldw	r5,8(sp)
    21dc:	000296c0 	call	296c <__kernel_cos>
    21e0:	003fd906 	br	2148 <__alt_mem_VGA_Subsystem_Char_Buf_Subsystem_Onchip_SRAM+0xf7002148>
    21e4:	d9800317 	ldw	r6,12(sp)
    21e8:	d9c00417 	ldw	r7,16(sp)
    21ec:	d9000117 	ldw	r4,4(sp)
    21f0:	d9400217 	ldw	r5,8(sp)
    21f4:	d8c00015 	stw	r3,0(sp)
    21f8:	0003ba80 	call	3ba8 <__kernel_sin>
    21fc:	003fd206 	br	2148 <__alt_mem_VGA_Subsystem_Char_Buf_Subsystem_Onchip_SRAM+0xf7002148>

00002200 <__ieee754_rem_pio2>:
    2200:	02200034 	movhi	r8,32768
    2204:	deffea04 	addi	sp,sp,-88
    2208:	423fffc4 	addi	r8,r8,-1
    220c:	00cffa74 	movhi	r3,16361
    2210:	ddc01315 	stw	r23,76(sp)
    2214:	dc400d15 	stw	r17,52(sp)
    2218:	dfc01515 	stw	ra,84(sp)
    221c:	df001415 	stw	fp,80(sp)
    2220:	dd801215 	stw	r22,72(sp)
    2224:	dd401115 	stw	r21,68(sp)
    2228:	dd001015 	stw	r20,64(sp)
    222c:	dcc00f15 	stw	r19,60(sp)
    2230:	dc800e15 	stw	r18,56(sp)
    2234:	dc000c15 	stw	r16,48(sp)
    2238:	2a2e703a 	and	r23,r5,r8
    223c:	18c87ec4 	addi	r3,r3,8699
    2240:	2823883a 	mov	r17,r5
    2244:	1dc0790e 	bge	r3,r23,242c <__ieee754_rem_pio2+0x22c>
    2248:	009000f4 	movhi	r2,16387
    224c:	10b65ec4 	addi	r2,r2,-9861
    2250:	3021883a 	mov	r16,r6
    2254:	2027883a 	mov	r19,r4
    2258:	15c02316 	blt	r2,r23,22e8 <__ieee754_rem_pio2+0xe8>
    225c:	01cffe74 	movhi	r7,16377
    2260:	39c87ec4 	addi	r7,r7,8699
    2264:	01951034 	movhi	r6,21568
    2268:	01417a0e 	bge	zero,r5,2854 <__ieee754_rem_pio2+0x654>
    226c:	00060540 	call	6054 <__subdf3>
    2270:	1025883a 	mov	r18,r2
    2274:	008ffe74 	movhi	r2,16377
    2278:	10887ec4 	addi	r2,r2,8699
    227c:	1823883a 	mov	r17,r3
    2280:	b8808426 	beq	r23,r2,2494 <__ieee754_rem_pio2+0x294>
    2284:	018698b4 	movhi	r6,6754
    2288:	01cf7474 	movhi	r7,15825
    228c:	3198cc44 	addi	r6,r6,25393
    2290:	39ed1844 	addi	r7,r7,-19359
    2294:	9009883a 	mov	r4,r18
    2298:	180b883a 	mov	r5,r3
    229c:	00060540 	call	6054 <__subdf3>
    22a0:	100d883a 	mov	r6,r2
    22a4:	180f883a 	mov	r7,r3
    22a8:	9009883a 	mov	r4,r18
    22ac:	880b883a 	mov	r5,r17
    22b0:	80800015 	stw	r2,0(r16)
    22b4:	80c00115 	stw	r3,4(r16)
    22b8:	00060540 	call	6054 <__subdf3>
    22bc:	018698b4 	movhi	r6,6754
    22c0:	01cf7474 	movhi	r7,15825
    22c4:	3198cc44 	addi	r6,r6,25393
    22c8:	39ed1844 	addi	r7,r7,-19359
    22cc:	1009883a 	mov	r4,r2
    22d0:	180b883a 	mov	r5,r3
    22d4:	00060540 	call	6054 <__subdf3>
    22d8:	80800215 	stw	r2,8(r16)
    22dc:	80c00315 	stw	r3,12(r16)
    22e0:	00800044 	movi	r2,1
    22e4:	00005606 	br	2440 <__ieee754_rem_pio2+0x240>
    22e8:	00904e74 	movhi	r2,16697
    22ec:	10887ec4 	addi	r2,r2,8699
    22f0:	15c0830e 	bge	r2,r23,2500 <__ieee754_rem_pio2+0x300>
    22f4:	009ffc34 	movhi	r2,32752
    22f8:	10bfffc4 	addi	r2,r2,-1
    22fc:	15c05c16 	blt	r2,r23,2470 <__ieee754_rem_pio2+0x270>
    2300:	b829d53a 	srai	r20,r23,20
    2304:	a53efa84 	addi	r20,r20,-1046
    2308:	a024953a 	slli	r18,r20,20
    230c:	bca5c83a 	sub	r18,r23,r18
    2310:	900b883a 	mov	r5,r18
    2314:	00069500 	call	6950 <__fixdfsi>
    2318:	1009883a 	mov	r4,r2
    231c:	00069d00 	call	69d0 <__floatsidf>
    2320:	9809883a 	mov	r4,r19
    2324:	900b883a 	mov	r5,r18
    2328:	100d883a 	mov	r6,r2
    232c:	180f883a 	mov	r7,r3
    2330:	d8800215 	stw	r2,8(sp)
    2334:	d8c00315 	stw	r3,12(sp)
    2338:	00060540 	call	6054 <__subdf3>
    233c:	000d883a 	mov	r6,zero
    2340:	01d05c34 	movhi	r7,16752
    2344:	1009883a 	mov	r4,r2
    2348:	180b883a 	mov	r5,r3
    234c:	00057e80 	call	57e8 <__muldf3>
    2350:	180b883a 	mov	r5,r3
    2354:	1009883a 	mov	r4,r2
    2358:	182b883a 	mov	r21,r3
    235c:	102d883a 	mov	r22,r2
    2360:	00069500 	call	6950 <__fixdfsi>
    2364:	1009883a 	mov	r4,r2
    2368:	00069d00 	call	69d0 <__floatsidf>
    236c:	100d883a 	mov	r6,r2
    2370:	180f883a 	mov	r7,r3
    2374:	b009883a 	mov	r4,r22
    2378:	a80b883a 	mov	r5,r21
    237c:	1027883a 	mov	r19,r2
    2380:	1825883a 	mov	r18,r3
    2384:	d8800415 	stw	r2,16(sp)
    2388:	d8c00515 	stw	r3,20(sp)
    238c:	00060540 	call	6054 <__subdf3>
    2390:	000d883a 	mov	r6,zero
    2394:	01d05c34 	movhi	r7,16752
    2398:	1009883a 	mov	r4,r2
    239c:	180b883a 	mov	r5,r3
    23a0:	00057e80 	call	57e8 <__muldf3>
    23a4:	000d883a 	mov	r6,zero
    23a8:	000f883a 	mov	r7,zero
    23ac:	1009883a 	mov	r4,r2
    23b0:	180b883a 	mov	r5,r3
    23b4:	d8800615 	stw	r2,24(sp)
    23b8:	d8c00715 	stw	r3,28(sp)
    23bc:	00056840 	call	5684 <__eqdf2>
    23c0:	1001431e 	bne	r2,zero,28d0 <__ieee754_rem_pio2+0x6d0>
    23c4:	000f883a 	mov	r7,zero
    23c8:	000d883a 	mov	r6,zero
    23cc:	9809883a 	mov	r4,r19
    23d0:	900b883a 	mov	r5,r18
    23d4:	00056840 	call	5684 <__eqdf2>
    23d8:	100f003a 	cmpeq	r7,r2,zero
    23dc:	00800084 	movi	r2,2
    23e0:	11cfc83a 	sub	r7,r2,r7
    23e4:	00800084 	movi	r2,2
    23e8:	d8800015 	stw	r2,0(sp)
    23ec:	00800074 	movhi	r2,1
    23f0:	10a5f104 	addi	r2,r2,-26684
    23f4:	d8800115 	stw	r2,4(sp)
    23f8:	a00d883a 	mov	r6,r20
    23fc:	800b883a 	mov	r5,r16
    2400:	d9000204 	addi	r4,sp,8
    2404:	0002e100 	call	2e10 <__kernel_rem_pio2>
    2408:	88000d0e 	bge	r17,zero,2440 <__ieee754_rem_pio2+0x240>
    240c:	81000117 	ldw	r4,4(r16)
    2410:	80c00317 	ldw	r3,12(r16)
    2414:	0085c83a 	sub	r2,zero,r2
    2418:	2120003c 	xorhi	r4,r4,32768
    241c:	18e0003c 	xorhi	r3,r3,32768
    2420:	81000115 	stw	r4,4(r16)
    2424:	80c00315 	stw	r3,12(r16)
    2428:	00000506 	br	2440 <__ieee754_rem_pio2+0x240>
    242c:	31000015 	stw	r4,0(r6)
    2430:	31400115 	stw	r5,4(r6)
    2434:	30000215 	stw	zero,8(r6)
    2438:	30000315 	stw	zero,12(r6)
    243c:	0005883a 	mov	r2,zero
    2440:	dfc01517 	ldw	ra,84(sp)
    2444:	df001417 	ldw	fp,80(sp)
    2448:	ddc01317 	ldw	r23,76(sp)
    244c:	dd801217 	ldw	r22,72(sp)
    2450:	dd401117 	ldw	r21,68(sp)
    2454:	dd001017 	ldw	r20,64(sp)
    2458:	dcc00f17 	ldw	r19,60(sp)
    245c:	dc800e17 	ldw	r18,56(sp)
    2460:	dc400d17 	ldw	r17,52(sp)
    2464:	dc000c17 	ldw	r16,48(sp)
    2468:	dec01604 	addi	sp,sp,88
    246c:	f800283a 	ret
    2470:	200d883a 	mov	r6,r4
    2474:	280f883a 	mov	r7,r5
    2478:	00060540 	call	6054 <__subdf3>
    247c:	80800215 	stw	r2,8(r16)
    2480:	80800015 	stw	r2,0(r16)
    2484:	80c00315 	stw	r3,12(r16)
    2488:	80c00115 	stw	r3,4(r16)
    248c:	0005883a 	mov	r2,zero
    2490:	003feb06 	br	2440 <__alt_mem_VGA_Subsystem_Char_Buf_Subsystem_Onchip_SRAM+0xf7002440>
    2494:	01cf7474 	movhi	r7,15825
    2498:	9009883a 	mov	r4,r18
    249c:	39ed1844 	addi	r7,r7,-19359
    24a0:	01869834 	movhi	r6,6752
    24a4:	180b883a 	mov	r5,r3
    24a8:	00060540 	call	6054 <__subdf3>
    24ac:	018b80f4 	movhi	r6,11779
    24b0:	01cee8f4 	movhi	r7,15267
    24b4:	319c1cc4 	addi	r6,r6,28787
    24b8:	39c66284 	addi	r7,r7,6538
    24bc:	1009883a 	mov	r4,r2
    24c0:	180b883a 	mov	r5,r3
    24c4:	1025883a 	mov	r18,r2
    24c8:	1823883a 	mov	r17,r3
    24cc:	00060540 	call	6054 <__subdf3>
    24d0:	100d883a 	mov	r6,r2
    24d4:	180f883a 	mov	r7,r3
    24d8:	9009883a 	mov	r4,r18
    24dc:	880b883a 	mov	r5,r17
    24e0:	80800015 	stw	r2,0(r16)
    24e4:	80c00115 	stw	r3,4(r16)
    24e8:	00060540 	call	6054 <__subdf3>
    24ec:	018b80f4 	movhi	r6,11779
    24f0:	01cee8f4 	movhi	r7,15267
    24f4:	319c1cc4 	addi	r6,r6,28787
    24f8:	39c66284 	addi	r7,r7,6538
    24fc:	003f7306 	br	22cc <__alt_mem_VGA_Subsystem_Char_Buf_Subsystem_Onchip_SRAM+0xf70022cc>
    2500:	0003e740 	call	3e74 <fabs>
    2504:	019b72b4 	movhi	r6,28106
    2508:	01cff934 	movhi	r7,16356
    250c:	31b220c4 	addi	r6,r6,-14205
    2510:	39d7cc04 	addi	r7,r7,24368
    2514:	1009883a 	mov	r4,r2
    2518:	180b883a 	mov	r5,r3
    251c:	102d883a 	mov	r22,r2
    2520:	182b883a 	mov	r21,r3
    2524:	00057e80 	call	57e8 <__muldf3>
    2528:	000d883a 	mov	r6,zero
    252c:	01cff834 	movhi	r7,16352
    2530:	1009883a 	mov	r4,r2
    2534:	180b883a 	mov	r5,r3
    2538:	00044080 	call	4408 <__adddf3>
    253c:	180b883a 	mov	r5,r3
    2540:	1009883a 	mov	r4,r2
    2544:	00069500 	call	6950 <__fixdfsi>
    2548:	1009883a 	mov	r4,r2
    254c:	1025883a 	mov	r18,r2
    2550:	00069d00 	call	69d0 <__floatsidf>
    2554:	01cffe74 	movhi	r7,16377
    2558:	39c87ec4 	addi	r7,r7,8699
    255c:	01951034 	movhi	r6,21568
    2560:	1009883a 	mov	r4,r2
    2564:	180b883a 	mov	r5,r3
    2568:	1029883a 	mov	r20,r2
    256c:	1827883a 	mov	r19,r3
    2570:	00057e80 	call	57e8 <__muldf3>
    2574:	b009883a 	mov	r4,r22
    2578:	a80b883a 	mov	r5,r21
    257c:	100d883a 	mov	r6,r2
    2580:	180f883a 	mov	r7,r3
    2584:	00060540 	call	6054 <__subdf3>
    2588:	018698b4 	movhi	r6,6754
    258c:	01cf7474 	movhi	r7,15825
    2590:	a009883a 	mov	r4,r20
    2594:	3198cc44 	addi	r6,r6,25393
    2598:	39ed1844 	addi	r7,r7,-19359
    259c:	980b883a 	mov	r5,r19
    25a0:	1039883a 	mov	fp,r2
    25a4:	d8c00815 	stw	r3,32(sp)
    25a8:	00057e80 	call	57e8 <__muldf3>
    25ac:	010007c4 	movi	r4,31
    25b0:	e017883a 	mov	r11,fp
    25b4:	da800817 	ldw	r10,32(sp)
    25b8:	102d883a 	mov	r22,r2
    25bc:	182b883a 	mov	r21,r3
    25c0:	24802816 	blt	r4,r18,2664 <__ieee754_rem_pio2+0x464>
    25c4:	913fffc4 	addi	r4,r18,-1
    25c8:	2109883a 	add	r4,r4,r4
    25cc:	01400074 	movhi	r5,1
    25d0:	2109883a 	add	r4,r4,r4
    25d4:	2965d104 	addi	r5,r5,-26812
    25d8:	2909883a 	add	r4,r5,r4
    25dc:	21000017 	ldw	r4,0(r4)
    25e0:	b9002026 	beq	r23,r4,2664 <__ieee754_rem_pio2+0x464>
    25e4:	100d883a 	mov	r6,r2
    25e8:	180f883a 	mov	r7,r3
    25ec:	e009883a 	mov	r4,fp
    25f0:	500b883a 	mov	r5,r10
    25f4:	da800b15 	stw	r10,44(sp)
    25f8:	df000a15 	stw	fp,40(sp)
    25fc:	00060540 	call	6054 <__subdf3>
    2600:	da800b17 	ldw	r10,44(sp)
    2604:	dac00a17 	ldw	r11,40(sp)
    2608:	1019883a 	mov	r12,r2
    260c:	1813883a 	mov	r9,r3
    2610:	80800015 	stw	r2,0(r16)
    2614:	80c00115 	stw	r3,4(r16)
    2618:	600d883a 	mov	r6,r12
    261c:	480f883a 	mov	r7,r9
    2620:	5809883a 	mov	r4,r11
    2624:	500b883a 	mov	r5,r10
    2628:	da400b15 	stw	r9,44(sp)
    262c:	db000a15 	stw	r12,40(sp)
    2630:	00060540 	call	6054 <__subdf3>
    2634:	b00d883a 	mov	r6,r22
    2638:	a80f883a 	mov	r7,r21
    263c:	1009883a 	mov	r4,r2
    2640:	180b883a 	mov	r5,r3
    2644:	00060540 	call	6054 <__subdf3>
    2648:	80800215 	stw	r2,8(r16)
    264c:	80c00315 	stw	r3,12(r16)
    2650:	da400b17 	ldw	r9,44(sp)
    2654:	db000a17 	ldw	r12,40(sp)
    2658:	88009f16 	blt	r17,zero,28d8 <__ieee754_rem_pio2+0x6d8>
    265c:	9005883a 	mov	r2,r18
    2660:	003f7706 	br	2440 <__alt_mem_VGA_Subsystem_Char_Buf_Subsystem_Onchip_SRAM+0xf7002440>
    2664:	d9400817 	ldw	r5,32(sp)
    2668:	100d883a 	mov	r6,r2
    266c:	180f883a 	mov	r7,r3
    2670:	e009883a 	mov	r4,fp
    2674:	da800b15 	stw	r10,44(sp)
    2678:	dac00a15 	stw	r11,40(sp)
    267c:	00060540 	call	6054 <__subdf3>
    2680:	1019883a 	mov	r12,r2
    2684:	1804d53a 	srli	r2,r3,20
    2688:	b811d53a 	srai	r8,r23,20
    268c:	1813883a 	mov	r9,r3
    2690:	1081ffcc 	andi	r2,r2,2047
    2694:	80c00115 	stw	r3,4(r16)
    2698:	83000015 	stw	r12,0(r16)
    269c:	4085c83a 	sub	r2,r8,r2
    26a0:	00c00404 	movi	r3,16
    26a4:	da800b17 	ldw	r10,44(sp)
    26a8:	dac00a17 	ldw	r11,40(sp)
    26ac:	18bfda0e 	bge	r3,r2,2618 <__alt_mem_VGA_Subsystem_Char_Buf_Subsystem_Onchip_SRAM+0xf7002618>
    26b0:	01cf7474 	movhi	r7,15825
    26b4:	39ed1844 	addi	r7,r7,-19359
    26b8:	01869834 	movhi	r6,6752
    26bc:	a009883a 	mov	r4,r20
    26c0:	980b883a 	mov	r5,r19
    26c4:	da000a15 	stw	r8,40(sp)
    26c8:	00057e80 	call	57e8 <__muldf3>
    26cc:	d9400817 	ldw	r5,32(sp)
    26d0:	100d883a 	mov	r6,r2
    26d4:	180f883a 	mov	r7,r3
    26d8:	e009883a 	mov	r4,fp
    26dc:	102d883a 	mov	r22,r2
    26e0:	182b883a 	mov	r21,r3
    26e4:	00060540 	call	6054 <__subdf3>
    26e8:	d9400817 	ldw	r5,32(sp)
    26ec:	100d883a 	mov	r6,r2
    26f0:	180f883a 	mov	r7,r3
    26f4:	e009883a 	mov	r4,fp
    26f8:	182f883a 	mov	r23,r3
    26fc:	d8800915 	stw	r2,36(sp)
    2700:	00060540 	call	6054 <__subdf3>
    2704:	b00d883a 	mov	r6,r22
    2708:	a80f883a 	mov	r7,r21
    270c:	1009883a 	mov	r4,r2
    2710:	180b883a 	mov	r5,r3
    2714:	00060540 	call	6054 <__subdf3>
    2718:	018b80f4 	movhi	r6,11779
    271c:	01cee8f4 	movhi	r7,15267
    2720:	319c1cc4 	addi	r6,r6,28787
    2724:	39c66284 	addi	r7,r7,6538
    2728:	a009883a 	mov	r4,r20
    272c:	980b883a 	mov	r5,r19
    2730:	102d883a 	mov	r22,r2
    2734:	182b883a 	mov	r21,r3
    2738:	00057e80 	call	57e8 <__muldf3>
    273c:	b00d883a 	mov	r6,r22
    2740:	a80f883a 	mov	r7,r21
    2744:	1009883a 	mov	r4,r2
    2748:	180b883a 	mov	r5,r3
    274c:	00060540 	call	6054 <__subdf3>
    2750:	d9000917 	ldw	r4,36(sp)
    2754:	100d883a 	mov	r6,r2
    2758:	180f883a 	mov	r7,r3
    275c:	b80b883a 	mov	r5,r23
    2760:	102d883a 	mov	r22,r2
    2764:	182b883a 	mov	r21,r3
    2768:	00060540 	call	6054 <__subdf3>
    276c:	1019883a 	mov	r12,r2
    2770:	1804d53a 	srli	r2,r3,20
    2774:	da000a17 	ldw	r8,40(sp)
    2778:	83000015 	stw	r12,0(r16)
    277c:	1081ffcc 	andi	r2,r2,2047
    2780:	4091c83a 	sub	r8,r8,r2
    2784:	80c00115 	stw	r3,4(r16)
    2788:	00800c44 	movi	r2,49
    278c:	1813883a 	mov	r9,r3
    2790:	1200730e 	bge	r2,r8,2960 <__ieee754_rem_pio2+0x760>
    2794:	01cee8f4 	movhi	r7,15267
    2798:	39c66284 	addi	r7,r7,6538
    279c:	018b8034 	movhi	r6,11776
    27a0:	a009883a 	mov	r4,r20
    27a4:	980b883a 	mov	r5,r19
    27a8:	00057e80 	call	57e8 <__muldf3>
    27ac:	d9000917 	ldw	r4,36(sp)
    27b0:	100d883a 	mov	r6,r2
    27b4:	180f883a 	mov	r7,r3
    27b8:	b80b883a 	mov	r5,r23
    27bc:	102d883a 	mov	r22,r2
    27c0:	182b883a 	mov	r21,r3
    27c4:	00060540 	call	6054 <__subdf3>
    27c8:	d9000917 	ldw	r4,36(sp)
    27cc:	100d883a 	mov	r6,r2
    27d0:	180f883a 	mov	r7,r3
    27d4:	b80b883a 	mov	r5,r23
    27d8:	d8c00b15 	stw	r3,44(sp)
    27dc:	d8800a15 	stw	r2,40(sp)
    27e0:	00060540 	call	6054 <__subdf3>
    27e4:	b00d883a 	mov	r6,r22
    27e8:	a80f883a 	mov	r7,r21
    27ec:	1009883a 	mov	r4,r2
    27f0:	180b883a 	mov	r5,r3
    27f4:	00060540 	call	6054 <__subdf3>
    27f8:	01894834 	movhi	r6,9504
    27fc:	01ce5f34 	movhi	r7,14716
    2800:	31927044 	addi	r6,r6,18881
    2804:	39e0e684 	addi	r7,r7,-31846
    2808:	a009883a 	mov	r4,r20
    280c:	980b883a 	mov	r5,r19
    2810:	102d883a 	mov	r22,r2
    2814:	182b883a 	mov	r21,r3
    2818:	00057e80 	call	57e8 <__muldf3>
    281c:	b00d883a 	mov	r6,r22
    2820:	a80f883a 	mov	r7,r21
    2824:	1009883a 	mov	r4,r2
    2828:	180b883a 	mov	r5,r3
    282c:	00060540 	call	6054 <__subdf3>
    2830:	dac00a17 	ldw	r11,40(sp)
    2834:	da800b17 	ldw	r10,44(sp)
    2838:	102d883a 	mov	r22,r2
    283c:	182b883a 	mov	r21,r3
    2840:	100d883a 	mov	r6,r2
    2844:	180f883a 	mov	r7,r3
    2848:	5809883a 	mov	r4,r11
    284c:	500b883a 	mov	r5,r10
    2850:	003f6a06 	br	25fc <__alt_mem_VGA_Subsystem_Char_Buf_Subsystem_Onchip_SRAM+0xf70025fc>
    2854:	00044080 	call	4408 <__adddf3>
    2858:	1025883a 	mov	r18,r2
    285c:	008ffe74 	movhi	r2,16377
    2860:	10887ec4 	addi	r2,r2,8699
    2864:	1823883a 	mov	r17,r3
    2868:	b8802226 	beq	r23,r2,28f4 <__ieee754_rem_pio2+0x6f4>
    286c:	018698b4 	movhi	r6,6754
    2870:	01cf7474 	movhi	r7,15825
    2874:	3198cc44 	addi	r6,r6,25393
    2878:	39ed1844 	addi	r7,r7,-19359
    287c:	9009883a 	mov	r4,r18
    2880:	180b883a 	mov	r5,r3
    2884:	00044080 	call	4408 <__adddf3>
    2888:	100d883a 	mov	r6,r2
    288c:	180f883a 	mov	r7,r3
    2890:	9009883a 	mov	r4,r18
    2894:	880b883a 	mov	r5,r17
    2898:	80800015 	stw	r2,0(r16)
    289c:	80c00115 	stw	r3,4(r16)
    28a0:	00060540 	call	6054 <__subdf3>
    28a4:	018698b4 	movhi	r6,6754
    28a8:	01cf7474 	movhi	r7,15825
    28ac:	3198cc44 	addi	r6,r6,25393
    28b0:	39ed1844 	addi	r7,r7,-19359
    28b4:	1009883a 	mov	r4,r2
    28b8:	180b883a 	mov	r5,r3
    28bc:	00044080 	call	4408 <__adddf3>
    28c0:	80800215 	stw	r2,8(r16)
    28c4:	80c00315 	stw	r3,12(r16)
    28c8:	00bfffc4 	movi	r2,-1
    28cc:	003edc06 	br	2440 <__alt_mem_VGA_Subsystem_Char_Buf_Subsystem_Onchip_SRAM+0xf7002440>
    28d0:	01c000c4 	movi	r7,3
    28d4:	003ec306 	br	23e4 <__alt_mem_VGA_Subsystem_Char_Buf_Subsystem_Onchip_SRAM+0xf70023e4>
    28d8:	4a60003c 	xorhi	r9,r9,32768
    28dc:	18e0003c 	xorhi	r3,r3,32768
    28e0:	83000015 	stw	r12,0(r16)
    28e4:	82400115 	stw	r9,4(r16)
    28e8:	80c00315 	stw	r3,12(r16)
    28ec:	0485c83a 	sub	r2,zero,r18
    28f0:	003ed306 	br	2440 <__alt_mem_VGA_Subsystem_Char_Buf_Subsystem_Onchip_SRAM+0xf7002440>
    28f4:	01cf7474 	movhi	r7,15825
    28f8:	9009883a 	mov	r4,r18
    28fc:	39ed1844 	addi	r7,r7,-19359
    2900:	01869834 	movhi	r6,6752
    2904:	180b883a 	mov	r5,r3
    2908:	00044080 	call	4408 <__adddf3>
    290c:	018b80f4 	movhi	r6,11779
    2910:	01cee8f4 	movhi	r7,15267
    2914:	319c1cc4 	addi	r6,r6,28787
    2918:	39c66284 	addi	r7,r7,6538
    291c:	1009883a 	mov	r4,r2
    2920:	180b883a 	mov	r5,r3
    2924:	1025883a 	mov	r18,r2
    2928:	1823883a 	mov	r17,r3
    292c:	00044080 	call	4408 <__adddf3>
    2930:	100d883a 	mov	r6,r2
    2934:	180f883a 	mov	r7,r3
    2938:	9009883a 	mov	r4,r18
    293c:	880b883a 	mov	r5,r17
    2940:	80800015 	stw	r2,0(r16)
    2944:	80c00115 	stw	r3,4(r16)
    2948:	00060540 	call	6054 <__subdf3>
    294c:	018b80f4 	movhi	r6,11779
    2950:	01cee8f4 	movhi	r7,15267
    2954:	319c1cc4 	addi	r6,r6,28787
    2958:	39c66284 	addi	r7,r7,6538
    295c:	003fd506 	br	28b4 <__alt_mem_VGA_Subsystem_Char_Buf_Subsystem_Onchip_SRAM+0xf70028b4>
    2960:	dac00917 	ldw	r11,36(sp)
    2964:	b815883a 	mov	r10,r23
    2968:	003f2b06 	br	2618 <__alt_mem_VGA_Subsystem_Char_Buf_Subsystem_Onchip_SRAM+0xf7002618>

0000296c <__kernel_cos>:
    296c:	defff304 	addi	sp,sp,-52
    2970:	dc000315 	stw	r16,12(sp)
    2974:	04200034 	movhi	r16,32768
    2978:	843fffc4 	addi	r16,r16,-1
    297c:	008f9034 	movhi	r2,15936
    2980:	df000b15 	stw	fp,44(sp)
    2984:	ddc00a15 	stw	r23,40(sp)
    2988:	dd800915 	stw	r22,36(sp)
    298c:	dcc00615 	stw	r19,24(sp)
    2990:	dfc00c15 	stw	ra,48(sp)
    2994:	dd400815 	stw	r21,32(sp)
    2998:	dd000715 	stw	r20,28(sp)
    299c:	dc800515 	stw	r18,20(sp)
    29a0:	dc400415 	stw	r17,16(sp)
    29a4:	2c20703a 	and	r16,r5,r16
    29a8:	10bfffc4 	addi	r2,r2,-1
    29ac:	2827883a 	mov	r19,r5
    29b0:	202d883a 	mov	r22,r4
    29b4:	302f883a 	mov	r23,r6
    29b8:	3839883a 	mov	fp,r7
    29bc:	14007516 	blt	r2,r16,2b94 <__kernel_cos+0x228>
    29c0:	00069500 	call	6950 <__fixdfsi>
    29c4:	10010f26 	beq	r2,zero,2e04 <__kernel_cos+0x498>
    29c8:	b00d883a 	mov	r6,r22
    29cc:	980f883a 	mov	r7,r19
    29d0:	b009883a 	mov	r4,r22
    29d4:	980b883a 	mov	r5,r19
    29d8:	00057e80 	call	57e8 <__muldf3>
    29dc:	01afa234 	movhi	r6,48776
    29e0:	01ef6a74 	movhi	r7,48553
    29e4:	318e3504 	addi	r6,r6,14548
    29e8:	39feba44 	addi	r7,r7,-1303
    29ec:	1009883a 	mov	r4,r2
    29f0:	180b883a 	mov	r5,r3
    29f4:	102b883a 	mov	r21,r2
    29f8:	1829883a 	mov	r20,r3
    29fc:	00057e80 	call	57e8 <__muldf3>
    2a00:	01af6d74 	movhi	r6,48565
    2a04:	01cf88b4 	movhi	r7,15906
    2a08:	31ac7104 	addi	r6,r6,-20028
    2a0c:	39fba784 	addi	r7,r7,-4450
    2a10:	1009883a 	mov	r4,r2
    2a14:	180b883a 	mov	r5,r3
    2a18:	00044080 	call	4408 <__adddf3>
    2a1c:	a80d883a 	mov	r6,r21
    2a20:	a00f883a 	mov	r7,r20
    2a24:	1009883a 	mov	r4,r2
    2a28:	180b883a 	mov	r5,r3
    2a2c:	00057e80 	call	57e8 <__muldf3>
    2a30:	01a02734 	movhi	r6,32924
    2a34:	01cfa4b4 	movhi	r7,16018
    2a38:	3194ab44 	addi	r6,r6,21165
    2a3c:	39df93c4 	addi	r7,r7,32335
    2a40:	1009883a 	mov	r4,r2
    2a44:	180b883a 	mov	r5,r3
    2a48:	00060540 	call	6054 <__subdf3>
    2a4c:	a80d883a 	mov	r6,r21
    2a50:	a00f883a 	mov	r7,r20
    2a54:	1009883a 	mov	r4,r2
    2a58:	180b883a 	mov	r5,r3
    2a5c:	00057e80 	call	57e8 <__muldf3>
    2a60:	018672f4 	movhi	r6,6603
    2a64:	01cfbeb4 	movhi	r7,16122
    2a68:	31856404 	addi	r6,r6,5520
    2a6c:	39c06804 	addi	r7,r7,416
    2a70:	1009883a 	mov	r4,r2
    2a74:	180b883a 	mov	r5,r3
    2a78:	00044080 	call	4408 <__adddf3>
    2a7c:	a80d883a 	mov	r6,r21
    2a80:	a00f883a 	mov	r7,r20
    2a84:	1009883a 	mov	r4,r2
    2a88:	180b883a 	mov	r5,r3
    2a8c:	00057e80 	call	57e8 <__muldf3>
    2a90:	0185b074 	movhi	r6,5825
    2a94:	01cfd5f4 	movhi	r7,16215
    2a98:	31945dc4 	addi	r6,r6,20855
    2a9c:	39f05b04 	addi	r7,r7,-16020
    2aa0:	1009883a 	mov	r4,r2
    2aa4:	180b883a 	mov	r5,r3
    2aa8:	00060540 	call	6054 <__subdf3>
    2aac:	a80d883a 	mov	r6,r21
    2ab0:	a00f883a 	mov	r7,r20
    2ab4:	1009883a 	mov	r4,r2
    2ab8:	180b883a 	mov	r5,r3
    2abc:	00057e80 	call	57e8 <__muldf3>
    2ac0:	01955574 	movhi	r6,21845
    2ac4:	01cfe974 	movhi	r7,16293
    2ac8:	31955304 	addi	r6,r6,21836
    2acc:	39d55544 	addi	r7,r7,21845
    2ad0:	1009883a 	mov	r4,r2
    2ad4:	180b883a 	mov	r5,r3
    2ad8:	00044080 	call	4408 <__adddf3>
    2adc:	a80d883a 	mov	r6,r21
    2ae0:	a00f883a 	mov	r7,r20
    2ae4:	1009883a 	mov	r4,r2
    2ae8:	180b883a 	mov	r5,r3
    2aec:	00057e80 	call	57e8 <__muldf3>
    2af0:	1017883a 	mov	r11,r2
    2af4:	1815883a 	mov	r10,r3
    2af8:	a809883a 	mov	r4,r21
    2afc:	a00b883a 	mov	r5,r20
    2b00:	000d883a 	mov	r6,zero
    2b04:	01cff834 	movhi	r7,16352
    2b08:	da800215 	stw	r10,8(sp)
    2b0c:	dac00115 	stw	r11,4(sp)
    2b10:	00057e80 	call	57e8 <__muldf3>
    2b14:	dac00117 	ldw	r11,4(sp)
    2b18:	da800217 	ldw	r10,8(sp)
    2b1c:	a809883a 	mov	r4,r21
    2b20:	580d883a 	mov	r6,r11
    2b24:	500f883a 	mov	r7,r10
    2b28:	a00b883a 	mov	r5,r20
    2b2c:	1023883a 	mov	r17,r2
    2b30:	1821883a 	mov	r16,r3
    2b34:	00057e80 	call	57e8 <__muldf3>
    2b38:	b80d883a 	mov	r6,r23
    2b3c:	e00f883a 	mov	r7,fp
    2b40:	b009883a 	mov	r4,r22
    2b44:	980b883a 	mov	r5,r19
    2b48:	1029883a 	mov	r20,r2
    2b4c:	1825883a 	mov	r18,r3
    2b50:	00057e80 	call	57e8 <__muldf3>
    2b54:	a009883a 	mov	r4,r20
    2b58:	900b883a 	mov	r5,r18
    2b5c:	100d883a 	mov	r6,r2
    2b60:	180f883a 	mov	r7,r3
    2b64:	00060540 	call	6054 <__subdf3>
    2b68:	8809883a 	mov	r4,r17
    2b6c:	800b883a 	mov	r5,r16
    2b70:	100d883a 	mov	r6,r2
    2b74:	180f883a 	mov	r7,r3
    2b78:	00060540 	call	6054 <__subdf3>
    2b7c:	100d883a 	mov	r6,r2
    2b80:	180f883a 	mov	r7,r3
    2b84:	0009883a 	mov	r4,zero
    2b88:	014ffc34 	movhi	r5,16368
    2b8c:	00060540 	call	6054 <__subdf3>
    2b90:	00008b06 	br	2dc0 <__kernel_cos+0x454>
    2b94:	200d883a 	mov	r6,r4
    2b98:	280f883a 	mov	r7,r5
    2b9c:	00057e80 	call	57e8 <__muldf3>
    2ba0:	01afa234 	movhi	r6,48776
    2ba4:	01ef6a74 	movhi	r7,48553
    2ba8:	318e3504 	addi	r6,r6,14548
    2bac:	39feba44 	addi	r7,r7,-1303
    2bb0:	1009883a 	mov	r4,r2
    2bb4:	180b883a 	mov	r5,r3
    2bb8:	1025883a 	mov	r18,r2
    2bbc:	1823883a 	mov	r17,r3
    2bc0:	00057e80 	call	57e8 <__muldf3>
    2bc4:	01af6d74 	movhi	r6,48565
    2bc8:	01cf88b4 	movhi	r7,15906
    2bcc:	31ac7104 	addi	r6,r6,-20028
    2bd0:	39fba784 	addi	r7,r7,-4450
    2bd4:	1009883a 	mov	r4,r2
    2bd8:	180b883a 	mov	r5,r3
    2bdc:	00044080 	call	4408 <__adddf3>
    2be0:	900d883a 	mov	r6,r18
    2be4:	880f883a 	mov	r7,r17
    2be8:	1009883a 	mov	r4,r2
    2bec:	180b883a 	mov	r5,r3
    2bf0:	00057e80 	call	57e8 <__muldf3>
    2bf4:	01a02734 	movhi	r6,32924
    2bf8:	01cfa4b4 	movhi	r7,16018
    2bfc:	3194ab44 	addi	r6,r6,21165
    2c00:	39df93c4 	addi	r7,r7,32335
    2c04:	1009883a 	mov	r4,r2
    2c08:	180b883a 	mov	r5,r3
    2c0c:	00060540 	call	6054 <__subdf3>
    2c10:	900d883a 	mov	r6,r18
    2c14:	880f883a 	mov	r7,r17
    2c18:	1009883a 	mov	r4,r2
    2c1c:	180b883a 	mov	r5,r3
    2c20:	00057e80 	call	57e8 <__muldf3>
    2c24:	018672f4 	movhi	r6,6603
    2c28:	01cfbeb4 	movhi	r7,16122
    2c2c:	31856404 	addi	r6,r6,5520
    2c30:	39c06804 	addi	r7,r7,416
    2c34:	1009883a 	mov	r4,r2
    2c38:	180b883a 	mov	r5,r3
    2c3c:	00044080 	call	4408 <__adddf3>
    2c40:	900d883a 	mov	r6,r18
    2c44:	880f883a 	mov	r7,r17
    2c48:	1009883a 	mov	r4,r2
    2c4c:	180b883a 	mov	r5,r3
    2c50:	00057e80 	call	57e8 <__muldf3>
    2c54:	0185b074 	movhi	r6,5825
    2c58:	01cfd5f4 	movhi	r7,16215
    2c5c:	31945dc4 	addi	r6,r6,20855
    2c60:	39f05b04 	addi	r7,r7,-16020
    2c64:	1009883a 	mov	r4,r2
    2c68:	180b883a 	mov	r5,r3
    2c6c:	00060540 	call	6054 <__subdf3>
    2c70:	900d883a 	mov	r6,r18
    2c74:	880f883a 	mov	r7,r17
    2c78:	1009883a 	mov	r4,r2
    2c7c:	180b883a 	mov	r5,r3
    2c80:	00057e80 	call	57e8 <__muldf3>
    2c84:	01955574 	movhi	r6,21845
    2c88:	01cfe974 	movhi	r7,16293
    2c8c:	31955304 	addi	r6,r6,21836
    2c90:	39d55544 	addi	r7,r7,21845
    2c94:	1009883a 	mov	r4,r2
    2c98:	180b883a 	mov	r5,r3
    2c9c:	00044080 	call	4408 <__adddf3>
    2ca0:	900d883a 	mov	r6,r18
    2ca4:	880f883a 	mov	r7,r17
    2ca8:	1009883a 	mov	r4,r2
    2cac:	180b883a 	mov	r5,r3
    2cb0:	00057e80 	call	57e8 <__muldf3>
    2cb4:	1013883a 	mov	r9,r2
    2cb8:	1017883a 	mov	r11,r2
    2cbc:	008ff4f4 	movhi	r2,16339
    2cc0:	108ccc84 	addi	r2,r2,13106
    2cc4:	1811883a 	mov	r8,r3
    2cc8:	902b883a 	mov	r21,r18
    2ccc:	8829883a 	mov	r20,r17
    2cd0:	1815883a 	mov	r10,r3
    2cd4:	143f880e 	bge	r2,r16,2af8 <__alt_mem_VGA_Subsystem_Char_Buf_Subsystem_Onchip_SRAM+0xf7002af8>
    2cd8:	008ffa74 	movhi	r2,16361
    2cdc:	14004416 	blt	r2,r16,2df0 <__kernel_cos+0x484>
    2ce0:	00bff834 	movhi	r2,65504
    2ce4:	80a1883a 	add	r16,r16,r2
    2ce8:	000d883a 	mov	r6,zero
    2cec:	800f883a 	mov	r7,r16
    2cf0:	0009883a 	mov	r4,zero
    2cf4:	014ffc34 	movhi	r5,16368
    2cf8:	da400115 	stw	r9,4(sp)
    2cfc:	d8c00215 	stw	r3,8(sp)
    2d00:	00060540 	call	6054 <__subdf3>
    2d04:	da000217 	ldw	r8,8(sp)
    2d08:	da400117 	ldw	r9,4(sp)
    2d0c:	102b883a 	mov	r21,r2
    2d10:	d8c00015 	stw	r3,0(sp)
    2d14:	9009883a 	mov	r4,r18
    2d18:	880b883a 	mov	r5,r17
    2d1c:	000d883a 	mov	r6,zero
    2d20:	01cff834 	movhi	r7,16352
    2d24:	da000215 	stw	r8,8(sp)
    2d28:	da400115 	stw	r9,4(sp)
    2d2c:	00057e80 	call	57e8 <__muldf3>
    2d30:	800f883a 	mov	r7,r16
    2d34:	000d883a 	mov	r6,zero
    2d38:	1009883a 	mov	r4,r2
    2d3c:	180b883a 	mov	r5,r3
    2d40:	00060540 	call	6054 <__subdf3>
    2d44:	da400117 	ldw	r9,4(sp)
    2d48:	da000217 	ldw	r8,8(sp)
    2d4c:	9009883a 	mov	r4,r18
    2d50:	480d883a 	mov	r6,r9
    2d54:	400f883a 	mov	r7,r8
    2d58:	880b883a 	mov	r5,r17
    2d5c:	1029883a 	mov	r20,r2
    2d60:	1821883a 	mov	r16,r3
    2d64:	00057e80 	call	57e8 <__muldf3>
    2d68:	b80d883a 	mov	r6,r23
    2d6c:	e00f883a 	mov	r7,fp
    2d70:	b009883a 	mov	r4,r22
    2d74:	980b883a 	mov	r5,r19
    2d78:	1025883a 	mov	r18,r2
    2d7c:	1823883a 	mov	r17,r3
    2d80:	00057e80 	call	57e8 <__muldf3>
    2d84:	100d883a 	mov	r6,r2
    2d88:	180f883a 	mov	r7,r3
    2d8c:	9009883a 	mov	r4,r18
    2d90:	880b883a 	mov	r5,r17
    2d94:	00060540 	call	6054 <__subdf3>
    2d98:	100d883a 	mov	r6,r2
    2d9c:	180f883a 	mov	r7,r3
    2da0:	a009883a 	mov	r4,r20
    2da4:	800b883a 	mov	r5,r16
    2da8:	00060540 	call	6054 <__subdf3>
    2dac:	d9400017 	ldw	r5,0(sp)
    2db0:	100d883a 	mov	r6,r2
    2db4:	180f883a 	mov	r7,r3
    2db8:	a809883a 	mov	r4,r21
    2dbc:	00060540 	call	6054 <__subdf3>
    2dc0:	dfc00c17 	ldw	ra,48(sp)
    2dc4:	df000b17 	ldw	fp,44(sp)
    2dc8:	ddc00a17 	ldw	r23,40(sp)
    2dcc:	dd800917 	ldw	r22,36(sp)
    2dd0:	dd400817 	ldw	r21,32(sp)
    2dd4:	dd000717 	ldw	r20,28(sp)
    2dd8:	dcc00617 	ldw	r19,24(sp)
    2ddc:	dc800517 	ldw	r18,20(sp)
    2de0:	dc400417 	ldw	r17,16(sp)
    2de4:	dc000317 	ldw	r16,12(sp)
    2de8:	dec00d04 	addi	sp,sp,52
    2dec:	f800283a 	ret
    2df0:	008ff9f4 	movhi	r2,16359
    2df4:	002b883a 	mov	r21,zero
    2df8:	d8800015 	stw	r2,0(sp)
    2dfc:	040ff4b4 	movhi	r16,16338
    2e00:	003fc406 	br	2d14 <__alt_mem_VGA_Subsystem_Char_Buf_Subsystem_Onchip_SRAM+0xf7002d14>
    2e04:	0005883a 	mov	r2,zero
    2e08:	00cffc34 	movhi	r3,16368
    2e0c:	003fec06 	br	2dc0 <__alt_mem_VGA_Subsystem_Char_Buf_Subsystem_Onchip_SRAM+0xf7002dc0>

00002e10 <__kernel_rem_pio2>:
    2e10:	deff5a04 	addi	sp,sp,-664
    2e14:	da00a617 	ldw	r8,664(sp)
    2e18:	00c00074 	movhi	r3,1
    2e1c:	18e64304 	addi	r3,r3,-26356
    2e20:	4205883a 	add	r2,r8,r8
    2e24:	1085883a 	add	r2,r2,r2
    2e28:	1885883a 	add	r2,r3,r2
    2e2c:	d9008e15 	stw	r4,568(sp)
    2e30:	d9408f15 	stw	r5,572(sp)
    2e34:	313fff44 	addi	r4,r6,-3
    2e38:	01400604 	movi	r5,24
    2e3c:	dd80a215 	stw	r22,648(sp)
    2e40:	dc009c15 	stw	r16,624(sp)
    2e44:	dfc0a515 	stw	ra,660(sp)
    2e48:	df00a415 	stw	fp,656(sp)
    2e4c:	ddc0a315 	stw	r23,652(sp)
    2e50:	dd40a115 	stw	r21,644(sp)
    2e54:	dd00a015 	stw	r20,640(sp)
    2e58:	dcc09f15 	stw	r19,636(sp)
    2e5c:	dc809e15 	stw	r18,632(sp)
    2e60:	dc409d15 	stw	r17,628(sp)
    2e64:	3021883a 	mov	r16,r6
    2e68:	d9c09315 	stw	r7,588(sp)
    2e6c:	15800017 	ldw	r22,0(r2)
    2e70:	000422c0 	call	422c <__divsi3>
    2e74:	da009317 	ldw	r8,588(sp)
    2e78:	d8809215 	stw	r2,584(sp)
    2e7c:	423fffc4 	addi	r8,r8,-1
    2e80:	da008d15 	stw	r8,564(sp)
    2e84:	10033d16 	blt	r2,zero,3b7c <__kernel_rem_pio2+0xd6c>
    2e88:	da009217 	ldw	r8,584(sp)
    2e8c:	017ffa04 	movi	r5,-24
    2e90:	42000044 	addi	r8,r8,1
    2e94:	4009883a 	mov	r4,r8
    2e98:	da009515 	stw	r8,596(sp)
    2e9c:	00043e00 	call	43e0 <__mulsi3>
    2ea0:	da008d17 	ldw	r8,564(sp)
    2ea4:	1421883a 	add	r16,r2,r16
    2ea8:	d8809217 	ldw	r2,584(sp)
    2eac:	b207883a 	add	r3,r22,r8
    2eb0:	dc009015 	stw	r16,576(sp)
    2eb4:	1223c83a 	sub	r17,r2,r8
    2eb8:	18001016 	blt	r3,zero,2efc <__kernel_rem_pio2+0xec>
    2ebc:	da00a717 	ldw	r8,668(sp)
    2ec0:	8c65883a 	add	r18,r17,r17
    2ec4:	94a5883a 	add	r18,r18,r18
    2ec8:	1c47883a 	add	r3,r3,r17
    2ecc:	dcc05004 	addi	r19,sp,320
    2ed0:	44a5883a 	add	r18,r8,r18
    2ed4:	1c000044 	addi	r16,r3,1
    2ed8:	88015316 	blt	r17,zero,3428 <__kernel_rem_pio2+0x618>
    2edc:	91000017 	ldw	r4,0(r18)
    2ee0:	00069d00 	call	69d0 <__floatsidf>
    2ee4:	98800015 	stw	r2,0(r19)
    2ee8:	98c00115 	stw	r3,4(r19)
    2eec:	8c400044 	addi	r17,r17,1
    2ef0:	9cc00204 	addi	r19,r19,8
    2ef4:	94800104 	addi	r18,r18,4
    2ef8:	8c3ff71e 	bne	r17,r16,2ed8 <__alt_mem_VGA_Subsystem_Char_Buf_Subsystem_Onchip_SRAM+0xf7002ed8>
    2efc:	b0002816 	blt	r22,zero,2fa0 <__kernel_rem_pio2+0x190>
    2f00:	da008d17 	ldw	r8,564(sp)
    2f04:	b4c00044 	addi	r19,r22,1
    2f08:	982690fa 	slli	r19,r19,3
    2f0c:	402490fa 	slli	r18,r8,3
    2f10:	da008e17 	ldw	r8,568(sp)
    2f14:	d8805004 	addi	r2,sp,320
    2f18:	94000204 	addi	r16,r18,8
    2f1c:	d823883a 	mov	r17,sp
    2f20:	14a5883a 	add	r18,r2,r18
    2f24:	dcef883a 	add	r23,sp,r19
    2f28:	4421883a 	add	r16,r8,r16
    2f2c:	dd809115 	stw	r22,580(sp)
    2f30:	4039883a 	mov	fp,r8
    2f34:	da008d17 	ldw	r8,564(sp)
    2f38:	40016016 	blt	r8,zero,34bc <__kernel_rem_pio2+0x6ac>
    2f3c:	e027883a 	mov	r19,fp
    2f40:	9029883a 	mov	r20,r18
    2f44:	002d883a 	mov	r22,zero
    2f48:	002b883a 	mov	r21,zero
    2f4c:	a1800017 	ldw	r6,0(r20)
    2f50:	a1c00117 	ldw	r7,4(r20)
    2f54:	99000017 	ldw	r4,0(r19)
    2f58:	99400117 	ldw	r5,4(r19)
    2f5c:	9cc00204 	addi	r19,r19,8
    2f60:	a53ffe04 	addi	r20,r20,-8
    2f64:	00057e80 	call	57e8 <__muldf3>
    2f68:	b009883a 	mov	r4,r22
    2f6c:	a80b883a 	mov	r5,r21
    2f70:	100d883a 	mov	r6,r2
    2f74:	180f883a 	mov	r7,r3
    2f78:	00044080 	call	4408 <__adddf3>
    2f7c:	102d883a 	mov	r22,r2
    2f80:	182b883a 	mov	r21,r3
    2f84:	9c3ff11e 	bne	r19,r16,2f4c <__alt_mem_VGA_Subsystem_Char_Buf_Subsystem_Onchip_SRAM+0xf7002f4c>
    2f88:	8d800015 	stw	r22,0(r17)
    2f8c:	8d400115 	stw	r21,4(r17)
    2f90:	8c400204 	addi	r17,r17,8
    2f94:	94800204 	addi	r18,r18,8
    2f98:	8dffe61e 	bne	r17,r23,2f34 <__alt_mem_VGA_Subsystem_Char_Buf_Subsystem_Onchip_SRAM+0xf7002f34>
    2f9c:	dd809117 	ldw	r22,580(sp)
    2fa0:	00d00034 	movhi	r3,16384
    2fa4:	da009317 	ldw	r8,588(sp)
    2fa8:	18ffff84 	addi	r3,r3,-2
    2fac:	b0c7883a 	add	r3,r22,r3
    2fb0:	18c7883a 	add	r3,r3,r3
    2fb4:	402090fa 	slli	r16,r8,3
    2fb8:	18c7883a 	add	r3,r3,r3
    2fbc:	da007804 	addi	r8,sp,480
    2fc0:	40d1883a 	add	r8,r8,r3
    2fc4:	b0bfffc4 	addi	r2,r22,-1
    2fc8:	da009615 	stw	r8,600(sp)
    2fcc:	da008e17 	ldw	r8,568(sp)
    2fd0:	1085883a 	add	r2,r2,r2
    2fd4:	1085883a 	add	r2,r2,r2
    2fd8:	19000104 	addi	r4,r3,4
    2fdc:	d885883a 	add	r2,sp,r2
    2fe0:	4421883a 	add	r16,r8,r16
    2fe4:	da007804 	addi	r8,sp,480
    2fe8:	4111883a 	add	r8,r8,r4
    2fec:	10807804 	addi	r2,r2,480
    2ff0:	da009715 	stw	r8,604(sp)
    2ff4:	b025883a 	mov	r18,r22
    2ff8:	d8809815 	stw	r2,608(sp)
    2ffc:	dd809415 	stw	r22,592(sp)
    3000:	900490fa 	slli	r2,r18,3
    3004:	d885883a 	add	r2,sp,r2
    3008:	17000017 	ldw	fp,0(r2)
    300c:	15400117 	ldw	r21,4(r2)
    3010:	04802b0e 	bge	zero,r18,30c0 <__kernel_rem_pio2+0x2b0>
    3014:	00880034 	movhi	r2,8192
    3018:	10bfffc4 	addi	r2,r2,-1
    301c:	90a9883a 	add	r20,r18,r2
    3020:	a02890fa 	slli	r20,r20,3
    3024:	dc407804 	addi	r17,sp,480
    3028:	dcfffe04 	addi	r19,sp,-8
    302c:	dd29883a 	add	r20,sp,r20
    3030:	000d883a 	mov	r6,zero
    3034:	01cf9c34 	movhi	r7,15984
    3038:	e009883a 	mov	r4,fp
    303c:	a80b883a 	mov	r5,r21
    3040:	00057e80 	call	57e8 <__muldf3>
    3044:	180b883a 	mov	r5,r3
    3048:	1009883a 	mov	r4,r2
    304c:	00069500 	call	6950 <__fixdfsi>
    3050:	1009883a 	mov	r4,r2
    3054:	00069d00 	call	69d0 <__floatsidf>
    3058:	000d883a 	mov	r6,zero
    305c:	01d05c34 	movhi	r7,16752
    3060:	1009883a 	mov	r4,r2
    3064:	180b883a 	mov	r5,r3
    3068:	102f883a 	mov	r23,r2
    306c:	182d883a 	mov	r22,r3
    3070:	00057e80 	call	57e8 <__muldf3>
    3074:	100d883a 	mov	r6,r2
    3078:	180f883a 	mov	r7,r3
    307c:	e009883a 	mov	r4,fp
    3080:	a80b883a 	mov	r5,r21
    3084:	00060540 	call	6054 <__subdf3>
    3088:	180b883a 	mov	r5,r3
    308c:	1009883a 	mov	r4,r2
    3090:	00069500 	call	6950 <__fixdfsi>
    3094:	a1800017 	ldw	r6,0(r20)
    3098:	a1c00117 	ldw	r7,4(r20)
    309c:	88800015 	stw	r2,0(r17)
    30a0:	b809883a 	mov	r4,r23
    30a4:	b00b883a 	mov	r5,r22
    30a8:	00044080 	call	4408 <__adddf3>
    30ac:	a53ffe04 	addi	r20,r20,-8
    30b0:	1039883a 	mov	fp,r2
    30b4:	182b883a 	mov	r21,r3
    30b8:	8c400104 	addi	r17,r17,4
    30bc:	a4ffdc1e 	bne	r20,r19,3030 <__alt_mem_VGA_Subsystem_Char_Buf_Subsystem_Onchip_SRAM+0xf7003030>
    30c0:	d9809017 	ldw	r6,576(sp)
    30c4:	a80b883a 	mov	r5,r21
    30c8:	e009883a 	mov	r4,fp
    30cc:	00040740 	call	4074 <scalbn>
    30d0:	000d883a 	mov	r6,zero
    30d4:	01cff034 	movhi	r7,16320
    30d8:	1009883a 	mov	r4,r2
    30dc:	180b883a 	mov	r5,r3
    30e0:	1027883a 	mov	r19,r2
    30e4:	1823883a 	mov	r17,r3
    30e8:	00057e80 	call	57e8 <__muldf3>
    30ec:	1009883a 	mov	r4,r2
    30f0:	180b883a 	mov	r5,r3
    30f4:	0003e880 	call	3e88 <floor>
    30f8:	000d883a 	mov	r6,zero
    30fc:	01d00834 	movhi	r7,16416
    3100:	1009883a 	mov	r4,r2
    3104:	180b883a 	mov	r5,r3
    3108:	00057e80 	call	57e8 <__muldf3>
    310c:	100d883a 	mov	r6,r2
    3110:	180f883a 	mov	r7,r3
    3114:	9809883a 	mov	r4,r19
    3118:	880b883a 	mov	r5,r17
    311c:	00060540 	call	6054 <__subdf3>
    3120:	180b883a 	mov	r5,r3
    3124:	1009883a 	mov	r4,r2
    3128:	1827883a 	mov	r19,r3
    312c:	1029883a 	mov	r20,r2
    3130:	00069500 	call	6950 <__fixdfsi>
    3134:	1009883a 	mov	r4,r2
    3138:	1023883a 	mov	r17,r2
    313c:	00069d00 	call	69d0 <__floatsidf>
    3140:	a009883a 	mov	r4,r20
    3144:	100d883a 	mov	r6,r2
    3148:	180f883a 	mov	r7,r3
    314c:	980b883a 	mov	r5,r19
    3150:	00060540 	call	6054 <__subdf3>
    3154:	d9009017 	ldw	r4,576(sp)
    3158:	1013883a 	mov	r9,r2
    315c:	102b883a 	mov	r21,r2
    3160:	1811883a 	mov	r8,r3
    3164:	0100b30e 	bge	zero,r4,3434 <__kernel_rem_pio2+0x624>
    3168:	90bfffc4 	addi	r2,r18,-1
    316c:	1085883a 	add	r2,r2,r2
    3170:	1085883a 	add	r2,r2,r2
    3174:	d885883a 	add	r2,sp,r2
    3178:	10807804 	addi	r2,r2,480
    317c:	d9809017 	ldw	r6,576(sp)
    3180:	11400017 	ldw	r5,0(r2)
    3184:	01000604 	movi	r4,24
    3188:	2189c83a 	sub	r4,r4,r6
    318c:	290dd83a 	sra	r6,r5,r4
    3190:	d9c09017 	ldw	r7,576(sp)
    3194:	04c005c4 	movi	r19,23
    3198:	3108983a 	sll	r4,r6,r4
    319c:	99e7c83a 	sub	r19,r19,r7
    31a0:	89a3883a 	add	r17,r17,r6
    31a4:	2909c83a 	sub	r4,r5,r4
    31a8:	24e7d83a 	sra	r19,r4,r19
    31ac:	11000015 	stw	r4,0(r2)
    31b0:	04c02a0e 	bge	zero,r19,325c <__kernel_rem_pio2+0x44c>
    31b4:	8c400044 	addi	r17,r17,1
    31b8:	0481570e 	bge	zero,r18,3718 <__kernel_rem_pio2+0x908>
    31bc:	02804034 	movhi	r10,256
    31c0:	52bfffc4 	addi	r10,r10,-1
    31c4:	d8807804 	addi	r2,sp,480
    31c8:	000b883a 	mov	r5,zero
    31cc:	0029883a 	mov	r20,zero
    31d0:	01c04034 	movhi	r7,256
    31d4:	00000706 	br	31f4 <__kernel_rem_pio2+0x3e4>
    31d8:	390dc83a 	sub	r6,r7,r4
    31dc:	20000226 	beq	r4,zero,31e8 <__kernel_rem_pio2+0x3d8>
    31e0:	11800015 	stw	r6,0(r2)
    31e4:	05000044 	movi	r20,1
    31e8:	29400044 	addi	r5,r5,1
    31ec:	10800104 	addi	r2,r2,4
    31f0:	2c80080e 	bge	r5,r18,3214 <__kernel_rem_pio2+0x404>
    31f4:	11000017 	ldw	r4,0(r2)
    31f8:	a03ff726 	beq	r20,zero,31d8 <__alt_mem_VGA_Subsystem_Char_Buf_Subsystem_Onchip_SRAM+0xf70031d8>
    31fc:	5109c83a 	sub	r4,r10,r4
    3200:	11000015 	stw	r4,0(r2)
    3204:	29400044 	addi	r5,r5,1
    3208:	05000044 	movi	r20,1
    320c:	10800104 	addi	r2,r2,4
    3210:	2cbff816 	blt	r5,r18,31f4 <__alt_mem_VGA_Subsystem_Char_Buf_Subsystem_Onchip_SRAM+0xf70031f4>
    3214:	d9009017 	ldw	r4,576(sp)
    3218:	01000e0e 	bge	zero,r4,3254 <__kernel_rem_pio2+0x444>
    321c:	00800044 	movi	r2,1
    3220:	20808d26 	beq	r4,r2,3458 <__kernel_rem_pio2+0x648>
    3224:	00800084 	movi	r2,2
    3228:	20800a1e 	bne	r4,r2,3254 <__kernel_rem_pio2+0x444>
    322c:	90bfffc4 	addi	r2,r18,-1
    3230:	1085883a 	add	r2,r2,r2
    3234:	1085883a 	add	r2,r2,r2
    3238:	d885883a 	add	r2,sp,r2
    323c:	10807804 	addi	r2,r2,480
    3240:	11400017 	ldw	r5,0(r2)
    3244:	01001034 	movhi	r4,64
    3248:	213fffc4 	addi	r4,r4,-1
    324c:	2908703a 	and	r4,r5,r4
    3250:	11000015 	stw	r4,0(r2)
    3254:	00800084 	movi	r2,2
    3258:	98805d26 	beq	r19,r2,33d0 <__kernel_rem_pio2+0x5c0>
    325c:	400b883a 	mov	r5,r8
    3260:	000d883a 	mov	r6,zero
    3264:	000f883a 	mov	r7,zero
    3268:	a809883a 	mov	r4,r21
    326c:	da009b15 	stw	r8,620(sp)
    3270:	00056840 	call	5684 <__eqdf2>
    3274:	da009b17 	ldw	r8,620(sp)
    3278:	10012b1e 	bne	r2,zero,3728 <__kernel_rem_pio2+0x918>
    327c:	da009417 	ldw	r8,592(sp)
    3280:	917fffc4 	addi	r5,r18,-1
    3284:	2a000e16 	blt	r5,r8,32c0 <__kernel_rem_pio2+0x4b0>
    3288:	00900034 	movhi	r2,16384
    328c:	10bfffc4 	addi	r2,r2,-1
    3290:	9085883a 	add	r2,r18,r2
    3294:	1085883a 	add	r2,r2,r2
    3298:	d9809717 	ldw	r6,604(sp)
    329c:	1085883a 	add	r2,r2,r2
    32a0:	d9007804 	addi	r4,sp,480
    32a4:	0007883a 	mov	r3,zero
    32a8:	2085883a 	add	r2,r4,r2
    32ac:	11000017 	ldw	r4,0(r2)
    32b0:	10bfff04 	addi	r2,r2,-4
    32b4:	1906b03a 	or	r3,r3,r4
    32b8:	11bffc1e 	bne	r2,r6,32ac <__alt_mem_VGA_Subsystem_Char_Buf_Subsystem_Onchip_SRAM+0xf70032ac>
    32bc:	1800821e 	bne	r3,zero,34c8 <__kernel_rem_pio2+0x6b8>
    32c0:	da009817 	ldw	r8,608(sp)
    32c4:	40800017 	ldw	r2,0(r8)
    32c8:	1001151e 	bne	r2,zero,3720 <__kernel_rem_pio2+0x910>
    32cc:	d8809617 	ldw	r2,600(sp)
    32d0:	05000044 	movi	r20,1
    32d4:	10bfff04 	addi	r2,r2,-4
    32d8:	10c00117 	ldw	r3,4(r2)
    32dc:	a5000044 	addi	r20,r20,1
    32e0:	183ffc26 	beq	r3,zero,32d4 <__alt_mem_VGA_Subsystem_Char_Buf_Subsystem_Onchip_SRAM+0xf70032d4>
    32e4:	9529883a 	add	r20,r18,r20
    32e8:	90800044 	addi	r2,r18,1
    32ec:	dd009115 	stw	r20,580(sp)
    32f0:	a0803216 	blt	r20,r2,33bc <__kernel_rem_pio2+0x5ac>
    32f4:	da009317 	ldw	r8,588(sp)
    32f8:	d8c09117 	ldw	r3,580(sp)
    32fc:	44a3883a 	add	r17,r8,r18
    3300:	da009217 	ldw	r8,584(sp)
    3304:	882290fa 	slli	r17,r17,3
    3308:	40a5883a 	add	r18,r8,r2
    330c:	da009517 	ldw	r8,596(sp)
    3310:	100490fa 	slli	r2,r2,3
    3314:	94a5883a 	add	r18,r18,r18
    3318:	40eb883a 	add	r21,r8,r3
    331c:	da00a717 	ldw	r8,668(sp)
    3320:	ad6b883a 	add	r21,r21,r21
    3324:	94a5883a 	add	r18,r18,r18
    3328:	ad6b883a 	add	r21,r21,r21
    332c:	d8c05004 	addi	r3,sp,320
    3330:	44a5883a 	add	r18,r8,r18
    3334:	1c63883a 	add	r17,r3,r17
    3338:	d8a7883a 	add	r19,sp,r2
    333c:	456b883a 	add	r21,r8,r21
    3340:	91000017 	ldw	r4,0(r18)
    3344:	00069d00 	call	69d0 <__floatsidf>
    3348:	da008d17 	ldw	r8,564(sp)
    334c:	88800015 	stw	r2,0(r17)
    3350:	88c00115 	stw	r3,4(r17)
    3354:	40001b16 	blt	r8,zero,33c4 <__kernel_rem_pio2+0x5b4>
    3358:	dd008e17 	ldw	r20,568(sp)
    335c:	882d883a 	mov	r22,r17
    3360:	002f883a 	mov	r23,zero
    3364:	0039883a 	mov	fp,zero
    3368:	b1800017 	ldw	r6,0(r22)
    336c:	b1c00117 	ldw	r7,4(r22)
    3370:	a1000017 	ldw	r4,0(r20)
    3374:	a1400117 	ldw	r5,4(r20)
    3378:	a5000204 	addi	r20,r20,8
    337c:	b5bffe04 	addi	r22,r22,-8
    3380:	00057e80 	call	57e8 <__muldf3>
    3384:	b809883a 	mov	r4,r23
    3388:	e00b883a 	mov	r5,fp
    338c:	100d883a 	mov	r6,r2
    3390:	180f883a 	mov	r7,r3
    3394:	00044080 	call	4408 <__adddf3>
    3398:	102f883a 	mov	r23,r2
    339c:	1839883a 	mov	fp,r3
    33a0:	a43ff11e 	bne	r20,r16,3368 <__alt_mem_VGA_Subsystem_Char_Buf_Subsystem_Onchip_SRAM+0xf7003368>
    33a4:	9dc00015 	stw	r23,0(r19)
    33a8:	9f000115 	stw	fp,4(r19)
    33ac:	94800104 	addi	r18,r18,4
    33b0:	8c400204 	addi	r17,r17,8
    33b4:	9cc00204 	addi	r19,r19,8
    33b8:	957fe11e 	bne	r18,r21,3340 <__alt_mem_VGA_Subsystem_Char_Buf_Subsystem_Onchip_SRAM+0xf7003340>
    33bc:	dc809117 	ldw	r18,580(sp)
    33c0:	003f0f06 	br	3000 <__alt_mem_VGA_Subsystem_Char_Buf_Subsystem_Onchip_SRAM+0xf7003000>
    33c4:	002f883a 	mov	r23,zero
    33c8:	0039883a 	mov	fp,zero
    33cc:	003ff506 	br	33a4 <__alt_mem_VGA_Subsystem_Char_Buf_Subsystem_Onchip_SRAM+0xf70033a4>
    33d0:	480d883a 	mov	r6,r9
    33d4:	180f883a 	mov	r7,r3
    33d8:	0009883a 	mov	r4,zero
    33dc:	014ffc34 	movhi	r5,16368
    33e0:	00060540 	call	6054 <__subdf3>
    33e4:	102b883a 	mov	r21,r2
    33e8:	1811883a 	mov	r8,r3
    33ec:	a03f9b26 	beq	r20,zero,325c <__alt_mem_VGA_Subsystem_Char_Buf_Subsystem_Onchip_SRAM+0xf700325c>
    33f0:	d9809017 	ldw	r6,576(sp)
    33f4:	0009883a 	mov	r4,zero
    33f8:	014ffc34 	movhi	r5,16368
    33fc:	d8c09b15 	stw	r3,620(sp)
    3400:	00040740 	call	4074 <scalbn>
    3404:	da009b17 	ldw	r8,620(sp)
    3408:	a809883a 	mov	r4,r21
    340c:	100d883a 	mov	r6,r2
    3410:	400b883a 	mov	r5,r8
    3414:	180f883a 	mov	r7,r3
    3418:	00060540 	call	6054 <__subdf3>
    341c:	102b883a 	mov	r21,r2
    3420:	1811883a 	mov	r8,r3
    3424:	003f8d06 	br	325c <__alt_mem_VGA_Subsystem_Char_Buf_Subsystem_Onchip_SRAM+0xf700325c>
    3428:	0005883a 	mov	r2,zero
    342c:	0007883a 	mov	r3,zero
    3430:	003eac06 	br	2ee4 <__alt_mem_VGA_Subsystem_Char_Buf_Subsystem_Onchip_SRAM+0xf7002ee4>
    3434:	d8809017 	ldw	r2,576(sp)
    3438:	1000121e 	bne	r2,zero,3484 <__kernel_rem_pio2+0x674>
    343c:	90bfffc4 	addi	r2,r18,-1
    3440:	1085883a 	add	r2,r2,r2
    3444:	1085883a 	add	r2,r2,r2
    3448:	d885883a 	add	r2,sp,r2
    344c:	14c07817 	ldw	r19,480(r2)
    3450:	9827d5fa 	srai	r19,r19,23
    3454:	003f5606 	br	31b0 <__alt_mem_VGA_Subsystem_Char_Buf_Subsystem_Onchip_SRAM+0xf70031b0>
    3458:	90bfffc4 	addi	r2,r18,-1
    345c:	1085883a 	add	r2,r2,r2
    3460:	1085883a 	add	r2,r2,r2
    3464:	d885883a 	add	r2,sp,r2
    3468:	10807804 	addi	r2,r2,480
    346c:	11000017 	ldw	r4,0(r2)
    3470:	01402034 	movhi	r5,128
    3474:	297fffc4 	addi	r5,r5,-1
    3478:	2148703a 	and	r4,r4,r5
    347c:	11000015 	stw	r4,0(r2)
    3480:	003f7406 	br	3254 <__alt_mem_VGA_Subsystem_Char_Buf_Subsystem_Onchip_SRAM+0xf7003254>
    3484:	4809883a 	mov	r4,r9
    3488:	180b883a 	mov	r5,r3
    348c:	000d883a 	mov	r6,zero
    3490:	01cff834 	movhi	r7,16352
    3494:	d8c09a15 	stw	r3,616(sp)
    3498:	d8c09b15 	stw	r3,620(sp)
    349c:	da409915 	stw	r9,612(sp)
    34a0:	000570c0 	call	570c <__gedf2>
    34a4:	d8c09a17 	ldw	r3,616(sp)
    34a8:	da009b17 	ldw	r8,620(sp)
    34ac:	da409917 	ldw	r9,612(sp)
    34b0:	1000920e 	bge	r2,zero,36fc <__kernel_rem_pio2+0x8ec>
    34b4:	0027883a 	mov	r19,zero
    34b8:	003f6806 	br	325c <__alt_mem_VGA_Subsystem_Char_Buf_Subsystem_Onchip_SRAM+0xf700325c>
    34bc:	002d883a 	mov	r22,zero
    34c0:	002b883a 	mov	r21,zero
    34c4:	003eb006 	br	2f88 <__alt_mem_VGA_Subsystem_Char_Buf_Subsystem_Onchip_SRAM+0xf7002f88>
    34c8:	2945883a 	add	r2,r5,r5
    34cc:	da009017 	ldw	r8,576(sp)
    34d0:	1085883a 	add	r2,r2,r2
    34d4:	d885883a 	add	r2,sp,r2
    34d8:	10807817 	ldw	r2,480(r2)
    34dc:	423ffa04 	addi	r8,r8,-24
    34e0:	dc409115 	stw	r17,580(sp)
    34e4:	dcc08d15 	stw	r19,564(sp)
    34e8:	da009015 	stw	r8,576(sp)
    34ec:	dd809417 	ldw	r22,592(sp)
    34f0:	2823883a 	mov	r17,r5
    34f4:	10000e1e 	bne	r2,zero,3530 <__kernel_rem_pio2+0x720>
    34f8:	00900034 	movhi	r2,16384
    34fc:	10bfffc4 	addi	r2,r2,-1
    3500:	2885883a 	add	r2,r5,r2
    3504:	1085883a 	add	r2,r2,r2
    3508:	d8c07804 	addi	r3,sp,480
    350c:	1085883a 	add	r2,r2,r2
    3510:	1885883a 	add	r2,r3,r2
    3514:	4007883a 	mov	r3,r8
    3518:	10bfff04 	addi	r2,r2,-4
    351c:	11000117 	ldw	r4,4(r2)
    3520:	8c7fffc4 	addi	r17,r17,-1
    3524:	18fffa04 	addi	r3,r3,-24
    3528:	203ffb26 	beq	r4,zero,3518 <__alt_mem_VGA_Subsystem_Char_Buf_Subsystem_Onchip_SRAM+0xf7003518>
    352c:	d8c09015 	stw	r3,576(sp)
    3530:	d9809017 	ldw	r6,576(sp)
    3534:	0009883a 	mov	r4,zero
    3538:	014ffc34 	movhi	r5,16368
    353c:	00040740 	call	4074 <scalbn>
    3540:	1029883a 	mov	r20,r2
    3544:	182b883a 	mov	r21,r3
    3548:	88018416 	blt	r17,zero,3b5c <__kernel_rem_pio2+0xd4c>
    354c:	881090fa 	slli	r8,r17,3
    3550:	d8c07804 	addi	r3,sp,480
    3554:	da008e15 	stw	r8,568(sp)
    3558:	d8808e17 	ldw	r2,568(sp)
    355c:	8c51883a 	add	r8,r17,r17
    3560:	4211883a 	add	r8,r8,r8
    3564:	d8a1883a 	add	r16,sp,r2
    3568:	1a25883a 	add	r18,r3,r8
    356c:	da3ffe04 	addi	r8,sp,-8
    3570:	da008c15 	stw	r8,560(sp)
    3574:	8039883a 	mov	fp,r16
    3578:	91000017 	ldw	r4,0(r18)
    357c:	e73ffe04 	addi	fp,fp,-8
    3580:	94bfff04 	addi	r18,r18,-4
    3584:	00069d00 	call	69d0 <__floatsidf>
    3588:	a00d883a 	mov	r6,r20
    358c:	a80f883a 	mov	r7,r21
    3590:	1009883a 	mov	r4,r2
    3594:	180b883a 	mov	r5,r3
    3598:	00057e80 	call	57e8 <__muldf3>
    359c:	a009883a 	mov	r4,r20
    35a0:	a80b883a 	mov	r5,r21
    35a4:	e0800215 	stw	r2,8(fp)
    35a8:	e0c00315 	stw	r3,12(fp)
    35ac:	000d883a 	mov	r6,zero
    35b0:	01cf9c34 	movhi	r7,15984
    35b4:	00057e80 	call	57e8 <__muldf3>
    35b8:	da008c17 	ldw	r8,560(sp)
    35bc:	1029883a 	mov	r20,r2
    35c0:	182b883a 	mov	r21,r3
    35c4:	e23fec1e 	bne	fp,r8,3578 <__alt_mem_VGA_Subsystem_Char_Buf_Subsystem_Onchip_SRAM+0xf7003578>
    35c8:	0029883a 	mov	r20,zero
    35cc:	b0004f16 	blt	r22,zero,370c <__kernel_rem_pio2+0x8fc>
    35d0:	05400074 	movhi	r21,1
    35d4:	014ffe74 	movhi	r5,16377
    35d8:	ad663504 	addi	r21,r21,-26412
    35dc:	8027883a 	mov	r19,r16
    35e0:	01100034 	movhi	r4,16384
    35e4:	29487ec4 	addi	r5,r5,8699
    35e8:	0039883a 	mov	fp,zero
    35ec:	002f883a 	mov	r23,zero
    35f0:	0025883a 	mov	r18,zero
    35f4:	00000506 	br	360c <__kernel_rem_pio2+0x7fc>
    35f8:	9cc00204 	addi	r19,r19,8
    35fc:	a4800f16 	blt	r20,r18,363c <__kernel_rem_pio2+0x82c>
    3600:	a9000017 	ldw	r4,0(r21)
    3604:	a9400117 	ldw	r5,4(r21)
    3608:	ad400204 	addi	r21,r21,8
    360c:	99800017 	ldw	r6,0(r19)
    3610:	99c00117 	ldw	r7,4(r19)
    3614:	94800044 	addi	r18,r18,1
    3618:	00057e80 	call	57e8 <__muldf3>
    361c:	e009883a 	mov	r4,fp
    3620:	b80b883a 	mov	r5,r23
    3624:	100d883a 	mov	r6,r2
    3628:	180f883a 	mov	r7,r3
    362c:	00044080 	call	4408 <__adddf3>
    3630:	1039883a 	mov	fp,r2
    3634:	182f883a 	mov	r23,r3
    3638:	b4bfef0e 	bge	r22,r18,35f8 <__alt_mem_VGA_Subsystem_Char_Buf_Subsystem_Onchip_SRAM+0xf70035f8>
    363c:	a00490fa 	slli	r2,r20,3
    3640:	da008c17 	ldw	r8,560(sp)
    3644:	843ffe04 	addi	r16,r16,-8
    3648:	d885883a 	add	r2,sp,r2
    364c:	10802804 	addi	r2,r2,160
    3650:	17000015 	stw	fp,0(r2)
    3654:	15c00115 	stw	r23,4(r2)
    3658:	a5000044 	addi	r20,r20,1
    365c:	823fdb1e 	bne	r16,r8,35cc <__alt_mem_VGA_Subsystem_Char_Buf_Subsystem_Onchip_SRAM+0xf70035cc>
    3660:	da00a617 	ldw	r8,664(sp)
    3664:	00800084 	movi	r2,2
    3668:	12006616 	blt	r2,r8,3804 <__kernel_rem_pio2+0x9f4>
    366c:	0200de16 	blt	zero,r8,39e8 <__kernel_rem_pio2+0xbd8>
    3670:	4000141e 	bne	r8,zero,36c4 <__kernel_rem_pio2+0x8b4>
    3674:	da008e17 	ldw	r8,568(sp)
    3678:	d8802804 	addi	r2,sp,160
    367c:	0007883a 	mov	r3,zero
    3680:	1225883a 	add	r18,r2,r8
    3684:	043fffc4 	movi	r16,-1
    3688:	0005883a 	mov	r2,zero
    368c:	91800017 	ldw	r6,0(r18)
    3690:	91c00117 	ldw	r7,4(r18)
    3694:	1009883a 	mov	r4,r2
    3698:	180b883a 	mov	r5,r3
    369c:	8c7fffc4 	addi	r17,r17,-1
    36a0:	00044080 	call	4408 <__adddf3>
    36a4:	94bffe04 	addi	r18,r18,-8
    36a8:	8c3ff81e 	bne	r17,r16,368c <__alt_mem_VGA_Subsystem_Char_Buf_Subsystem_Onchip_SRAM+0xf700368c>
    36ac:	da008d17 	ldw	r8,564(sp)
    36b0:	40000126 	beq	r8,zero,36b8 <__kernel_rem_pio2+0x8a8>
    36b4:	18e0003c 	xorhi	r3,r3,32768
    36b8:	da008f17 	ldw	r8,572(sp)
    36bc:	40800015 	stw	r2,0(r8)
    36c0:	40c00115 	stw	r3,4(r8)
    36c4:	da009117 	ldw	r8,580(sp)
    36c8:	408001cc 	andi	r2,r8,7
    36cc:	dfc0a517 	ldw	ra,660(sp)
    36d0:	df00a417 	ldw	fp,656(sp)
    36d4:	ddc0a317 	ldw	r23,652(sp)
    36d8:	dd80a217 	ldw	r22,648(sp)
    36dc:	dd40a117 	ldw	r21,644(sp)
    36e0:	dd00a017 	ldw	r20,640(sp)
    36e4:	dcc09f17 	ldw	r19,636(sp)
    36e8:	dc809e17 	ldw	r18,632(sp)
    36ec:	dc409d17 	ldw	r17,628(sp)
    36f0:	dc009c17 	ldw	r16,624(sp)
    36f4:	dec0a604 	addi	sp,sp,664
    36f8:	f800283a 	ret
    36fc:	8c400044 	addi	r17,r17,1
    3700:	04810d0e 	bge	zero,r18,3b38 <__kernel_rem_pio2+0xd28>
    3704:	04c00084 	movi	r19,2
    3708:	003eac06 	br	31bc <__alt_mem_VGA_Subsystem_Char_Buf_Subsystem_Onchip_SRAM+0xf70031bc>
    370c:	0039883a 	mov	fp,zero
    3710:	002f883a 	mov	r23,zero
    3714:	003fc906 	br	363c <__alt_mem_VGA_Subsystem_Char_Buf_Subsystem_Onchip_SRAM+0xf700363c>
    3718:	0029883a 	mov	r20,zero
    371c:	003ebd06 	br	3214 <__alt_mem_VGA_Subsystem_Char_Buf_Subsystem_Onchip_SRAM+0xf7003214>
    3720:	05000044 	movi	r20,1
    3724:	003eef06 	br	32e4 <__alt_mem_VGA_Subsystem_Char_Buf_Subsystem_Onchip_SRAM+0xf70032e4>
    3728:	4029883a 	mov	r20,r8
    372c:	da009017 	ldw	r8,576(sp)
    3730:	a809883a 	mov	r4,r21
    3734:	a00b883a 	mov	r5,r20
    3738:	020dc83a 	sub	r6,zero,r8
    373c:	dc409115 	stw	r17,580(sp)
    3740:	dd809417 	ldw	r22,592(sp)
    3744:	dcc08d15 	stw	r19,564(sp)
    3748:	00040740 	call	4074 <scalbn>
    374c:	000d883a 	mov	r6,zero
    3750:	01d05c34 	movhi	r7,16752
    3754:	1009883a 	mov	r4,r2
    3758:	180b883a 	mov	r5,r3
    375c:	102b883a 	mov	r21,r2
    3760:	1823883a 	mov	r17,r3
    3764:	000570c0 	call	570c <__gedf2>
    3768:	1000e916 	blt	r2,zero,3b10 <__kernel_rem_pio2+0xd00>
    376c:	000d883a 	mov	r6,zero
    3770:	01cf9c34 	movhi	r7,15984
    3774:	880b883a 	mov	r5,r17
    3778:	a809883a 	mov	r4,r21
    377c:	00057e80 	call	57e8 <__muldf3>
    3780:	180b883a 	mov	r5,r3
    3784:	1009883a 	mov	r4,r2
    3788:	00069500 	call	6950 <__fixdfsi>
    378c:	1029883a 	mov	r20,r2
    3790:	9485883a 	add	r2,r18,r18
    3794:	1085883a 	add	r2,r2,r2
    3798:	a009883a 	mov	r4,r20
    379c:	d8a1883a 	add	r16,sp,r2
    37a0:	00069d00 	call	69d0 <__floatsidf>
    37a4:	000d883a 	mov	r6,zero
    37a8:	01d05c34 	movhi	r7,16752
    37ac:	1009883a 	mov	r4,r2
    37b0:	180b883a 	mov	r5,r3
    37b4:	00057e80 	call	57e8 <__muldf3>
    37b8:	880b883a 	mov	r5,r17
    37bc:	100d883a 	mov	r6,r2
    37c0:	180f883a 	mov	r7,r3
    37c4:	a809883a 	mov	r4,r21
    37c8:	00060540 	call	6054 <__subdf3>
    37cc:	180b883a 	mov	r5,r3
    37d0:	1009883a 	mov	r4,r2
    37d4:	00069500 	call	6950 <__fixdfsi>
    37d8:	da009017 	ldw	r8,576(sp)
    37dc:	94400044 	addi	r17,r18,1
    37e0:	8c47883a 	add	r3,r17,r17
    37e4:	84007804 	addi	r16,r16,480
    37e8:	18c7883a 	add	r3,r3,r3
    37ec:	80800015 	stw	r2,0(r16)
    37f0:	d8c7883a 	add	r3,sp,r3
    37f4:	42000604 	addi	r8,r8,24
    37f8:	da009015 	stw	r8,576(sp)
    37fc:	1d007815 	stw	r20,480(r3)
    3800:	003f4b06 	br	3530 <__alt_mem_VGA_Subsystem_Char_Buf_Subsystem_Onchip_SRAM+0xf7003530>
    3804:	da00a617 	ldw	r8,664(sp)
    3808:	008000c4 	movi	r2,3
    380c:	40bfad1e 	bne	r8,r2,36c4 <__alt_mem_VGA_Subsystem_Char_Buf_Subsystem_Onchip_SRAM+0xf70036c4>
    3810:	0440bc0e 	bge	zero,r17,3b04 <__kernel_rem_pio2+0xcf4>
    3814:	da008e17 	ldw	r8,568(sp)
    3818:	882090fa 	slli	r16,r17,3
    381c:	dd402804 	addi	r21,sp,160
    3820:	da05883a 	add	r2,sp,r8
    3824:	10802804 	addi	r2,r2,160
    3828:	15c00017 	ldw	r23,0(r2)
    382c:	15800117 	ldw	r22,4(r2)
    3830:	8029883a 	mov	r20,r16
    3834:	843ffe04 	addi	r16,r16,-8
    3838:	ac21883a 	add	r16,r21,r16
    383c:	ad29883a 	add	r20,r21,r20
    3840:	dac02604 	addi	r11,sp,152
    3844:	8811883a 	mov	r8,r17
    3848:	84400017 	ldw	r17,0(r16)
    384c:	87000117 	ldw	fp,4(r16)
    3850:	b80d883a 	mov	r6,r23
    3854:	b00f883a 	mov	r7,r22
    3858:	8809883a 	mov	r4,r17
    385c:	e00b883a 	mov	r5,fp
    3860:	da009b15 	stw	r8,620(sp)
    3864:	dac09915 	stw	r11,612(sp)
    3868:	00044080 	call	4408 <__adddf3>
    386c:	100d883a 	mov	r6,r2
    3870:	180f883a 	mov	r7,r3
    3874:	8809883a 	mov	r4,r17
    3878:	e00b883a 	mov	r5,fp
    387c:	1027883a 	mov	r19,r2
    3880:	1825883a 	mov	r18,r3
    3884:	00060540 	call	6054 <__subdf3>
    3888:	b80d883a 	mov	r6,r23
    388c:	b00f883a 	mov	r7,r22
    3890:	1009883a 	mov	r4,r2
    3894:	180b883a 	mov	r5,r3
    3898:	00044080 	call	4408 <__adddf3>
    389c:	dac09917 	ldw	r11,612(sp)
    38a0:	a0800015 	stw	r2,0(r20)
    38a4:	a0c00115 	stw	r3,4(r20)
    38a8:	84c00015 	stw	r19,0(r16)
    38ac:	84800115 	stw	r18,4(r16)
    38b0:	843ffe04 	addi	r16,r16,-8
    38b4:	a53ffe04 	addi	r20,r20,-8
    38b8:	982f883a 	mov	r23,r19
    38bc:	902d883a 	mov	r22,r18
    38c0:	da009b17 	ldw	r8,620(sp)
    38c4:	5c3fe01e 	bne	r11,r16,3848 <__alt_mem_VGA_Subsystem_Char_Buf_Subsystem_Onchip_SRAM+0xf7003848>
    38c8:	00800044 	movi	r2,1
    38cc:	12008d0e 	bge	r2,r8,3b04 <__kernel_rem_pio2+0xcf4>
    38d0:	402090fa 	slli	r16,r8,3
    38d4:	da008e17 	ldw	r8,568(sp)
    38d8:	8023883a 	mov	r17,r16
    38dc:	da05883a 	add	r2,sp,r8
    38e0:	10802804 	addi	r2,r2,160
    38e4:	15800017 	ldw	r22,0(r2)
    38e8:	15000117 	ldw	r20,4(r2)
    38ec:	ac63883a 	add	r17,r21,r17
    38f0:	843ffe04 	addi	r16,r16,-8
    38f4:	ac21883a 	add	r16,r21,r16
    38f8:	8825883a 	mov	r18,r17
    38fc:	8811883a 	mov	r8,r17
    3900:	84400017 	ldw	r17,0(r16)
    3904:	87000117 	ldw	fp,4(r16)
    3908:	b009883a 	mov	r4,r22
    390c:	a00b883a 	mov	r5,r20
    3910:	880d883a 	mov	r6,r17
    3914:	e00f883a 	mov	r7,fp
    3918:	da009b15 	stw	r8,620(sp)
    391c:	00044080 	call	4408 <__adddf3>
    3920:	100d883a 	mov	r6,r2
    3924:	180f883a 	mov	r7,r3
    3928:	8809883a 	mov	r4,r17
    392c:	e00b883a 	mov	r5,fp
    3930:	102f883a 	mov	r23,r2
    3934:	1827883a 	mov	r19,r3
    3938:	00060540 	call	6054 <__subdf3>
    393c:	b00d883a 	mov	r6,r22
    3940:	a00f883a 	mov	r7,r20
    3944:	1009883a 	mov	r4,r2
    3948:	180b883a 	mov	r5,r3
    394c:	00044080 	call	4408 <__adddf3>
    3950:	90800015 	stw	r2,0(r18)
    3954:	90c00115 	stw	r3,4(r18)
    3958:	85c00015 	stw	r23,0(r16)
    395c:	84c00115 	stw	r19,4(r16)
    3960:	843ffe04 	addi	r16,r16,-8
    3964:	94bffe04 	addi	r18,r18,-8
    3968:	b82d883a 	mov	r22,r23
    396c:	9829883a 	mov	r20,r19
    3970:	da009b17 	ldw	r8,620(sp)
    3974:	ac3fe21e 	bne	r21,r16,3900 <__alt_mem_VGA_Subsystem_Char_Buf_Subsystem_Onchip_SRAM+0xf7003900>
    3978:	4023883a 	mov	r17,r8
    397c:	dc002a04 	addi	r16,sp,168
    3980:	0005883a 	mov	r2,zero
    3984:	0007883a 	mov	r3,zero
    3988:	89800017 	ldw	r6,0(r17)
    398c:	89c00117 	ldw	r7,4(r17)
    3990:	1009883a 	mov	r4,r2
    3994:	8c7ffe04 	addi	r17,r17,-8
    3998:	180b883a 	mov	r5,r3
    399c:	00044080 	call	4408 <__adddf3>
    39a0:	847ff91e 	bne	r16,r17,3988 <__alt_mem_VGA_Subsystem_Char_Buf_Subsystem_Onchip_SRAM+0xf7003988>
    39a4:	da008d17 	ldw	r8,564(sp)
    39a8:	40004726 	beq	r8,zero,3ac8 <__kernel_rem_pio2+0xcb8>
    39ac:	d9002b17 	ldw	r4,172(sp)
    39b0:	d9402917 	ldw	r5,164(sp)
    39b4:	d9802a17 	ldw	r6,168(sp)
    39b8:	da008f17 	ldw	r8,572(sp)
    39bc:	d9c02817 	ldw	r7,160(sp)
    39c0:	2960003c 	xorhi	r5,r5,32768
    39c4:	2120003c 	xorhi	r4,r4,32768
    39c8:	18e0003c 	xorhi	r3,r3,32768
    39cc:	41c00015 	stw	r7,0(r8)
    39d0:	41400115 	stw	r5,4(r8)
    39d4:	41800215 	stw	r6,8(r8)
    39d8:	41000315 	stw	r4,12(r8)
    39dc:	40800415 	stw	r2,16(r8)
    39e0:	40c00515 	stw	r3,20(r8)
    39e4:	003f3706 	br	36c4 <__alt_mem_VGA_Subsystem_Char_Buf_Subsystem_Onchip_SRAM+0xf70036c4>
    39e8:	da008e17 	ldw	r8,568(sp)
    39ec:	d8802804 	addi	r2,sp,160
    39f0:	dc002604 	addi	r16,sp,152
    39f4:	1225883a 	add	r18,r2,r8
    39f8:	0007883a 	mov	r3,zero
    39fc:	0005883a 	mov	r2,zero
    3a00:	91800017 	ldw	r6,0(r18)
    3a04:	91c00117 	ldw	r7,4(r18)
    3a08:	1009883a 	mov	r4,r2
    3a0c:	94bffe04 	addi	r18,r18,-8
    3a10:	180b883a 	mov	r5,r3
    3a14:	00044080 	call	4408 <__adddf3>
    3a18:	943ff91e 	bne	r18,r16,3a00 <__alt_mem_VGA_Subsystem_Char_Buf_Subsystem_Onchip_SRAM+0xf7003a00>
    3a1c:	da008d17 	ldw	r8,564(sp)
    3a20:	d9002817 	ldw	r4,160(sp)
    3a24:	d9402917 	ldw	r5,164(sp)
    3a28:	40001a26 	beq	r8,zero,3a94 <__kernel_rem_pio2+0xc84>
    3a2c:	da008f17 	ldw	r8,572(sp)
    3a30:	19a0003c 	xorhi	r6,r3,32768
    3a34:	180f883a 	mov	r7,r3
    3a38:	41800115 	stw	r6,4(r8)
    3a3c:	40800015 	stw	r2,0(r8)
    3a40:	100d883a 	mov	r6,r2
    3a44:	00060540 	call	6054 <__subdf3>
    3a48:	04400c0e 	bge	zero,r17,3a7c <__kernel_rem_pio2+0xc6c>
    3a4c:	dc002a04 	addi	r16,sp,168
    3a50:	04800044 	movi	r18,1
    3a54:	81800017 	ldw	r6,0(r16)
    3a58:	81c00117 	ldw	r7,4(r16)
    3a5c:	1009883a 	mov	r4,r2
    3a60:	180b883a 	mov	r5,r3
    3a64:	94800044 	addi	r18,r18,1
    3a68:	00044080 	call	4408 <__adddf3>
    3a6c:	84000204 	addi	r16,r16,8
    3a70:	8cbff80e 	bge	r17,r18,3a54 <__alt_mem_VGA_Subsystem_Char_Buf_Subsystem_Onchip_SRAM+0xf7003a54>
    3a74:	da008d17 	ldw	r8,564(sp)
    3a78:	40004226 	beq	r8,zero,3b84 <__kernel_rem_pio2+0xd74>
    3a7c:	da008f17 	ldw	r8,572(sp)
    3a80:	1009883a 	mov	r4,r2
    3a84:	18a0003c 	xorhi	r2,r3,32768
    3a88:	41000215 	stw	r4,8(r8)
    3a8c:	40800315 	stw	r2,12(r8)
    3a90:	003f0c06 	br	36c4 <__alt_mem_VGA_Subsystem_Char_Buf_Subsystem_Onchip_SRAM+0xf70036c4>
    3a94:	da008f17 	ldw	r8,572(sp)
    3a98:	100d883a 	mov	r6,r2
    3a9c:	180f883a 	mov	r7,r3
    3aa0:	40800015 	stw	r2,0(r8)
    3aa4:	40c00115 	stw	r3,4(r8)
    3aa8:	00060540 	call	6054 <__subdf3>
    3aac:	047fe716 	blt	zero,r17,3a4c <__alt_mem_VGA_Subsystem_Char_Buf_Subsystem_Onchip_SRAM+0xf7003a4c>
    3ab0:	da008f17 	ldw	r8,572(sp)
    3ab4:	1009883a 	mov	r4,r2
    3ab8:	1805883a 	mov	r2,r3
    3abc:	41000215 	stw	r4,8(r8)
    3ac0:	40800315 	stw	r2,12(r8)
    3ac4:	003eff06 	br	36c4 <__alt_mem_VGA_Subsystem_Char_Buf_Subsystem_Onchip_SRAM+0xf70036c4>
    3ac8:	da008f17 	ldw	r8,572(sp)
    3acc:	d9802817 	ldw	r6,160(sp)
    3ad0:	d9402a17 	ldw	r5,168(sp)
    3ad4:	d9002b17 	ldw	r4,172(sp)
    3ad8:	41800015 	stw	r6,0(r8)
    3adc:	d9802917 	ldw	r6,164(sp)
    3ae0:	41400215 	stw	r5,8(r8)
    3ae4:	41000315 	stw	r4,12(r8)
    3ae8:	41800115 	stw	r6,4(r8)
    3aec:	40800415 	stw	r2,16(r8)
    3af0:	40c00515 	stw	r3,20(r8)
    3af4:	003ef306 	br	36c4 <__alt_mem_VGA_Subsystem_Char_Buf_Subsystem_Onchip_SRAM+0xf70036c4>
    3af8:	da00a617 	ldw	r8,664(sp)
    3afc:	008000c4 	movi	r2,3
    3b00:	40bef01e 	bne	r8,r2,36c4 <__alt_mem_VGA_Subsystem_Char_Buf_Subsystem_Onchip_SRAM+0xf70036c4>
    3b04:	0005883a 	mov	r2,zero
    3b08:	0007883a 	mov	r3,zero
    3b0c:	003fa506 	br	39a4 <__alt_mem_VGA_Subsystem_Char_Buf_Subsystem_Onchip_SRAM+0xf70039a4>
    3b10:	9485883a 	add	r2,r18,r18
    3b14:	1085883a 	add	r2,r2,r2
    3b18:	d8a1883a 	add	r16,sp,r2
    3b1c:	880b883a 	mov	r5,r17
    3b20:	a809883a 	mov	r4,r21
    3b24:	84007804 	addi	r16,r16,480
    3b28:	00069500 	call	6950 <__fixdfsi>
    3b2c:	80800015 	stw	r2,0(r16)
    3b30:	9023883a 	mov	r17,r18
    3b34:	003e7e06 	br	3530 <__alt_mem_VGA_Subsystem_Char_Buf_Subsystem_Onchip_SRAM+0xf7003530>
    3b38:	a80d883a 	mov	r6,r21
    3b3c:	400f883a 	mov	r7,r8
    3b40:	0009883a 	mov	r4,zero
    3b44:	014ffc34 	movhi	r5,16368
    3b48:	00060540 	call	6054 <__subdf3>
    3b4c:	102b883a 	mov	r21,r2
    3b50:	1811883a 	mov	r8,r3
    3b54:	04c00084 	movi	r19,2
    3b58:	003dc006 	br	325c <__alt_mem_VGA_Subsystem_Char_Buf_Subsystem_Onchip_SRAM+0xf700325c>
    3b5c:	da00a617 	ldw	r8,664(sp)
    3b60:	00800084 	movi	r2,2
    3b64:	123fe416 	blt	r2,r8,3af8 <__alt_mem_VGA_Subsystem_Char_Buf_Subsystem_Onchip_SRAM+0xf7003af8>
    3b68:	02000c16 	blt	zero,r8,3b9c <__kernel_rem_pio2+0xd8c>
    3b6c:	403ed51e 	bne	r8,zero,36c4 <__alt_mem_VGA_Subsystem_Char_Buf_Subsystem_Onchip_SRAM+0xf70036c4>
    3b70:	0005883a 	mov	r2,zero
    3b74:	0007883a 	mov	r3,zero
    3b78:	003ecc06 	br	36ac <__alt_mem_VGA_Subsystem_Char_Buf_Subsystem_Onchip_SRAM+0xf70036ac>
    3b7c:	d8009215 	stw	zero,584(sp)
    3b80:	003cc106 	br	2e88 <__alt_mem_VGA_Subsystem_Char_Buf_Subsystem_Onchip_SRAM+0xf7002e88>
    3b84:	da008f17 	ldw	r8,572(sp)
    3b88:	1009883a 	mov	r4,r2
    3b8c:	1805883a 	mov	r2,r3
    3b90:	41000215 	stw	r4,8(r8)
    3b94:	40800315 	stw	r2,12(r8)
    3b98:	003eca06 	br	36c4 <__alt_mem_VGA_Subsystem_Char_Buf_Subsystem_Onchip_SRAM+0xf70036c4>
    3b9c:	0005883a 	mov	r2,zero
    3ba0:	0007883a 	mov	r3,zero
    3ba4:	003f9d06 	br	3a1c <__alt_mem_VGA_Subsystem_Char_Buf_Subsystem_Onchip_SRAM+0xf7003a1c>

00003ba8 <__kernel_sin>:
    3ba8:	00a00034 	movhi	r2,32768
    3bac:	defff404 	addi	sp,sp,-48
    3bb0:	10bfffc4 	addi	r2,r2,-1
    3bb4:	00cf9034 	movhi	r3,15936
    3bb8:	ddc00915 	stw	r23,36(sp)
    3bbc:	dd800815 	stw	r22,32(sp)
    3bc0:	dc400315 	stw	r17,12(sp)
    3bc4:	dc000215 	stw	r16,8(sp)
    3bc8:	dfc00b15 	stw	ra,44(sp)
    3bcc:	df000a15 	stw	fp,40(sp)
    3bd0:	dd400715 	stw	r21,28(sp)
    3bd4:	dd000615 	stw	r20,24(sp)
    3bd8:	dcc00515 	stw	r19,20(sp)
    3bdc:	dc800415 	stw	r18,16(sp)
    3be0:	2884703a 	and	r2,r5,r2
    3be4:	18ffffc4 	addi	r3,r3,-1
    3be8:	2821883a 	mov	r16,r5
    3bec:	2023883a 	mov	r17,r4
    3bf0:	302f883a 	mov	r23,r6
    3bf4:	382d883a 	mov	r22,r7
    3bf8:	18800216 	blt	r3,r2,3c04 <__kernel_sin+0x5c>
    3bfc:	00069500 	call	6950 <__fixdfsi>
    3c00:	10009926 	beq	r2,zero,3e68 <__kernel_sin+0x2c0>
    3c04:	880d883a 	mov	r6,r17
    3c08:	800f883a 	mov	r7,r16
    3c0c:	8809883a 	mov	r4,r17
    3c10:	800b883a 	mov	r5,r16
    3c14:	00057e80 	call	57e8 <__muldf3>
    3c18:	100d883a 	mov	r6,r2
    3c1c:	180f883a 	mov	r7,r3
    3c20:	8809883a 	mov	r4,r17
    3c24:	800b883a 	mov	r5,r16
    3c28:	1027883a 	mov	r19,r2
    3c2c:	1825883a 	mov	r18,r3
    3c30:	00057e80 	call	57e8 <__muldf3>
    3c34:	0196b434 	movhi	r6,23248
    3c38:	01cf79b4 	movhi	r7,15846
    3c3c:	31b55f04 	addi	r6,r6,-10884
    3c40:	39f64e84 	addi	r7,r7,-9926
    3c44:	9809883a 	mov	r4,r19
    3c48:	900b883a 	mov	r5,r18
    3c4c:	102b883a 	mov	r21,r2
    3c50:	1829883a 	mov	r20,r3
    3c54:	00057e80 	call	57e8 <__muldf3>
    3c58:	01a28b34 	movhi	r6,35372
    3c5c:	01cf96f4 	movhi	r7,15963
    3c60:	31a73ac4 	addi	r6,r6,-25365
    3c64:	39f97984 	addi	r7,r7,-6682
    3c68:	1009883a 	mov	r4,r2
    3c6c:	180b883a 	mov	r5,r3
    3c70:	00060540 	call	6054 <__subdf3>
    3c74:	980d883a 	mov	r6,r19
    3c78:	900f883a 	mov	r7,r18
    3c7c:	1009883a 	mov	r4,r2
    3c80:	180b883a 	mov	r5,r3
    3c84:	00057e80 	call	57e8 <__muldf3>
    3c88:	0195ecb4 	movhi	r6,22450
    3c8c:	01cfb1f4 	movhi	r7,16071
    3c90:	31bf9f44 	addi	r6,r6,-387
    3c94:	39c778c4 	addi	r7,r7,7651
    3c98:	1009883a 	mov	r4,r2
    3c9c:	180b883a 	mov	r5,r3
    3ca0:	00044080 	call	4408 <__adddf3>
    3ca4:	980d883a 	mov	r6,r19
    3ca8:	900f883a 	mov	r7,r18
    3cac:	1009883a 	mov	r4,r2
    3cb0:	180b883a 	mov	r5,r3
    3cb4:	00057e80 	call	57e8 <__muldf3>
    3cb8:	01867074 	movhi	r6,6593
    3cbc:	01cfcab4 	movhi	r7,16170
    3cc0:	31987544 	addi	r6,r6,25045
    3cc4:	39c06804 	addi	r7,r7,416
    3cc8:	1009883a 	mov	r4,r2
    3ccc:	180b883a 	mov	r5,r3
    3cd0:	00060540 	call	6054 <__subdf3>
    3cd4:	980d883a 	mov	r6,r19
    3cd8:	900f883a 	mov	r7,r18
    3cdc:	1009883a 	mov	r4,r2
    3ce0:	180b883a 	mov	r5,r3
    3ce4:	00057e80 	call	57e8 <__muldf3>
    3ce8:	01844474 	movhi	r6,4369
    3cec:	01cfe074 	movhi	r7,16257
    3cf0:	31be2984 	addi	r6,r6,-1882
    3cf4:	39c44444 	addi	r7,r7,4369
    3cf8:	1009883a 	mov	r4,r2
    3cfc:	180b883a 	mov	r5,r3
    3d00:	00044080 	call	4408 <__adddf3>
    3d04:	1011883a 	mov	r8,r2
    3d08:	d8800c17 	ldw	r2,48(sp)
    3d0c:	1839883a 	mov	fp,r3
    3d10:	10003e26 	beq	r2,zero,3e0c <__kernel_sin+0x264>
    3d14:	000d883a 	mov	r6,zero
    3d18:	01cff834 	movhi	r7,16352
    3d1c:	b809883a 	mov	r4,r23
    3d20:	b00b883a 	mov	r5,r22
    3d24:	da000015 	stw	r8,0(sp)
    3d28:	00057e80 	call	57e8 <__muldf3>
    3d2c:	da000017 	ldw	r8,0(sp)
    3d30:	e00f883a 	mov	r7,fp
    3d34:	a809883a 	mov	r4,r21
    3d38:	400d883a 	mov	r6,r8
    3d3c:	a00b883a 	mov	r5,r20
    3d40:	d8c00115 	stw	r3,4(sp)
    3d44:	d8800015 	stw	r2,0(sp)
    3d48:	00057e80 	call	57e8 <__muldf3>
    3d4c:	da800017 	ldw	r10,0(sp)
    3d50:	da400117 	ldw	r9,4(sp)
    3d54:	100d883a 	mov	r6,r2
    3d58:	5009883a 	mov	r4,r10
    3d5c:	480b883a 	mov	r5,r9
    3d60:	180f883a 	mov	r7,r3
    3d64:	00060540 	call	6054 <__subdf3>
    3d68:	980d883a 	mov	r6,r19
    3d6c:	900f883a 	mov	r7,r18
    3d70:	1009883a 	mov	r4,r2
    3d74:	180b883a 	mov	r5,r3
    3d78:	00057e80 	call	57e8 <__muldf3>
    3d7c:	b80d883a 	mov	r6,r23
    3d80:	b00f883a 	mov	r7,r22
    3d84:	1009883a 	mov	r4,r2
    3d88:	180b883a 	mov	r5,r3
    3d8c:	00060540 	call	6054 <__subdf3>
    3d90:	01955574 	movhi	r6,21845
    3d94:	01cff174 	movhi	r7,16325
    3d98:	31955244 	addi	r6,r6,21833
    3d9c:	39d55544 	addi	r7,r7,21845
    3da0:	a809883a 	mov	r4,r21
    3da4:	a00b883a 	mov	r5,r20
    3da8:	1027883a 	mov	r19,r2
    3dac:	1825883a 	mov	r18,r3
    3db0:	00057e80 	call	57e8 <__muldf3>
    3db4:	100d883a 	mov	r6,r2
    3db8:	180f883a 	mov	r7,r3
    3dbc:	9809883a 	mov	r4,r19
    3dc0:	900b883a 	mov	r5,r18
    3dc4:	00044080 	call	4408 <__adddf3>
    3dc8:	100d883a 	mov	r6,r2
    3dcc:	180f883a 	mov	r7,r3
    3dd0:	8809883a 	mov	r4,r17
    3dd4:	800b883a 	mov	r5,r16
    3dd8:	00060540 	call	6054 <__subdf3>
    3ddc:	dfc00b17 	ldw	ra,44(sp)
    3de0:	df000a17 	ldw	fp,40(sp)
    3de4:	ddc00917 	ldw	r23,36(sp)
    3de8:	dd800817 	ldw	r22,32(sp)
    3dec:	dd400717 	ldw	r21,28(sp)
    3df0:	dd000617 	ldw	r20,24(sp)
    3df4:	dcc00517 	ldw	r19,20(sp)
    3df8:	dc800417 	ldw	r18,16(sp)
    3dfc:	dc400317 	ldw	r17,12(sp)
    3e00:	dc000217 	ldw	r16,8(sp)
    3e04:	dec00c04 	addi	sp,sp,48
    3e08:	f800283a 	ret
    3e0c:	400d883a 	mov	r6,r8
    3e10:	9809883a 	mov	r4,r19
    3e14:	900b883a 	mov	r5,r18
    3e18:	180f883a 	mov	r7,r3
    3e1c:	00057e80 	call	57e8 <__muldf3>
    3e20:	01955574 	movhi	r6,21845
    3e24:	01cff174 	movhi	r7,16325
    3e28:	31955244 	addi	r6,r6,21833
    3e2c:	39d55544 	addi	r7,r7,21845
    3e30:	1009883a 	mov	r4,r2
    3e34:	180b883a 	mov	r5,r3
    3e38:	00060540 	call	6054 <__subdf3>
    3e3c:	a80d883a 	mov	r6,r21
    3e40:	a00f883a 	mov	r7,r20
    3e44:	1009883a 	mov	r4,r2
    3e48:	180b883a 	mov	r5,r3
    3e4c:	00057e80 	call	57e8 <__muldf3>
    3e50:	880d883a 	mov	r6,r17
    3e54:	800f883a 	mov	r7,r16
    3e58:	1009883a 	mov	r4,r2
    3e5c:	180b883a 	mov	r5,r3
    3e60:	00044080 	call	4408 <__adddf3>
    3e64:	003fdd06 	br	3ddc <__alt_mem_VGA_Subsystem_Char_Buf_Subsystem_Onchip_SRAM+0xf7003ddc>
    3e68:	8805883a 	mov	r2,r17
    3e6c:	8007883a 	mov	r3,r16
    3e70:	003fda06 	br	3ddc <__alt_mem_VGA_Subsystem_Char_Buf_Subsystem_Onchip_SRAM+0xf7003ddc>

00003e74 <fabs>:
    3e74:	00e00034 	movhi	r3,32768
    3e78:	18ffffc4 	addi	r3,r3,-1
    3e7c:	2005883a 	mov	r2,r4
    3e80:	28c6703a 	and	r3,r5,r3
    3e84:	f800283a 	ret

00003e88 <floor>:
    3e88:	2811d53a 	srai	r8,r5,20
    3e8c:	defffa04 	addi	sp,sp,-24
    3e90:	dcc00315 	stw	r19,12(sp)
    3e94:	4201ffcc 	andi	r8,r8,2047
    3e98:	dc800215 	stw	r18,8(sp)
    3e9c:	dc400115 	stw	r17,4(sp)
    3ea0:	dc000015 	stw	r16,0(sp)
    3ea4:	dfc00515 	stw	ra,20(sp)
    3ea8:	dd000415 	stw	r20,16(sp)
    3eac:	44bf0044 	addi	r18,r8,-1023
    3eb0:	018004c4 	movi	r6,19
    3eb4:	2821883a 	mov	r16,r5
    3eb8:	2005883a 	mov	r2,r4
    3ebc:	280f883a 	mov	r7,r5
    3ec0:	2827883a 	mov	r19,r5
    3ec4:	2023883a 	mov	r17,r4
    3ec8:	34801916 	blt	r6,r18,3f30 <floor+0xa8>
    3ecc:	90003c16 	blt	r18,zero,3fc0 <floor+0x138>
    3ed0:	05000434 	movhi	r20,16
    3ed4:	a53fffc4 	addi	r20,r20,-1
    3ed8:	a4a9d83a 	sra	r20,r20,r18
    3edc:	2d0c703a 	and	r6,r5,r20
    3ee0:	310cb03a 	or	r6,r6,r4
    3ee4:	30001626 	beq	r6,zero,3f40 <floor+0xb8>
    3ee8:	01a20034 	movhi	r6,34816
    3eec:	01df8e34 	movhi	r7,32312
    3ef0:	319d6704 	addi	r6,r6,30108
    3ef4:	39f90f04 	addi	r7,r7,-7108
    3ef8:	00044080 	call	4408 <__adddf3>
    3efc:	000d883a 	mov	r6,zero
    3f00:	000f883a 	mov	r7,zero
    3f04:	1009883a 	mov	r4,r2
    3f08:	180b883a 	mov	r5,r3
    3f0c:	000570c0 	call	570c <__gedf2>
    3f10:	0080040e 	bge	zero,r2,3f24 <floor+0x9c>
    3f14:	80003c16 	blt	r16,zero,4008 <floor+0x180>
    3f18:	0520303a 	nor	r16,zero,r20
    3f1c:	84e0703a 	and	r16,r16,r19
    3f20:	0023883a 	mov	r17,zero
    3f24:	8805883a 	mov	r2,r17
    3f28:	8007883a 	mov	r3,r16
    3f2c:	00000506 	br	3f44 <floor+0xbc>
    3f30:	01800cc4 	movi	r6,51
    3f34:	34800b0e 	bge	r6,r18,3f64 <floor+0xdc>
    3f38:	01810004 	movi	r6,1024
    3f3c:	91802f26 	beq	r18,r6,3ffc <floor+0x174>
    3f40:	3807883a 	mov	r3,r7
    3f44:	dfc00517 	ldw	ra,20(sp)
    3f48:	dd000417 	ldw	r20,16(sp)
    3f4c:	dcc00317 	ldw	r19,12(sp)
    3f50:	dc800217 	ldw	r18,8(sp)
    3f54:	dc400117 	ldw	r17,4(sp)
    3f58:	dc000017 	ldw	r16,0(sp)
    3f5c:	dec00604 	addi	sp,sp,24
    3f60:	f800283a 	ret
    3f64:	423efb44 	addi	r8,r8,-1043
    3f68:	053fffc4 	movi	r20,-1
    3f6c:	a228d83a 	srl	r20,r20,r8
    3f70:	250c703a 	and	r6,r4,r20
    3f74:	303ff226 	beq	r6,zero,3f40 <__alt_mem_VGA_Subsystem_Char_Buf_Subsystem_Onchip_SRAM+0xf7003f40>
    3f78:	01a20034 	movhi	r6,34816
    3f7c:	01df8e34 	movhi	r7,32312
    3f80:	319d6704 	addi	r6,r6,30108
    3f84:	39f90f04 	addi	r7,r7,-7108
    3f88:	00044080 	call	4408 <__adddf3>
    3f8c:	000d883a 	mov	r6,zero
    3f90:	000f883a 	mov	r7,zero
    3f94:	1009883a 	mov	r4,r2
    3f98:	180b883a 	mov	r5,r3
    3f9c:	000570c0 	call	570c <__gedf2>
    3fa0:	00bfe00e 	bge	zero,r2,3f24 <__alt_mem_VGA_Subsystem_Char_Buf_Subsystem_Onchip_SRAM+0xf7003f24>
    3fa4:	80001c16 	blt	r16,zero,4018 <floor+0x190>
    3fa8:	0510303a 	nor	r8,zero,r20
    3fac:	9821883a 	mov	r16,r19
    3fb0:	8a22703a 	and	r17,r17,r8
    3fb4:	8805883a 	mov	r2,r17
    3fb8:	8007883a 	mov	r3,r16
    3fbc:	003fe106 	br	3f44 <__alt_mem_VGA_Subsystem_Char_Buf_Subsystem_Onchip_SRAM+0xf7003f44>
    3fc0:	01a20034 	movhi	r6,34816
    3fc4:	01df8e34 	movhi	r7,32312
    3fc8:	319d6704 	addi	r6,r6,30108
    3fcc:	39f90f04 	addi	r7,r7,-7108
    3fd0:	00044080 	call	4408 <__adddf3>
    3fd4:	000d883a 	mov	r6,zero
    3fd8:	000f883a 	mov	r7,zero
    3fdc:	1009883a 	mov	r4,r2
    3fe0:	180b883a 	mov	r5,r3
    3fe4:	000570c0 	call	570c <__gedf2>
    3fe8:	00bfce0e 	bge	zero,r2,3f24 <__alt_mem_VGA_Subsystem_Char_Buf_Subsystem_Onchip_SRAM+0xf7003f24>
    3fec:	80001516 	blt	r16,zero,4044 <floor+0x1bc>
    3ff0:	0023883a 	mov	r17,zero
    3ff4:	0021883a 	mov	r16,zero
    3ff8:	003fca06 	br	3f24 <__alt_mem_VGA_Subsystem_Char_Buf_Subsystem_Onchip_SRAM+0xf7003f24>
    3ffc:	200d883a 	mov	r6,r4
    4000:	00044080 	call	4408 <__adddf3>
    4004:	003fcf06 	br	3f44 <__alt_mem_VGA_Subsystem_Char_Buf_Subsystem_Onchip_SRAM+0xf7003f44>
    4008:	00800434 	movhi	r2,16
    400c:	14a5d83a 	sra	r18,r2,r18
    4010:	84a7883a 	add	r19,r16,r18
    4014:	003fc006 	br	3f18 <__alt_mem_VGA_Subsystem_Char_Buf_Subsystem_Onchip_SRAM+0xf7003f18>
    4018:	00800504 	movi	r2,20
    401c:	90801326 	beq	r18,r2,406c <floor+0x1e4>
    4020:	00800d04 	movi	r2,52
    4024:	14a5c83a 	sub	r18,r2,r18
    4028:	00800044 	movi	r2,1
    402c:	1484983a 	sll	r2,r2,r18
    4030:	1445883a 	add	r2,r2,r17
    4034:	14400b2e 	bgeu	r2,r17,4064 <floor+0x1dc>
    4038:	84c00044 	addi	r19,r16,1
    403c:	1023883a 	mov	r17,r2
    4040:	003fd906 	br	3fa8 <__alt_mem_VGA_Subsystem_Char_Buf_Subsystem_Onchip_SRAM+0xf7003fa8>
    4044:	00a00034 	movhi	r2,32768
    4048:	10bfffc4 	addi	r2,r2,-1
    404c:	8084703a 	and	r2,r16,r2
    4050:	1462b03a 	or	r17,r2,r17
    4054:	883fb326 	beq	r17,zero,3f24 <__alt_mem_VGA_Subsystem_Char_Buf_Subsystem_Onchip_SRAM+0xf7003f24>
    4058:	0023883a 	mov	r17,zero
    405c:	042ffc34 	movhi	r16,49136
    4060:	003fb006 	br	3f24 <__alt_mem_VGA_Subsystem_Char_Buf_Subsystem_Onchip_SRAM+0xf7003f24>
    4064:	1023883a 	mov	r17,r2
    4068:	003fcf06 	br	3fa8 <__alt_mem_VGA_Subsystem_Char_Buf_Subsystem_Onchip_SRAM+0xf7003fa8>
    406c:	84c00044 	addi	r19,r16,1
    4070:	003fcd06 	br	3fa8 <__alt_mem_VGA_Subsystem_Char_Buf_Subsystem_Onchip_SRAM+0xf7003fa8>

00004074 <scalbn>:
    4074:	2a1ffc2c 	andhi	r8,r5,32752
    4078:	4011d53a 	srai	r8,r8,20
    407c:	defffe04 	addi	sp,sp,-8
    4080:	dc000015 	stw	r16,0(sp)
    4084:	dfc00115 	stw	ra,4(sp)
    4088:	280f883a 	mov	r7,r5
    408c:	2015883a 	mov	r10,r4
    4090:	3021883a 	mov	r16,r6
    4094:	40001e1e 	bne	r8,zero,4110 <scalbn+0x9c>
    4098:	00a00034 	movhi	r2,32768
    409c:	10bfffc4 	addi	r2,r2,-1
    40a0:	2884703a 	and	r2,r5,r2
    40a4:	1104b03a 	or	r2,r2,r4
    40a8:	10002226 	beq	r2,zero,4134 <scalbn+0xc0>
    40ac:	01d0d434 	movhi	r7,17232
    40b0:	000d883a 	mov	r6,zero
    40b4:	00057e80 	call	57e8 <__muldf3>
    40b8:	013ffff4 	movhi	r4,65535
    40bc:	210f2c04 	addi	r4,r4,15536
    40c0:	1015883a 	mov	r10,r2
    40c4:	180f883a 	mov	r7,r3
    40c8:	81002a16 	blt	r16,r4,4174 <scalbn+0x100>
    40cc:	191ffc2c 	andhi	r4,r3,32752
    40d0:	2009d53a 	srai	r4,r4,20
    40d4:	223ff284 	addi	r8,r4,-54
    40d8:	8211883a 	add	r8,r16,r8
    40dc:	0081ff84 	movi	r2,2046
    40e0:	12002f16 	blt	r2,r8,41a0 <scalbn+0x12c>
    40e4:	0200190e 	bge	zero,r8,414c <scalbn+0xd8>
    40e8:	4010953a 	slli	r8,r8,20
    40ec:	01600434 	movhi	r5,32784
    40f0:	297fffc4 	addi	r5,r5,-1
    40f4:	194e703a 	and	r7,r3,r5
    40f8:	5005883a 	mov	r2,r10
    40fc:	3a06b03a 	or	r3,r7,r8
    4100:	dfc00117 	ldw	ra,4(sp)
    4104:	dc000017 	ldw	r16,0(sp)
    4108:	dec00204 	addi	sp,sp,8
    410c:	f800283a 	ret
    4110:	0081ffc4 	movi	r2,2047
    4114:	2807883a 	mov	r3,r5
    4118:	40bfef1e 	bne	r8,r2,40d8 <__alt_mem_VGA_Subsystem_Char_Buf_Subsystem_Onchip_SRAM+0xf70040d8>
    411c:	200d883a 	mov	r6,r4
    4120:	00044080 	call	4408 <__adddf3>
    4124:	dfc00117 	ldw	ra,4(sp)
    4128:	dc000017 	ldw	r16,0(sp)
    412c:	dec00204 	addi	sp,sp,8
    4130:	f800283a 	ret
    4134:	2005883a 	mov	r2,r4
    4138:	2807883a 	mov	r3,r5
    413c:	dfc00117 	ldw	ra,4(sp)
    4140:	dc000017 	ldw	r16,0(sp)
    4144:	dec00204 	addi	sp,sp,8
    4148:	f800283a 	ret
    414c:	00bff2c4 	movi	r2,-53
    4150:	4080240e 	bge	r8,r2,41e4 <scalbn+0x170>
    4154:	00b0d414 	movui	r2,50000
    4158:	14001116 	blt	r2,r16,41a0 <scalbn+0x12c>
    415c:	0130be74 	movhi	r4,49913
    4160:	01406974 	movhi	r5,421
    4164:	213cd644 	addi	r4,r4,-3239
    4168:	295b87c4 	addi	r5,r5,28191
    416c:	500d883a 	mov	r6,r10
    4170:	00042100 	call	4210 <copysign>
    4174:	01b0be74 	movhi	r6,49913
    4178:	01c06974 	movhi	r7,421
    417c:	31bcd644 	addi	r6,r6,-3239
    4180:	39db87c4 	addi	r7,r7,28191
    4184:	1009883a 	mov	r4,r2
    4188:	180b883a 	mov	r5,r3
    418c:	00057e80 	call	57e8 <__muldf3>
    4190:	dfc00117 	ldw	ra,4(sp)
    4194:	dc000017 	ldw	r16,0(sp)
    4198:	dec00204 	addi	sp,sp,8
    419c:	f800283a 	ret
    41a0:	01220034 	movhi	r4,34816
    41a4:	015f8e34 	movhi	r5,32312
    41a8:	500d883a 	mov	r6,r10
    41ac:	211d6704 	addi	r4,r4,30108
    41b0:	29790f04 	addi	r5,r5,-7108
    41b4:	00042100 	call	4210 <copysign>
    41b8:	01a20034 	movhi	r6,34816
    41bc:	01df8e34 	movhi	r7,32312
    41c0:	319d6704 	addi	r6,r6,30108
    41c4:	39f90f04 	addi	r7,r7,-7108
    41c8:	1009883a 	mov	r4,r2
    41cc:	180b883a 	mov	r5,r3
    41d0:	00057e80 	call	57e8 <__muldf3>
    41d4:	dfc00117 	ldw	ra,4(sp)
    41d8:	dc000017 	ldw	r16,0(sp)
    41dc:	dec00204 	addi	sp,sp,8
    41e0:	f800283a 	ret
    41e4:	42000d84 	addi	r8,r8,54
    41e8:	4012953a 	slli	r9,r8,20
    41ec:	01e00434 	movhi	r7,32784
    41f0:	39ffffc4 	addi	r7,r7,-1
    41f4:	19ca703a 	and	r5,r3,r7
    41f8:	000d883a 	mov	r6,zero
    41fc:	01cf2434 	movhi	r7,15504
    4200:	5009883a 	mov	r4,r10
    4204:	494ab03a 	or	r5,r9,r5
    4208:	00057e80 	call	57e8 <__muldf3>
    420c:	003fbc06 	br	4100 <__alt_mem_VGA_Subsystem_Char_Buf_Subsystem_Onchip_SRAM+0xf7004100>

00004210 <copysign>:
    4210:	2005883a 	mov	r2,r4
    4214:	01200034 	movhi	r4,32768
    4218:	213fffc4 	addi	r4,r4,-1
    421c:	38e0002c 	andhi	r3,r7,32768
    4220:	290a703a 	and	r5,r5,r4
    4224:	28c6b03a 	or	r3,r5,r3
    4228:	f800283a 	ret

0000422c <__divsi3>:
    422c:	20001b16 	blt	r4,zero,429c <__divsi3+0x70>
    4230:	000f883a 	mov	r7,zero
    4234:	28001616 	blt	r5,zero,4290 <__divsi3+0x64>
    4238:	200d883a 	mov	r6,r4
    423c:	29001a2e 	bgeu	r5,r4,42a8 <__divsi3+0x7c>
    4240:	00800804 	movi	r2,32
    4244:	00c00044 	movi	r3,1
    4248:	00000106 	br	4250 <__divsi3+0x24>
    424c:	10000d26 	beq	r2,zero,4284 <__divsi3+0x58>
    4250:	294b883a 	add	r5,r5,r5
    4254:	10bfffc4 	addi	r2,r2,-1
    4258:	18c7883a 	add	r3,r3,r3
    425c:	293ffb36 	bltu	r5,r4,424c <__alt_mem_VGA_Subsystem_Char_Buf_Subsystem_Onchip_SRAM+0xf700424c>
    4260:	0005883a 	mov	r2,zero
    4264:	18000726 	beq	r3,zero,4284 <__divsi3+0x58>
    4268:	0005883a 	mov	r2,zero
    426c:	31400236 	bltu	r6,r5,4278 <__divsi3+0x4c>
    4270:	314dc83a 	sub	r6,r6,r5
    4274:	10c4b03a 	or	r2,r2,r3
    4278:	1806d07a 	srli	r3,r3,1
    427c:	280ad07a 	srli	r5,r5,1
    4280:	183ffa1e 	bne	r3,zero,426c <__alt_mem_VGA_Subsystem_Char_Buf_Subsystem_Onchip_SRAM+0xf700426c>
    4284:	38000126 	beq	r7,zero,428c <__divsi3+0x60>
    4288:	0085c83a 	sub	r2,zero,r2
    428c:	f800283a 	ret
    4290:	014bc83a 	sub	r5,zero,r5
    4294:	39c0005c 	xori	r7,r7,1
    4298:	003fe706 	br	4238 <__alt_mem_VGA_Subsystem_Char_Buf_Subsystem_Onchip_SRAM+0xf7004238>
    429c:	0109c83a 	sub	r4,zero,r4
    42a0:	01c00044 	movi	r7,1
    42a4:	003fe306 	br	4234 <__alt_mem_VGA_Subsystem_Char_Buf_Subsystem_Onchip_SRAM+0xf7004234>
    42a8:	00c00044 	movi	r3,1
    42ac:	003fee06 	br	4268 <__alt_mem_VGA_Subsystem_Char_Buf_Subsystem_Onchip_SRAM+0xf7004268>

000042b0 <__modsi3>:
    42b0:	20001716 	blt	r4,zero,4310 <__modsi3+0x60>
    42b4:	000f883a 	mov	r7,zero
    42b8:	2005883a 	mov	r2,r4
    42bc:	28001216 	blt	r5,zero,4308 <__modsi3+0x58>
    42c0:	2900162e 	bgeu	r5,r4,431c <__modsi3+0x6c>
    42c4:	01800804 	movi	r6,32
    42c8:	00c00044 	movi	r3,1
    42cc:	00000106 	br	42d4 <__modsi3+0x24>
    42d0:	30000a26 	beq	r6,zero,42fc <__modsi3+0x4c>
    42d4:	294b883a 	add	r5,r5,r5
    42d8:	31bfffc4 	addi	r6,r6,-1
    42dc:	18c7883a 	add	r3,r3,r3
    42e0:	293ffb36 	bltu	r5,r4,42d0 <__alt_mem_VGA_Subsystem_Char_Buf_Subsystem_Onchip_SRAM+0xf70042d0>
    42e4:	18000526 	beq	r3,zero,42fc <__modsi3+0x4c>
    42e8:	1806d07a 	srli	r3,r3,1
    42ec:	11400136 	bltu	r2,r5,42f4 <__modsi3+0x44>
    42f0:	1145c83a 	sub	r2,r2,r5
    42f4:	280ad07a 	srli	r5,r5,1
    42f8:	183ffb1e 	bne	r3,zero,42e8 <__alt_mem_VGA_Subsystem_Char_Buf_Subsystem_Onchip_SRAM+0xf70042e8>
    42fc:	38000126 	beq	r7,zero,4304 <__modsi3+0x54>
    4300:	0085c83a 	sub	r2,zero,r2
    4304:	f800283a 	ret
    4308:	014bc83a 	sub	r5,zero,r5
    430c:	003fec06 	br	42c0 <__alt_mem_VGA_Subsystem_Char_Buf_Subsystem_Onchip_SRAM+0xf70042c0>
    4310:	0109c83a 	sub	r4,zero,r4
    4314:	01c00044 	movi	r7,1
    4318:	003fe706 	br	42b8 <__alt_mem_VGA_Subsystem_Char_Buf_Subsystem_Onchip_SRAM+0xf70042b8>
    431c:	00c00044 	movi	r3,1
    4320:	003ff106 	br	42e8 <__alt_mem_VGA_Subsystem_Char_Buf_Subsystem_Onchip_SRAM+0xf70042e8>

00004324 <__udivsi3>:
    4324:	200d883a 	mov	r6,r4
    4328:	2900152e 	bgeu	r5,r4,4380 <__udivsi3+0x5c>
    432c:	28001416 	blt	r5,zero,4380 <__udivsi3+0x5c>
    4330:	00800804 	movi	r2,32
    4334:	00c00044 	movi	r3,1
    4338:	00000206 	br	4344 <__udivsi3+0x20>
    433c:	10000e26 	beq	r2,zero,4378 <__udivsi3+0x54>
    4340:	28000516 	blt	r5,zero,4358 <__udivsi3+0x34>
    4344:	294b883a 	add	r5,r5,r5
    4348:	10bfffc4 	addi	r2,r2,-1
    434c:	18c7883a 	add	r3,r3,r3
    4350:	293ffa36 	bltu	r5,r4,433c <__alt_mem_VGA_Subsystem_Char_Buf_Subsystem_Onchip_SRAM+0xf700433c>
    4354:	18000826 	beq	r3,zero,4378 <__udivsi3+0x54>
    4358:	0005883a 	mov	r2,zero
    435c:	31400236 	bltu	r6,r5,4368 <__udivsi3+0x44>
    4360:	314dc83a 	sub	r6,r6,r5
    4364:	10c4b03a 	or	r2,r2,r3
    4368:	1806d07a 	srli	r3,r3,1
    436c:	280ad07a 	srli	r5,r5,1
    4370:	183ffa1e 	bne	r3,zero,435c <__alt_mem_VGA_Subsystem_Char_Buf_Subsystem_Onchip_SRAM+0xf700435c>
    4374:	f800283a 	ret
    4378:	0005883a 	mov	r2,zero
    437c:	f800283a 	ret
    4380:	00c00044 	movi	r3,1
    4384:	003ff406 	br	4358 <__alt_mem_VGA_Subsystem_Char_Buf_Subsystem_Onchip_SRAM+0xf7004358>

00004388 <__umodsi3>:
    4388:	2005883a 	mov	r2,r4
    438c:	2900122e 	bgeu	r5,r4,43d8 <__umodsi3+0x50>
    4390:	28001116 	blt	r5,zero,43d8 <__umodsi3+0x50>
    4394:	01800804 	movi	r6,32
    4398:	00c00044 	movi	r3,1
    439c:	00000206 	br	43a8 <__umodsi3+0x20>
    43a0:	30000c26 	beq	r6,zero,43d4 <__umodsi3+0x4c>
    43a4:	28000516 	blt	r5,zero,43bc <__umodsi3+0x34>
    43a8:	294b883a 	add	r5,r5,r5
    43ac:	31bfffc4 	addi	r6,r6,-1
    43b0:	18c7883a 	add	r3,r3,r3
    43b4:	293ffa36 	bltu	r5,r4,43a0 <__alt_mem_VGA_Subsystem_Char_Buf_Subsystem_Onchip_SRAM+0xf70043a0>
    43b8:	18000626 	beq	r3,zero,43d4 <__umodsi3+0x4c>
    43bc:	1806d07a 	srli	r3,r3,1
    43c0:	11400136 	bltu	r2,r5,43c8 <__umodsi3+0x40>
    43c4:	1145c83a 	sub	r2,r2,r5
    43c8:	280ad07a 	srli	r5,r5,1
    43cc:	183ffb1e 	bne	r3,zero,43bc <__alt_mem_VGA_Subsystem_Char_Buf_Subsystem_Onchip_SRAM+0xf70043bc>
    43d0:	f800283a 	ret
    43d4:	f800283a 	ret
    43d8:	00c00044 	movi	r3,1
    43dc:	003ff706 	br	43bc <__alt_mem_VGA_Subsystem_Char_Buf_Subsystem_Onchip_SRAM+0xf70043bc>

000043e0 <__mulsi3>:
    43e0:	0005883a 	mov	r2,zero
    43e4:	20000726 	beq	r4,zero,4404 <__mulsi3+0x24>
    43e8:	20c0004c 	andi	r3,r4,1
    43ec:	2008d07a 	srli	r4,r4,1
    43f0:	18000126 	beq	r3,zero,43f8 <__mulsi3+0x18>
    43f4:	1145883a 	add	r2,r2,r5
    43f8:	294b883a 	add	r5,r5,r5
    43fc:	203ffa1e 	bne	r4,zero,43e8 <__alt_mem_VGA_Subsystem_Char_Buf_Subsystem_Onchip_SRAM+0xf70043e8>
    4400:	f800283a 	ret
    4404:	f800283a 	ret

00004408 <__adddf3>:
    4408:	02c00434 	movhi	r11,16
    440c:	5affffc4 	addi	r11,r11,-1
    4410:	2806d7fa 	srli	r3,r5,31
    4414:	2ad4703a 	and	r10,r5,r11
    4418:	3ad2703a 	and	r9,r7,r11
    441c:	3804d53a 	srli	r2,r7,20
    4420:	3018d77a 	srli	r12,r6,29
    4424:	280ad53a 	srli	r5,r5,20
    4428:	501490fa 	slli	r10,r10,3
    442c:	2010d77a 	srli	r8,r4,29
    4430:	481290fa 	slli	r9,r9,3
    4434:	380ed7fa 	srli	r7,r7,31
    4438:	defffb04 	addi	sp,sp,-20
    443c:	dc800215 	stw	r18,8(sp)
    4440:	dc400115 	stw	r17,4(sp)
    4444:	dc000015 	stw	r16,0(sp)
    4448:	dfc00415 	stw	ra,16(sp)
    444c:	dcc00315 	stw	r19,12(sp)
    4450:	1c803fcc 	andi	r18,r3,255
    4454:	2c01ffcc 	andi	r16,r5,2047
    4458:	5210b03a 	or	r8,r10,r8
    445c:	202290fa 	slli	r17,r4,3
    4460:	1081ffcc 	andi	r2,r2,2047
    4464:	4b12b03a 	or	r9,r9,r12
    4468:	300c90fa 	slli	r6,r6,3
    446c:	91c07526 	beq	r18,r7,4644 <__adddf3+0x23c>
    4470:	8087c83a 	sub	r3,r16,r2
    4474:	00c0ab0e 	bge	zero,r3,4724 <__adddf3+0x31c>
    4478:	10002a1e 	bne	r2,zero,4524 <__adddf3+0x11c>
    447c:	4984b03a 	or	r2,r9,r6
    4480:	1000961e 	bne	r2,zero,46dc <__adddf3+0x2d4>
    4484:	888001cc 	andi	r2,r17,7
    4488:	10000726 	beq	r2,zero,44a8 <__adddf3+0xa0>
    448c:	888003cc 	andi	r2,r17,15
    4490:	00c00104 	movi	r3,4
    4494:	10c00426 	beq	r2,r3,44a8 <__adddf3+0xa0>
    4498:	88c7883a 	add	r3,r17,r3
    449c:	1c63803a 	cmpltu	r17,r3,r17
    44a0:	4451883a 	add	r8,r8,r17
    44a4:	1823883a 	mov	r17,r3
    44a8:	4080202c 	andhi	r2,r8,128
    44ac:	10005926 	beq	r2,zero,4614 <__adddf3+0x20c>
    44b0:	84000044 	addi	r16,r16,1
    44b4:	0081ffc4 	movi	r2,2047
    44b8:	8080ba26 	beq	r16,r2,47a4 <__adddf3+0x39c>
    44bc:	00bfe034 	movhi	r2,65408
    44c0:	10bfffc4 	addi	r2,r2,-1
    44c4:	4090703a 	and	r8,r8,r2
    44c8:	4004977a 	slli	r2,r8,29
    44cc:	4010927a 	slli	r8,r8,9
    44d0:	8822d0fa 	srli	r17,r17,3
    44d4:	8401ffcc 	andi	r16,r16,2047
    44d8:	4010d33a 	srli	r8,r8,12
    44dc:	9007883a 	mov	r3,r18
    44e0:	1444b03a 	or	r2,r2,r17
    44e4:	8401ffcc 	andi	r16,r16,2047
    44e8:	8020953a 	slli	r16,r16,20
    44ec:	18c03fcc 	andi	r3,r3,255
    44f0:	01000434 	movhi	r4,16
    44f4:	213fffc4 	addi	r4,r4,-1
    44f8:	180697fa 	slli	r3,r3,31
    44fc:	4110703a 	and	r8,r8,r4
    4500:	4410b03a 	or	r8,r8,r16
    4504:	40c6b03a 	or	r3,r8,r3
    4508:	dfc00417 	ldw	ra,16(sp)
    450c:	dcc00317 	ldw	r19,12(sp)
    4510:	dc800217 	ldw	r18,8(sp)
    4514:	dc400117 	ldw	r17,4(sp)
    4518:	dc000017 	ldw	r16,0(sp)
    451c:	dec00504 	addi	sp,sp,20
    4520:	f800283a 	ret
    4524:	0081ffc4 	movi	r2,2047
    4528:	80bfd626 	beq	r16,r2,4484 <__alt_mem_VGA_Subsystem_Char_Buf_Subsystem_Onchip_SRAM+0xf7004484>
    452c:	4a402034 	orhi	r9,r9,128
    4530:	00800e04 	movi	r2,56
    4534:	10c09f16 	blt	r2,r3,47b4 <__adddf3+0x3ac>
    4538:	008007c4 	movi	r2,31
    453c:	10c0c216 	blt	r2,r3,4848 <__adddf3+0x440>
    4540:	00800804 	movi	r2,32
    4544:	10c5c83a 	sub	r2,r2,r3
    4548:	488a983a 	sll	r5,r9,r2
    454c:	30c8d83a 	srl	r4,r6,r3
    4550:	3084983a 	sll	r2,r6,r2
    4554:	48c6d83a 	srl	r3,r9,r3
    4558:	290cb03a 	or	r6,r5,r4
    455c:	1004c03a 	cmpne	r2,r2,zero
    4560:	308cb03a 	or	r6,r6,r2
    4564:	898dc83a 	sub	r6,r17,r6
    4568:	89a3803a 	cmpltu	r17,r17,r6
    456c:	40d1c83a 	sub	r8,r8,r3
    4570:	4451c83a 	sub	r8,r8,r17
    4574:	3023883a 	mov	r17,r6
    4578:	4080202c 	andhi	r2,r8,128
    457c:	10002326 	beq	r2,zero,460c <__adddf3+0x204>
    4580:	04c02034 	movhi	r19,128
    4584:	9cffffc4 	addi	r19,r19,-1
    4588:	44e6703a 	and	r19,r8,r19
    458c:	98007626 	beq	r19,zero,4768 <__adddf3+0x360>
    4590:	9809883a 	mov	r4,r19
    4594:	0006b540 	call	6b54 <__clzsi2>
    4598:	10fffe04 	addi	r3,r2,-8
    459c:	010007c4 	movi	r4,31
    45a0:	20c07716 	blt	r4,r3,4780 <__adddf3+0x378>
    45a4:	00800804 	movi	r2,32
    45a8:	10c5c83a 	sub	r2,r2,r3
    45ac:	8884d83a 	srl	r2,r17,r2
    45b0:	98d0983a 	sll	r8,r19,r3
    45b4:	88e2983a 	sll	r17,r17,r3
    45b8:	1204b03a 	or	r2,r2,r8
    45bc:	1c007416 	blt	r3,r16,4790 <__adddf3+0x388>
    45c0:	1c21c83a 	sub	r16,r3,r16
    45c4:	82000044 	addi	r8,r16,1
    45c8:	00c007c4 	movi	r3,31
    45cc:	1a009116 	blt	r3,r8,4814 <__adddf3+0x40c>
    45d0:	00c00804 	movi	r3,32
    45d4:	1a07c83a 	sub	r3,r3,r8
    45d8:	8a08d83a 	srl	r4,r17,r8
    45dc:	88e2983a 	sll	r17,r17,r3
    45e0:	10c6983a 	sll	r3,r2,r3
    45e4:	1210d83a 	srl	r8,r2,r8
    45e8:	8804c03a 	cmpne	r2,r17,zero
    45ec:	1906b03a 	or	r3,r3,r4
    45f0:	18a2b03a 	or	r17,r3,r2
    45f4:	0021883a 	mov	r16,zero
    45f8:	003fa206 	br	4484 <__alt_mem_VGA_Subsystem_Char_Buf_Subsystem_Onchip_SRAM+0xf7004484>
    45fc:	1890b03a 	or	r8,r3,r2
    4600:	40017d26 	beq	r8,zero,4bf8 <__adddf3+0x7f0>
    4604:	1011883a 	mov	r8,r2
    4608:	1823883a 	mov	r17,r3
    460c:	888001cc 	andi	r2,r17,7
    4610:	103f9e1e 	bne	r2,zero,448c <__alt_mem_VGA_Subsystem_Char_Buf_Subsystem_Onchip_SRAM+0xf700448c>
    4614:	4004977a 	slli	r2,r8,29
    4618:	8822d0fa 	srli	r17,r17,3
    461c:	4010d0fa 	srli	r8,r8,3
    4620:	9007883a 	mov	r3,r18
    4624:	1444b03a 	or	r2,r2,r17
    4628:	0101ffc4 	movi	r4,2047
    462c:	81002426 	beq	r16,r4,46c0 <__adddf3+0x2b8>
    4630:	8120703a 	and	r16,r16,r4
    4634:	01000434 	movhi	r4,16
    4638:	213fffc4 	addi	r4,r4,-1
    463c:	4110703a 	and	r8,r8,r4
    4640:	003fa806 	br	44e4 <__alt_mem_VGA_Subsystem_Char_Buf_Subsystem_Onchip_SRAM+0xf70044e4>
    4644:	8089c83a 	sub	r4,r16,r2
    4648:	01005e0e 	bge	zero,r4,47c4 <__adddf3+0x3bc>
    464c:	10002b26 	beq	r2,zero,46fc <__adddf3+0x2f4>
    4650:	0081ffc4 	movi	r2,2047
    4654:	80bf8b26 	beq	r16,r2,4484 <__alt_mem_VGA_Subsystem_Char_Buf_Subsystem_Onchip_SRAM+0xf7004484>
    4658:	4a402034 	orhi	r9,r9,128
    465c:	00800e04 	movi	r2,56
    4660:	1100a40e 	bge	r2,r4,48f4 <__adddf3+0x4ec>
    4664:	498cb03a 	or	r6,r9,r6
    4668:	300ac03a 	cmpne	r5,r6,zero
    466c:	0013883a 	mov	r9,zero
    4670:	2c4b883a 	add	r5,r5,r17
    4674:	2c63803a 	cmpltu	r17,r5,r17
    4678:	4a11883a 	add	r8,r9,r8
    467c:	8a11883a 	add	r8,r17,r8
    4680:	2823883a 	mov	r17,r5
    4684:	4080202c 	andhi	r2,r8,128
    4688:	103fe026 	beq	r2,zero,460c <__alt_mem_VGA_Subsystem_Char_Buf_Subsystem_Onchip_SRAM+0xf700460c>
    468c:	84000044 	addi	r16,r16,1
    4690:	0081ffc4 	movi	r2,2047
    4694:	8080d226 	beq	r16,r2,49e0 <__adddf3+0x5d8>
    4698:	00bfe034 	movhi	r2,65408
    469c:	10bfffc4 	addi	r2,r2,-1
    46a0:	4090703a 	and	r8,r8,r2
    46a4:	880ad07a 	srli	r5,r17,1
    46a8:	400897fa 	slli	r4,r8,31
    46ac:	88c0004c 	andi	r3,r17,1
    46b0:	28e2b03a 	or	r17,r5,r3
    46b4:	4010d07a 	srli	r8,r8,1
    46b8:	2462b03a 	or	r17,r4,r17
    46bc:	003f7106 	br	4484 <__alt_mem_VGA_Subsystem_Char_Buf_Subsystem_Onchip_SRAM+0xf7004484>
    46c0:	4088b03a 	or	r4,r8,r2
    46c4:	20014526 	beq	r4,zero,4bdc <__adddf3+0x7d4>
    46c8:	01000434 	movhi	r4,16
    46cc:	42000234 	orhi	r8,r8,8
    46d0:	213fffc4 	addi	r4,r4,-1
    46d4:	4110703a 	and	r8,r8,r4
    46d8:	003f8206 	br	44e4 <__alt_mem_VGA_Subsystem_Char_Buf_Subsystem_Onchip_SRAM+0xf70044e4>
    46dc:	18ffffc4 	addi	r3,r3,-1
    46e0:	1800491e 	bne	r3,zero,4808 <__adddf3+0x400>
    46e4:	898bc83a 	sub	r5,r17,r6
    46e8:	8963803a 	cmpltu	r17,r17,r5
    46ec:	4251c83a 	sub	r8,r8,r9
    46f0:	4451c83a 	sub	r8,r8,r17
    46f4:	2823883a 	mov	r17,r5
    46f8:	003f9f06 	br	4578 <__alt_mem_VGA_Subsystem_Char_Buf_Subsystem_Onchip_SRAM+0xf7004578>
    46fc:	4984b03a 	or	r2,r9,r6
    4700:	103f6026 	beq	r2,zero,4484 <__alt_mem_VGA_Subsystem_Char_Buf_Subsystem_Onchip_SRAM+0xf7004484>
    4704:	213fffc4 	addi	r4,r4,-1
    4708:	2000931e 	bne	r4,zero,4958 <__adddf3+0x550>
    470c:	898d883a 	add	r6,r17,r6
    4710:	3463803a 	cmpltu	r17,r6,r17
    4714:	4251883a 	add	r8,r8,r9
    4718:	8a11883a 	add	r8,r17,r8
    471c:	3023883a 	mov	r17,r6
    4720:	003fd806 	br	4684 <__alt_mem_VGA_Subsystem_Char_Buf_Subsystem_Onchip_SRAM+0xf7004684>
    4724:	1800541e 	bne	r3,zero,4878 <__adddf3+0x470>
    4728:	80800044 	addi	r2,r16,1
    472c:	1081ffcc 	andi	r2,r2,2047
    4730:	00c00044 	movi	r3,1
    4734:	1880a00e 	bge	r3,r2,49b8 <__adddf3+0x5b0>
    4738:	8989c83a 	sub	r4,r17,r6
    473c:	8905803a 	cmpltu	r2,r17,r4
    4740:	4267c83a 	sub	r19,r8,r9
    4744:	98a7c83a 	sub	r19,r19,r2
    4748:	9880202c 	andhi	r2,r19,128
    474c:	10006326 	beq	r2,zero,48dc <__adddf3+0x4d4>
    4750:	3463c83a 	sub	r17,r6,r17
    4754:	4a07c83a 	sub	r3,r9,r8
    4758:	344d803a 	cmpltu	r6,r6,r17
    475c:	19a7c83a 	sub	r19,r3,r6
    4760:	3825883a 	mov	r18,r7
    4764:	983f8a1e 	bne	r19,zero,4590 <__alt_mem_VGA_Subsystem_Char_Buf_Subsystem_Onchip_SRAM+0xf7004590>
    4768:	8809883a 	mov	r4,r17
    476c:	0006b540 	call	6b54 <__clzsi2>
    4770:	10800804 	addi	r2,r2,32
    4774:	10fffe04 	addi	r3,r2,-8
    4778:	010007c4 	movi	r4,31
    477c:	20ff890e 	bge	r4,r3,45a4 <__alt_mem_VGA_Subsystem_Char_Buf_Subsystem_Onchip_SRAM+0xf70045a4>
    4780:	10bff604 	addi	r2,r2,-40
    4784:	8884983a 	sll	r2,r17,r2
    4788:	0023883a 	mov	r17,zero
    478c:	1c3f8c0e 	bge	r3,r16,45c0 <__alt_mem_VGA_Subsystem_Char_Buf_Subsystem_Onchip_SRAM+0xf70045c0>
    4790:	023fe034 	movhi	r8,65408
    4794:	423fffc4 	addi	r8,r8,-1
    4798:	80e1c83a 	sub	r16,r16,r3
    479c:	1210703a 	and	r8,r2,r8
    47a0:	003f3806 	br	4484 <__alt_mem_VGA_Subsystem_Char_Buf_Subsystem_Onchip_SRAM+0xf7004484>
    47a4:	9007883a 	mov	r3,r18
    47a8:	0011883a 	mov	r8,zero
    47ac:	0005883a 	mov	r2,zero
    47b0:	003f4c06 	br	44e4 <__alt_mem_VGA_Subsystem_Char_Buf_Subsystem_Onchip_SRAM+0xf70044e4>
    47b4:	498cb03a 	or	r6,r9,r6
    47b8:	300cc03a 	cmpne	r6,r6,zero
    47bc:	0007883a 	mov	r3,zero
    47c0:	003f6806 	br	4564 <__alt_mem_VGA_Subsystem_Char_Buf_Subsystem_Onchip_SRAM+0xf7004564>
    47c4:	20009c1e 	bne	r4,zero,4a38 <__adddf3+0x630>
    47c8:	80800044 	addi	r2,r16,1
    47cc:	1141ffcc 	andi	r5,r2,2047
    47d0:	01000044 	movi	r4,1
    47d4:	2140670e 	bge	r4,r5,4974 <__adddf3+0x56c>
    47d8:	0101ffc4 	movi	r4,2047
    47dc:	11007f26 	beq	r2,r4,49dc <__adddf3+0x5d4>
    47e0:	898d883a 	add	r6,r17,r6
    47e4:	4247883a 	add	r3,r8,r9
    47e8:	3451803a 	cmpltu	r8,r6,r17
    47ec:	40d1883a 	add	r8,r8,r3
    47f0:	402297fa 	slli	r17,r8,31
    47f4:	300cd07a 	srli	r6,r6,1
    47f8:	4010d07a 	srli	r8,r8,1
    47fc:	1021883a 	mov	r16,r2
    4800:	89a2b03a 	or	r17,r17,r6
    4804:	003f1f06 	br	4484 <__alt_mem_VGA_Subsystem_Char_Buf_Subsystem_Onchip_SRAM+0xf7004484>
    4808:	0081ffc4 	movi	r2,2047
    480c:	80bf481e 	bne	r16,r2,4530 <__alt_mem_VGA_Subsystem_Char_Buf_Subsystem_Onchip_SRAM+0xf7004530>
    4810:	003f1c06 	br	4484 <__alt_mem_VGA_Subsystem_Char_Buf_Subsystem_Onchip_SRAM+0xf7004484>
    4814:	843ff844 	addi	r16,r16,-31
    4818:	01000804 	movi	r4,32
    481c:	1406d83a 	srl	r3,r2,r16
    4820:	41005026 	beq	r8,r4,4964 <__adddf3+0x55c>
    4824:	01001004 	movi	r4,64
    4828:	2211c83a 	sub	r8,r4,r8
    482c:	1204983a 	sll	r2,r2,r8
    4830:	88a2b03a 	or	r17,r17,r2
    4834:	8822c03a 	cmpne	r17,r17,zero
    4838:	1c62b03a 	or	r17,r3,r17
    483c:	0011883a 	mov	r8,zero
    4840:	0021883a 	mov	r16,zero
    4844:	003f7106 	br	460c <__alt_mem_VGA_Subsystem_Char_Buf_Subsystem_Onchip_SRAM+0xf700460c>
    4848:	193ff804 	addi	r4,r3,-32
    484c:	00800804 	movi	r2,32
    4850:	4908d83a 	srl	r4,r9,r4
    4854:	18804526 	beq	r3,r2,496c <__adddf3+0x564>
    4858:	00801004 	movi	r2,64
    485c:	10c5c83a 	sub	r2,r2,r3
    4860:	4886983a 	sll	r3,r9,r2
    4864:	198cb03a 	or	r6,r3,r6
    4868:	300cc03a 	cmpne	r6,r6,zero
    486c:	218cb03a 	or	r6,r4,r6
    4870:	0007883a 	mov	r3,zero
    4874:	003f3b06 	br	4564 <__alt_mem_VGA_Subsystem_Char_Buf_Subsystem_Onchip_SRAM+0xf7004564>
    4878:	80002a26 	beq	r16,zero,4924 <__adddf3+0x51c>
    487c:	0101ffc4 	movi	r4,2047
    4880:	11006826 	beq	r2,r4,4a24 <__adddf3+0x61c>
    4884:	00c7c83a 	sub	r3,zero,r3
    4888:	42002034 	orhi	r8,r8,128
    488c:	01000e04 	movi	r4,56
    4890:	20c07c16 	blt	r4,r3,4a84 <__adddf3+0x67c>
    4894:	010007c4 	movi	r4,31
    4898:	20c0da16 	blt	r4,r3,4c04 <__adddf3+0x7fc>
    489c:	01000804 	movi	r4,32
    48a0:	20c9c83a 	sub	r4,r4,r3
    48a4:	4114983a 	sll	r10,r8,r4
    48a8:	88cad83a 	srl	r5,r17,r3
    48ac:	8908983a 	sll	r4,r17,r4
    48b0:	40c6d83a 	srl	r3,r8,r3
    48b4:	5162b03a 	or	r17,r10,r5
    48b8:	2008c03a 	cmpne	r4,r4,zero
    48bc:	8922b03a 	or	r17,r17,r4
    48c0:	3463c83a 	sub	r17,r6,r17
    48c4:	48c7c83a 	sub	r3,r9,r3
    48c8:	344d803a 	cmpltu	r6,r6,r17
    48cc:	1991c83a 	sub	r8,r3,r6
    48d0:	1021883a 	mov	r16,r2
    48d4:	3825883a 	mov	r18,r7
    48d8:	003f2706 	br	4578 <__alt_mem_VGA_Subsystem_Char_Buf_Subsystem_Onchip_SRAM+0xf7004578>
    48dc:	24d0b03a 	or	r8,r4,r19
    48e0:	40001b1e 	bne	r8,zero,4950 <__adddf3+0x548>
    48e4:	0005883a 	mov	r2,zero
    48e8:	0007883a 	mov	r3,zero
    48ec:	0021883a 	mov	r16,zero
    48f0:	003f4d06 	br	4628 <__alt_mem_VGA_Subsystem_Char_Buf_Subsystem_Onchip_SRAM+0xf7004628>
    48f4:	008007c4 	movi	r2,31
    48f8:	11003c16 	blt	r2,r4,49ec <__adddf3+0x5e4>
    48fc:	00800804 	movi	r2,32
    4900:	1105c83a 	sub	r2,r2,r4
    4904:	488e983a 	sll	r7,r9,r2
    4908:	310ad83a 	srl	r5,r6,r4
    490c:	3084983a 	sll	r2,r6,r2
    4910:	4912d83a 	srl	r9,r9,r4
    4914:	394ab03a 	or	r5,r7,r5
    4918:	1004c03a 	cmpne	r2,r2,zero
    491c:	288ab03a 	or	r5,r5,r2
    4920:	003f5306 	br	4670 <__alt_mem_VGA_Subsystem_Char_Buf_Subsystem_Onchip_SRAM+0xf7004670>
    4924:	4448b03a 	or	r4,r8,r17
    4928:	20003e26 	beq	r4,zero,4a24 <__adddf3+0x61c>
    492c:	00c6303a 	nor	r3,zero,r3
    4930:	18003a1e 	bne	r3,zero,4a1c <__adddf3+0x614>
    4934:	3463c83a 	sub	r17,r6,r17
    4938:	4a07c83a 	sub	r3,r9,r8
    493c:	344d803a 	cmpltu	r6,r6,r17
    4940:	1991c83a 	sub	r8,r3,r6
    4944:	1021883a 	mov	r16,r2
    4948:	3825883a 	mov	r18,r7
    494c:	003f0a06 	br	4578 <__alt_mem_VGA_Subsystem_Char_Buf_Subsystem_Onchip_SRAM+0xf7004578>
    4950:	2023883a 	mov	r17,r4
    4954:	003f0d06 	br	458c <__alt_mem_VGA_Subsystem_Char_Buf_Subsystem_Onchip_SRAM+0xf700458c>
    4958:	0081ffc4 	movi	r2,2047
    495c:	80bf3f1e 	bne	r16,r2,465c <__alt_mem_VGA_Subsystem_Char_Buf_Subsystem_Onchip_SRAM+0xf700465c>
    4960:	003ec806 	br	4484 <__alt_mem_VGA_Subsystem_Char_Buf_Subsystem_Onchip_SRAM+0xf7004484>
    4964:	0005883a 	mov	r2,zero
    4968:	003fb106 	br	4830 <__alt_mem_VGA_Subsystem_Char_Buf_Subsystem_Onchip_SRAM+0xf7004830>
    496c:	0007883a 	mov	r3,zero
    4970:	003fbc06 	br	4864 <__alt_mem_VGA_Subsystem_Char_Buf_Subsystem_Onchip_SRAM+0xf7004864>
    4974:	4444b03a 	or	r2,r8,r17
    4978:	8000871e 	bne	r16,zero,4b98 <__adddf3+0x790>
    497c:	1000ba26 	beq	r2,zero,4c68 <__adddf3+0x860>
    4980:	4984b03a 	or	r2,r9,r6
    4984:	103ebf26 	beq	r2,zero,4484 <__alt_mem_VGA_Subsystem_Char_Buf_Subsystem_Onchip_SRAM+0xf7004484>
    4988:	8985883a 	add	r2,r17,r6
    498c:	4247883a 	add	r3,r8,r9
    4990:	1451803a 	cmpltu	r8,r2,r17
    4994:	40d1883a 	add	r8,r8,r3
    4998:	40c0202c 	andhi	r3,r8,128
    499c:	1023883a 	mov	r17,r2
    49a0:	183f1a26 	beq	r3,zero,460c <__alt_mem_VGA_Subsystem_Char_Buf_Subsystem_Onchip_SRAM+0xf700460c>
    49a4:	00bfe034 	movhi	r2,65408
    49a8:	10bfffc4 	addi	r2,r2,-1
    49ac:	2021883a 	mov	r16,r4
    49b0:	4090703a 	and	r8,r8,r2
    49b4:	003eb306 	br	4484 <__alt_mem_VGA_Subsystem_Char_Buf_Subsystem_Onchip_SRAM+0xf7004484>
    49b8:	4444b03a 	or	r2,r8,r17
    49bc:	8000291e 	bne	r16,zero,4a64 <__adddf3+0x65c>
    49c0:	10004b1e 	bne	r2,zero,4af0 <__adddf3+0x6e8>
    49c4:	4990b03a 	or	r8,r9,r6
    49c8:	40008b26 	beq	r8,zero,4bf8 <__adddf3+0x7f0>
    49cc:	4811883a 	mov	r8,r9
    49d0:	3023883a 	mov	r17,r6
    49d4:	3825883a 	mov	r18,r7
    49d8:	003eaa06 	br	4484 <__alt_mem_VGA_Subsystem_Char_Buf_Subsystem_Onchip_SRAM+0xf7004484>
    49dc:	1021883a 	mov	r16,r2
    49e0:	0011883a 	mov	r8,zero
    49e4:	0005883a 	mov	r2,zero
    49e8:	003f0f06 	br	4628 <__alt_mem_VGA_Subsystem_Char_Buf_Subsystem_Onchip_SRAM+0xf7004628>
    49ec:	217ff804 	addi	r5,r4,-32
    49f0:	00800804 	movi	r2,32
    49f4:	494ad83a 	srl	r5,r9,r5
    49f8:	20807d26 	beq	r4,r2,4bf0 <__adddf3+0x7e8>
    49fc:	00801004 	movi	r2,64
    4a00:	1109c83a 	sub	r4,r2,r4
    4a04:	4912983a 	sll	r9,r9,r4
    4a08:	498cb03a 	or	r6,r9,r6
    4a0c:	300cc03a 	cmpne	r6,r6,zero
    4a10:	298ab03a 	or	r5,r5,r6
    4a14:	0013883a 	mov	r9,zero
    4a18:	003f1506 	br	4670 <__alt_mem_VGA_Subsystem_Char_Buf_Subsystem_Onchip_SRAM+0xf7004670>
    4a1c:	0101ffc4 	movi	r4,2047
    4a20:	113f9a1e 	bne	r2,r4,488c <__alt_mem_VGA_Subsystem_Char_Buf_Subsystem_Onchip_SRAM+0xf700488c>
    4a24:	4811883a 	mov	r8,r9
    4a28:	3023883a 	mov	r17,r6
    4a2c:	1021883a 	mov	r16,r2
    4a30:	3825883a 	mov	r18,r7
    4a34:	003e9306 	br	4484 <__alt_mem_VGA_Subsystem_Char_Buf_Subsystem_Onchip_SRAM+0xf7004484>
    4a38:	8000161e 	bne	r16,zero,4a94 <__adddf3+0x68c>
    4a3c:	444ab03a 	or	r5,r8,r17
    4a40:	28005126 	beq	r5,zero,4b88 <__adddf3+0x780>
    4a44:	0108303a 	nor	r4,zero,r4
    4a48:	20004d1e 	bne	r4,zero,4b80 <__adddf3+0x778>
    4a4c:	89a3883a 	add	r17,r17,r6
    4a50:	4253883a 	add	r9,r8,r9
    4a54:	898d803a 	cmpltu	r6,r17,r6
    4a58:	3251883a 	add	r8,r6,r9
    4a5c:	1021883a 	mov	r16,r2
    4a60:	003f0806 	br	4684 <__alt_mem_VGA_Subsystem_Char_Buf_Subsystem_Onchip_SRAM+0xf7004684>
    4a64:	1000301e 	bne	r2,zero,4b28 <__adddf3+0x720>
    4a68:	4984b03a 	or	r2,r9,r6
    4a6c:	10007126 	beq	r2,zero,4c34 <__adddf3+0x82c>
    4a70:	4811883a 	mov	r8,r9
    4a74:	3023883a 	mov	r17,r6
    4a78:	3825883a 	mov	r18,r7
    4a7c:	0401ffc4 	movi	r16,2047
    4a80:	003e8006 	br	4484 <__alt_mem_VGA_Subsystem_Char_Buf_Subsystem_Onchip_SRAM+0xf7004484>
    4a84:	4462b03a 	or	r17,r8,r17
    4a88:	8822c03a 	cmpne	r17,r17,zero
    4a8c:	0007883a 	mov	r3,zero
    4a90:	003f8b06 	br	48c0 <__alt_mem_VGA_Subsystem_Char_Buf_Subsystem_Onchip_SRAM+0xf70048c0>
    4a94:	0141ffc4 	movi	r5,2047
    4a98:	11403b26 	beq	r2,r5,4b88 <__adddf3+0x780>
    4a9c:	0109c83a 	sub	r4,zero,r4
    4aa0:	42002034 	orhi	r8,r8,128
    4aa4:	01400e04 	movi	r5,56
    4aa8:	29006716 	blt	r5,r4,4c48 <__adddf3+0x840>
    4aac:	014007c4 	movi	r5,31
    4ab0:	29007016 	blt	r5,r4,4c74 <__adddf3+0x86c>
    4ab4:	01400804 	movi	r5,32
    4ab8:	290bc83a 	sub	r5,r5,r4
    4abc:	4154983a 	sll	r10,r8,r5
    4ac0:	890ed83a 	srl	r7,r17,r4
    4ac4:	894a983a 	sll	r5,r17,r5
    4ac8:	4108d83a 	srl	r4,r8,r4
    4acc:	51e2b03a 	or	r17,r10,r7
    4ad0:	280ac03a 	cmpne	r5,r5,zero
    4ad4:	8962b03a 	or	r17,r17,r5
    4ad8:	89a3883a 	add	r17,r17,r6
    4adc:	2253883a 	add	r9,r4,r9
    4ae0:	898d803a 	cmpltu	r6,r17,r6
    4ae4:	3251883a 	add	r8,r6,r9
    4ae8:	1021883a 	mov	r16,r2
    4aec:	003ee506 	br	4684 <__alt_mem_VGA_Subsystem_Char_Buf_Subsystem_Onchip_SRAM+0xf7004684>
    4af0:	4984b03a 	or	r2,r9,r6
    4af4:	103e6326 	beq	r2,zero,4484 <__alt_mem_VGA_Subsystem_Char_Buf_Subsystem_Onchip_SRAM+0xf7004484>
    4af8:	8987c83a 	sub	r3,r17,r6
    4afc:	88c9803a 	cmpltu	r4,r17,r3
    4b00:	4245c83a 	sub	r2,r8,r9
    4b04:	1105c83a 	sub	r2,r2,r4
    4b08:	1100202c 	andhi	r4,r2,128
    4b0c:	203ebb26 	beq	r4,zero,45fc <__alt_mem_VGA_Subsystem_Char_Buf_Subsystem_Onchip_SRAM+0xf70045fc>
    4b10:	3463c83a 	sub	r17,r6,r17
    4b14:	4a07c83a 	sub	r3,r9,r8
    4b18:	344d803a 	cmpltu	r6,r6,r17
    4b1c:	1991c83a 	sub	r8,r3,r6
    4b20:	3825883a 	mov	r18,r7
    4b24:	003e5706 	br	4484 <__alt_mem_VGA_Subsystem_Char_Buf_Subsystem_Onchip_SRAM+0xf7004484>
    4b28:	4984b03a 	or	r2,r9,r6
    4b2c:	10002e26 	beq	r2,zero,4be8 <__adddf3+0x7e0>
    4b30:	4004d0fa 	srli	r2,r8,3
    4b34:	8822d0fa 	srli	r17,r17,3
    4b38:	4010977a 	slli	r8,r8,29
    4b3c:	10c0022c 	andhi	r3,r2,8
    4b40:	4462b03a 	or	r17,r8,r17
    4b44:	18000826 	beq	r3,zero,4b68 <__adddf3+0x760>
    4b48:	4808d0fa 	srli	r4,r9,3
    4b4c:	20c0022c 	andhi	r3,r4,8
    4b50:	1800051e 	bne	r3,zero,4b68 <__adddf3+0x760>
    4b54:	300cd0fa 	srli	r6,r6,3
    4b58:	4806977a 	slli	r3,r9,29
    4b5c:	2005883a 	mov	r2,r4
    4b60:	3825883a 	mov	r18,r7
    4b64:	19a2b03a 	or	r17,r3,r6
    4b68:	8810d77a 	srli	r8,r17,29
    4b6c:	100490fa 	slli	r2,r2,3
    4b70:	882290fa 	slli	r17,r17,3
    4b74:	0401ffc4 	movi	r16,2047
    4b78:	4090b03a 	or	r8,r8,r2
    4b7c:	003e4106 	br	4484 <__alt_mem_VGA_Subsystem_Char_Buf_Subsystem_Onchip_SRAM+0xf7004484>
    4b80:	0141ffc4 	movi	r5,2047
    4b84:	117fc71e 	bne	r2,r5,4aa4 <__alt_mem_VGA_Subsystem_Char_Buf_Subsystem_Onchip_SRAM+0xf7004aa4>
    4b88:	4811883a 	mov	r8,r9
    4b8c:	3023883a 	mov	r17,r6
    4b90:	1021883a 	mov	r16,r2
    4b94:	003e3b06 	br	4484 <__alt_mem_VGA_Subsystem_Char_Buf_Subsystem_Onchip_SRAM+0xf7004484>
    4b98:	10002f26 	beq	r2,zero,4c58 <__adddf3+0x850>
    4b9c:	4984b03a 	or	r2,r9,r6
    4ba0:	10001126 	beq	r2,zero,4be8 <__adddf3+0x7e0>
    4ba4:	4004d0fa 	srli	r2,r8,3
    4ba8:	8822d0fa 	srli	r17,r17,3
    4bac:	4010977a 	slli	r8,r8,29
    4bb0:	10c0022c 	andhi	r3,r2,8
    4bb4:	4462b03a 	or	r17,r8,r17
    4bb8:	183feb26 	beq	r3,zero,4b68 <__alt_mem_VGA_Subsystem_Char_Buf_Subsystem_Onchip_SRAM+0xf7004b68>
    4bbc:	4808d0fa 	srli	r4,r9,3
    4bc0:	20c0022c 	andhi	r3,r4,8
    4bc4:	183fe81e 	bne	r3,zero,4b68 <__alt_mem_VGA_Subsystem_Char_Buf_Subsystem_Onchip_SRAM+0xf7004b68>
    4bc8:	300cd0fa 	srli	r6,r6,3
    4bcc:	4806977a 	slli	r3,r9,29
    4bd0:	2005883a 	mov	r2,r4
    4bd4:	19a2b03a 	or	r17,r3,r6
    4bd8:	003fe306 	br	4b68 <__alt_mem_VGA_Subsystem_Char_Buf_Subsystem_Onchip_SRAM+0xf7004b68>
    4bdc:	0011883a 	mov	r8,zero
    4be0:	0005883a 	mov	r2,zero
    4be4:	003e3f06 	br	44e4 <__alt_mem_VGA_Subsystem_Char_Buf_Subsystem_Onchip_SRAM+0xf70044e4>
    4be8:	0401ffc4 	movi	r16,2047
    4bec:	003e2506 	br	4484 <__alt_mem_VGA_Subsystem_Char_Buf_Subsystem_Onchip_SRAM+0xf7004484>
    4bf0:	0013883a 	mov	r9,zero
    4bf4:	003f8406 	br	4a08 <__alt_mem_VGA_Subsystem_Char_Buf_Subsystem_Onchip_SRAM+0xf7004a08>
    4bf8:	0005883a 	mov	r2,zero
    4bfc:	0007883a 	mov	r3,zero
    4c00:	003e8906 	br	4628 <__alt_mem_VGA_Subsystem_Char_Buf_Subsystem_Onchip_SRAM+0xf7004628>
    4c04:	197ff804 	addi	r5,r3,-32
    4c08:	01000804 	movi	r4,32
    4c0c:	414ad83a 	srl	r5,r8,r5
    4c10:	19002426 	beq	r3,r4,4ca4 <__adddf3+0x89c>
    4c14:	01001004 	movi	r4,64
    4c18:	20c7c83a 	sub	r3,r4,r3
    4c1c:	40c6983a 	sll	r3,r8,r3
    4c20:	1c46b03a 	or	r3,r3,r17
    4c24:	1806c03a 	cmpne	r3,r3,zero
    4c28:	28e2b03a 	or	r17,r5,r3
    4c2c:	0007883a 	mov	r3,zero
    4c30:	003f2306 	br	48c0 <__alt_mem_VGA_Subsystem_Char_Buf_Subsystem_Onchip_SRAM+0xf70048c0>
    4c34:	0007883a 	mov	r3,zero
    4c38:	5811883a 	mov	r8,r11
    4c3c:	00bfffc4 	movi	r2,-1
    4c40:	0401ffc4 	movi	r16,2047
    4c44:	003e7806 	br	4628 <__alt_mem_VGA_Subsystem_Char_Buf_Subsystem_Onchip_SRAM+0xf7004628>
    4c48:	4462b03a 	or	r17,r8,r17
    4c4c:	8822c03a 	cmpne	r17,r17,zero
    4c50:	0009883a 	mov	r4,zero
    4c54:	003fa006 	br	4ad8 <__alt_mem_VGA_Subsystem_Char_Buf_Subsystem_Onchip_SRAM+0xf7004ad8>
    4c58:	4811883a 	mov	r8,r9
    4c5c:	3023883a 	mov	r17,r6
    4c60:	0401ffc4 	movi	r16,2047
    4c64:	003e0706 	br	4484 <__alt_mem_VGA_Subsystem_Char_Buf_Subsystem_Onchip_SRAM+0xf7004484>
    4c68:	4811883a 	mov	r8,r9
    4c6c:	3023883a 	mov	r17,r6
    4c70:	003e0406 	br	4484 <__alt_mem_VGA_Subsystem_Char_Buf_Subsystem_Onchip_SRAM+0xf7004484>
    4c74:	21fff804 	addi	r7,r4,-32
    4c78:	01400804 	movi	r5,32
    4c7c:	41ced83a 	srl	r7,r8,r7
    4c80:	21400a26 	beq	r4,r5,4cac <__adddf3+0x8a4>
    4c84:	01401004 	movi	r5,64
    4c88:	2909c83a 	sub	r4,r5,r4
    4c8c:	4108983a 	sll	r4,r8,r4
    4c90:	2448b03a 	or	r4,r4,r17
    4c94:	2008c03a 	cmpne	r4,r4,zero
    4c98:	3922b03a 	or	r17,r7,r4
    4c9c:	0009883a 	mov	r4,zero
    4ca0:	003f8d06 	br	4ad8 <__alt_mem_VGA_Subsystem_Char_Buf_Subsystem_Onchip_SRAM+0xf7004ad8>
    4ca4:	0007883a 	mov	r3,zero
    4ca8:	003fdd06 	br	4c20 <__alt_mem_VGA_Subsystem_Char_Buf_Subsystem_Onchip_SRAM+0xf7004c20>
    4cac:	0009883a 	mov	r4,zero
    4cb0:	003ff706 	br	4c90 <__alt_mem_VGA_Subsystem_Char_Buf_Subsystem_Onchip_SRAM+0xf7004c90>

00004cb4 <__divdf3>:
    4cb4:	defff004 	addi	sp,sp,-64
    4cb8:	dc800815 	stw	r18,32(sp)
    4cbc:	2824d53a 	srli	r18,r5,20
    4cc0:	dd800c15 	stw	r22,48(sp)
    4cc4:	282cd7fa 	srli	r22,r5,31
    4cc8:	dc000615 	stw	r16,24(sp)
    4ccc:	04000434 	movhi	r16,16
    4cd0:	843fffc4 	addi	r16,r16,-1
    4cd4:	dfc00f15 	stw	ra,60(sp)
    4cd8:	df000e15 	stw	fp,56(sp)
    4cdc:	ddc00d15 	stw	r23,52(sp)
    4ce0:	dd400b15 	stw	r21,44(sp)
    4ce4:	dd000a15 	stw	r20,40(sp)
    4ce8:	dcc00915 	stw	r19,36(sp)
    4cec:	dc400715 	stw	r17,28(sp)
    4cf0:	9481ffcc 	andi	r18,r18,2047
    4cf4:	2c20703a 	and	r16,r5,r16
    4cf8:	b2003fcc 	andi	r8,r22,255
    4cfc:	90006126 	beq	r18,zero,4e84 <__divdf3+0x1d0>
    4d00:	0081ffc4 	movi	r2,2047
    4d04:	202b883a 	mov	r21,r4
    4d08:	90803726 	beq	r18,r2,4de8 <__divdf3+0x134>
    4d0c:	80800434 	orhi	r2,r16,16
    4d10:	100490fa 	slli	r2,r2,3
    4d14:	2020d77a 	srli	r16,r4,29
    4d18:	202a90fa 	slli	r21,r4,3
    4d1c:	94bf0044 	addi	r18,r18,-1023
    4d20:	80a0b03a 	or	r16,r16,r2
    4d24:	0013883a 	mov	r9,zero
    4d28:	000b883a 	mov	r5,zero
    4d2c:	3806d53a 	srli	r3,r7,20
    4d30:	382ed7fa 	srli	r23,r7,31
    4d34:	04400434 	movhi	r17,16
    4d38:	8c7fffc4 	addi	r17,r17,-1
    4d3c:	18c1ffcc 	andi	r3,r3,2047
    4d40:	3029883a 	mov	r20,r6
    4d44:	3c62703a 	and	r17,r7,r17
    4d48:	bf003fcc 	andi	fp,r23,255
    4d4c:	18006e26 	beq	r3,zero,4f08 <__divdf3+0x254>
    4d50:	0081ffc4 	movi	r2,2047
    4d54:	18806626 	beq	r3,r2,4ef0 <__divdf3+0x23c>
    4d58:	88800434 	orhi	r2,r17,16
    4d5c:	100490fa 	slli	r2,r2,3
    4d60:	3022d77a 	srli	r17,r6,29
    4d64:	302890fa 	slli	r20,r6,3
    4d68:	18ff0044 	addi	r3,r3,-1023
    4d6c:	88a2b03a 	or	r17,r17,r2
    4d70:	000f883a 	mov	r7,zero
    4d74:	b5e6f03a 	xor	r19,r22,r23
    4d78:	3a4cb03a 	or	r6,r7,r9
    4d7c:	008003c4 	movi	r2,15
    4d80:	9809883a 	mov	r4,r19
    4d84:	90c7c83a 	sub	r3,r18,r3
    4d88:	9cc03fcc 	andi	r19,r19,255
    4d8c:	11809636 	bltu	r2,r6,4fe8 <__divdf3+0x334>
    4d90:	300c90ba 	slli	r6,r6,2
    4d94:	00800034 	movhi	r2,0
    4d98:	10936a04 	addi	r2,r2,19880
    4d9c:	308d883a 	add	r6,r6,r2
    4da0:	30800017 	ldw	r2,0(r6)
    4da4:	1000683a 	jmp	r2
    4da8:	00004fe8 	cmpgeui	zero,zero,319
    4dac:	00004e20 	cmpeqi	zero,zero,312
    4db0:	00004fd8 	cmpnei	zero,zero,319
    4db4:	00004e14 	movui	zero,312
    4db8:	00004fd8 	cmpnei	zero,zero,319
    4dbc:	00004fac 	andhi	zero,zero,318
    4dc0:	00004fd8 	cmpnei	zero,zero,319
    4dc4:	00004e14 	movui	zero,312
    4dc8:	00004e20 	cmpeqi	zero,zero,312
    4dcc:	00004e20 	cmpeqi	zero,zero,312
    4dd0:	00004fac 	andhi	zero,zero,318
    4dd4:	00004e14 	movui	zero,312
    4dd8:	00004e04 	movi	zero,312
    4ddc:	00004e04 	movi	zero,312
    4de0:	00004e04 	movi	zero,312
    4de4:	00005370 	cmpltui	zero,zero,333
    4de8:	2404b03a 	or	r2,r4,r16
    4dec:	10006c1e 	bne	r2,zero,4fa0 <__divdf3+0x2ec>
    4df0:	02400204 	movi	r9,8
    4df4:	0021883a 	mov	r16,zero
    4df8:	002b883a 	mov	r21,zero
    4dfc:	01400084 	movi	r5,2
    4e00:	003fca06 	br	4d2c <__alt_mem_VGA_Subsystem_Char_Buf_Subsystem_Onchip_SRAM+0xf7004d2c>
    4e04:	8023883a 	mov	r17,r16
    4e08:	a829883a 	mov	r20,r21
    4e0c:	4039883a 	mov	fp,r8
    4e10:	280f883a 	mov	r7,r5
    4e14:	00800084 	movi	r2,2
    4e18:	3881601e 	bne	r7,r2,539c <__divdf3+0x6e8>
    4e1c:	e027883a 	mov	r19,fp
    4e20:	9900004c 	andi	r4,r19,1
    4e24:	0081ffc4 	movi	r2,2047
    4e28:	0021883a 	mov	r16,zero
    4e2c:	002b883a 	mov	r21,zero
    4e30:	1004953a 	slli	r2,r2,20
    4e34:	20c03fcc 	andi	r3,r4,255
    4e38:	01400434 	movhi	r5,16
    4e3c:	297fffc4 	addi	r5,r5,-1
    4e40:	180697fa 	slli	r3,r3,31
    4e44:	8160703a 	and	r16,r16,r5
    4e48:	80a0b03a 	or	r16,r16,r2
    4e4c:	80c6b03a 	or	r3,r16,r3
    4e50:	a805883a 	mov	r2,r21
    4e54:	dfc00f17 	ldw	ra,60(sp)
    4e58:	df000e17 	ldw	fp,56(sp)
    4e5c:	ddc00d17 	ldw	r23,52(sp)
    4e60:	dd800c17 	ldw	r22,48(sp)
    4e64:	dd400b17 	ldw	r21,44(sp)
    4e68:	dd000a17 	ldw	r20,40(sp)
    4e6c:	dcc00917 	ldw	r19,36(sp)
    4e70:	dc800817 	ldw	r18,32(sp)
    4e74:	dc400717 	ldw	r17,28(sp)
    4e78:	dc000617 	ldw	r16,24(sp)
    4e7c:	dec01004 	addi	sp,sp,64
    4e80:	f800283a 	ret
    4e84:	2404b03a 	or	r2,r4,r16
    4e88:	2023883a 	mov	r17,r4
    4e8c:	10003f26 	beq	r2,zero,4f8c <__divdf3+0x2d8>
    4e90:	80015e26 	beq	r16,zero,540c <__divdf3+0x758>
    4e94:	8009883a 	mov	r4,r16
    4e98:	d9800215 	stw	r6,8(sp)
    4e9c:	d9c00515 	stw	r7,20(sp)
    4ea0:	da000415 	stw	r8,16(sp)
    4ea4:	0006b540 	call	6b54 <__clzsi2>
    4ea8:	d9800217 	ldw	r6,8(sp)
    4eac:	d9c00517 	ldw	r7,20(sp)
    4eb0:	da000417 	ldw	r8,16(sp)
    4eb4:	113ffd44 	addi	r4,r2,-11
    4eb8:	00c00704 	movi	r3,28
    4ebc:	19014f16 	blt	r3,r4,53fc <__divdf3+0x748>
    4ec0:	00c00744 	movi	r3,29
    4ec4:	157ffe04 	addi	r21,r2,-8
    4ec8:	1907c83a 	sub	r3,r3,r4
    4ecc:	8560983a 	sll	r16,r16,r21
    4ed0:	88c6d83a 	srl	r3,r17,r3
    4ed4:	8d6a983a 	sll	r21,r17,r21
    4ed8:	1c20b03a 	or	r16,r3,r16
    4edc:	1080fcc4 	addi	r2,r2,1011
    4ee0:	00a5c83a 	sub	r18,zero,r2
    4ee4:	0013883a 	mov	r9,zero
    4ee8:	000b883a 	mov	r5,zero
    4eec:	003f8f06 	br	4d2c <__alt_mem_VGA_Subsystem_Char_Buf_Subsystem_Onchip_SRAM+0xf7004d2c>
    4ef0:	3444b03a 	or	r2,r6,r17
    4ef4:	1000231e 	bne	r2,zero,4f84 <__divdf3+0x2d0>
    4ef8:	0023883a 	mov	r17,zero
    4efc:	0029883a 	mov	r20,zero
    4f00:	01c00084 	movi	r7,2
    4f04:	003f9b06 	br	4d74 <__alt_mem_VGA_Subsystem_Char_Buf_Subsystem_Onchip_SRAM+0xf7004d74>
    4f08:	3444b03a 	or	r2,r6,r17
    4f0c:	10001926 	beq	r2,zero,4f74 <__divdf3+0x2c0>
    4f10:	88014b26 	beq	r17,zero,5440 <__divdf3+0x78c>
    4f14:	8809883a 	mov	r4,r17
    4f18:	d9400115 	stw	r5,4(sp)
    4f1c:	d9800215 	stw	r6,8(sp)
    4f20:	da000415 	stw	r8,16(sp)
    4f24:	da400315 	stw	r9,12(sp)
    4f28:	0006b540 	call	6b54 <__clzsi2>
    4f2c:	d9400117 	ldw	r5,4(sp)
    4f30:	d9800217 	ldw	r6,8(sp)
    4f34:	da000417 	ldw	r8,16(sp)
    4f38:	da400317 	ldw	r9,12(sp)
    4f3c:	113ffd44 	addi	r4,r2,-11
    4f40:	00c00704 	movi	r3,28
    4f44:	19013a16 	blt	r3,r4,5430 <__divdf3+0x77c>
    4f48:	00c00744 	movi	r3,29
    4f4c:	153ffe04 	addi	r20,r2,-8
    4f50:	1907c83a 	sub	r3,r3,r4
    4f54:	8d22983a 	sll	r17,r17,r20
    4f58:	30c6d83a 	srl	r3,r6,r3
    4f5c:	3528983a 	sll	r20,r6,r20
    4f60:	1c62b03a 	or	r17,r3,r17
    4f64:	1080fcc4 	addi	r2,r2,1011
    4f68:	0087c83a 	sub	r3,zero,r2
    4f6c:	000f883a 	mov	r7,zero
    4f70:	003f8006 	br	4d74 <__alt_mem_VGA_Subsystem_Char_Buf_Subsystem_Onchip_SRAM+0xf7004d74>
    4f74:	0023883a 	mov	r17,zero
    4f78:	0029883a 	mov	r20,zero
    4f7c:	01c00044 	movi	r7,1
    4f80:	003f7c06 	br	4d74 <__alt_mem_VGA_Subsystem_Char_Buf_Subsystem_Onchip_SRAM+0xf7004d74>
    4f84:	01c000c4 	movi	r7,3
    4f88:	003f7a06 	br	4d74 <__alt_mem_VGA_Subsystem_Char_Buf_Subsystem_Onchip_SRAM+0xf7004d74>
    4f8c:	02400104 	movi	r9,4
    4f90:	0021883a 	mov	r16,zero
    4f94:	002b883a 	mov	r21,zero
    4f98:	01400044 	movi	r5,1
    4f9c:	003f6306 	br	4d2c <__alt_mem_VGA_Subsystem_Char_Buf_Subsystem_Onchip_SRAM+0xf7004d2c>
    4fa0:	02400304 	movi	r9,12
    4fa4:	014000c4 	movi	r5,3
    4fa8:	003f6006 	br	4d2c <__alt_mem_VGA_Subsystem_Char_Buf_Subsystem_Onchip_SRAM+0xf7004d2c>
    4fac:	04000434 	movhi	r16,16
    4fb0:	0009883a 	mov	r4,zero
    4fb4:	843fffc4 	addi	r16,r16,-1
    4fb8:	057fffc4 	movi	r21,-1
    4fbc:	0081ffc4 	movi	r2,2047
    4fc0:	003f9b06 	br	4e30 <__alt_mem_VGA_Subsystem_Char_Buf_Subsystem_Onchip_SRAM+0xf7004e30>
    4fc4:	00c00044 	movi	r3,1
    4fc8:	1887c83a 	sub	r3,r3,r2
    4fcc:	01000e04 	movi	r4,56
    4fd0:	20c1530e 	bge	r4,r3,5520 <__divdf3+0x86c>
    4fd4:	9900004c 	andi	r4,r19,1
    4fd8:	0005883a 	mov	r2,zero
    4fdc:	0021883a 	mov	r16,zero
    4fe0:	002b883a 	mov	r21,zero
    4fe4:	003f9206 	br	4e30 <__alt_mem_VGA_Subsystem_Char_Buf_Subsystem_Onchip_SRAM+0xf7004e30>
    4fe8:	8c012e36 	bltu	r17,r16,54a4 <__divdf3+0x7f0>
    4fec:	84412c26 	beq	r16,r17,54a0 <__divdf3+0x7ec>
    4ff0:	a82f883a 	mov	r23,r21
    4ff4:	18ffffc4 	addi	r3,r3,-1
    4ff8:	002b883a 	mov	r21,zero
    4ffc:	a004d63a 	srli	r2,r20,24
    5000:	8822923a 	slli	r17,r17,8
    5004:	a028923a 	slli	r20,r20,8
    5008:	8009883a 	mov	r4,r16
    500c:	88acb03a 	or	r22,r17,r2
    5010:	dd000015 	stw	r20,0(sp)
    5014:	b028d43a 	srli	r20,r22,16
    5018:	d8c00215 	stw	r3,8(sp)
    501c:	b4bfffcc 	andi	r18,r22,65535
    5020:	a00b883a 	mov	r5,r20
    5024:	00043240 	call	4324 <__udivsi3>
    5028:	100b883a 	mov	r5,r2
    502c:	9009883a 	mov	r4,r18
    5030:	1023883a 	mov	r17,r2
    5034:	00043e00 	call	43e0 <__mulsi3>
    5038:	8009883a 	mov	r4,r16
    503c:	a00b883a 	mov	r5,r20
    5040:	1039883a 	mov	fp,r2
    5044:	00043880 	call	4388 <__umodsi3>
    5048:	1004943a 	slli	r2,r2,16
    504c:	b808d43a 	srli	r4,r23,16
    5050:	d8c00217 	ldw	r3,8(sp)
    5054:	2084b03a 	or	r2,r4,r2
    5058:	1700062e 	bgeu	r2,fp,5074 <__divdf3+0x3c0>
    505c:	1585883a 	add	r2,r2,r22
    5060:	893fffc4 	addi	r4,r17,-1
    5064:	15811d36 	bltu	r2,r22,54dc <__divdf3+0x828>
    5068:	17011c2e 	bgeu	r2,fp,54dc <__divdf3+0x828>
    506c:	8c7fff84 	addi	r17,r17,-2
    5070:	1585883a 	add	r2,r2,r22
    5074:	1739c83a 	sub	fp,r2,fp
    5078:	a00b883a 	mov	r5,r20
    507c:	e009883a 	mov	r4,fp
    5080:	d8c00215 	stw	r3,8(sp)
    5084:	00043240 	call	4324 <__udivsi3>
    5088:	100b883a 	mov	r5,r2
    508c:	9009883a 	mov	r4,r18
    5090:	1021883a 	mov	r16,r2
    5094:	00043e00 	call	43e0 <__mulsi3>
    5098:	a00b883a 	mov	r5,r20
    509c:	e009883a 	mov	r4,fp
    50a0:	d8800415 	stw	r2,16(sp)
    50a4:	00043880 	call	4388 <__umodsi3>
    50a8:	1004943a 	slli	r2,r2,16
    50ac:	da000417 	ldw	r8,16(sp)
    50b0:	bdffffcc 	andi	r23,r23,65535
    50b4:	b884b03a 	or	r2,r23,r2
    50b8:	d8c00217 	ldw	r3,8(sp)
    50bc:	1200062e 	bgeu	r2,r8,50d8 <__divdf3+0x424>
    50c0:	1585883a 	add	r2,r2,r22
    50c4:	813fffc4 	addi	r4,r16,-1
    50c8:	15810236 	bltu	r2,r22,54d4 <__divdf3+0x820>
    50cc:	1201012e 	bgeu	r2,r8,54d4 <__divdf3+0x820>
    50d0:	843fff84 	addi	r16,r16,-2
    50d4:	1585883a 	add	r2,r2,r22
    50d8:	8822943a 	slli	r17,r17,16
    50dc:	d9800017 	ldw	r6,0(sp)
    50e0:	1211c83a 	sub	r8,r2,r8
    50e4:	8c22b03a 	or	r17,r17,r16
    50e8:	373fffcc 	andi	fp,r6,65535
    50ec:	8abfffcc 	andi	r10,r17,65535
    50f0:	8820d43a 	srli	r16,r17,16
    50f4:	5009883a 	mov	r4,r10
    50f8:	e00b883a 	mov	r5,fp
    50fc:	302ed43a 	srli	r23,r6,16
    5100:	d8c00215 	stw	r3,8(sp)
    5104:	da000415 	stw	r8,16(sp)
    5108:	da800115 	stw	r10,4(sp)
    510c:	00043e00 	call	43e0 <__mulsi3>
    5110:	800b883a 	mov	r5,r16
    5114:	e009883a 	mov	r4,fp
    5118:	d8800515 	stw	r2,20(sp)
    511c:	00043e00 	call	43e0 <__mulsi3>
    5120:	8009883a 	mov	r4,r16
    5124:	b80b883a 	mov	r5,r23
    5128:	d8800315 	stw	r2,12(sp)
    512c:	00043e00 	call	43e0 <__mulsi3>
    5130:	da800117 	ldw	r10,4(sp)
    5134:	b80b883a 	mov	r5,r23
    5138:	1021883a 	mov	r16,r2
    513c:	5009883a 	mov	r4,r10
    5140:	00043e00 	call	43e0 <__mulsi3>
    5144:	d9c00517 	ldw	r7,20(sp)
    5148:	da400317 	ldw	r9,12(sp)
    514c:	d8c00217 	ldw	r3,8(sp)
    5150:	3808d43a 	srli	r4,r7,16
    5154:	1245883a 	add	r2,r2,r9
    5158:	da000417 	ldw	r8,16(sp)
    515c:	2085883a 	add	r2,r4,r2
    5160:	1240022e 	bgeu	r2,r9,516c <__divdf3+0x4b8>
    5164:	01000074 	movhi	r4,1
    5168:	8121883a 	add	r16,r16,r4
    516c:	1008d43a 	srli	r4,r2,16
    5170:	1004943a 	slli	r2,r2,16
    5174:	39ffffcc 	andi	r7,r7,65535
    5178:	2409883a 	add	r4,r4,r16
    517c:	11c5883a 	add	r2,r2,r7
    5180:	4100bb36 	bltu	r8,r4,5470 <__divdf3+0x7bc>
    5184:	4100d726 	beq	r8,r4,54e4 <__divdf3+0x830>
    5188:	4109c83a 	sub	r4,r8,r4
    518c:	a8a1c83a 	sub	r16,r21,r2
    5190:	ac2b803a 	cmpltu	r21,r21,r16
    5194:	256bc83a 	sub	r21,r4,r21
    5198:	b540d926 	beq	r22,r21,5500 <__divdf3+0x84c>
    519c:	a00b883a 	mov	r5,r20
    51a0:	a809883a 	mov	r4,r21
    51a4:	d8c00215 	stw	r3,8(sp)
    51a8:	00043240 	call	4324 <__udivsi3>
    51ac:	100b883a 	mov	r5,r2
    51b0:	9009883a 	mov	r4,r18
    51b4:	d8800515 	stw	r2,20(sp)
    51b8:	00043e00 	call	43e0 <__mulsi3>
    51bc:	a809883a 	mov	r4,r21
    51c0:	a00b883a 	mov	r5,r20
    51c4:	d8800415 	stw	r2,16(sp)
    51c8:	00043880 	call	4388 <__umodsi3>
    51cc:	1004943a 	slli	r2,r2,16
    51d0:	8008d43a 	srli	r4,r16,16
    51d4:	da000417 	ldw	r8,16(sp)
    51d8:	d8c00217 	ldw	r3,8(sp)
    51dc:	2084b03a 	or	r2,r4,r2
    51e0:	d9c00517 	ldw	r7,20(sp)
    51e4:	1200062e 	bgeu	r2,r8,5200 <__divdf3+0x54c>
    51e8:	1585883a 	add	r2,r2,r22
    51ec:	393fffc4 	addi	r4,r7,-1
    51f0:	1580c536 	bltu	r2,r22,5508 <__divdf3+0x854>
    51f4:	1200c42e 	bgeu	r2,r8,5508 <__divdf3+0x854>
    51f8:	39ffff84 	addi	r7,r7,-2
    51fc:	1585883a 	add	r2,r2,r22
    5200:	122bc83a 	sub	r21,r2,r8
    5204:	a00b883a 	mov	r5,r20
    5208:	a809883a 	mov	r4,r21
    520c:	d8c00215 	stw	r3,8(sp)
    5210:	d9c00515 	stw	r7,20(sp)
    5214:	00043240 	call	4324 <__udivsi3>
    5218:	9009883a 	mov	r4,r18
    521c:	100b883a 	mov	r5,r2
    5220:	d8800415 	stw	r2,16(sp)
    5224:	00043e00 	call	43e0 <__mulsi3>
    5228:	a809883a 	mov	r4,r21
    522c:	a00b883a 	mov	r5,r20
    5230:	1025883a 	mov	r18,r2
    5234:	00043880 	call	4388 <__umodsi3>
    5238:	1004943a 	slli	r2,r2,16
    523c:	813fffcc 	andi	r4,r16,65535
    5240:	d8c00217 	ldw	r3,8(sp)
    5244:	20a0b03a 	or	r16,r4,r2
    5248:	d9c00517 	ldw	r7,20(sp)
    524c:	da000417 	ldw	r8,16(sp)
    5250:	8480062e 	bgeu	r16,r18,526c <__divdf3+0x5b8>
    5254:	85a1883a 	add	r16,r16,r22
    5258:	40bfffc4 	addi	r2,r8,-1
    525c:	8580ac36 	bltu	r16,r22,5510 <__divdf3+0x85c>
    5260:	8480ab2e 	bgeu	r16,r18,5510 <__divdf3+0x85c>
    5264:	423fff84 	addi	r8,r8,-2
    5268:	85a1883a 	add	r16,r16,r22
    526c:	3804943a 	slli	r2,r7,16
    5270:	84a1c83a 	sub	r16,r16,r18
    5274:	e009883a 	mov	r4,fp
    5278:	1228b03a 	or	r20,r2,r8
    527c:	a1ffffcc 	andi	r7,r20,65535
    5280:	a024d43a 	srli	r18,r20,16
    5284:	380b883a 	mov	r5,r7
    5288:	d8c00215 	stw	r3,8(sp)
    528c:	d9c00515 	stw	r7,20(sp)
    5290:	00043e00 	call	43e0 <__mulsi3>
    5294:	900b883a 	mov	r5,r18
    5298:	e009883a 	mov	r4,fp
    529c:	102b883a 	mov	r21,r2
    52a0:	00043e00 	call	43e0 <__mulsi3>
    52a4:	900b883a 	mov	r5,r18
    52a8:	b809883a 	mov	r4,r23
    52ac:	1039883a 	mov	fp,r2
    52b0:	00043e00 	call	43e0 <__mulsi3>
    52b4:	d9c00517 	ldw	r7,20(sp)
    52b8:	b80b883a 	mov	r5,r23
    52bc:	1025883a 	mov	r18,r2
    52c0:	3809883a 	mov	r4,r7
    52c4:	00043e00 	call	43e0 <__mulsi3>
    52c8:	a808d43a 	srli	r4,r21,16
    52cc:	1705883a 	add	r2,r2,fp
    52d0:	d8c00217 	ldw	r3,8(sp)
    52d4:	2085883a 	add	r2,r4,r2
    52d8:	1700022e 	bgeu	r2,fp,52e4 <__divdf3+0x630>
    52dc:	01000074 	movhi	r4,1
    52e0:	9125883a 	add	r18,r18,r4
    52e4:	1008d43a 	srli	r4,r2,16
    52e8:	1004943a 	slli	r2,r2,16
    52ec:	ad7fffcc 	andi	r21,r21,65535
    52f0:	2489883a 	add	r4,r4,r18
    52f4:	1545883a 	add	r2,r2,r21
    52f8:	81003836 	bltu	r16,r4,53dc <__divdf3+0x728>
    52fc:	81003626 	beq	r16,r4,53d8 <__divdf3+0x724>
    5300:	a5000054 	ori	r20,r20,1
    5304:	1880ffc4 	addi	r2,r3,1023
    5308:	00bf2e0e 	bge	zero,r2,4fc4 <__alt_mem_VGA_Subsystem_Char_Buf_Subsystem_Onchip_SRAM+0xf7004fc4>
    530c:	a10001cc 	andi	r4,r20,7
    5310:	20000726 	beq	r4,zero,5330 <__divdf3+0x67c>
    5314:	a10003cc 	andi	r4,r20,15
    5318:	01400104 	movi	r5,4
    531c:	21400426 	beq	r4,r5,5330 <__divdf3+0x67c>
    5320:	a149883a 	add	r4,r20,r5
    5324:	2529803a 	cmpltu	r20,r4,r20
    5328:	8d23883a 	add	r17,r17,r20
    532c:	2029883a 	mov	r20,r4
    5330:	8900402c 	andhi	r4,r17,256
    5334:	20000426 	beq	r4,zero,5348 <__divdf3+0x694>
    5338:	18810004 	addi	r2,r3,1024
    533c:	00ffc034 	movhi	r3,65280
    5340:	18ffffc4 	addi	r3,r3,-1
    5344:	88e2703a 	and	r17,r17,r3
    5348:	00c1ff84 	movi	r3,2046
    534c:	18beb416 	blt	r3,r2,4e20 <__alt_mem_VGA_Subsystem_Char_Buf_Subsystem_Onchip_SRAM+0xf7004e20>
    5350:	a028d0fa 	srli	r20,r20,3
    5354:	882a977a 	slli	r21,r17,29
    5358:	8820927a 	slli	r16,r17,9
    535c:	1081ffcc 	andi	r2,r2,2047
    5360:	ad2ab03a 	or	r21,r21,r20
    5364:	8020d33a 	srli	r16,r16,12
    5368:	9900004c 	andi	r4,r19,1
    536c:	003eb006 	br	4e30 <__alt_mem_VGA_Subsystem_Char_Buf_Subsystem_Onchip_SRAM+0xf7004e30>
    5370:	8080022c 	andhi	r2,r16,8
    5374:	10001226 	beq	r2,zero,53c0 <__divdf3+0x70c>
    5378:	8880022c 	andhi	r2,r17,8
    537c:	1000101e 	bne	r2,zero,53c0 <__divdf3+0x70c>
    5380:	00800434 	movhi	r2,16
    5384:	8c000234 	orhi	r16,r17,8
    5388:	10bfffc4 	addi	r2,r2,-1
    538c:	b809883a 	mov	r4,r23
    5390:	80a0703a 	and	r16,r16,r2
    5394:	a02b883a 	mov	r21,r20
    5398:	003f0806 	br	4fbc <__alt_mem_VGA_Subsystem_Char_Buf_Subsystem_Onchip_SRAM+0xf7004fbc>
    539c:	008000c4 	movi	r2,3
    53a0:	3880b126 	beq	r7,r2,5668 <__divdf3+0x9b4>
    53a4:	00800044 	movi	r2,1
    53a8:	38805b1e 	bne	r7,r2,5518 <__divdf3+0x864>
    53ac:	e009883a 	mov	r4,fp
    53b0:	0005883a 	mov	r2,zero
    53b4:	0021883a 	mov	r16,zero
    53b8:	002b883a 	mov	r21,zero
    53bc:	003e9c06 	br	4e30 <__alt_mem_VGA_Subsystem_Char_Buf_Subsystem_Onchip_SRAM+0xf7004e30>
    53c0:	00800434 	movhi	r2,16
    53c4:	84000234 	orhi	r16,r16,8
    53c8:	10bfffc4 	addi	r2,r2,-1
    53cc:	b009883a 	mov	r4,r22
    53d0:	80a0703a 	and	r16,r16,r2
    53d4:	003ef906 	br	4fbc <__alt_mem_VGA_Subsystem_Char_Buf_Subsystem_Onchip_SRAM+0xf7004fbc>
    53d8:	103fca26 	beq	r2,zero,5304 <__alt_mem_VGA_Subsystem_Char_Buf_Subsystem_Onchip_SRAM+0xf7005304>
    53dc:	b421883a 	add	r16,r22,r16
    53e0:	a17fffc4 	addi	r5,r20,-1
    53e4:	8580422e 	bgeu	r16,r22,54f0 <__divdf3+0x83c>
    53e8:	2829883a 	mov	r20,r5
    53ec:	813fc41e 	bne	r16,r4,5300 <__alt_mem_VGA_Subsystem_Char_Buf_Subsystem_Onchip_SRAM+0xf7005300>
    53f0:	d9800017 	ldw	r6,0(sp)
    53f4:	30bfc21e 	bne	r6,r2,5300 <__alt_mem_VGA_Subsystem_Char_Buf_Subsystem_Onchip_SRAM+0xf7005300>
    53f8:	003fc206 	br	5304 <__alt_mem_VGA_Subsystem_Char_Buf_Subsystem_Onchip_SRAM+0xf7005304>
    53fc:	143ff604 	addi	r16,r2,-40
    5400:	8c20983a 	sll	r16,r17,r16
    5404:	002b883a 	mov	r21,zero
    5408:	003eb406 	br	4edc <__alt_mem_VGA_Subsystem_Char_Buf_Subsystem_Onchip_SRAM+0xf7004edc>
    540c:	d9800215 	stw	r6,8(sp)
    5410:	d9c00515 	stw	r7,20(sp)
    5414:	da000415 	stw	r8,16(sp)
    5418:	0006b540 	call	6b54 <__clzsi2>
    541c:	10800804 	addi	r2,r2,32
    5420:	da000417 	ldw	r8,16(sp)
    5424:	d9c00517 	ldw	r7,20(sp)
    5428:	d9800217 	ldw	r6,8(sp)
    542c:	003ea106 	br	4eb4 <__alt_mem_VGA_Subsystem_Char_Buf_Subsystem_Onchip_SRAM+0xf7004eb4>
    5430:	147ff604 	addi	r17,r2,-40
    5434:	3462983a 	sll	r17,r6,r17
    5438:	0029883a 	mov	r20,zero
    543c:	003ec906 	br	4f64 <__alt_mem_VGA_Subsystem_Char_Buf_Subsystem_Onchip_SRAM+0xf7004f64>
    5440:	3009883a 	mov	r4,r6
    5444:	d9400115 	stw	r5,4(sp)
    5448:	d9800215 	stw	r6,8(sp)
    544c:	da000415 	stw	r8,16(sp)
    5450:	da400315 	stw	r9,12(sp)
    5454:	0006b540 	call	6b54 <__clzsi2>
    5458:	10800804 	addi	r2,r2,32
    545c:	da400317 	ldw	r9,12(sp)
    5460:	da000417 	ldw	r8,16(sp)
    5464:	d9800217 	ldw	r6,8(sp)
    5468:	d9400117 	ldw	r5,4(sp)
    546c:	003eb306 	br	4f3c <__alt_mem_VGA_Subsystem_Char_Buf_Subsystem_Onchip_SRAM+0xf7004f3c>
    5470:	d9800017 	ldw	r6,0(sp)
    5474:	a9ab883a 	add	r21,r21,r6
    5478:	a98b803a 	cmpltu	r5,r21,r6
    547c:	2d8b883a 	add	r5,r5,r22
    5480:	2a11883a 	add	r8,r5,r8
    5484:	897fffc4 	addi	r5,r17,-1
    5488:	b2000c2e 	bgeu	r22,r8,54bc <__divdf3+0x808>
    548c:	41003f36 	bltu	r8,r4,558c <__divdf3+0x8d8>
    5490:	22006c26 	beq	r4,r8,5644 <__divdf3+0x990>
    5494:	4109c83a 	sub	r4,r8,r4
    5498:	2823883a 	mov	r17,r5
    549c:	003f3b06 	br	518c <__alt_mem_VGA_Subsystem_Char_Buf_Subsystem_Onchip_SRAM+0xf700518c>
    54a0:	ad3ed336 	bltu	r21,r20,4ff0 <__alt_mem_VGA_Subsystem_Char_Buf_Subsystem_Onchip_SRAM+0xf7004ff0>
    54a4:	a804d07a 	srli	r2,r21,1
    54a8:	802e97fa 	slli	r23,r16,31
    54ac:	a82a97fa 	slli	r21,r21,31
    54b0:	8020d07a 	srli	r16,r16,1
    54b4:	b8aeb03a 	or	r23,r23,r2
    54b8:	003ed006 	br	4ffc <__alt_mem_VGA_Subsystem_Char_Buf_Subsystem_Onchip_SRAM+0xf7004ffc>
    54bc:	b23ff51e 	bne	r22,r8,5494 <__alt_mem_VGA_Subsystem_Char_Buf_Subsystem_Onchip_SRAM+0xf7005494>
    54c0:	d9800017 	ldw	r6,0(sp)
    54c4:	a9bff12e 	bgeu	r21,r6,548c <__alt_mem_VGA_Subsystem_Char_Buf_Subsystem_Onchip_SRAM+0xf700548c>
    54c8:	b109c83a 	sub	r4,r22,r4
    54cc:	2823883a 	mov	r17,r5
    54d0:	003f2e06 	br	518c <__alt_mem_VGA_Subsystem_Char_Buf_Subsystem_Onchip_SRAM+0xf700518c>
    54d4:	2021883a 	mov	r16,r4
    54d8:	003eff06 	br	50d8 <__alt_mem_VGA_Subsystem_Char_Buf_Subsystem_Onchip_SRAM+0xf70050d8>
    54dc:	2023883a 	mov	r17,r4
    54e0:	003ee406 	br	5074 <__alt_mem_VGA_Subsystem_Char_Buf_Subsystem_Onchip_SRAM+0xf7005074>
    54e4:	a8bfe236 	bltu	r21,r2,5470 <__alt_mem_VGA_Subsystem_Char_Buf_Subsystem_Onchip_SRAM+0xf7005470>
    54e8:	0009883a 	mov	r4,zero
    54ec:	003f2706 	br	518c <__alt_mem_VGA_Subsystem_Char_Buf_Subsystem_Onchip_SRAM+0xf700518c>
    54f0:	81002d36 	bltu	r16,r4,55a8 <__divdf3+0x8f4>
    54f4:	24005626 	beq	r4,r16,5650 <__divdf3+0x99c>
    54f8:	2829883a 	mov	r20,r5
    54fc:	003f8006 	br	5300 <__alt_mem_VGA_Subsystem_Char_Buf_Subsystem_Onchip_SRAM+0xf7005300>
    5500:	053fffc4 	movi	r20,-1
    5504:	003f7f06 	br	5304 <__alt_mem_VGA_Subsystem_Char_Buf_Subsystem_Onchip_SRAM+0xf7005304>
    5508:	200f883a 	mov	r7,r4
    550c:	003f3c06 	br	5200 <__alt_mem_VGA_Subsystem_Char_Buf_Subsystem_Onchip_SRAM+0xf7005200>
    5510:	1011883a 	mov	r8,r2
    5514:	003f5506 	br	526c <__alt_mem_VGA_Subsystem_Char_Buf_Subsystem_Onchip_SRAM+0xf700526c>
    5518:	e027883a 	mov	r19,fp
    551c:	003f7906 	br	5304 <__alt_mem_VGA_Subsystem_Char_Buf_Subsystem_Onchip_SRAM+0xf7005304>
    5520:	010007c4 	movi	r4,31
    5524:	20c02816 	blt	r4,r3,55c8 <__divdf3+0x914>
    5528:	00800804 	movi	r2,32
    552c:	10c5c83a 	sub	r2,r2,r3
    5530:	888a983a 	sll	r5,r17,r2
    5534:	a0c8d83a 	srl	r4,r20,r3
    5538:	a084983a 	sll	r2,r20,r2
    553c:	88e2d83a 	srl	r17,r17,r3
    5540:	2906b03a 	or	r3,r5,r4
    5544:	1004c03a 	cmpne	r2,r2,zero
    5548:	1886b03a 	or	r3,r3,r2
    554c:	188001cc 	andi	r2,r3,7
    5550:	10000726 	beq	r2,zero,5570 <__divdf3+0x8bc>
    5554:	188003cc 	andi	r2,r3,15
    5558:	01000104 	movi	r4,4
    555c:	11000426 	beq	r2,r4,5570 <__divdf3+0x8bc>
    5560:	1805883a 	mov	r2,r3
    5564:	10c00104 	addi	r3,r2,4
    5568:	1885803a 	cmpltu	r2,r3,r2
    556c:	88a3883a 	add	r17,r17,r2
    5570:	8880202c 	andhi	r2,r17,128
    5574:	10002926 	beq	r2,zero,561c <__divdf3+0x968>
    5578:	9900004c 	andi	r4,r19,1
    557c:	00800044 	movi	r2,1
    5580:	0021883a 	mov	r16,zero
    5584:	002b883a 	mov	r21,zero
    5588:	003e2906 	br	4e30 <__alt_mem_VGA_Subsystem_Char_Buf_Subsystem_Onchip_SRAM+0xf7004e30>
    558c:	d9800017 	ldw	r6,0(sp)
    5590:	8c7fff84 	addi	r17,r17,-2
    5594:	a9ab883a 	add	r21,r21,r6
    5598:	a98b803a 	cmpltu	r5,r21,r6
    559c:	2d8b883a 	add	r5,r5,r22
    55a0:	2a11883a 	add	r8,r5,r8
    55a4:	003ef806 	br	5188 <__alt_mem_VGA_Subsystem_Char_Buf_Subsystem_Onchip_SRAM+0xf7005188>
    55a8:	d9800017 	ldw	r6,0(sp)
    55ac:	318f883a 	add	r7,r6,r6
    55b0:	398b803a 	cmpltu	r5,r7,r6
    55b4:	2d8d883a 	add	r6,r5,r22
    55b8:	81a1883a 	add	r16,r16,r6
    55bc:	a17fff84 	addi	r5,r20,-2
    55c0:	d9c00015 	stw	r7,0(sp)
    55c4:	003f8806 	br	53e8 <__alt_mem_VGA_Subsystem_Char_Buf_Subsystem_Onchip_SRAM+0xf70053e8>
    55c8:	013ff844 	movi	r4,-31
    55cc:	2085c83a 	sub	r2,r4,r2
    55d0:	8888d83a 	srl	r4,r17,r2
    55d4:	00800804 	movi	r2,32
    55d8:	18802126 	beq	r3,r2,5660 <__divdf3+0x9ac>
    55dc:	04001004 	movi	r16,64
    55e0:	80c7c83a 	sub	r3,r16,r3
    55e4:	88e0983a 	sll	r16,r17,r3
    55e8:	8504b03a 	or	r2,r16,r20
    55ec:	1004c03a 	cmpne	r2,r2,zero
    55f0:	2084b03a 	or	r2,r4,r2
    55f4:	144001cc 	andi	r17,r2,7
    55f8:	88000d1e 	bne	r17,zero,5630 <__divdf3+0x97c>
    55fc:	0021883a 	mov	r16,zero
    5600:	102ad0fa 	srli	r21,r2,3
    5604:	9900004c 	andi	r4,r19,1
    5608:	0005883a 	mov	r2,zero
    560c:	ac6ab03a 	or	r21,r21,r17
    5610:	003e0706 	br	4e30 <__alt_mem_VGA_Subsystem_Char_Buf_Subsystem_Onchip_SRAM+0xf7004e30>
    5614:	1007883a 	mov	r3,r2
    5618:	0023883a 	mov	r17,zero
    561c:	8820927a 	slli	r16,r17,9
    5620:	1805883a 	mov	r2,r3
    5624:	8822977a 	slli	r17,r17,29
    5628:	8020d33a 	srli	r16,r16,12
    562c:	003ff406 	br	5600 <__alt_mem_VGA_Subsystem_Char_Buf_Subsystem_Onchip_SRAM+0xf7005600>
    5630:	10c003cc 	andi	r3,r2,15
    5634:	01000104 	movi	r4,4
    5638:	193ff626 	beq	r3,r4,5614 <__alt_mem_VGA_Subsystem_Char_Buf_Subsystem_Onchip_SRAM+0xf7005614>
    563c:	0023883a 	mov	r17,zero
    5640:	003fc806 	br	5564 <__alt_mem_VGA_Subsystem_Char_Buf_Subsystem_Onchip_SRAM+0xf7005564>
    5644:	a8bfd136 	bltu	r21,r2,558c <__alt_mem_VGA_Subsystem_Char_Buf_Subsystem_Onchip_SRAM+0xf700558c>
    5648:	2823883a 	mov	r17,r5
    564c:	003fa606 	br	54e8 <__alt_mem_VGA_Subsystem_Char_Buf_Subsystem_Onchip_SRAM+0xf70054e8>
    5650:	d9800017 	ldw	r6,0(sp)
    5654:	30bfd436 	bltu	r6,r2,55a8 <__alt_mem_VGA_Subsystem_Char_Buf_Subsystem_Onchip_SRAM+0xf70055a8>
    5658:	2829883a 	mov	r20,r5
    565c:	003f6406 	br	53f0 <__alt_mem_VGA_Subsystem_Char_Buf_Subsystem_Onchip_SRAM+0xf70053f0>
    5660:	0021883a 	mov	r16,zero
    5664:	003fe006 	br	55e8 <__alt_mem_VGA_Subsystem_Char_Buf_Subsystem_Onchip_SRAM+0xf70055e8>
    5668:	00800434 	movhi	r2,16
    566c:	8c000234 	orhi	r16,r17,8
    5670:	10bfffc4 	addi	r2,r2,-1
    5674:	e009883a 	mov	r4,fp
    5678:	80a0703a 	and	r16,r16,r2
    567c:	a02b883a 	mov	r21,r20
    5680:	003e4e06 	br	4fbc <__alt_mem_VGA_Subsystem_Char_Buf_Subsystem_Onchip_SRAM+0xf7004fbc>

00005684 <__eqdf2>:
    5684:	2804d53a 	srli	r2,r5,20
    5688:	3806d53a 	srli	r3,r7,20
    568c:	02000434 	movhi	r8,16
    5690:	423fffc4 	addi	r8,r8,-1
    5694:	1081ffcc 	andi	r2,r2,2047
    5698:	0281ffc4 	movi	r10,2047
    569c:	2a12703a 	and	r9,r5,r8
    56a0:	18c1ffcc 	andi	r3,r3,2047
    56a4:	3a10703a 	and	r8,r7,r8
    56a8:	280ad7fa 	srli	r5,r5,31
    56ac:	380ed7fa 	srli	r7,r7,31
    56b0:	12801026 	beq	r2,r10,56f4 <__eqdf2+0x70>
    56b4:	0281ffc4 	movi	r10,2047
    56b8:	1a800a26 	beq	r3,r10,56e4 <__eqdf2+0x60>
    56bc:	10c00226 	beq	r2,r3,56c8 <__eqdf2+0x44>
    56c0:	00800044 	movi	r2,1
    56c4:	f800283a 	ret
    56c8:	4a3ffd1e 	bne	r9,r8,56c0 <__alt_mem_VGA_Subsystem_Char_Buf_Subsystem_Onchip_SRAM+0xf70056c0>
    56cc:	21bffc1e 	bne	r4,r6,56c0 <__alt_mem_VGA_Subsystem_Char_Buf_Subsystem_Onchip_SRAM+0xf70056c0>
    56d0:	29c00c26 	beq	r5,r7,5704 <__eqdf2+0x80>
    56d4:	103ffa1e 	bne	r2,zero,56c0 <__alt_mem_VGA_Subsystem_Char_Buf_Subsystem_Onchip_SRAM+0xf70056c0>
    56d8:	2244b03a 	or	r2,r4,r9
    56dc:	1004c03a 	cmpne	r2,r2,zero
    56e0:	f800283a 	ret
    56e4:	3214b03a 	or	r10,r6,r8
    56e8:	503ff426 	beq	r10,zero,56bc <__alt_mem_VGA_Subsystem_Char_Buf_Subsystem_Onchip_SRAM+0xf70056bc>
    56ec:	00800044 	movi	r2,1
    56f0:	f800283a 	ret
    56f4:	2254b03a 	or	r10,r4,r9
    56f8:	503fee26 	beq	r10,zero,56b4 <__alt_mem_VGA_Subsystem_Char_Buf_Subsystem_Onchip_SRAM+0xf70056b4>
    56fc:	00800044 	movi	r2,1
    5700:	f800283a 	ret
    5704:	0005883a 	mov	r2,zero
    5708:	f800283a 	ret

0000570c <__gedf2>:
    570c:	2804d53a 	srli	r2,r5,20
    5710:	3806d53a 	srli	r3,r7,20
    5714:	02000434 	movhi	r8,16
    5718:	423fffc4 	addi	r8,r8,-1
    571c:	1081ffcc 	andi	r2,r2,2047
    5720:	0241ffc4 	movi	r9,2047
    5724:	2a14703a 	and	r10,r5,r8
    5728:	18c1ffcc 	andi	r3,r3,2047
    572c:	3a10703a 	and	r8,r7,r8
    5730:	280ad7fa 	srli	r5,r5,31
    5734:	380ed7fa 	srli	r7,r7,31
    5738:	12401d26 	beq	r2,r9,57b0 <__gedf2+0xa4>
    573c:	0241ffc4 	movi	r9,2047
    5740:	1a401226 	beq	r3,r9,578c <__gedf2+0x80>
    5744:	1000081e 	bne	r2,zero,5768 <__gedf2+0x5c>
    5748:	2296b03a 	or	r11,r4,r10
    574c:	5813003a 	cmpeq	r9,r11,zero
    5750:	1800091e 	bne	r3,zero,5778 <__gedf2+0x6c>
    5754:	3218b03a 	or	r12,r6,r8
    5758:	6000071e 	bne	r12,zero,5778 <__gedf2+0x6c>
    575c:	0005883a 	mov	r2,zero
    5760:	5800101e 	bne	r11,zero,57a4 <__gedf2+0x98>
    5764:	f800283a 	ret
    5768:	18000c1e 	bne	r3,zero,579c <__gedf2+0x90>
    576c:	3212b03a 	or	r9,r6,r8
    5770:	48000c26 	beq	r9,zero,57a4 <__gedf2+0x98>
    5774:	0013883a 	mov	r9,zero
    5778:	39c03fcc 	andi	r7,r7,255
    577c:	48000826 	beq	r9,zero,57a0 <__gedf2+0x94>
    5780:	38000926 	beq	r7,zero,57a8 <__gedf2+0x9c>
    5784:	00800044 	movi	r2,1
    5788:	f800283a 	ret
    578c:	3212b03a 	or	r9,r6,r8
    5790:	483fec26 	beq	r9,zero,5744 <__alt_mem_VGA_Subsystem_Char_Buf_Subsystem_Onchip_SRAM+0xf7005744>
    5794:	00bfff84 	movi	r2,-2
    5798:	f800283a 	ret
    579c:	39c03fcc 	andi	r7,r7,255
    57a0:	29c00626 	beq	r5,r7,57bc <__gedf2+0xb0>
    57a4:	283ff726 	beq	r5,zero,5784 <__alt_mem_VGA_Subsystem_Char_Buf_Subsystem_Onchip_SRAM+0xf7005784>
    57a8:	00bfffc4 	movi	r2,-1
    57ac:	f800283a 	ret
    57b0:	2292b03a 	or	r9,r4,r10
    57b4:	483fe126 	beq	r9,zero,573c <__alt_mem_VGA_Subsystem_Char_Buf_Subsystem_Onchip_SRAM+0xf700573c>
    57b8:	003ff606 	br	5794 <__alt_mem_VGA_Subsystem_Char_Buf_Subsystem_Onchip_SRAM+0xf7005794>
    57bc:	18bff916 	blt	r3,r2,57a4 <__alt_mem_VGA_Subsystem_Char_Buf_Subsystem_Onchip_SRAM+0xf70057a4>
    57c0:	10c00316 	blt	r2,r3,57d0 <__gedf2+0xc4>
    57c4:	42bff736 	bltu	r8,r10,57a4 <__alt_mem_VGA_Subsystem_Char_Buf_Subsystem_Onchip_SRAM+0xf70057a4>
    57c8:	52000326 	beq	r10,r8,57d8 <__gedf2+0xcc>
    57cc:	5200042e 	bgeu	r10,r8,57e0 <__gedf2+0xd4>
    57d0:	283fec1e 	bne	r5,zero,5784 <__alt_mem_VGA_Subsystem_Char_Buf_Subsystem_Onchip_SRAM+0xf7005784>
    57d4:	003ff406 	br	57a8 <__alt_mem_VGA_Subsystem_Char_Buf_Subsystem_Onchip_SRAM+0xf70057a8>
    57d8:	313ff236 	bltu	r6,r4,57a4 <__alt_mem_VGA_Subsystem_Char_Buf_Subsystem_Onchip_SRAM+0xf70057a4>
    57dc:	21bffc36 	bltu	r4,r6,57d0 <__alt_mem_VGA_Subsystem_Char_Buf_Subsystem_Onchip_SRAM+0xf70057d0>
    57e0:	0005883a 	mov	r2,zero
    57e4:	f800283a 	ret

000057e8 <__muldf3>:
    57e8:	deffee04 	addi	sp,sp,-72
    57ec:	dd000c15 	stw	r20,48(sp)
    57f0:	2828d53a 	srli	r20,r5,20
    57f4:	ddc00f15 	stw	r23,60(sp)
    57f8:	282ed7fa 	srli	r23,r5,31
    57fc:	dc000815 	stw	r16,32(sp)
    5800:	04000434 	movhi	r16,16
    5804:	dcc00b15 	stw	r19,44(sp)
    5808:	843fffc4 	addi	r16,r16,-1
    580c:	dfc01115 	stw	ra,68(sp)
    5810:	df001015 	stw	fp,64(sp)
    5814:	dd800e15 	stw	r22,56(sp)
    5818:	dd400d15 	stw	r21,52(sp)
    581c:	dc800a15 	stw	r18,40(sp)
    5820:	dc400915 	stw	r17,36(sp)
    5824:	a501ffcc 	andi	r20,r20,2047
    5828:	2c20703a 	and	r16,r5,r16
    582c:	b827883a 	mov	r19,r23
    5830:	ba403fcc 	andi	r9,r23,255
    5834:	a0006026 	beq	r20,zero,59b8 <__muldf3+0x1d0>
    5838:	0081ffc4 	movi	r2,2047
    583c:	202d883a 	mov	r22,r4
    5840:	a0803626 	beq	r20,r2,591c <__muldf3+0x134>
    5844:	84000434 	orhi	r16,r16,16
    5848:	200ad77a 	srli	r5,r4,29
    584c:	800490fa 	slli	r2,r16,3
    5850:	202c90fa 	slli	r22,r4,3
    5854:	a53f0044 	addi	r20,r20,-1023
    5858:	28a0b03a 	or	r16,r5,r2
    585c:	002b883a 	mov	r21,zero
    5860:	000b883a 	mov	r5,zero
    5864:	3804d53a 	srli	r2,r7,20
    5868:	3838d7fa 	srli	fp,r7,31
    586c:	04400434 	movhi	r17,16
    5870:	8c7fffc4 	addi	r17,r17,-1
    5874:	1081ffcc 	andi	r2,r2,2047
    5878:	3025883a 	mov	r18,r6
    587c:	3c62703a 	and	r17,r7,r17
    5880:	e2803fcc 	andi	r10,fp,255
    5884:	10006d26 	beq	r2,zero,5a3c <__muldf3+0x254>
    5888:	00c1ffc4 	movi	r3,2047
    588c:	10c06526 	beq	r2,r3,5a24 <__muldf3+0x23c>
    5890:	8c400434 	orhi	r17,r17,16
    5894:	300ed77a 	srli	r7,r6,29
    5898:	880690fa 	slli	r3,r17,3
    589c:	302490fa 	slli	r18,r6,3
    58a0:	10bf0044 	addi	r2,r2,-1023
    58a4:	38e2b03a 	or	r17,r7,r3
    58a8:	000f883a 	mov	r7,zero
    58ac:	a087883a 	add	r3,r20,r2
    58b0:	010003c4 	movi	r4,15
    58b4:	3d44b03a 	or	r2,r7,r21
    58b8:	e5ccf03a 	xor	r6,fp,r23
    58bc:	1a000044 	addi	r8,r3,1
    58c0:	20809b36 	bltu	r4,r2,5b30 <__muldf3+0x348>
    58c4:	100490ba 	slli	r2,r2,2
    58c8:	01000034 	movhi	r4,0
    58cc:	21163704 	addi	r4,r4,22748
    58d0:	1105883a 	add	r2,r2,r4
    58d4:	10800017 	ldw	r2,0(r2)
    58d8:	1000683a 	jmp	r2
    58dc:	00005b30 	cmpltui	zero,zero,364
    58e0:	0000593c 	xorhi	zero,zero,356
    58e4:	0000593c 	xorhi	zero,zero,356
    58e8:	00005938 	rdprs	zero,zero,356
    58ec:	00005b0c 	andi	zero,zero,364
    58f0:	00005b0c 	andi	zero,zero,364
    58f4:	00005af4 	movhi	zero,363
    58f8:	00005938 	rdprs	zero,zero,356
    58fc:	00005b0c 	andi	zero,zero,364
    5900:	00005af4 	movhi	zero,363
    5904:	00005b0c 	andi	zero,zero,364
    5908:	00005938 	rdprs	zero,zero,356
    590c:	00005b1c 	xori	zero,zero,364
    5910:	00005b1c 	xori	zero,zero,364
    5914:	00005b1c 	xori	zero,zero,364
    5918:	00005e7c 	xorhi	zero,zero,377
    591c:	2404b03a 	or	r2,r4,r16
    5920:	1000711e 	bne	r2,zero,5ae8 <__muldf3+0x300>
    5924:	05400204 	movi	r21,8
    5928:	0021883a 	mov	r16,zero
    592c:	002d883a 	mov	r22,zero
    5930:	01400084 	movi	r5,2
    5934:	003fcb06 	br	5864 <__alt_mem_VGA_Subsystem_Char_Buf_Subsystem_Onchip_SRAM+0xf7005864>
    5938:	500d883a 	mov	r6,r10
    593c:	00800084 	movi	r2,2
    5940:	38805926 	beq	r7,r2,5aa8 <__muldf3+0x2c0>
    5944:	008000c4 	movi	r2,3
    5948:	3881bb26 	beq	r7,r2,6038 <__muldf3+0x850>
    594c:	00800044 	movi	r2,1
    5950:	3881961e 	bne	r7,r2,5fac <__muldf3+0x7c4>
    5954:	3027883a 	mov	r19,r6
    5958:	0005883a 	mov	r2,zero
    595c:	0021883a 	mov	r16,zero
    5960:	002d883a 	mov	r22,zero
    5964:	1004953a 	slli	r2,r2,20
    5968:	98c03fcc 	andi	r3,r19,255
    596c:	04400434 	movhi	r17,16
    5970:	8c7fffc4 	addi	r17,r17,-1
    5974:	180697fa 	slli	r3,r3,31
    5978:	8460703a 	and	r16,r16,r17
    597c:	80a0b03a 	or	r16,r16,r2
    5980:	80c6b03a 	or	r3,r16,r3
    5984:	b005883a 	mov	r2,r22
    5988:	dfc01117 	ldw	ra,68(sp)
    598c:	df001017 	ldw	fp,64(sp)
    5990:	ddc00f17 	ldw	r23,60(sp)
    5994:	dd800e17 	ldw	r22,56(sp)
    5998:	dd400d17 	ldw	r21,52(sp)
    599c:	dd000c17 	ldw	r20,48(sp)
    59a0:	dcc00b17 	ldw	r19,44(sp)
    59a4:	dc800a17 	ldw	r18,40(sp)
    59a8:	dc400917 	ldw	r17,36(sp)
    59ac:	dc000817 	ldw	r16,32(sp)
    59b0:	dec01204 	addi	sp,sp,72
    59b4:	f800283a 	ret
    59b8:	2404b03a 	or	r2,r4,r16
    59bc:	202b883a 	mov	r21,r4
    59c0:	10004426 	beq	r2,zero,5ad4 <__muldf3+0x2ec>
    59c4:	80015126 	beq	r16,zero,5f0c <__muldf3+0x724>
    59c8:	8009883a 	mov	r4,r16
    59cc:	d9800715 	stw	r6,28(sp)
    59d0:	d9c00215 	stw	r7,8(sp)
    59d4:	da400415 	stw	r9,16(sp)
    59d8:	0006b540 	call	6b54 <__clzsi2>
    59dc:	d9800717 	ldw	r6,28(sp)
    59e0:	d9c00217 	ldw	r7,8(sp)
    59e4:	da400417 	ldw	r9,16(sp)
    59e8:	113ffd44 	addi	r4,r2,-11
    59ec:	00c00704 	movi	r3,28
    59f0:	19014216 	blt	r3,r4,5efc <__muldf3+0x714>
    59f4:	00c00744 	movi	r3,29
    59f8:	15bffe04 	addi	r22,r2,-8
    59fc:	1907c83a 	sub	r3,r3,r4
    5a00:	85a0983a 	sll	r16,r16,r22
    5a04:	a8c6d83a 	srl	r3,r21,r3
    5a08:	adac983a 	sll	r22,r21,r22
    5a0c:	1c20b03a 	or	r16,r3,r16
    5a10:	1080fcc4 	addi	r2,r2,1011
    5a14:	00a9c83a 	sub	r20,zero,r2
    5a18:	002b883a 	mov	r21,zero
    5a1c:	000b883a 	mov	r5,zero
    5a20:	003f9006 	br	5864 <__alt_mem_VGA_Subsystem_Char_Buf_Subsystem_Onchip_SRAM+0xf7005864>
    5a24:	3446b03a 	or	r3,r6,r17
    5a28:	1800281e 	bne	r3,zero,5acc <__muldf3+0x2e4>
    5a2c:	0023883a 	mov	r17,zero
    5a30:	0025883a 	mov	r18,zero
    5a34:	01c00084 	movi	r7,2
    5a38:	003f9c06 	br	58ac <__alt_mem_VGA_Subsystem_Char_Buf_Subsystem_Onchip_SRAM+0xf70058ac>
    5a3c:	3446b03a 	or	r3,r6,r17
    5a40:	18001e26 	beq	r3,zero,5abc <__muldf3+0x2d4>
    5a44:	88012126 	beq	r17,zero,5ecc <__muldf3+0x6e4>
    5a48:	8809883a 	mov	r4,r17
    5a4c:	d9400215 	stw	r5,8(sp)
    5a50:	d9800715 	stw	r6,28(sp)
    5a54:	da400415 	stw	r9,16(sp)
    5a58:	da800315 	stw	r10,12(sp)
    5a5c:	0006b540 	call	6b54 <__clzsi2>
    5a60:	d9400217 	ldw	r5,8(sp)
    5a64:	d9800717 	ldw	r6,28(sp)
    5a68:	da400417 	ldw	r9,16(sp)
    5a6c:	da800317 	ldw	r10,12(sp)
    5a70:	113ffd44 	addi	r4,r2,-11
    5a74:	00c00704 	movi	r3,28
    5a78:	19011016 	blt	r3,r4,5ebc <__muldf3+0x6d4>
    5a7c:	00c00744 	movi	r3,29
    5a80:	14bffe04 	addi	r18,r2,-8
    5a84:	1907c83a 	sub	r3,r3,r4
    5a88:	8ca2983a 	sll	r17,r17,r18
    5a8c:	30c6d83a 	srl	r3,r6,r3
    5a90:	34a4983a 	sll	r18,r6,r18
    5a94:	1c62b03a 	or	r17,r3,r17
    5a98:	1080fcc4 	addi	r2,r2,1011
    5a9c:	0085c83a 	sub	r2,zero,r2
    5aa0:	000f883a 	mov	r7,zero
    5aa4:	003f8106 	br	58ac <__alt_mem_VGA_Subsystem_Char_Buf_Subsystem_Onchip_SRAM+0xf70058ac>
    5aa8:	3027883a 	mov	r19,r6
    5aac:	0081ffc4 	movi	r2,2047
    5ab0:	0021883a 	mov	r16,zero
    5ab4:	002d883a 	mov	r22,zero
    5ab8:	003faa06 	br	5964 <__alt_mem_VGA_Subsystem_Char_Buf_Subsystem_Onchip_SRAM+0xf7005964>
    5abc:	0023883a 	mov	r17,zero
    5ac0:	0025883a 	mov	r18,zero
    5ac4:	01c00044 	movi	r7,1
    5ac8:	003f7806 	br	58ac <__alt_mem_VGA_Subsystem_Char_Buf_Subsystem_Onchip_SRAM+0xf70058ac>
    5acc:	01c000c4 	movi	r7,3
    5ad0:	003f7606 	br	58ac <__alt_mem_VGA_Subsystem_Char_Buf_Subsystem_Onchip_SRAM+0xf70058ac>
    5ad4:	05400104 	movi	r21,4
    5ad8:	0021883a 	mov	r16,zero
    5adc:	002d883a 	mov	r22,zero
    5ae0:	01400044 	movi	r5,1
    5ae4:	003f5f06 	br	5864 <__alt_mem_VGA_Subsystem_Char_Buf_Subsystem_Onchip_SRAM+0xf7005864>
    5ae8:	05400304 	movi	r21,12
    5aec:	014000c4 	movi	r5,3
    5af0:	003f5c06 	br	5864 <__alt_mem_VGA_Subsystem_Char_Buf_Subsystem_Onchip_SRAM+0xf7005864>
    5af4:	04000434 	movhi	r16,16
    5af8:	0027883a 	mov	r19,zero
    5afc:	843fffc4 	addi	r16,r16,-1
    5b00:	05bfffc4 	movi	r22,-1
    5b04:	0081ffc4 	movi	r2,2047
    5b08:	003f9606 	br	5964 <__alt_mem_VGA_Subsystem_Char_Buf_Subsystem_Onchip_SRAM+0xf7005964>
    5b0c:	8023883a 	mov	r17,r16
    5b10:	b025883a 	mov	r18,r22
    5b14:	280f883a 	mov	r7,r5
    5b18:	003f8806 	br	593c <__alt_mem_VGA_Subsystem_Char_Buf_Subsystem_Onchip_SRAM+0xf700593c>
    5b1c:	8023883a 	mov	r17,r16
    5b20:	b025883a 	mov	r18,r22
    5b24:	480d883a 	mov	r6,r9
    5b28:	280f883a 	mov	r7,r5
    5b2c:	003f8306 	br	593c <__alt_mem_VGA_Subsystem_Char_Buf_Subsystem_Onchip_SRAM+0xf700593c>
    5b30:	b026d43a 	srli	r19,r22,16
    5b34:	902ed43a 	srli	r23,r18,16
    5b38:	b5bfffcc 	andi	r22,r22,65535
    5b3c:	94bfffcc 	andi	r18,r18,65535
    5b40:	b00b883a 	mov	r5,r22
    5b44:	9009883a 	mov	r4,r18
    5b48:	d8c00515 	stw	r3,20(sp)
    5b4c:	d9800715 	stw	r6,28(sp)
    5b50:	da000615 	stw	r8,24(sp)
    5b54:	00043e00 	call	43e0 <__mulsi3>
    5b58:	980b883a 	mov	r5,r19
    5b5c:	9009883a 	mov	r4,r18
    5b60:	1029883a 	mov	r20,r2
    5b64:	00043e00 	call	43e0 <__mulsi3>
    5b68:	b80b883a 	mov	r5,r23
    5b6c:	9809883a 	mov	r4,r19
    5b70:	102b883a 	mov	r21,r2
    5b74:	00043e00 	call	43e0 <__mulsi3>
    5b78:	b809883a 	mov	r4,r23
    5b7c:	b00b883a 	mov	r5,r22
    5b80:	1039883a 	mov	fp,r2
    5b84:	00043e00 	call	43e0 <__mulsi3>
    5b88:	a008d43a 	srli	r4,r20,16
    5b8c:	1545883a 	add	r2,r2,r21
    5b90:	d8c00517 	ldw	r3,20(sp)
    5b94:	2085883a 	add	r2,r4,r2
    5b98:	d9800717 	ldw	r6,28(sp)
    5b9c:	da000617 	ldw	r8,24(sp)
    5ba0:	1540022e 	bgeu	r2,r21,5bac <__muldf3+0x3c4>
    5ba4:	01000074 	movhi	r4,1
    5ba8:	e139883a 	add	fp,fp,r4
    5bac:	100e943a 	slli	r7,r2,16
    5bb0:	1004d43a 	srli	r2,r2,16
    5bb4:	882ad43a 	srli	r21,r17,16
    5bb8:	a53fffcc 	andi	r20,r20,65535
    5bbc:	8c7fffcc 	andi	r17,r17,65535
    5bc0:	3d29883a 	add	r20,r7,r20
    5bc4:	b00b883a 	mov	r5,r22
    5bc8:	8809883a 	mov	r4,r17
    5bcc:	d8c00515 	stw	r3,20(sp)
    5bd0:	d9800715 	stw	r6,28(sp)
    5bd4:	da000615 	stw	r8,24(sp)
    5bd8:	dd000115 	stw	r20,4(sp)
    5bdc:	d8800015 	stw	r2,0(sp)
    5be0:	00043e00 	call	43e0 <__mulsi3>
    5be4:	980b883a 	mov	r5,r19
    5be8:	8809883a 	mov	r4,r17
    5bec:	d8800215 	stw	r2,8(sp)
    5bf0:	00043e00 	call	43e0 <__mulsi3>
    5bf4:	9809883a 	mov	r4,r19
    5bf8:	a80b883a 	mov	r5,r21
    5bfc:	1029883a 	mov	r20,r2
    5c00:	00043e00 	call	43e0 <__mulsi3>
    5c04:	b00b883a 	mov	r5,r22
    5c08:	a809883a 	mov	r4,r21
    5c0c:	d8800415 	stw	r2,16(sp)
    5c10:	00043e00 	call	43e0 <__mulsi3>
    5c14:	d9c00217 	ldw	r7,8(sp)
    5c18:	1505883a 	add	r2,r2,r20
    5c1c:	d8c00517 	ldw	r3,20(sp)
    5c20:	3826d43a 	srli	r19,r7,16
    5c24:	d9800717 	ldw	r6,28(sp)
    5c28:	da000617 	ldw	r8,24(sp)
    5c2c:	9885883a 	add	r2,r19,r2
    5c30:	da400417 	ldw	r9,16(sp)
    5c34:	1500022e 	bgeu	r2,r20,5c40 <__muldf3+0x458>
    5c38:	01000074 	movhi	r4,1
    5c3c:	4913883a 	add	r9,r9,r4
    5c40:	1028d43a 	srli	r20,r2,16
    5c44:	1004943a 	slli	r2,r2,16
    5c48:	802cd43a 	srli	r22,r16,16
    5c4c:	843fffcc 	andi	r16,r16,65535
    5c50:	3cffffcc 	andi	r19,r7,65535
    5c54:	9009883a 	mov	r4,r18
    5c58:	800b883a 	mov	r5,r16
    5c5c:	a269883a 	add	r20,r20,r9
    5c60:	d8c00515 	stw	r3,20(sp)
    5c64:	d9800715 	stw	r6,28(sp)
    5c68:	da000615 	stw	r8,24(sp)
    5c6c:	14e7883a 	add	r19,r2,r19
    5c70:	00043e00 	call	43e0 <__mulsi3>
    5c74:	9009883a 	mov	r4,r18
    5c78:	b00b883a 	mov	r5,r22
    5c7c:	d8800315 	stw	r2,12(sp)
    5c80:	00043e00 	call	43e0 <__mulsi3>
    5c84:	b809883a 	mov	r4,r23
    5c88:	b00b883a 	mov	r5,r22
    5c8c:	d8800215 	stw	r2,8(sp)
    5c90:	00043e00 	call	43e0 <__mulsi3>
    5c94:	b80b883a 	mov	r5,r23
    5c98:	8009883a 	mov	r4,r16
    5c9c:	d8800415 	stw	r2,16(sp)
    5ca0:	00043e00 	call	43e0 <__mulsi3>
    5ca4:	da800317 	ldw	r10,12(sp)
    5ca8:	d9c00217 	ldw	r7,8(sp)
    5cac:	d9000017 	ldw	r4,0(sp)
    5cb0:	502ed43a 	srli	r23,r10,16
    5cb4:	11c5883a 	add	r2,r2,r7
    5cb8:	24e5883a 	add	r18,r4,r19
    5cbc:	b885883a 	add	r2,r23,r2
    5cc0:	d8c00517 	ldw	r3,20(sp)
    5cc4:	d9800717 	ldw	r6,28(sp)
    5cc8:	da000617 	ldw	r8,24(sp)
    5ccc:	da400417 	ldw	r9,16(sp)
    5cd0:	11c0022e 	bgeu	r2,r7,5cdc <__muldf3+0x4f4>
    5cd4:	01000074 	movhi	r4,1
    5cd8:	4913883a 	add	r9,r9,r4
    5cdc:	100ed43a 	srli	r7,r2,16
    5ce0:	1004943a 	slli	r2,r2,16
    5ce4:	55ffffcc 	andi	r23,r10,65535
    5ce8:	3a53883a 	add	r9,r7,r9
    5cec:	8809883a 	mov	r4,r17
    5cf0:	800b883a 	mov	r5,r16
    5cf4:	d8c00515 	stw	r3,20(sp)
    5cf8:	d9800715 	stw	r6,28(sp)
    5cfc:	da000615 	stw	r8,24(sp)
    5d00:	da400415 	stw	r9,16(sp)
    5d04:	15ef883a 	add	r23,r2,r23
    5d08:	00043e00 	call	43e0 <__mulsi3>
    5d0c:	8809883a 	mov	r4,r17
    5d10:	b00b883a 	mov	r5,r22
    5d14:	d8800215 	stw	r2,8(sp)
    5d18:	00043e00 	call	43e0 <__mulsi3>
    5d1c:	b00b883a 	mov	r5,r22
    5d20:	a809883a 	mov	r4,r21
    5d24:	d8800315 	stw	r2,12(sp)
    5d28:	00043e00 	call	43e0 <__mulsi3>
    5d2c:	8009883a 	mov	r4,r16
    5d30:	a80b883a 	mov	r5,r21
    5d34:	1023883a 	mov	r17,r2
    5d38:	00043e00 	call	43e0 <__mulsi3>
    5d3c:	d9c00217 	ldw	r7,8(sp)
    5d40:	da800317 	ldw	r10,12(sp)
    5d44:	d8c00517 	ldw	r3,20(sp)
    5d48:	3808d43a 	srli	r4,r7,16
    5d4c:	1285883a 	add	r2,r2,r10
    5d50:	d9800717 	ldw	r6,28(sp)
    5d54:	2085883a 	add	r2,r4,r2
    5d58:	da000617 	ldw	r8,24(sp)
    5d5c:	da400417 	ldw	r9,16(sp)
    5d60:	1280022e 	bgeu	r2,r10,5d6c <__muldf3+0x584>
    5d64:	01000074 	movhi	r4,1
    5d68:	8923883a 	add	r17,r17,r4
    5d6c:	1008943a 	slli	r4,r2,16
    5d70:	39ffffcc 	andi	r7,r7,65535
    5d74:	e4b9883a 	add	fp,fp,r18
    5d78:	21cf883a 	add	r7,r4,r7
    5d7c:	e4e7803a 	cmpltu	r19,fp,r19
    5d80:	3d0f883a 	add	r7,r7,r20
    5d84:	bf39883a 	add	fp,r23,fp
    5d88:	99c9883a 	add	r4,r19,r7
    5d8c:	e5ef803a 	cmpltu	r23,fp,r23
    5d90:	490b883a 	add	r5,r9,r4
    5d94:	1004d43a 	srli	r2,r2,16
    5d98:	b965883a 	add	r18,r23,r5
    5d9c:	24c9803a 	cmpltu	r4,r4,r19
    5da0:	3d29803a 	cmpltu	r20,r7,r20
    5da4:	a128b03a 	or	r20,r20,r4
    5da8:	95ef803a 	cmpltu	r23,r18,r23
    5dac:	2a53803a 	cmpltu	r9,r5,r9
    5db0:	a0a9883a 	add	r20,r20,r2
    5db4:	4deeb03a 	or	r23,r9,r23
    5db8:	a5ef883a 	add	r23,r20,r23
    5dbc:	bc63883a 	add	r17,r23,r17
    5dc0:	e004927a 	slli	r2,fp,9
    5dc4:	d9000117 	ldw	r4,4(sp)
    5dc8:	882e927a 	slli	r23,r17,9
    5dcc:	9022d5fa 	srli	r17,r18,23
    5dd0:	e038d5fa 	srli	fp,fp,23
    5dd4:	1104b03a 	or	r2,r2,r4
    5dd8:	9024927a 	slli	r18,r18,9
    5ddc:	1004c03a 	cmpne	r2,r2,zero
    5de0:	bc62b03a 	or	r17,r23,r17
    5de4:	1738b03a 	or	fp,r2,fp
    5de8:	8880402c 	andhi	r2,r17,256
    5dec:	e4a4b03a 	or	r18,fp,r18
    5df0:	10000726 	beq	r2,zero,5e10 <__muldf3+0x628>
    5df4:	9006d07a 	srli	r3,r18,1
    5df8:	880497fa 	slli	r2,r17,31
    5dfc:	9480004c 	andi	r18,r18,1
    5e00:	8822d07a 	srli	r17,r17,1
    5e04:	1ca4b03a 	or	r18,r3,r18
    5e08:	14a4b03a 	or	r18,r2,r18
    5e0c:	4007883a 	mov	r3,r8
    5e10:	1880ffc4 	addi	r2,r3,1023
    5e14:	0080460e 	bge	zero,r2,5f30 <__muldf3+0x748>
    5e18:	910001cc 	andi	r4,r18,7
    5e1c:	20000726 	beq	r4,zero,5e3c <__muldf3+0x654>
    5e20:	910003cc 	andi	r4,r18,15
    5e24:	01400104 	movi	r5,4
    5e28:	21400426 	beq	r4,r5,5e3c <__muldf3+0x654>
    5e2c:	9149883a 	add	r4,r18,r5
    5e30:	24a5803a 	cmpltu	r18,r4,r18
    5e34:	8ca3883a 	add	r17,r17,r18
    5e38:	2025883a 	mov	r18,r4
    5e3c:	8900402c 	andhi	r4,r17,256
    5e40:	20000426 	beq	r4,zero,5e54 <__muldf3+0x66c>
    5e44:	18810004 	addi	r2,r3,1024
    5e48:	00ffc034 	movhi	r3,65280
    5e4c:	18ffffc4 	addi	r3,r3,-1
    5e50:	88e2703a 	and	r17,r17,r3
    5e54:	00c1ff84 	movi	r3,2046
    5e58:	18bf1316 	blt	r3,r2,5aa8 <__alt_mem_VGA_Subsystem_Char_Buf_Subsystem_Onchip_SRAM+0xf7005aa8>
    5e5c:	882c977a 	slli	r22,r17,29
    5e60:	9024d0fa 	srli	r18,r18,3
    5e64:	8822927a 	slli	r17,r17,9
    5e68:	1081ffcc 	andi	r2,r2,2047
    5e6c:	b4acb03a 	or	r22,r22,r18
    5e70:	8820d33a 	srli	r16,r17,12
    5e74:	3027883a 	mov	r19,r6
    5e78:	003eba06 	br	5964 <__alt_mem_VGA_Subsystem_Char_Buf_Subsystem_Onchip_SRAM+0xf7005964>
    5e7c:	8080022c 	andhi	r2,r16,8
    5e80:	10000926 	beq	r2,zero,5ea8 <__muldf3+0x6c0>
    5e84:	8880022c 	andhi	r2,r17,8
    5e88:	1000071e 	bne	r2,zero,5ea8 <__muldf3+0x6c0>
    5e8c:	00800434 	movhi	r2,16
    5e90:	8c000234 	orhi	r16,r17,8
    5e94:	10bfffc4 	addi	r2,r2,-1
    5e98:	e027883a 	mov	r19,fp
    5e9c:	80a0703a 	and	r16,r16,r2
    5ea0:	902d883a 	mov	r22,r18
    5ea4:	003f1706 	br	5b04 <__alt_mem_VGA_Subsystem_Char_Buf_Subsystem_Onchip_SRAM+0xf7005b04>
    5ea8:	00800434 	movhi	r2,16
    5eac:	84000234 	orhi	r16,r16,8
    5eb0:	10bfffc4 	addi	r2,r2,-1
    5eb4:	80a0703a 	and	r16,r16,r2
    5eb8:	003f1206 	br	5b04 <__alt_mem_VGA_Subsystem_Char_Buf_Subsystem_Onchip_SRAM+0xf7005b04>
    5ebc:	147ff604 	addi	r17,r2,-40
    5ec0:	3462983a 	sll	r17,r6,r17
    5ec4:	0025883a 	mov	r18,zero
    5ec8:	003ef306 	br	5a98 <__alt_mem_VGA_Subsystem_Char_Buf_Subsystem_Onchip_SRAM+0xf7005a98>
    5ecc:	3009883a 	mov	r4,r6
    5ed0:	d9400215 	stw	r5,8(sp)
    5ed4:	d9800715 	stw	r6,28(sp)
    5ed8:	da400415 	stw	r9,16(sp)
    5edc:	da800315 	stw	r10,12(sp)
    5ee0:	0006b540 	call	6b54 <__clzsi2>
    5ee4:	10800804 	addi	r2,r2,32
    5ee8:	da800317 	ldw	r10,12(sp)
    5eec:	da400417 	ldw	r9,16(sp)
    5ef0:	d9800717 	ldw	r6,28(sp)
    5ef4:	d9400217 	ldw	r5,8(sp)
    5ef8:	003edd06 	br	5a70 <__alt_mem_VGA_Subsystem_Char_Buf_Subsystem_Onchip_SRAM+0xf7005a70>
    5efc:	143ff604 	addi	r16,r2,-40
    5f00:	ac20983a 	sll	r16,r21,r16
    5f04:	002d883a 	mov	r22,zero
    5f08:	003ec106 	br	5a10 <__alt_mem_VGA_Subsystem_Char_Buf_Subsystem_Onchip_SRAM+0xf7005a10>
    5f0c:	d9800715 	stw	r6,28(sp)
    5f10:	d9c00215 	stw	r7,8(sp)
    5f14:	da400415 	stw	r9,16(sp)
    5f18:	0006b540 	call	6b54 <__clzsi2>
    5f1c:	10800804 	addi	r2,r2,32
    5f20:	da400417 	ldw	r9,16(sp)
    5f24:	d9c00217 	ldw	r7,8(sp)
    5f28:	d9800717 	ldw	r6,28(sp)
    5f2c:	003eae06 	br	59e8 <__alt_mem_VGA_Subsystem_Char_Buf_Subsystem_Onchip_SRAM+0xf70059e8>
    5f30:	00c00044 	movi	r3,1
    5f34:	1887c83a 	sub	r3,r3,r2
    5f38:	01000e04 	movi	r4,56
    5f3c:	20fe8516 	blt	r4,r3,5954 <__alt_mem_VGA_Subsystem_Char_Buf_Subsystem_Onchip_SRAM+0xf7005954>
    5f40:	010007c4 	movi	r4,31
    5f44:	20c01b16 	blt	r4,r3,5fb4 <__muldf3+0x7cc>
    5f48:	00800804 	movi	r2,32
    5f4c:	10c5c83a 	sub	r2,r2,r3
    5f50:	888a983a 	sll	r5,r17,r2
    5f54:	90c8d83a 	srl	r4,r18,r3
    5f58:	9084983a 	sll	r2,r18,r2
    5f5c:	88e2d83a 	srl	r17,r17,r3
    5f60:	2906b03a 	or	r3,r5,r4
    5f64:	1004c03a 	cmpne	r2,r2,zero
    5f68:	1886b03a 	or	r3,r3,r2
    5f6c:	188001cc 	andi	r2,r3,7
    5f70:	10000726 	beq	r2,zero,5f90 <__muldf3+0x7a8>
    5f74:	188003cc 	andi	r2,r3,15
    5f78:	01000104 	movi	r4,4
    5f7c:	11000426 	beq	r2,r4,5f90 <__muldf3+0x7a8>
    5f80:	1805883a 	mov	r2,r3
    5f84:	10c00104 	addi	r3,r2,4
    5f88:	1885803a 	cmpltu	r2,r3,r2
    5f8c:	88a3883a 	add	r17,r17,r2
    5f90:	8880202c 	andhi	r2,r17,128
    5f94:	10001c26 	beq	r2,zero,6008 <__muldf3+0x820>
    5f98:	3027883a 	mov	r19,r6
    5f9c:	00800044 	movi	r2,1
    5fa0:	0021883a 	mov	r16,zero
    5fa4:	002d883a 	mov	r22,zero
    5fa8:	003e6e06 	br	5964 <__alt_mem_VGA_Subsystem_Char_Buf_Subsystem_Onchip_SRAM+0xf7005964>
    5fac:	4007883a 	mov	r3,r8
    5fb0:	003f9706 	br	5e10 <__alt_mem_VGA_Subsystem_Char_Buf_Subsystem_Onchip_SRAM+0xf7005e10>
    5fb4:	017ff844 	movi	r5,-31
    5fb8:	2885c83a 	sub	r2,r5,r2
    5fbc:	888ad83a 	srl	r5,r17,r2
    5fc0:	00800804 	movi	r2,32
    5fc4:	18801a26 	beq	r3,r2,6030 <__muldf3+0x848>
    5fc8:	01001004 	movi	r4,64
    5fcc:	20c7c83a 	sub	r3,r4,r3
    5fd0:	88e2983a 	sll	r17,r17,r3
    5fd4:	8ca4b03a 	or	r18,r17,r18
    5fd8:	9004c03a 	cmpne	r2,r18,zero
    5fdc:	2884b03a 	or	r2,r5,r2
    5fe0:	144001cc 	andi	r17,r2,7
    5fe4:	88000d1e 	bne	r17,zero,601c <__muldf3+0x834>
    5fe8:	0021883a 	mov	r16,zero
    5fec:	102cd0fa 	srli	r22,r2,3
    5ff0:	3027883a 	mov	r19,r6
    5ff4:	0005883a 	mov	r2,zero
    5ff8:	b46cb03a 	or	r22,r22,r17
    5ffc:	003e5906 	br	5964 <__alt_mem_VGA_Subsystem_Char_Buf_Subsystem_Onchip_SRAM+0xf7005964>
    6000:	1007883a 	mov	r3,r2
    6004:	0023883a 	mov	r17,zero
    6008:	8820927a 	slli	r16,r17,9
    600c:	1805883a 	mov	r2,r3
    6010:	8822977a 	slli	r17,r17,29
    6014:	8020d33a 	srli	r16,r16,12
    6018:	003ff406 	br	5fec <__alt_mem_VGA_Subsystem_Char_Buf_Subsystem_Onchip_SRAM+0xf7005fec>
    601c:	10c003cc 	andi	r3,r2,15
    6020:	01000104 	movi	r4,4
    6024:	193ff626 	beq	r3,r4,6000 <__alt_mem_VGA_Subsystem_Char_Buf_Subsystem_Onchip_SRAM+0xf7006000>
    6028:	0023883a 	mov	r17,zero
    602c:	003fd506 	br	5f84 <__alt_mem_VGA_Subsystem_Char_Buf_Subsystem_Onchip_SRAM+0xf7005f84>
    6030:	0023883a 	mov	r17,zero
    6034:	003fe706 	br	5fd4 <__alt_mem_VGA_Subsystem_Char_Buf_Subsystem_Onchip_SRAM+0xf7005fd4>
    6038:	00800434 	movhi	r2,16
    603c:	8c000234 	orhi	r16,r17,8
    6040:	10bfffc4 	addi	r2,r2,-1
    6044:	3027883a 	mov	r19,r6
    6048:	80a0703a 	and	r16,r16,r2
    604c:	902d883a 	mov	r22,r18
    6050:	003eac06 	br	5b04 <__alt_mem_VGA_Subsystem_Char_Buf_Subsystem_Onchip_SRAM+0xf7005b04>

00006054 <__subdf3>:
    6054:	02000434 	movhi	r8,16
    6058:	423fffc4 	addi	r8,r8,-1
    605c:	defffb04 	addi	sp,sp,-20
    6060:	2a14703a 	and	r10,r5,r8
    6064:	3812d53a 	srli	r9,r7,20
    6068:	3a10703a 	and	r8,r7,r8
    606c:	2006d77a 	srli	r3,r4,29
    6070:	3004d77a 	srli	r2,r6,29
    6074:	dc000015 	stw	r16,0(sp)
    6078:	501490fa 	slli	r10,r10,3
    607c:	2820d53a 	srli	r16,r5,20
    6080:	401090fa 	slli	r8,r8,3
    6084:	dc800215 	stw	r18,8(sp)
    6088:	dc400115 	stw	r17,4(sp)
    608c:	dfc00415 	stw	ra,16(sp)
    6090:	202290fa 	slli	r17,r4,3
    6094:	dcc00315 	stw	r19,12(sp)
    6098:	4a41ffcc 	andi	r9,r9,2047
    609c:	0101ffc4 	movi	r4,2047
    60a0:	2824d7fa 	srli	r18,r5,31
    60a4:	8401ffcc 	andi	r16,r16,2047
    60a8:	50c6b03a 	or	r3,r10,r3
    60ac:	380ed7fa 	srli	r7,r7,31
    60b0:	408ab03a 	or	r5,r8,r2
    60b4:	300c90fa 	slli	r6,r6,3
    60b8:	49009626 	beq	r9,r4,6314 <__subdf3+0x2c0>
    60bc:	39c0005c 	xori	r7,r7,1
    60c0:	8245c83a 	sub	r2,r16,r9
    60c4:	3c807426 	beq	r7,r18,6298 <__subdf3+0x244>
    60c8:	0080af0e 	bge	zero,r2,6388 <__subdf3+0x334>
    60cc:	48002a1e 	bne	r9,zero,6178 <__subdf3+0x124>
    60d0:	2988b03a 	or	r4,r5,r6
    60d4:	20009a1e 	bne	r4,zero,6340 <__subdf3+0x2ec>
    60d8:	888001cc 	andi	r2,r17,7
    60dc:	10000726 	beq	r2,zero,60fc <__subdf3+0xa8>
    60e0:	888003cc 	andi	r2,r17,15
    60e4:	01000104 	movi	r4,4
    60e8:	11000426 	beq	r2,r4,60fc <__subdf3+0xa8>
    60ec:	890b883a 	add	r5,r17,r4
    60f0:	2c63803a 	cmpltu	r17,r5,r17
    60f4:	1c47883a 	add	r3,r3,r17
    60f8:	2823883a 	mov	r17,r5
    60fc:	1880202c 	andhi	r2,r3,128
    6100:	10005926 	beq	r2,zero,6268 <__subdf3+0x214>
    6104:	84000044 	addi	r16,r16,1
    6108:	0081ffc4 	movi	r2,2047
    610c:	8080be26 	beq	r16,r2,6408 <__subdf3+0x3b4>
    6110:	017fe034 	movhi	r5,65408
    6114:	297fffc4 	addi	r5,r5,-1
    6118:	1946703a 	and	r3,r3,r5
    611c:	1804977a 	slli	r2,r3,29
    6120:	1806927a 	slli	r3,r3,9
    6124:	8822d0fa 	srli	r17,r17,3
    6128:	8401ffcc 	andi	r16,r16,2047
    612c:	180ad33a 	srli	r5,r3,12
    6130:	9100004c 	andi	r4,r18,1
    6134:	1444b03a 	or	r2,r2,r17
    6138:	80c1ffcc 	andi	r3,r16,2047
    613c:	1820953a 	slli	r16,r3,20
    6140:	20c03fcc 	andi	r3,r4,255
    6144:	180897fa 	slli	r4,r3,31
    6148:	00c00434 	movhi	r3,16
    614c:	18ffffc4 	addi	r3,r3,-1
    6150:	28c6703a 	and	r3,r5,r3
    6154:	1c06b03a 	or	r3,r3,r16
    6158:	1906b03a 	or	r3,r3,r4
    615c:	dfc00417 	ldw	ra,16(sp)
    6160:	dcc00317 	ldw	r19,12(sp)
    6164:	dc800217 	ldw	r18,8(sp)
    6168:	dc400117 	ldw	r17,4(sp)
    616c:	dc000017 	ldw	r16,0(sp)
    6170:	dec00504 	addi	sp,sp,20
    6174:	f800283a 	ret
    6178:	0101ffc4 	movi	r4,2047
    617c:	813fd626 	beq	r16,r4,60d8 <__alt_mem_VGA_Subsystem_Char_Buf_Subsystem_Onchip_SRAM+0xf70060d8>
    6180:	29402034 	orhi	r5,r5,128
    6184:	01000e04 	movi	r4,56
    6188:	2080a316 	blt	r4,r2,6418 <__subdf3+0x3c4>
    618c:	010007c4 	movi	r4,31
    6190:	2080c616 	blt	r4,r2,64ac <__subdf3+0x458>
    6194:	01000804 	movi	r4,32
    6198:	2089c83a 	sub	r4,r4,r2
    619c:	2910983a 	sll	r8,r5,r4
    61a0:	308ed83a 	srl	r7,r6,r2
    61a4:	3108983a 	sll	r4,r6,r4
    61a8:	2884d83a 	srl	r2,r5,r2
    61ac:	41ccb03a 	or	r6,r8,r7
    61b0:	2008c03a 	cmpne	r4,r4,zero
    61b4:	310cb03a 	or	r6,r6,r4
    61b8:	898dc83a 	sub	r6,r17,r6
    61bc:	89a3803a 	cmpltu	r17,r17,r6
    61c0:	1887c83a 	sub	r3,r3,r2
    61c4:	1c47c83a 	sub	r3,r3,r17
    61c8:	3023883a 	mov	r17,r6
    61cc:	1880202c 	andhi	r2,r3,128
    61d0:	10002326 	beq	r2,zero,6260 <__subdf3+0x20c>
    61d4:	04c02034 	movhi	r19,128
    61d8:	9cffffc4 	addi	r19,r19,-1
    61dc:	1ce6703a 	and	r19,r3,r19
    61e0:	98007a26 	beq	r19,zero,63cc <__subdf3+0x378>
    61e4:	9809883a 	mov	r4,r19
    61e8:	0006b540 	call	6b54 <__clzsi2>
    61ec:	113ffe04 	addi	r4,r2,-8
    61f0:	00c007c4 	movi	r3,31
    61f4:	19007b16 	blt	r3,r4,63e4 <__subdf3+0x390>
    61f8:	00800804 	movi	r2,32
    61fc:	1105c83a 	sub	r2,r2,r4
    6200:	8884d83a 	srl	r2,r17,r2
    6204:	9906983a 	sll	r3,r19,r4
    6208:	8922983a 	sll	r17,r17,r4
    620c:	10c4b03a 	or	r2,r2,r3
    6210:	24007816 	blt	r4,r16,63f4 <__subdf3+0x3a0>
    6214:	2421c83a 	sub	r16,r4,r16
    6218:	80c00044 	addi	r3,r16,1
    621c:	010007c4 	movi	r4,31
    6220:	20c09516 	blt	r4,r3,6478 <__subdf3+0x424>
    6224:	01400804 	movi	r5,32
    6228:	28cbc83a 	sub	r5,r5,r3
    622c:	88c8d83a 	srl	r4,r17,r3
    6230:	8962983a 	sll	r17,r17,r5
    6234:	114a983a 	sll	r5,r2,r5
    6238:	10c6d83a 	srl	r3,r2,r3
    623c:	8804c03a 	cmpne	r2,r17,zero
    6240:	290ab03a 	or	r5,r5,r4
    6244:	28a2b03a 	or	r17,r5,r2
    6248:	0021883a 	mov	r16,zero
    624c:	003fa206 	br	60d8 <__alt_mem_VGA_Subsystem_Char_Buf_Subsystem_Onchip_SRAM+0xf70060d8>
    6250:	2090b03a 	or	r8,r4,r2
    6254:	40018e26 	beq	r8,zero,6890 <__subdf3+0x83c>
    6258:	1007883a 	mov	r3,r2
    625c:	2023883a 	mov	r17,r4
    6260:	888001cc 	andi	r2,r17,7
    6264:	103f9e1e 	bne	r2,zero,60e0 <__alt_mem_VGA_Subsystem_Char_Buf_Subsystem_Onchip_SRAM+0xf70060e0>
    6268:	1804977a 	slli	r2,r3,29
    626c:	8822d0fa 	srli	r17,r17,3
    6270:	1810d0fa 	srli	r8,r3,3
    6274:	9100004c 	andi	r4,r18,1
    6278:	1444b03a 	or	r2,r2,r17
    627c:	00c1ffc4 	movi	r3,2047
    6280:	80c02826 	beq	r16,r3,6324 <__subdf3+0x2d0>
    6284:	01400434 	movhi	r5,16
    6288:	297fffc4 	addi	r5,r5,-1
    628c:	80e0703a 	and	r16,r16,r3
    6290:	414a703a 	and	r5,r8,r5
    6294:	003fa806 	br	6138 <__alt_mem_VGA_Subsystem_Char_Buf_Subsystem_Onchip_SRAM+0xf7006138>
    6298:	0080630e 	bge	zero,r2,6428 <__subdf3+0x3d4>
    629c:	48003026 	beq	r9,zero,6360 <__subdf3+0x30c>
    62a0:	0101ffc4 	movi	r4,2047
    62a4:	813f8c26 	beq	r16,r4,60d8 <__alt_mem_VGA_Subsystem_Char_Buf_Subsystem_Onchip_SRAM+0xf70060d8>
    62a8:	29402034 	orhi	r5,r5,128
    62ac:	01000e04 	movi	r4,56
    62b0:	2080a90e 	bge	r4,r2,6558 <__subdf3+0x504>
    62b4:	298cb03a 	or	r6,r5,r6
    62b8:	3012c03a 	cmpne	r9,r6,zero
    62bc:	0005883a 	mov	r2,zero
    62c0:	4c53883a 	add	r9,r9,r17
    62c4:	4c63803a 	cmpltu	r17,r9,r17
    62c8:	10c7883a 	add	r3,r2,r3
    62cc:	88c7883a 	add	r3,r17,r3
    62d0:	4823883a 	mov	r17,r9
    62d4:	1880202c 	andhi	r2,r3,128
    62d8:	1000d026 	beq	r2,zero,661c <__subdf3+0x5c8>
    62dc:	84000044 	addi	r16,r16,1
    62e0:	0081ffc4 	movi	r2,2047
    62e4:	8080fe26 	beq	r16,r2,66e0 <__subdf3+0x68c>
    62e8:	00bfe034 	movhi	r2,65408
    62ec:	10bfffc4 	addi	r2,r2,-1
    62f0:	1886703a 	and	r3,r3,r2
    62f4:	880ad07a 	srli	r5,r17,1
    62f8:	180497fa 	slli	r2,r3,31
    62fc:	8900004c 	andi	r4,r17,1
    6300:	2922b03a 	or	r17,r5,r4
    6304:	1806d07a 	srli	r3,r3,1
    6308:	1462b03a 	or	r17,r2,r17
    630c:	3825883a 	mov	r18,r7
    6310:	003f7106 	br	60d8 <__alt_mem_VGA_Subsystem_Char_Buf_Subsystem_Onchip_SRAM+0xf70060d8>
    6314:	2984b03a 	or	r2,r5,r6
    6318:	103f6826 	beq	r2,zero,60bc <__alt_mem_VGA_Subsystem_Char_Buf_Subsystem_Onchip_SRAM+0xf70060bc>
    631c:	39c03fcc 	andi	r7,r7,255
    6320:	003f6706 	br	60c0 <__alt_mem_VGA_Subsystem_Char_Buf_Subsystem_Onchip_SRAM+0xf70060c0>
    6324:	4086b03a 	or	r3,r8,r2
    6328:	18015226 	beq	r3,zero,6874 <__subdf3+0x820>
    632c:	00c00434 	movhi	r3,16
    6330:	41400234 	orhi	r5,r8,8
    6334:	18ffffc4 	addi	r3,r3,-1
    6338:	28ca703a 	and	r5,r5,r3
    633c:	003f7e06 	br	6138 <__alt_mem_VGA_Subsystem_Char_Buf_Subsystem_Onchip_SRAM+0xf7006138>
    6340:	10bfffc4 	addi	r2,r2,-1
    6344:	1000491e 	bne	r2,zero,646c <__subdf3+0x418>
    6348:	898fc83a 	sub	r7,r17,r6
    634c:	89e3803a 	cmpltu	r17,r17,r7
    6350:	1947c83a 	sub	r3,r3,r5
    6354:	1c47c83a 	sub	r3,r3,r17
    6358:	3823883a 	mov	r17,r7
    635c:	003f9b06 	br	61cc <__alt_mem_VGA_Subsystem_Char_Buf_Subsystem_Onchip_SRAM+0xf70061cc>
    6360:	2988b03a 	or	r4,r5,r6
    6364:	203f5c26 	beq	r4,zero,60d8 <__alt_mem_VGA_Subsystem_Char_Buf_Subsystem_Onchip_SRAM+0xf70060d8>
    6368:	10bfffc4 	addi	r2,r2,-1
    636c:	1000931e 	bne	r2,zero,65bc <__subdf3+0x568>
    6370:	898d883a 	add	r6,r17,r6
    6374:	3463803a 	cmpltu	r17,r6,r17
    6378:	1947883a 	add	r3,r3,r5
    637c:	88c7883a 	add	r3,r17,r3
    6380:	3023883a 	mov	r17,r6
    6384:	003fd306 	br	62d4 <__alt_mem_VGA_Subsystem_Char_Buf_Subsystem_Onchip_SRAM+0xf70062d4>
    6388:	1000541e 	bne	r2,zero,64dc <__subdf3+0x488>
    638c:	80800044 	addi	r2,r16,1
    6390:	1081ffcc 	andi	r2,r2,2047
    6394:	01000044 	movi	r4,1
    6398:	2080a20e 	bge	r4,r2,6624 <__subdf3+0x5d0>
    639c:	8989c83a 	sub	r4,r17,r6
    63a0:	8905803a 	cmpltu	r2,r17,r4
    63a4:	1967c83a 	sub	r19,r3,r5
    63a8:	98a7c83a 	sub	r19,r19,r2
    63ac:	9880202c 	andhi	r2,r19,128
    63b0:	10006326 	beq	r2,zero,6540 <__subdf3+0x4ec>
    63b4:	3463c83a 	sub	r17,r6,r17
    63b8:	28c7c83a 	sub	r3,r5,r3
    63bc:	344d803a 	cmpltu	r6,r6,r17
    63c0:	19a7c83a 	sub	r19,r3,r6
    63c4:	3825883a 	mov	r18,r7
    63c8:	983f861e 	bne	r19,zero,61e4 <__alt_mem_VGA_Subsystem_Char_Buf_Subsystem_Onchip_SRAM+0xf70061e4>
    63cc:	8809883a 	mov	r4,r17
    63d0:	0006b540 	call	6b54 <__clzsi2>
    63d4:	10800804 	addi	r2,r2,32
    63d8:	113ffe04 	addi	r4,r2,-8
    63dc:	00c007c4 	movi	r3,31
    63e0:	193f850e 	bge	r3,r4,61f8 <__alt_mem_VGA_Subsystem_Char_Buf_Subsystem_Onchip_SRAM+0xf70061f8>
    63e4:	10bff604 	addi	r2,r2,-40
    63e8:	8884983a 	sll	r2,r17,r2
    63ec:	0023883a 	mov	r17,zero
    63f0:	243f880e 	bge	r4,r16,6214 <__alt_mem_VGA_Subsystem_Char_Buf_Subsystem_Onchip_SRAM+0xf7006214>
    63f4:	00ffe034 	movhi	r3,65408
    63f8:	18ffffc4 	addi	r3,r3,-1
    63fc:	8121c83a 	sub	r16,r16,r4
    6400:	10c6703a 	and	r3,r2,r3
    6404:	003f3406 	br	60d8 <__alt_mem_VGA_Subsystem_Char_Buf_Subsystem_Onchip_SRAM+0xf70060d8>
    6408:	9100004c 	andi	r4,r18,1
    640c:	000b883a 	mov	r5,zero
    6410:	0005883a 	mov	r2,zero
    6414:	003f4806 	br	6138 <__alt_mem_VGA_Subsystem_Char_Buf_Subsystem_Onchip_SRAM+0xf7006138>
    6418:	298cb03a 	or	r6,r5,r6
    641c:	300cc03a 	cmpne	r6,r6,zero
    6420:	0005883a 	mov	r2,zero
    6424:	003f6406 	br	61b8 <__alt_mem_VGA_Subsystem_Char_Buf_Subsystem_Onchip_SRAM+0xf70061b8>
    6428:	10009a1e 	bne	r2,zero,6694 <__subdf3+0x640>
    642c:	82400044 	addi	r9,r16,1
    6430:	4881ffcc 	andi	r2,r9,2047
    6434:	02800044 	movi	r10,1
    6438:	5080670e 	bge	r10,r2,65d8 <__subdf3+0x584>
    643c:	0081ffc4 	movi	r2,2047
    6440:	4880af26 	beq	r9,r2,6700 <__subdf3+0x6ac>
    6444:	898d883a 	add	r6,r17,r6
    6448:	1945883a 	add	r2,r3,r5
    644c:	3447803a 	cmpltu	r3,r6,r17
    6450:	1887883a 	add	r3,r3,r2
    6454:	182297fa 	slli	r17,r3,31
    6458:	300cd07a 	srli	r6,r6,1
    645c:	1806d07a 	srli	r3,r3,1
    6460:	4821883a 	mov	r16,r9
    6464:	89a2b03a 	or	r17,r17,r6
    6468:	003f1b06 	br	60d8 <__alt_mem_VGA_Subsystem_Char_Buf_Subsystem_Onchip_SRAM+0xf70060d8>
    646c:	0101ffc4 	movi	r4,2047
    6470:	813f441e 	bne	r16,r4,6184 <__alt_mem_VGA_Subsystem_Char_Buf_Subsystem_Onchip_SRAM+0xf7006184>
    6474:	003f1806 	br	60d8 <__alt_mem_VGA_Subsystem_Char_Buf_Subsystem_Onchip_SRAM+0xf70060d8>
    6478:	843ff844 	addi	r16,r16,-31
    647c:	01400804 	movi	r5,32
    6480:	1408d83a 	srl	r4,r2,r16
    6484:	19405026 	beq	r3,r5,65c8 <__subdf3+0x574>
    6488:	01401004 	movi	r5,64
    648c:	28c7c83a 	sub	r3,r5,r3
    6490:	10c4983a 	sll	r2,r2,r3
    6494:	88a2b03a 	or	r17,r17,r2
    6498:	8822c03a 	cmpne	r17,r17,zero
    649c:	2462b03a 	or	r17,r4,r17
    64a0:	0007883a 	mov	r3,zero
    64a4:	0021883a 	mov	r16,zero
    64a8:	003f6d06 	br	6260 <__alt_mem_VGA_Subsystem_Char_Buf_Subsystem_Onchip_SRAM+0xf7006260>
    64ac:	11fff804 	addi	r7,r2,-32
    64b0:	01000804 	movi	r4,32
    64b4:	29ced83a 	srl	r7,r5,r7
    64b8:	11004526 	beq	r2,r4,65d0 <__subdf3+0x57c>
    64bc:	01001004 	movi	r4,64
    64c0:	2089c83a 	sub	r4,r4,r2
    64c4:	2904983a 	sll	r2,r5,r4
    64c8:	118cb03a 	or	r6,r2,r6
    64cc:	300cc03a 	cmpne	r6,r6,zero
    64d0:	398cb03a 	or	r6,r7,r6
    64d4:	0005883a 	mov	r2,zero
    64d8:	003f3706 	br	61b8 <__alt_mem_VGA_Subsystem_Char_Buf_Subsystem_Onchip_SRAM+0xf70061b8>
    64dc:	80002a26 	beq	r16,zero,6588 <__subdf3+0x534>
    64e0:	0101ffc4 	movi	r4,2047
    64e4:	49006626 	beq	r9,r4,6680 <__subdf3+0x62c>
    64e8:	0085c83a 	sub	r2,zero,r2
    64ec:	18c02034 	orhi	r3,r3,128
    64f0:	01000e04 	movi	r4,56
    64f4:	20807e16 	blt	r4,r2,66f0 <__subdf3+0x69c>
    64f8:	010007c4 	movi	r4,31
    64fc:	2080e716 	blt	r4,r2,689c <__subdf3+0x848>
    6500:	01000804 	movi	r4,32
    6504:	2089c83a 	sub	r4,r4,r2
    6508:	1914983a 	sll	r10,r3,r4
    650c:	8890d83a 	srl	r8,r17,r2
    6510:	8908983a 	sll	r4,r17,r4
    6514:	1884d83a 	srl	r2,r3,r2
    6518:	5222b03a 	or	r17,r10,r8
    651c:	2006c03a 	cmpne	r3,r4,zero
    6520:	88e2b03a 	or	r17,r17,r3
    6524:	3463c83a 	sub	r17,r6,r17
    6528:	2885c83a 	sub	r2,r5,r2
    652c:	344d803a 	cmpltu	r6,r6,r17
    6530:	1187c83a 	sub	r3,r2,r6
    6534:	4821883a 	mov	r16,r9
    6538:	3825883a 	mov	r18,r7
    653c:	003f2306 	br	61cc <__alt_mem_VGA_Subsystem_Char_Buf_Subsystem_Onchip_SRAM+0xf70061cc>
    6540:	24d0b03a 	or	r8,r4,r19
    6544:	40001b1e 	bne	r8,zero,65b4 <__subdf3+0x560>
    6548:	0005883a 	mov	r2,zero
    654c:	0009883a 	mov	r4,zero
    6550:	0021883a 	mov	r16,zero
    6554:	003f4906 	br	627c <__alt_mem_VGA_Subsystem_Char_Buf_Subsystem_Onchip_SRAM+0xf700627c>
    6558:	010007c4 	movi	r4,31
    655c:	20803a16 	blt	r4,r2,6648 <__subdf3+0x5f4>
    6560:	01000804 	movi	r4,32
    6564:	2089c83a 	sub	r4,r4,r2
    6568:	2912983a 	sll	r9,r5,r4
    656c:	3090d83a 	srl	r8,r6,r2
    6570:	3108983a 	sll	r4,r6,r4
    6574:	2884d83a 	srl	r2,r5,r2
    6578:	4a12b03a 	or	r9,r9,r8
    657c:	2008c03a 	cmpne	r4,r4,zero
    6580:	4912b03a 	or	r9,r9,r4
    6584:	003f4e06 	br	62c0 <__alt_mem_VGA_Subsystem_Char_Buf_Subsystem_Onchip_SRAM+0xf70062c0>
    6588:	1c48b03a 	or	r4,r3,r17
    658c:	20003c26 	beq	r4,zero,6680 <__subdf3+0x62c>
    6590:	0084303a 	nor	r2,zero,r2
    6594:	1000381e 	bne	r2,zero,6678 <__subdf3+0x624>
    6598:	3463c83a 	sub	r17,r6,r17
    659c:	28c5c83a 	sub	r2,r5,r3
    65a0:	344d803a 	cmpltu	r6,r6,r17
    65a4:	1187c83a 	sub	r3,r2,r6
    65a8:	4821883a 	mov	r16,r9
    65ac:	3825883a 	mov	r18,r7
    65b0:	003f0606 	br	61cc <__alt_mem_VGA_Subsystem_Char_Buf_Subsystem_Onchip_SRAM+0xf70061cc>
    65b4:	2023883a 	mov	r17,r4
    65b8:	003f0906 	br	61e0 <__alt_mem_VGA_Subsystem_Char_Buf_Subsystem_Onchip_SRAM+0xf70061e0>
    65bc:	0101ffc4 	movi	r4,2047
    65c0:	813f3a1e 	bne	r16,r4,62ac <__alt_mem_VGA_Subsystem_Char_Buf_Subsystem_Onchip_SRAM+0xf70062ac>
    65c4:	003ec406 	br	60d8 <__alt_mem_VGA_Subsystem_Char_Buf_Subsystem_Onchip_SRAM+0xf70060d8>
    65c8:	0005883a 	mov	r2,zero
    65cc:	003fb106 	br	6494 <__alt_mem_VGA_Subsystem_Char_Buf_Subsystem_Onchip_SRAM+0xf7006494>
    65d0:	0005883a 	mov	r2,zero
    65d4:	003fbc06 	br	64c8 <__alt_mem_VGA_Subsystem_Char_Buf_Subsystem_Onchip_SRAM+0xf70064c8>
    65d8:	1c44b03a 	or	r2,r3,r17
    65dc:	80008e1e 	bne	r16,zero,6818 <__subdf3+0x7c4>
    65e0:	1000c826 	beq	r2,zero,6904 <__subdf3+0x8b0>
    65e4:	2984b03a 	or	r2,r5,r6
    65e8:	103ebb26 	beq	r2,zero,60d8 <__alt_mem_VGA_Subsystem_Char_Buf_Subsystem_Onchip_SRAM+0xf70060d8>
    65ec:	8989883a 	add	r4,r17,r6
    65f0:	1945883a 	add	r2,r3,r5
    65f4:	2447803a 	cmpltu	r3,r4,r17
    65f8:	1887883a 	add	r3,r3,r2
    65fc:	1880202c 	andhi	r2,r3,128
    6600:	2023883a 	mov	r17,r4
    6604:	103f1626 	beq	r2,zero,6260 <__alt_mem_VGA_Subsystem_Char_Buf_Subsystem_Onchip_SRAM+0xf7006260>
    6608:	00bfe034 	movhi	r2,65408
    660c:	10bfffc4 	addi	r2,r2,-1
    6610:	5021883a 	mov	r16,r10
    6614:	1886703a 	and	r3,r3,r2
    6618:	003eaf06 	br	60d8 <__alt_mem_VGA_Subsystem_Char_Buf_Subsystem_Onchip_SRAM+0xf70060d8>
    661c:	3825883a 	mov	r18,r7
    6620:	003f0f06 	br	6260 <__alt_mem_VGA_Subsystem_Char_Buf_Subsystem_Onchip_SRAM+0xf7006260>
    6624:	1c44b03a 	or	r2,r3,r17
    6628:	8000251e 	bne	r16,zero,66c0 <__subdf3+0x66c>
    662c:	1000661e 	bne	r2,zero,67c8 <__subdf3+0x774>
    6630:	2990b03a 	or	r8,r5,r6
    6634:	40009626 	beq	r8,zero,6890 <__subdf3+0x83c>
    6638:	2807883a 	mov	r3,r5
    663c:	3023883a 	mov	r17,r6
    6640:	3825883a 	mov	r18,r7
    6644:	003ea406 	br	60d8 <__alt_mem_VGA_Subsystem_Char_Buf_Subsystem_Onchip_SRAM+0xf70060d8>
    6648:	127ff804 	addi	r9,r2,-32
    664c:	01000804 	movi	r4,32
    6650:	2a52d83a 	srl	r9,r5,r9
    6654:	11008c26 	beq	r2,r4,6888 <__subdf3+0x834>
    6658:	01001004 	movi	r4,64
    665c:	2085c83a 	sub	r2,r4,r2
    6660:	2884983a 	sll	r2,r5,r2
    6664:	118cb03a 	or	r6,r2,r6
    6668:	300cc03a 	cmpne	r6,r6,zero
    666c:	4992b03a 	or	r9,r9,r6
    6670:	0005883a 	mov	r2,zero
    6674:	003f1206 	br	62c0 <__alt_mem_VGA_Subsystem_Char_Buf_Subsystem_Onchip_SRAM+0xf70062c0>
    6678:	0101ffc4 	movi	r4,2047
    667c:	493f9c1e 	bne	r9,r4,64f0 <__alt_mem_VGA_Subsystem_Char_Buf_Subsystem_Onchip_SRAM+0xf70064f0>
    6680:	2807883a 	mov	r3,r5
    6684:	3023883a 	mov	r17,r6
    6688:	4821883a 	mov	r16,r9
    668c:	3825883a 	mov	r18,r7
    6690:	003e9106 	br	60d8 <__alt_mem_VGA_Subsystem_Char_Buf_Subsystem_Onchip_SRAM+0xf70060d8>
    6694:	80001f1e 	bne	r16,zero,6714 <__subdf3+0x6c0>
    6698:	1c48b03a 	or	r4,r3,r17
    669c:	20005a26 	beq	r4,zero,6808 <__subdf3+0x7b4>
    66a0:	0084303a 	nor	r2,zero,r2
    66a4:	1000561e 	bne	r2,zero,6800 <__subdf3+0x7ac>
    66a8:	89a3883a 	add	r17,r17,r6
    66ac:	1945883a 	add	r2,r3,r5
    66b0:	898d803a 	cmpltu	r6,r17,r6
    66b4:	3087883a 	add	r3,r6,r2
    66b8:	4821883a 	mov	r16,r9
    66bc:	003f0506 	br	62d4 <__alt_mem_VGA_Subsystem_Char_Buf_Subsystem_Onchip_SRAM+0xf70062d4>
    66c0:	10002b1e 	bne	r2,zero,6770 <__subdf3+0x71c>
    66c4:	2984b03a 	or	r2,r5,r6
    66c8:	10008026 	beq	r2,zero,68cc <__subdf3+0x878>
    66cc:	2807883a 	mov	r3,r5
    66d0:	3023883a 	mov	r17,r6
    66d4:	3825883a 	mov	r18,r7
    66d8:	0401ffc4 	movi	r16,2047
    66dc:	003e7e06 	br	60d8 <__alt_mem_VGA_Subsystem_Char_Buf_Subsystem_Onchip_SRAM+0xf70060d8>
    66e0:	3809883a 	mov	r4,r7
    66e4:	0011883a 	mov	r8,zero
    66e8:	0005883a 	mov	r2,zero
    66ec:	003ee306 	br	627c <__alt_mem_VGA_Subsystem_Char_Buf_Subsystem_Onchip_SRAM+0xf700627c>
    66f0:	1c62b03a 	or	r17,r3,r17
    66f4:	8822c03a 	cmpne	r17,r17,zero
    66f8:	0005883a 	mov	r2,zero
    66fc:	003f8906 	br	6524 <__alt_mem_VGA_Subsystem_Char_Buf_Subsystem_Onchip_SRAM+0xf7006524>
    6700:	3809883a 	mov	r4,r7
    6704:	4821883a 	mov	r16,r9
    6708:	0011883a 	mov	r8,zero
    670c:	0005883a 	mov	r2,zero
    6710:	003eda06 	br	627c <__alt_mem_VGA_Subsystem_Char_Buf_Subsystem_Onchip_SRAM+0xf700627c>
    6714:	0101ffc4 	movi	r4,2047
    6718:	49003b26 	beq	r9,r4,6808 <__subdf3+0x7b4>
    671c:	0085c83a 	sub	r2,zero,r2
    6720:	18c02034 	orhi	r3,r3,128
    6724:	01000e04 	movi	r4,56
    6728:	20806e16 	blt	r4,r2,68e4 <__subdf3+0x890>
    672c:	010007c4 	movi	r4,31
    6730:	20807716 	blt	r4,r2,6910 <__subdf3+0x8bc>
    6734:	01000804 	movi	r4,32
    6738:	2089c83a 	sub	r4,r4,r2
    673c:	1914983a 	sll	r10,r3,r4
    6740:	8890d83a 	srl	r8,r17,r2
    6744:	8908983a 	sll	r4,r17,r4
    6748:	1884d83a 	srl	r2,r3,r2
    674c:	5222b03a 	or	r17,r10,r8
    6750:	2006c03a 	cmpne	r3,r4,zero
    6754:	88e2b03a 	or	r17,r17,r3
    6758:	89a3883a 	add	r17,r17,r6
    675c:	1145883a 	add	r2,r2,r5
    6760:	898d803a 	cmpltu	r6,r17,r6
    6764:	3087883a 	add	r3,r6,r2
    6768:	4821883a 	mov	r16,r9
    676c:	003ed906 	br	62d4 <__alt_mem_VGA_Subsystem_Char_Buf_Subsystem_Onchip_SRAM+0xf70062d4>
    6770:	2984b03a 	or	r2,r5,r6
    6774:	10004226 	beq	r2,zero,6880 <__subdf3+0x82c>
    6778:	1808d0fa 	srli	r4,r3,3
    677c:	8822d0fa 	srli	r17,r17,3
    6780:	1806977a 	slli	r3,r3,29
    6784:	2080022c 	andhi	r2,r4,8
    6788:	1c62b03a 	or	r17,r3,r17
    678c:	10000826 	beq	r2,zero,67b0 <__subdf3+0x75c>
    6790:	2812d0fa 	srli	r9,r5,3
    6794:	4880022c 	andhi	r2,r9,8
    6798:	1000051e 	bne	r2,zero,67b0 <__subdf3+0x75c>
    679c:	300cd0fa 	srli	r6,r6,3
    67a0:	2804977a 	slli	r2,r5,29
    67a4:	4809883a 	mov	r4,r9
    67a8:	3825883a 	mov	r18,r7
    67ac:	11a2b03a 	or	r17,r2,r6
    67b0:	8806d77a 	srli	r3,r17,29
    67b4:	200890fa 	slli	r4,r4,3
    67b8:	882290fa 	slli	r17,r17,3
    67bc:	0401ffc4 	movi	r16,2047
    67c0:	1906b03a 	or	r3,r3,r4
    67c4:	003e4406 	br	60d8 <__alt_mem_VGA_Subsystem_Char_Buf_Subsystem_Onchip_SRAM+0xf70060d8>
    67c8:	2984b03a 	or	r2,r5,r6
    67cc:	103e4226 	beq	r2,zero,60d8 <__alt_mem_VGA_Subsystem_Char_Buf_Subsystem_Onchip_SRAM+0xf70060d8>
    67d0:	8989c83a 	sub	r4,r17,r6
    67d4:	8911803a 	cmpltu	r8,r17,r4
    67d8:	1945c83a 	sub	r2,r3,r5
    67dc:	1205c83a 	sub	r2,r2,r8
    67e0:	1200202c 	andhi	r8,r2,128
    67e4:	403e9a26 	beq	r8,zero,6250 <__alt_mem_VGA_Subsystem_Char_Buf_Subsystem_Onchip_SRAM+0xf7006250>
    67e8:	3463c83a 	sub	r17,r6,r17
    67ec:	28c5c83a 	sub	r2,r5,r3
    67f0:	344d803a 	cmpltu	r6,r6,r17
    67f4:	1187c83a 	sub	r3,r2,r6
    67f8:	3825883a 	mov	r18,r7
    67fc:	003e3606 	br	60d8 <__alt_mem_VGA_Subsystem_Char_Buf_Subsystem_Onchip_SRAM+0xf70060d8>
    6800:	0101ffc4 	movi	r4,2047
    6804:	493fc71e 	bne	r9,r4,6724 <__alt_mem_VGA_Subsystem_Char_Buf_Subsystem_Onchip_SRAM+0xf7006724>
    6808:	2807883a 	mov	r3,r5
    680c:	3023883a 	mov	r17,r6
    6810:	4821883a 	mov	r16,r9
    6814:	003e3006 	br	60d8 <__alt_mem_VGA_Subsystem_Char_Buf_Subsystem_Onchip_SRAM+0xf70060d8>
    6818:	10003626 	beq	r2,zero,68f4 <__subdf3+0x8a0>
    681c:	2984b03a 	or	r2,r5,r6
    6820:	10001726 	beq	r2,zero,6880 <__subdf3+0x82c>
    6824:	1808d0fa 	srli	r4,r3,3
    6828:	8822d0fa 	srli	r17,r17,3
    682c:	1806977a 	slli	r3,r3,29
    6830:	2080022c 	andhi	r2,r4,8
    6834:	1c62b03a 	or	r17,r3,r17
    6838:	10000726 	beq	r2,zero,6858 <__subdf3+0x804>
    683c:	2812d0fa 	srli	r9,r5,3
    6840:	4880022c 	andhi	r2,r9,8
    6844:	1000041e 	bne	r2,zero,6858 <__subdf3+0x804>
    6848:	300cd0fa 	srli	r6,r6,3
    684c:	2804977a 	slli	r2,r5,29
    6850:	4809883a 	mov	r4,r9
    6854:	11a2b03a 	or	r17,r2,r6
    6858:	8806d77a 	srli	r3,r17,29
    685c:	200890fa 	slli	r4,r4,3
    6860:	882290fa 	slli	r17,r17,3
    6864:	3825883a 	mov	r18,r7
    6868:	1906b03a 	or	r3,r3,r4
    686c:	0401ffc4 	movi	r16,2047
    6870:	003e1906 	br	60d8 <__alt_mem_VGA_Subsystem_Char_Buf_Subsystem_Onchip_SRAM+0xf70060d8>
    6874:	000b883a 	mov	r5,zero
    6878:	0005883a 	mov	r2,zero
    687c:	003e2e06 	br	6138 <__alt_mem_VGA_Subsystem_Char_Buf_Subsystem_Onchip_SRAM+0xf7006138>
    6880:	0401ffc4 	movi	r16,2047
    6884:	003e1406 	br	60d8 <__alt_mem_VGA_Subsystem_Char_Buf_Subsystem_Onchip_SRAM+0xf70060d8>
    6888:	0005883a 	mov	r2,zero
    688c:	003f7506 	br	6664 <__alt_mem_VGA_Subsystem_Char_Buf_Subsystem_Onchip_SRAM+0xf7006664>
    6890:	0005883a 	mov	r2,zero
    6894:	0009883a 	mov	r4,zero
    6898:	003e7806 	br	627c <__alt_mem_VGA_Subsystem_Char_Buf_Subsystem_Onchip_SRAM+0xf700627c>
    689c:	123ff804 	addi	r8,r2,-32
    68a0:	01000804 	movi	r4,32
    68a4:	1a10d83a 	srl	r8,r3,r8
    68a8:	11002526 	beq	r2,r4,6940 <__subdf3+0x8ec>
    68ac:	01001004 	movi	r4,64
    68b0:	2085c83a 	sub	r2,r4,r2
    68b4:	1884983a 	sll	r2,r3,r2
    68b8:	1444b03a 	or	r2,r2,r17
    68bc:	1004c03a 	cmpne	r2,r2,zero
    68c0:	40a2b03a 	or	r17,r8,r2
    68c4:	0005883a 	mov	r2,zero
    68c8:	003f1606 	br	6524 <__alt_mem_VGA_Subsystem_Char_Buf_Subsystem_Onchip_SRAM+0xf7006524>
    68cc:	02000434 	movhi	r8,16
    68d0:	0009883a 	mov	r4,zero
    68d4:	423fffc4 	addi	r8,r8,-1
    68d8:	00bfffc4 	movi	r2,-1
    68dc:	0401ffc4 	movi	r16,2047
    68e0:	003e6606 	br	627c <__alt_mem_VGA_Subsystem_Char_Buf_Subsystem_Onchip_SRAM+0xf700627c>
    68e4:	1c62b03a 	or	r17,r3,r17
    68e8:	8822c03a 	cmpne	r17,r17,zero
    68ec:	0005883a 	mov	r2,zero
    68f0:	003f9906 	br	6758 <__alt_mem_VGA_Subsystem_Char_Buf_Subsystem_Onchip_SRAM+0xf7006758>
    68f4:	2807883a 	mov	r3,r5
    68f8:	3023883a 	mov	r17,r6
    68fc:	0401ffc4 	movi	r16,2047
    6900:	003df506 	br	60d8 <__alt_mem_VGA_Subsystem_Char_Buf_Subsystem_Onchip_SRAM+0xf70060d8>
    6904:	2807883a 	mov	r3,r5
    6908:	3023883a 	mov	r17,r6
    690c:	003df206 	br	60d8 <__alt_mem_VGA_Subsystem_Char_Buf_Subsystem_Onchip_SRAM+0xf70060d8>
    6910:	123ff804 	addi	r8,r2,-32
    6914:	01000804 	movi	r4,32
    6918:	1a10d83a 	srl	r8,r3,r8
    691c:	11000a26 	beq	r2,r4,6948 <__subdf3+0x8f4>
    6920:	01001004 	movi	r4,64
    6924:	2085c83a 	sub	r2,r4,r2
    6928:	1884983a 	sll	r2,r3,r2
    692c:	1444b03a 	or	r2,r2,r17
    6930:	1004c03a 	cmpne	r2,r2,zero
    6934:	40a2b03a 	or	r17,r8,r2
    6938:	0005883a 	mov	r2,zero
    693c:	003f8606 	br	6758 <__alt_mem_VGA_Subsystem_Char_Buf_Subsystem_Onchip_SRAM+0xf7006758>
    6940:	0005883a 	mov	r2,zero
    6944:	003fdc06 	br	68b8 <__alt_mem_VGA_Subsystem_Char_Buf_Subsystem_Onchip_SRAM+0xf70068b8>
    6948:	0005883a 	mov	r2,zero
    694c:	003ff706 	br	692c <__alt_mem_VGA_Subsystem_Char_Buf_Subsystem_Onchip_SRAM+0xf700692c>

00006950 <__fixdfsi>:
    6950:	280cd53a 	srli	r6,r5,20
    6954:	00c00434 	movhi	r3,16
    6958:	18ffffc4 	addi	r3,r3,-1
    695c:	3181ffcc 	andi	r6,r6,2047
    6960:	01c0ff84 	movi	r7,1022
    6964:	28c6703a 	and	r3,r5,r3
    6968:	280ad7fa 	srli	r5,r5,31
    696c:	3980120e 	bge	r7,r6,69b8 <__fixdfsi+0x68>
    6970:	00810744 	movi	r2,1053
    6974:	11800c16 	blt	r2,r6,69a8 <__fixdfsi+0x58>
    6978:	00810cc4 	movi	r2,1075
    697c:	1185c83a 	sub	r2,r2,r6
    6980:	01c007c4 	movi	r7,31
    6984:	18c00434 	orhi	r3,r3,16
    6988:	38800d16 	blt	r7,r2,69c0 <__fixdfsi+0x70>
    698c:	31befb44 	addi	r6,r6,-1043
    6990:	2084d83a 	srl	r2,r4,r2
    6994:	1986983a 	sll	r3,r3,r6
    6998:	1884b03a 	or	r2,r3,r2
    699c:	28000726 	beq	r5,zero,69bc <__fixdfsi+0x6c>
    69a0:	0085c83a 	sub	r2,zero,r2
    69a4:	f800283a 	ret
    69a8:	00a00034 	movhi	r2,32768
    69ac:	10bfffc4 	addi	r2,r2,-1
    69b0:	2885883a 	add	r2,r5,r2
    69b4:	f800283a 	ret
    69b8:	0005883a 	mov	r2,zero
    69bc:	f800283a 	ret
    69c0:	008104c4 	movi	r2,1043
    69c4:	1185c83a 	sub	r2,r2,r6
    69c8:	1884d83a 	srl	r2,r3,r2
    69cc:	003ff306 	br	699c <__alt_mem_VGA_Subsystem_Char_Buf_Subsystem_Onchip_SRAM+0xf700699c>

000069d0 <__floatsidf>:
    69d0:	defffd04 	addi	sp,sp,-12
    69d4:	dfc00215 	stw	ra,8(sp)
    69d8:	dc400115 	stw	r17,4(sp)
    69dc:	dc000015 	stw	r16,0(sp)
    69e0:	20002b26 	beq	r4,zero,6a90 <__floatsidf+0xc0>
    69e4:	2023883a 	mov	r17,r4
    69e8:	2020d7fa 	srli	r16,r4,31
    69ec:	20002d16 	blt	r4,zero,6aa4 <__floatsidf+0xd4>
    69f0:	8809883a 	mov	r4,r17
    69f4:	0006b540 	call	6b54 <__clzsi2>
    69f8:	01410784 	movi	r5,1054
    69fc:	288bc83a 	sub	r5,r5,r2
    6a00:	01010cc4 	movi	r4,1075
    6a04:	2149c83a 	sub	r4,r4,r5
    6a08:	00c007c4 	movi	r3,31
    6a0c:	1900160e 	bge	r3,r4,6a68 <__floatsidf+0x98>
    6a10:	00c104c4 	movi	r3,1043
    6a14:	1947c83a 	sub	r3,r3,r5
    6a18:	88c6983a 	sll	r3,r17,r3
    6a1c:	00800434 	movhi	r2,16
    6a20:	10bfffc4 	addi	r2,r2,-1
    6a24:	1886703a 	and	r3,r3,r2
    6a28:	2941ffcc 	andi	r5,r5,2047
    6a2c:	800d883a 	mov	r6,r16
    6a30:	0005883a 	mov	r2,zero
    6a34:	280a953a 	slli	r5,r5,20
    6a38:	31803fcc 	andi	r6,r6,255
    6a3c:	01000434 	movhi	r4,16
    6a40:	300c97fa 	slli	r6,r6,31
    6a44:	213fffc4 	addi	r4,r4,-1
    6a48:	1906703a 	and	r3,r3,r4
    6a4c:	1946b03a 	or	r3,r3,r5
    6a50:	1986b03a 	or	r3,r3,r6
    6a54:	dfc00217 	ldw	ra,8(sp)
    6a58:	dc400117 	ldw	r17,4(sp)
    6a5c:	dc000017 	ldw	r16,0(sp)
    6a60:	dec00304 	addi	sp,sp,12
    6a64:	f800283a 	ret
    6a68:	00c002c4 	movi	r3,11
    6a6c:	1887c83a 	sub	r3,r3,r2
    6a70:	88c6d83a 	srl	r3,r17,r3
    6a74:	8904983a 	sll	r2,r17,r4
    6a78:	01000434 	movhi	r4,16
    6a7c:	213fffc4 	addi	r4,r4,-1
    6a80:	2941ffcc 	andi	r5,r5,2047
    6a84:	1906703a 	and	r3,r3,r4
    6a88:	800d883a 	mov	r6,r16
    6a8c:	003fe906 	br	6a34 <__alt_mem_VGA_Subsystem_Char_Buf_Subsystem_Onchip_SRAM+0xf7006a34>
    6a90:	000d883a 	mov	r6,zero
    6a94:	000b883a 	mov	r5,zero
    6a98:	0007883a 	mov	r3,zero
    6a9c:	0005883a 	mov	r2,zero
    6aa0:	003fe406 	br	6a34 <__alt_mem_VGA_Subsystem_Char_Buf_Subsystem_Onchip_SRAM+0xf7006a34>
    6aa4:	0123c83a 	sub	r17,zero,r4
    6aa8:	003fd106 	br	69f0 <__alt_mem_VGA_Subsystem_Char_Buf_Subsystem_Onchip_SRAM+0xf70069f0>

00006aac <__floatunsidf>:
    6aac:	defffe04 	addi	sp,sp,-8
    6ab0:	dc000015 	stw	r16,0(sp)
    6ab4:	dfc00115 	stw	ra,4(sp)
    6ab8:	2021883a 	mov	r16,r4
    6abc:	20002226 	beq	r4,zero,6b48 <__floatunsidf+0x9c>
    6ac0:	0006b540 	call	6b54 <__clzsi2>
    6ac4:	01010784 	movi	r4,1054
    6ac8:	2089c83a 	sub	r4,r4,r2
    6acc:	01810cc4 	movi	r6,1075
    6ad0:	310dc83a 	sub	r6,r6,r4
    6ad4:	00c007c4 	movi	r3,31
    6ad8:	1980120e 	bge	r3,r6,6b24 <__floatunsidf+0x78>
    6adc:	00c104c4 	movi	r3,1043
    6ae0:	1907c83a 	sub	r3,r3,r4
    6ae4:	80ca983a 	sll	r5,r16,r3
    6ae8:	00800434 	movhi	r2,16
    6aec:	10bfffc4 	addi	r2,r2,-1
    6af0:	2101ffcc 	andi	r4,r4,2047
    6af4:	0021883a 	mov	r16,zero
    6af8:	288a703a 	and	r5,r5,r2
    6afc:	2008953a 	slli	r4,r4,20
    6b00:	00c00434 	movhi	r3,16
    6b04:	18ffffc4 	addi	r3,r3,-1
    6b08:	28c6703a 	and	r3,r5,r3
    6b0c:	8005883a 	mov	r2,r16
    6b10:	1906b03a 	or	r3,r3,r4
    6b14:	dfc00117 	ldw	ra,4(sp)
    6b18:	dc000017 	ldw	r16,0(sp)
    6b1c:	dec00204 	addi	sp,sp,8
    6b20:	f800283a 	ret
    6b24:	00c002c4 	movi	r3,11
    6b28:	188bc83a 	sub	r5,r3,r2
    6b2c:	814ad83a 	srl	r5,r16,r5
    6b30:	00c00434 	movhi	r3,16
    6b34:	18ffffc4 	addi	r3,r3,-1
    6b38:	81a0983a 	sll	r16,r16,r6
    6b3c:	2101ffcc 	andi	r4,r4,2047
    6b40:	28ca703a 	and	r5,r5,r3
    6b44:	003fed06 	br	6afc <__alt_mem_VGA_Subsystem_Char_Buf_Subsystem_Onchip_SRAM+0xf7006afc>
    6b48:	0009883a 	mov	r4,zero
    6b4c:	000b883a 	mov	r5,zero
    6b50:	003fea06 	br	6afc <__alt_mem_VGA_Subsystem_Char_Buf_Subsystem_Onchip_SRAM+0xf7006afc>

00006b54 <__clzsi2>:
    6b54:	00bfffd4 	movui	r2,65535
    6b58:	11000536 	bltu	r2,r4,6b70 <__clzsi2+0x1c>
    6b5c:	00803fc4 	movi	r2,255
    6b60:	11000f36 	bltu	r2,r4,6ba0 <__clzsi2+0x4c>
    6b64:	00800804 	movi	r2,32
    6b68:	0007883a 	mov	r3,zero
    6b6c:	00000506 	br	6b84 <__clzsi2+0x30>
    6b70:	00804034 	movhi	r2,256
    6b74:	10bfffc4 	addi	r2,r2,-1
    6b78:	11000c2e 	bgeu	r2,r4,6bac <__clzsi2+0x58>
    6b7c:	00800204 	movi	r2,8
    6b80:	00c00604 	movi	r3,24
    6b84:	20c8d83a 	srl	r4,r4,r3
    6b88:	00c00074 	movhi	r3,1
    6b8c:	18e64704 	addi	r3,r3,-26340
    6b90:	1909883a 	add	r4,r3,r4
    6b94:	20c00003 	ldbu	r3,0(r4)
    6b98:	10c5c83a 	sub	r2,r2,r3
    6b9c:	f800283a 	ret
    6ba0:	00800604 	movi	r2,24
    6ba4:	00c00204 	movi	r3,8
    6ba8:	003ff606 	br	6b84 <__alt_mem_VGA_Subsystem_Char_Buf_Subsystem_Onchip_SRAM+0xf7006b84>
    6bac:	00800404 	movi	r2,16
    6bb0:	1007883a 	mov	r3,r2
    6bb4:	003ff306 	br	6b84 <__alt_mem_VGA_Subsystem_Char_Buf_Subsystem_Onchip_SRAM+0xf7006b84>

00006bb8 <alt_load_section>:
 */

static void ALT_INLINE alt_load_section (alt_u32* from, 
                                         alt_u32* to, 
                                         alt_u32* end)
{
    6bb8:	defffc04 	addi	sp,sp,-16
    6bbc:	df000315 	stw	fp,12(sp)
    6bc0:	df000304 	addi	fp,sp,12
    6bc4:	e13ffd15 	stw	r4,-12(fp)
    6bc8:	e17ffe15 	stw	r5,-8(fp)
    6bcc:	e1bfff15 	stw	r6,-4(fp)
  if (to != from)
    6bd0:	e0fffe17 	ldw	r3,-8(fp)
    6bd4:	e0bffd17 	ldw	r2,-12(fp)
    6bd8:	18800c26 	beq	r3,r2,6c0c <alt_load_section+0x54>
  {
    while( to != end )
    6bdc:	00000806 	br	6c00 <alt_load_section+0x48>
    {
      *to++ = *from++;
    6be0:	e0bffe17 	ldw	r2,-8(fp)
    6be4:	10c00104 	addi	r3,r2,4
    6be8:	e0fffe15 	stw	r3,-8(fp)
    6bec:	e0fffd17 	ldw	r3,-12(fp)
    6bf0:	19000104 	addi	r4,r3,4
    6bf4:	e13ffd15 	stw	r4,-12(fp)
    6bf8:	18c00017 	ldw	r3,0(r3)
    6bfc:	10c00015 	stw	r3,0(r2)
                                         alt_u32* to, 
                                         alt_u32* end)
{
  if (to != from)
  {
    while( to != end )
    6c00:	e0fffe17 	ldw	r3,-8(fp)
    6c04:	e0bfff17 	ldw	r2,-4(fp)
    6c08:	18bff51e 	bne	r3,r2,6be0 <__alt_mem_VGA_Subsystem_Char_Buf_Subsystem_Onchip_SRAM+0xf7006be0>
    {
      *to++ = *from++;
    }
  }
}
    6c0c:	0001883a 	nop
    6c10:	e037883a 	mov	sp,fp
    6c14:	df000017 	ldw	fp,0(sp)
    6c18:	dec00104 	addi	sp,sp,4
    6c1c:	f800283a 	ret

00006c20 <alt_load>:
 * there is no bootloader, so this application is responsible for loading to
 * RAM any sections that are required.
 */  

void alt_load (void)
{
    6c20:	defffe04 	addi	sp,sp,-8
    6c24:	dfc00115 	stw	ra,4(sp)
    6c28:	df000015 	stw	fp,0(sp)
    6c2c:	d839883a 	mov	fp,sp
  /* 
   * Copy the .rwdata section. 
   */

  alt_load_section (&__flash_rwdata_start, 
    6c30:	01800074 	movhi	r6,1
    6c34:	31ac8d04 	addi	r6,r6,-19916
    6c38:	01400074 	movhi	r5,1
    6c3c:	2966b404 	addi	r5,r5,-25904
    6c40:	01000074 	movhi	r4,1
    6c44:	212c8d04 	addi	r4,r4,-19916
    6c48:	0006bb80 	call	6bb8 <alt_load_section>

  /*
   * Copy the exception handler.
   */

  alt_load_section (&__flash_exceptions_start, 
    6c4c:	01800034 	movhi	r6,0
    6c50:	31808c04 	addi	r6,r6,560
    6c54:	01400034 	movhi	r5,0
    6c58:	29400804 	addi	r5,r5,32
    6c5c:	01000034 	movhi	r4,0
    6c60:	21000804 	addi	r4,r4,32
    6c64:	0006bb80 	call	6bb8 <alt_load_section>

  /*
   * Copy the .rodata section.
   */

  alt_load_section (&__flash_rodata_start, 
    6c68:	01800074 	movhi	r6,1
    6c6c:	31a6b404 	addi	r6,r6,-25904
    6c70:	01400074 	movhi	r5,1
    6c74:	29659704 	addi	r5,r5,-27044
    6c78:	01000074 	movhi	r4,1
    6c7c:	21259704 	addi	r4,r4,-27044
    6c80:	0006bb80 	call	6bb8 <alt_load_section>
  
  /*
   * Now ensure that the caches are in synch.
   */
  
  alt_dcache_flush_all();
    6c84:	00083140 	call	8314 <alt_dcache_flush_all>
  alt_icache_flush_all();
    6c88:	00085000 	call	8500 <alt_icache_flush_all>
}
    6c8c:	0001883a 	nop
    6c90:	e037883a 	mov	sp,fp
    6c94:	dfc00117 	ldw	ra,4(sp)
    6c98:	df000017 	ldw	fp,0(sp)
    6c9c:	dec00204 	addi	sp,sp,8
    6ca0:	f800283a 	ret

00006ca4 <alt_main>:
 * devices/filesystems/components in the system; and call the entry point for
 * the users application, i.e. main().
 */

void alt_main (void)
{
    6ca4:	defffd04 	addi	sp,sp,-12
    6ca8:	dfc00215 	stw	ra,8(sp)
    6cac:	df000115 	stw	fp,4(sp)
    6cb0:	df000104 	addi	fp,sp,4
#endif

  /* ALT LOG - please see HAL/sys/alt_log_printf.h for details */
  ALT_LOG_PRINT_BOOT("[alt_main.c] Entering alt_main, calling alt_irq_init.\r\n");
  /* Initialize the interrupt controller. */
  alt_irq_init (NULL);
    6cb4:	0009883a 	mov	r4,zero
    6cb8:	0006d840 	call	6d84 <alt_irq_init>

  /* Initialize the operating system */
  ALT_LOG_PRINT_BOOT("[alt_main.c] Done alt_irq_init, calling alt_os_init.\r\n");
  ALT_OS_INIT();
    6cbc:	0001883a 	nop
  ALT_LOG_PRINT_BOOT("[alt_main.c] Done OS Init, calling alt_sem_create.\r\n");
  ALT_SEM_CREATE (&alt_fd_list_lock, 1);

  /* Initialize the device drivers/software components. */
  ALT_LOG_PRINT_BOOT("[alt_main.c] Calling alt_sys_init.\r\n");
  alt_sys_init();
    6cc0:	0006dbc0 	call	6dbc <alt_sys_init>
   * devices be present (not equal to /dev/null) and if direct drivers
   * aren't being used.
   */

    ALT_LOG_PRINT_BOOT("[alt_main.c] Redirecting IO.\r\n");
    alt_io_redirect(ALT_STDOUT, ALT_STDIN, ALT_STDERR);
    6cc4:	01800074 	movhi	r6,1
    6cc8:	31a68704 	addi	r6,r6,-26084
    6ccc:	01400074 	movhi	r5,1
    6cd0:	29668704 	addi	r5,r5,-26084
    6cd4:	01000074 	movhi	r4,1
    6cd8:	21268704 	addi	r4,r4,-26084
    6cdc:	00088a40 	call	88a4 <alt_io_redirect>
  /* 
   * Call the C++ constructors 
   */

  ALT_LOG_PRINT_BOOT("[alt_main.c] Calling C++ constructors.\r\n");
  _do_ctors ();
    6ce0:	00084400 	call	8440 <_do_ctors>
   * redefined as _exit()). This is in the interest of reducing code footprint,
   * in that the atexit() overhead is removed when it's not needed.
   */

  ALT_LOG_PRINT_BOOT("[alt_main.c] Calling atexit.\r\n");
  atexit (_do_dtors);
    6ce4:	01000074 	movhi	r4,1
    6ce8:	21212804 	addi	r4,r4,-31584
    6cec:	00090e80 	call	90e8 <atexit>
  ALT_LOG_PRINT_BOOT("[alt_main.c] Calling main.\r\n");

#ifdef ALT_NO_EXIT
  main (alt_argc, alt_argv, alt_envp);
#else
  result = main (alt_argc, alt_argv, alt_envp);
    6cf0:	d0a5ef17 	ldw	r2,-26692(gp)
    6cf4:	d0e5f017 	ldw	r3,-26688(gp)
    6cf8:	d125f117 	ldw	r4,-26684(gp)
    6cfc:	200d883a 	mov	r6,r4
    6d00:	180b883a 	mov	r5,r3
    6d04:	1009883a 	mov	r4,r2
    6d08:	0001f440 	call	1f44 <main>
    6d0c:	e0bfff15 	stw	r2,-4(fp)
  close(STDOUT_FILENO);
    6d10:	01000044 	movi	r4,1
    6d14:	000823c0 	call	823c <close>
  exit (result);
    6d18:	e13fff17 	ldw	r4,-4(fp)
    6d1c:	00090fc0 	call	90fc <exit>

00006d20 <usleep>:
#if defined (__GNUC__) && __GNUC__ >= 4
int ALT_USLEEP (useconds_t us)
#else
unsigned int ALT_USLEEP (unsigned int us)
#endif
{
    6d20:	defffd04 	addi	sp,sp,-12
    6d24:	dfc00215 	stw	ra,8(sp)
    6d28:	df000115 	stw	fp,4(sp)
    6d2c:	df000104 	addi	fp,sp,4
    6d30:	e13fff15 	stw	r4,-4(fp)
  return alt_busy_sleep(us);
    6d34:	e13fff17 	ldw	r4,-4(fp)
    6d38:	00080a80 	call	80a8 <alt_busy_sleep>
}
    6d3c:	e037883a 	mov	sp,fp
    6d40:	dfc00117 	ldw	ra,4(sp)
    6d44:	df000017 	ldw	fp,0(sp)
    6d48:	dec00204 	addi	sp,sp,8
    6d4c:	f800283a 	ret

00006d50 <alt_dev_reg>:
 */

extern int alt_fs_reg  (alt_dev* dev); 

static ALT_INLINE int alt_dev_reg (alt_dev* dev)
{
    6d50:	defffd04 	addi	sp,sp,-12
    6d54:	dfc00215 	stw	ra,8(sp)
    6d58:	df000115 	stw	fp,4(sp)
    6d5c:	df000104 	addi	fp,sp,4
    6d60:	e13fff15 	stw	r4,-4(fp)
  extern alt_llist alt_dev_list;

  return alt_dev_llist_insert ((alt_dev_llist*) dev, &alt_dev_list);
    6d64:	d1600604 	addi	r5,gp,-32744
    6d68:	e13fff17 	ldw	r4,-4(fp)
    6d6c:	000839c0 	call	839c <alt_dev_llist_insert>
}
    6d70:	e037883a 	mov	sp,fp
    6d74:	dfc00117 	ldw	ra,4(sp)
    6d78:	df000017 	ldw	fp,0(sp)
    6d7c:	dec00204 	addi	sp,sp,8
    6d80:	f800283a 	ret

00006d84 <alt_irq_init>:
 * The "base" parameter is ignored and only
 * present for backwards-compatibility.
 */

void alt_irq_init ( const void* base )
{
    6d84:	defffd04 	addi	sp,sp,-12
    6d88:	dfc00215 	stw	ra,8(sp)
    6d8c:	df000115 	stw	fp,4(sp)
    6d90:	df000104 	addi	fp,sp,4
    6d94:	e13fff15 	stw	r4,-4(fp)
    ALTERA_NIOS2_GEN2_IRQ_INIT ( NIOS2, Nios2);
    6d98:	0008dcc0 	call	8dcc <altera_nios2_gen2_irq_init>
 * alt_irq_cpu_enable_interrupts() enables the CPU to start taking interrupts.
 */
static ALT_INLINE void ALT_ALWAYS_INLINE 
       alt_irq_cpu_enable_interrupts (void)
{
    NIOS2_WRITE_STATUS(NIOS2_STATUS_PIE_MSK
    6d9c:	00800044 	movi	r2,1
    6da0:	1001703a 	wrctl	status,r2
    alt_irq_cpu_enable_interrupts();
}
    6da4:	0001883a 	nop
    6da8:	e037883a 	mov	sp,fp
    6dac:	dfc00117 	ldw	ra,4(sp)
    6db0:	df000017 	ldw	fp,0(sp)
    6db4:	dec00204 	addi	sp,sp,8
    6db8:	f800283a 	ret

00006dbc <alt_sys_init>:
 * Initialize the non-interrupt controller devices.
 * Called after alt_irq_init().
 */

void alt_sys_init( void )
{
    6dbc:	defffc04 	addi	sp,sp,-16
    6dc0:	dfc00315 	stw	ra,12(sp)
    6dc4:	df000215 	stw	fp,8(sp)
    6dc8:	df000204 	addi	fp,sp,8
    ALTERA_AVALON_TIMER_INIT ( INTERVAL_TIMER, Interval_Timer);
    6dcc:	01c00204 	movi	r7,8
    6dd0:	000d883a 	mov	r6,zero
    6dd4:	000b883a 	mov	r5,zero
    6dd8:	013fc834 	movhi	r4,65312
    6ddc:	21080004 	addi	r4,r4,8192
    6de0:	0007f000 	call	7f00 <alt_avalon_timer_sc_init>
    ALTERA_AVALON_TIMER_INIT ( INTERVAL_TIMER_2, Interval_Timer_2);
    ALTERA_AVALON_JTAG_UART_INIT ( JTAG_UART, JTAG_UART);
    6de4:	01800204 	movi	r6,8
    6de8:	000b883a 	mov	r5,zero
    6dec:	01000074 	movhi	r4,1
    6df0:	2126be04 	addi	r4,r4,-25864
    6df4:	00075840 	call	7584 <altera_avalon_jtag_uart_init>
    6df8:	01000074 	movhi	r4,1
    6dfc:	2126b404 	addi	r4,r4,-25904
    6e00:	0006d500 	call	6d50 <alt_dev_reg>
    ALTERA_AVALON_SYSID_QSYS_INIT ( SYSID, SysID);
    6e04:	0001883a 	nop
    ALTERA_UP_AVALON_VIDEO_DMA_CONTROLLER_INIT ( VGA_SUBSYSTEM_CHAR_BUF_SUBSYSTEM_CHAR_BUF_DMA, VGA_Subsystem_Char_Buf_Subsystem_Char_Buf_DMA);
    6e08:	00800074 	movhi	r2,1
    6e0c:	10aacc04 	addi	r2,r2,-21712
    6e10:	10800a17 	ldw	r2,40(r2)
    6e14:	10800017 	ldw	r2,0(r2)
    6e18:	1007883a 	mov	r3,r2
    6e1c:	00800074 	movhi	r2,1
    6e20:	10aacc04 	addi	r2,r2,-21712
    6e24:	10c00b15 	stw	r3,44(r2)
    6e28:	00800074 	movhi	r2,1
    6e2c:	10aacc04 	addi	r2,r2,-21712
    6e30:	10800a17 	ldw	r2,40(r2)
    6e34:	10800104 	addi	r2,r2,4
    6e38:	10800017 	ldw	r2,0(r2)
    6e3c:	1007883a 	mov	r3,r2
    6e40:	00800074 	movhi	r2,1
    6e44:	10aacc04 	addi	r2,r2,-21712
    6e48:	10c00c15 	stw	r3,48(r2)
    6e4c:	00800074 	movhi	r2,1
    6e50:	10aacc04 	addi	r2,r2,-21712
    6e54:	10800a17 	ldw	r2,40(r2)
    6e58:	10800204 	addi	r2,r2,8
    6e5c:	10800017 	ldw	r2,0(r2)
    6e60:	10ffffcc 	andi	r3,r2,65535
    6e64:	00800074 	movhi	r2,1
    6e68:	10aacc04 	addi	r2,r2,-21712
    6e6c:	10c01115 	stw	r3,68(r2)
    6e70:	00800074 	movhi	r2,1
    6e74:	10aacc04 	addi	r2,r2,-21712
    6e78:	10800a17 	ldw	r2,40(r2)
    6e7c:	10800204 	addi	r2,r2,8
    6e80:	10800017 	ldw	r2,0(r2)
    6e84:	1006d43a 	srli	r3,r2,16
    6e88:	00800074 	movhi	r2,1
    6e8c:	10aacc04 	addi	r2,r2,-21712
    6e90:	10c01215 	stw	r3,72(r2)
    6e94:	00800074 	movhi	r2,1
    6e98:	10aacc04 	addi	r2,r2,-21712
    6e9c:	10800a17 	ldw	r2,40(r2)
    6ea0:	10800304 	addi	r2,r2,12
    6ea4:	10800017 	ldw	r2,0(r2)
    6ea8:	1005d07a 	srai	r2,r2,1
    6eac:	10c0004c 	andi	r3,r2,1
    6eb0:	00800074 	movhi	r2,1
    6eb4:	10aacc04 	addi	r2,r2,-21712
    6eb8:	10c00d15 	stw	r3,52(r2)
    6ebc:	00800074 	movhi	r2,1
    6ec0:	10aacc04 	addi	r2,r2,-21712
    6ec4:	10800a17 	ldw	r2,40(r2)
    6ec8:	10800304 	addi	r2,r2,12
    6ecc:	10800017 	ldw	r2,0(r2)
    6ed0:	1005d23a 	srai	r2,r2,8
    6ed4:	108003cc 	andi	r2,r2,15
    6ed8:	10800044 	addi	r2,r2,1
    6edc:	1007883a 	mov	r3,r2
    6ee0:	00800074 	movhi	r2,1
    6ee4:	10aacc04 	addi	r2,r2,-21712
    6ee8:	10c00e15 	stw	r3,56(r2)
    6eec:	00800074 	movhi	r2,1
    6ef0:	10aacc04 	addi	r2,r2,-21712
    6ef4:	10800a17 	ldw	r2,40(r2)
    6ef8:	10800304 	addi	r2,r2,12
    6efc:	10800017 	ldw	r2,0(r2)
    6f00:	1005d1ba 	srai	r2,r2,6
    6f04:	108000cc 	andi	r2,r2,3
    6f08:	10800044 	addi	r2,r2,1
    6f0c:	1007883a 	mov	r3,r2
    6f10:	00800074 	movhi	r2,1
    6f14:	10aacc04 	addi	r2,r2,-21712
    6f18:	10c00f15 	stw	r3,60(r2)
    6f1c:	00800074 	movhi	r2,1
    6f20:	10aacc04 	addi	r2,r2,-21712
    6f24:	10800e17 	ldw	r2,56(r2)
    6f28:	1007883a 	mov	r3,r2
    6f2c:	00800074 	movhi	r2,1
    6f30:	10aacc04 	addi	r2,r2,-21712
    6f34:	10800f17 	ldw	r2,60(r2)
    6f38:	100b883a 	mov	r5,r2
    6f3c:	1809883a 	mov	r4,r3
    6f40:	00043e00 	call	43e0 <__mulsi3>
    6f44:	e0bffe05 	stb	r2,-8(fp)
    6f48:	e0bffe03 	ldbu	r2,-8(fp)
    6f4c:	10800268 	cmpgeui	r2,r2,9
    6f50:	1000051e 	bne	r2,zero,6f68 <alt_sys_init+0x1ac>
    6f54:	00800074 	movhi	r2,1
    6f58:	10aacc04 	addi	r2,r2,-21712
    6f5c:	00c00044 	movi	r3,1
    6f60:	10c01015 	stw	r3,64(r2)
    6f64:	00000c06 	br	6f98 <alt_sys_init+0x1dc>
    6f68:	e0bffe03 	ldbu	r2,-8(fp)
    6f6c:	10800468 	cmpgeui	r2,r2,17
    6f70:	1000051e 	bne	r2,zero,6f88 <alt_sys_init+0x1cc>
    6f74:	00800074 	movhi	r2,1
    6f78:	10aacc04 	addi	r2,r2,-21712
    6f7c:	00c00084 	movi	r3,2
    6f80:	10c01015 	stw	r3,64(r2)
    6f84:	00000406 	br	6f98 <alt_sys_init+0x1dc>
    6f88:	00800074 	movhi	r2,1
    6f8c:	10aacc04 	addi	r2,r2,-21712
    6f90:	00c00104 	movi	r3,4
    6f94:	10c01015 	stw	r3,64(r2)
    6f98:	00800074 	movhi	r2,1
    6f9c:	10aacc04 	addi	r2,r2,-21712
    6fa0:	10800a17 	ldw	r2,40(r2)
    6fa4:	10800304 	addi	r2,r2,12
    6fa8:	10800017 	ldw	r2,0(r2)
    6fac:	1005d43a 	srai	r2,r2,16
    6fb0:	e0bffe45 	stb	r2,-7(fp)
    6fb4:	00800074 	movhi	r2,1
    6fb8:	10aacc04 	addi	r2,r2,-21712
    6fbc:	10800a17 	ldw	r2,40(r2)
    6fc0:	10800304 	addi	r2,r2,12
    6fc4:	10800017 	ldw	r2,0(r2)
    6fc8:	1004d63a 	srli	r2,r2,24
    6fcc:	e0bffe85 	stb	r2,-6(fp)
    6fd0:	00800074 	movhi	r2,1
    6fd4:	10aacc04 	addi	r2,r2,-21712
    6fd8:	10801017 	ldw	r2,64(r2)
    6fdc:	10800058 	cmpnei	r2,r2,1
    6fe0:	1000041e 	bne	r2,zero,6ff4 <alt_sys_init+0x238>
    6fe4:	00800074 	movhi	r2,1
    6fe8:	10aacc04 	addi	r2,r2,-21712
    6fec:	10001315 	stw	zero,76(r2)
    6ff0:	00000e06 	br	702c <alt_sys_init+0x270>
    6ff4:	00800074 	movhi	r2,1
    6ff8:	10aacc04 	addi	r2,r2,-21712
    6ffc:	10801017 	ldw	r2,64(r2)
    7000:	10800098 	cmpnei	r2,r2,2
    7004:	1000051e 	bne	r2,zero,701c <alt_sys_init+0x260>
    7008:	00800074 	movhi	r2,1
    700c:	10aacc04 	addi	r2,r2,-21712
    7010:	00c00044 	movi	r3,1
    7014:	10c01315 	stw	r3,76(r2)
    7018:	00000406 	br	702c <alt_sys_init+0x270>
    701c:	00800074 	movhi	r2,1
    7020:	10aacc04 	addi	r2,r2,-21712
    7024:	00c00084 	movi	r3,2
    7028:	10c01315 	stw	r3,76(r2)
    702c:	e0bffe43 	ldbu	r2,-7(fp)
    7030:	00c00804 	movi	r3,32
    7034:	1885c83a 	sub	r2,r3,r2
    7038:	00ffffc4 	movi	r3,-1
    703c:	1886d83a 	srl	r3,r3,r2
    7040:	00800074 	movhi	r2,1
    7044:	10aacc04 	addi	r2,r2,-21712
    7048:	10c01415 	stw	r3,80(r2)
    704c:	e0fffe43 	ldbu	r3,-7(fp)
    7050:	00800074 	movhi	r2,1
    7054:	10aacc04 	addi	r2,r2,-21712
    7058:	10801317 	ldw	r2,76(r2)
    705c:	1887883a 	add	r3,r3,r2
    7060:	00800074 	movhi	r2,1
    7064:	10aacc04 	addi	r2,r2,-21712
    7068:	10c01515 	stw	r3,84(r2)
    706c:	e0bffe83 	ldbu	r2,-6(fp)
    7070:	00c00804 	movi	r3,32
    7074:	1885c83a 	sub	r2,r3,r2
    7078:	00ffffc4 	movi	r3,-1
    707c:	1886d83a 	srl	r3,r3,r2
    7080:	00800074 	movhi	r2,1
    7084:	10aacc04 	addi	r2,r2,-21712
    7088:	10c01615 	stw	r3,88(r2)
    708c:	01000074 	movhi	r4,1
    7090:	212acc04 	addi	r4,r4,-21712
    7094:	0006d500 	call	6d50 <alt_dev_reg>
    ALTERA_UP_AVALON_VIDEO_DMA_CONTROLLER_INIT ( VGA_SUBSYSTEM_VGA_PIXEL_DMA, VGA_Subsystem_VGA_Pixel_DMA);
    7098:	00800074 	movhi	r2,1
    709c:	10aae304 	addi	r2,r2,-21620
    70a0:	10800a17 	ldw	r2,40(r2)
    70a4:	10800017 	ldw	r2,0(r2)
    70a8:	1007883a 	mov	r3,r2
    70ac:	00800074 	movhi	r2,1
    70b0:	10aae304 	addi	r2,r2,-21620
    70b4:	10c00b15 	stw	r3,44(r2)
    70b8:	00800074 	movhi	r2,1
    70bc:	10aae304 	addi	r2,r2,-21620
    70c0:	10800a17 	ldw	r2,40(r2)
    70c4:	10800104 	addi	r2,r2,4
    70c8:	10800017 	ldw	r2,0(r2)
    70cc:	1007883a 	mov	r3,r2
    70d0:	00800074 	movhi	r2,1
    70d4:	10aae304 	addi	r2,r2,-21620
    70d8:	10c00c15 	stw	r3,48(r2)
    70dc:	00800074 	movhi	r2,1
    70e0:	10aae304 	addi	r2,r2,-21620
    70e4:	10800a17 	ldw	r2,40(r2)
    70e8:	10800204 	addi	r2,r2,8
    70ec:	10800017 	ldw	r2,0(r2)
    70f0:	10ffffcc 	andi	r3,r2,65535
    70f4:	00800074 	movhi	r2,1
    70f8:	10aae304 	addi	r2,r2,-21620
    70fc:	10c01115 	stw	r3,68(r2)
    7100:	00800074 	movhi	r2,1
    7104:	10aae304 	addi	r2,r2,-21620
    7108:	10800a17 	ldw	r2,40(r2)
    710c:	10800204 	addi	r2,r2,8
    7110:	10800017 	ldw	r2,0(r2)
    7114:	1006d43a 	srli	r3,r2,16
    7118:	00800074 	movhi	r2,1
    711c:	10aae304 	addi	r2,r2,-21620
    7120:	10c01215 	stw	r3,72(r2)
    7124:	00800074 	movhi	r2,1
    7128:	10aae304 	addi	r2,r2,-21620
    712c:	10800a17 	ldw	r2,40(r2)
    7130:	10800304 	addi	r2,r2,12
    7134:	10800017 	ldw	r2,0(r2)
    7138:	1005d07a 	srai	r2,r2,1
    713c:	10c0004c 	andi	r3,r2,1
    7140:	00800074 	movhi	r2,1
    7144:	10aae304 	addi	r2,r2,-21620
    7148:	10c00d15 	stw	r3,52(r2)
    714c:	00800074 	movhi	r2,1
    7150:	10aae304 	addi	r2,r2,-21620
    7154:	10800a17 	ldw	r2,40(r2)
    7158:	10800304 	addi	r2,r2,12
    715c:	10800017 	ldw	r2,0(r2)
    7160:	1005d23a 	srai	r2,r2,8
    7164:	108003cc 	andi	r2,r2,15
    7168:	10800044 	addi	r2,r2,1
    716c:	1007883a 	mov	r3,r2
    7170:	00800074 	movhi	r2,1
    7174:	10aae304 	addi	r2,r2,-21620
    7178:	10c00e15 	stw	r3,56(r2)
    717c:	00800074 	movhi	r2,1
    7180:	10aae304 	addi	r2,r2,-21620
    7184:	10800a17 	ldw	r2,40(r2)
    7188:	10800304 	addi	r2,r2,12
    718c:	10800017 	ldw	r2,0(r2)
    7190:	1005d1ba 	srai	r2,r2,6
    7194:	108000cc 	andi	r2,r2,3
    7198:	10800044 	addi	r2,r2,1
    719c:	1007883a 	mov	r3,r2
    71a0:	00800074 	movhi	r2,1
    71a4:	10aae304 	addi	r2,r2,-21620
    71a8:	10c00f15 	stw	r3,60(r2)
    71ac:	00800074 	movhi	r2,1
    71b0:	10aae304 	addi	r2,r2,-21620
    71b4:	10800e17 	ldw	r2,56(r2)
    71b8:	1007883a 	mov	r3,r2
    71bc:	00800074 	movhi	r2,1
    71c0:	10aae304 	addi	r2,r2,-21620
    71c4:	10800f17 	ldw	r2,60(r2)
    71c8:	100b883a 	mov	r5,r2
    71cc:	1809883a 	mov	r4,r3
    71d0:	00043e00 	call	43e0 <__mulsi3>
    71d4:	e0bffec5 	stb	r2,-5(fp)
    71d8:	e0bffec3 	ldbu	r2,-5(fp)
    71dc:	10800268 	cmpgeui	r2,r2,9
    71e0:	1000051e 	bne	r2,zero,71f8 <alt_sys_init+0x43c>
    71e4:	00800074 	movhi	r2,1
    71e8:	10aae304 	addi	r2,r2,-21620
    71ec:	00c00044 	movi	r3,1
    71f0:	10c01015 	stw	r3,64(r2)
    71f4:	00000c06 	br	7228 <alt_sys_init+0x46c>
    71f8:	e0bffec3 	ldbu	r2,-5(fp)
    71fc:	10800468 	cmpgeui	r2,r2,17
    7200:	1000051e 	bne	r2,zero,7218 <alt_sys_init+0x45c>
    7204:	00800074 	movhi	r2,1
    7208:	10aae304 	addi	r2,r2,-21620
    720c:	00c00084 	movi	r3,2
    7210:	10c01015 	stw	r3,64(r2)
    7214:	00000406 	br	7228 <alt_sys_init+0x46c>
    7218:	00800074 	movhi	r2,1
    721c:	10aae304 	addi	r2,r2,-21620
    7220:	00c00104 	movi	r3,4
    7224:	10c01015 	stw	r3,64(r2)
    7228:	00800074 	movhi	r2,1
    722c:	10aae304 	addi	r2,r2,-21620
    7230:	10800a17 	ldw	r2,40(r2)
    7234:	10800304 	addi	r2,r2,12
    7238:	10800017 	ldw	r2,0(r2)
    723c:	1005d43a 	srai	r2,r2,16
    7240:	e0bfff05 	stb	r2,-4(fp)
    7244:	00800074 	movhi	r2,1
    7248:	10aae304 	addi	r2,r2,-21620
    724c:	10800a17 	ldw	r2,40(r2)
    7250:	10800304 	addi	r2,r2,12
    7254:	10800017 	ldw	r2,0(r2)
    7258:	1004d63a 	srli	r2,r2,24
    725c:	e0bfff45 	stb	r2,-3(fp)
    7260:	00800074 	movhi	r2,1
    7264:	10aae304 	addi	r2,r2,-21620
    7268:	10801017 	ldw	r2,64(r2)
    726c:	10800058 	cmpnei	r2,r2,1
    7270:	1000041e 	bne	r2,zero,7284 <alt_sys_init+0x4c8>
    7274:	00800074 	movhi	r2,1
    7278:	10aae304 	addi	r2,r2,-21620
    727c:	10001315 	stw	zero,76(r2)
    7280:	00000e06 	br	72bc <alt_sys_init+0x500>
    7284:	00800074 	movhi	r2,1
    7288:	10aae304 	addi	r2,r2,-21620
    728c:	10801017 	ldw	r2,64(r2)
    7290:	10800098 	cmpnei	r2,r2,2
    7294:	1000051e 	bne	r2,zero,72ac <alt_sys_init+0x4f0>
    7298:	00800074 	movhi	r2,1
    729c:	10aae304 	addi	r2,r2,-21620
    72a0:	00c00044 	movi	r3,1
    72a4:	10c01315 	stw	r3,76(r2)
    72a8:	00000406 	br	72bc <alt_sys_init+0x500>
    72ac:	00800074 	movhi	r2,1
    72b0:	10aae304 	addi	r2,r2,-21620
    72b4:	00c00084 	movi	r3,2
    72b8:	10c01315 	stw	r3,76(r2)
    72bc:	e0bfff03 	ldbu	r2,-4(fp)
    72c0:	00c00804 	movi	r3,32
    72c4:	1885c83a 	sub	r2,r3,r2
    72c8:	00ffffc4 	movi	r3,-1
    72cc:	1886d83a 	srl	r3,r3,r2
    72d0:	00800074 	movhi	r2,1
    72d4:	10aae304 	addi	r2,r2,-21620
    72d8:	10c01415 	stw	r3,80(r2)
    72dc:	e0ffff03 	ldbu	r3,-4(fp)
    72e0:	00800074 	movhi	r2,1
    72e4:	10aae304 	addi	r2,r2,-21620
    72e8:	10801317 	ldw	r2,76(r2)
    72ec:	1887883a 	add	r3,r3,r2
    72f0:	00800074 	movhi	r2,1
    72f4:	10aae304 	addi	r2,r2,-21620
    72f8:	10c01515 	stw	r3,84(r2)
    72fc:	e0bfff43 	ldbu	r2,-3(fp)
    7300:	00c00804 	movi	r3,32
    7304:	1885c83a 	sub	r2,r3,r2
    7308:	00ffffc4 	movi	r3,-1
    730c:	1886d83a 	srl	r3,r3,r2
    7310:	00800074 	movhi	r2,1
    7314:	10aae304 	addi	r2,r2,-21620
    7318:	10c01615 	stw	r3,88(r2)
    731c:	01000074 	movhi	r4,1
    7320:	212ae304 	addi	r4,r4,-21620
    7324:	0006d500 	call	6d50 <alt_dev_reg>
    ALTERA_UP_AVALON_VIDEO_RGB_RESAMPLER_INIT ( VGA_SUBSYSTEM_VGA_PIXEL_RGB_RESAMPLER, VGA_Subsystem_VGA_Pixel_RGB_Resampler);
    7328:	00800074 	movhi	r2,1
    732c:	10aafa04 	addi	r2,r2,-21528
    7330:	10800a17 	ldw	r2,40(r2)
    7334:	10800017 	ldw	r2,0(r2)
    7338:	10c003cc 	andi	r3,r2,15
    733c:	00800074 	movhi	r2,1
    7340:	10aafa04 	addi	r2,r2,-21528
    7344:	10c00b15 	stw	r3,44(r2)
    7348:	00800074 	movhi	r2,1
    734c:	10aafa04 	addi	r2,r2,-21528
    7350:	10800a17 	ldw	r2,40(r2)
    7354:	10800017 	ldw	r2,0(r2)
    7358:	1005d13a 	srai	r2,r2,4
    735c:	10c0004c 	andi	r3,r2,1
    7360:	00800074 	movhi	r2,1
    7364:	10aafa04 	addi	r2,r2,-21528
    7368:	10c00c15 	stw	r3,48(r2)
    736c:	00800074 	movhi	r2,1
    7370:	10aafa04 	addi	r2,r2,-21528
    7374:	10800a17 	ldw	r2,40(r2)
    7378:	10800017 	ldw	r2,0(r2)
    737c:	1005d17a 	srai	r2,r2,5
    7380:	10c0004c 	andi	r3,r2,1
    7384:	00800074 	movhi	r2,1
    7388:	10aafa04 	addi	r2,r2,-21528
    738c:	10c00d15 	stw	r3,52(r2)
    7390:	00800074 	movhi	r2,1
    7394:	10aafa04 	addi	r2,r2,-21528
    7398:	10800a17 	ldw	r2,40(r2)
    739c:	10800017 	ldw	r2,0(r2)
    73a0:	1005d43a 	srai	r2,r2,16
    73a4:	10c003cc 	andi	r3,r2,15
    73a8:	00800074 	movhi	r2,1
    73ac:	10aafa04 	addi	r2,r2,-21528
    73b0:	10c00e15 	stw	r3,56(r2)
    73b4:	00800074 	movhi	r2,1
    73b8:	10aafa04 	addi	r2,r2,-21528
    73bc:	10800a17 	ldw	r2,40(r2)
    73c0:	10800017 	ldw	r2,0(r2)
    73c4:	1005d53a 	srai	r2,r2,20
    73c8:	10c0004c 	andi	r3,r2,1
    73cc:	00800074 	movhi	r2,1
    73d0:	10aafa04 	addi	r2,r2,-21528
    73d4:	10c00f15 	stw	r3,60(r2)
    73d8:	00800074 	movhi	r2,1
    73dc:	10aafa04 	addi	r2,r2,-21528
    73e0:	10800a17 	ldw	r2,40(r2)
    73e4:	10800017 	ldw	r2,0(r2)
    73e8:	1005d57a 	srai	r2,r2,21
    73ec:	10c0004c 	andi	r3,r2,1
    73f0:	00800074 	movhi	r2,1
    73f4:	10aafa04 	addi	r2,r2,-21528
    73f8:	10c01015 	stw	r3,64(r2)
    73fc:	01000074 	movhi	r4,1
    7400:	212afa04 	addi	r4,r4,-21528
    7404:	0006d500 	call	6d50 <alt_dev_reg>
}
    7408:	0001883a 	nop
    740c:	e037883a 	mov	sp,fp
    7410:	dfc00117 	ldw	ra,4(sp)
    7414:	df000017 	ldw	fp,0(sp)
    7418:	dec00204 	addi	sp,sp,8
    741c:	f800283a 	ret

00007420 <altera_avalon_jtag_uart_read_fd>:
 *
 */

int 
altera_avalon_jtag_uart_read_fd(alt_fd* fd, char* buffer, int space)
{
    7420:	defffa04 	addi	sp,sp,-24
    7424:	dfc00515 	stw	ra,20(sp)
    7428:	df000415 	stw	fp,16(sp)
    742c:	df000404 	addi	fp,sp,16
    7430:	e13ffd15 	stw	r4,-12(fp)
    7434:	e17ffe15 	stw	r5,-8(fp)
    7438:	e1bfff15 	stw	r6,-4(fp)
    altera_avalon_jtag_uart_dev* dev = (altera_avalon_jtag_uart_dev*) fd->dev; 
    743c:	e0bffd17 	ldw	r2,-12(fp)
    7440:	10800017 	ldw	r2,0(r2)
    7444:	e0bffc15 	stw	r2,-16(fp)

    return altera_avalon_jtag_uart_read(&dev->state, buffer, space,
    7448:	e0bffc17 	ldw	r2,-16(fp)
    744c:	10c00a04 	addi	r3,r2,40
    7450:	e0bffd17 	ldw	r2,-12(fp)
    7454:	10800217 	ldw	r2,8(r2)
    7458:	100f883a 	mov	r7,r2
    745c:	e1bfff17 	ldw	r6,-4(fp)
    7460:	e17ffe17 	ldw	r5,-8(fp)
    7464:	1809883a 	mov	r4,r3
    7468:	0007a480 	call	7a48 <altera_avalon_jtag_uart_read>
      fd->fd_flags);
}
    746c:	e037883a 	mov	sp,fp
    7470:	dfc00117 	ldw	ra,4(sp)
    7474:	df000017 	ldw	fp,0(sp)
    7478:	dec00204 	addi	sp,sp,8
    747c:	f800283a 	ret

00007480 <altera_avalon_jtag_uart_write_fd>:

int 
altera_avalon_jtag_uart_write_fd(alt_fd* fd, const char* buffer, int space)
{
    7480:	defffa04 	addi	sp,sp,-24
    7484:	dfc00515 	stw	ra,20(sp)
    7488:	df000415 	stw	fp,16(sp)
    748c:	df000404 	addi	fp,sp,16
    7490:	e13ffd15 	stw	r4,-12(fp)
    7494:	e17ffe15 	stw	r5,-8(fp)
    7498:	e1bfff15 	stw	r6,-4(fp)
    altera_avalon_jtag_uart_dev* dev = (altera_avalon_jtag_uart_dev*) fd->dev; 
    749c:	e0bffd17 	ldw	r2,-12(fp)
    74a0:	10800017 	ldw	r2,0(r2)
    74a4:	e0bffc15 	stw	r2,-16(fp)

    return altera_avalon_jtag_uart_write(&dev->state, buffer, space,
    74a8:	e0bffc17 	ldw	r2,-16(fp)
    74ac:	10c00a04 	addi	r3,r2,40
    74b0:	e0bffd17 	ldw	r2,-12(fp)
    74b4:	10800217 	ldw	r2,8(r2)
    74b8:	100f883a 	mov	r7,r2
    74bc:	e1bfff17 	ldw	r6,-4(fp)
    74c0:	e17ffe17 	ldw	r5,-8(fp)
    74c4:	1809883a 	mov	r4,r3
    74c8:	0007c640 	call	7c64 <altera_avalon_jtag_uart_write>
      fd->fd_flags);
}
    74cc:	e037883a 	mov	sp,fp
    74d0:	dfc00117 	ldw	ra,4(sp)
    74d4:	df000017 	ldw	fp,0(sp)
    74d8:	dec00204 	addi	sp,sp,8
    74dc:	f800283a 	ret

000074e0 <altera_avalon_jtag_uart_close_fd>:

#ifndef ALTERA_AVALON_JTAG_UART_SMALL

int 
altera_avalon_jtag_uart_close_fd(alt_fd* fd)
{
    74e0:	defffc04 	addi	sp,sp,-16
    74e4:	dfc00315 	stw	ra,12(sp)
    74e8:	df000215 	stw	fp,8(sp)
    74ec:	df000204 	addi	fp,sp,8
    74f0:	e13fff15 	stw	r4,-4(fp)
    altera_avalon_jtag_uart_dev* dev = (altera_avalon_jtag_uart_dev*) fd->dev; 
    74f4:	e0bfff17 	ldw	r2,-4(fp)
    74f8:	10800017 	ldw	r2,0(r2)
    74fc:	e0bffe15 	stw	r2,-8(fp)

    return altera_avalon_jtag_uart_close(&dev->state, fd->fd_flags);
    7500:	e0bffe17 	ldw	r2,-8(fp)
    7504:	10c00a04 	addi	r3,r2,40
    7508:	e0bfff17 	ldw	r2,-4(fp)
    750c:	10800217 	ldw	r2,8(r2)
    7510:	100b883a 	mov	r5,r2
    7514:	1809883a 	mov	r4,r3
    7518:	00078f00 	call	78f0 <altera_avalon_jtag_uart_close>
}
    751c:	e037883a 	mov	sp,fp
    7520:	dfc00117 	ldw	ra,4(sp)
    7524:	df000017 	ldw	fp,0(sp)
    7528:	dec00204 	addi	sp,sp,8
    752c:	f800283a 	ret

00007530 <altera_avalon_jtag_uart_ioctl_fd>:

int 
altera_avalon_jtag_uart_ioctl_fd(alt_fd* fd, int req, void* arg)
{
    7530:	defffa04 	addi	sp,sp,-24
    7534:	dfc00515 	stw	ra,20(sp)
    7538:	df000415 	stw	fp,16(sp)
    753c:	df000404 	addi	fp,sp,16
    7540:	e13ffd15 	stw	r4,-12(fp)
    7544:	e17ffe15 	stw	r5,-8(fp)
    7548:	e1bfff15 	stw	r6,-4(fp)
    altera_avalon_jtag_uart_dev* dev = (altera_avalon_jtag_uart_dev*) fd->dev;
    754c:	e0bffd17 	ldw	r2,-12(fp)
    7550:	10800017 	ldw	r2,0(r2)
    7554:	e0bffc15 	stw	r2,-16(fp)

    return altera_avalon_jtag_uart_ioctl(&dev->state, req, arg);
    7558:	e0bffc17 	ldw	r2,-16(fp)
    755c:	10800a04 	addi	r2,r2,40
    7560:	e1bfff17 	ldw	r6,-4(fp)
    7564:	e17ffe17 	ldw	r5,-8(fp)
    7568:	1009883a 	mov	r4,r2
    756c:	00079580 	call	7958 <altera_avalon_jtag_uart_ioctl>
}
    7570:	e037883a 	mov	sp,fp
    7574:	dfc00117 	ldw	ra,4(sp)
    7578:	df000017 	ldw	fp,0(sp)
    757c:	dec00204 	addi	sp,sp,8
    7580:	f800283a 	ret

00007584 <altera_avalon_jtag_uart_init>:
 * Return 1 on sucessful IRQ register and 0 on failure.
 */

void altera_avalon_jtag_uart_init(altera_avalon_jtag_uart_state* sp, 
                                  int irq_controller_id, int irq)
{
    7584:	defffa04 	addi	sp,sp,-24
    7588:	dfc00515 	stw	ra,20(sp)
    758c:	df000415 	stw	fp,16(sp)
    7590:	df000404 	addi	fp,sp,16
    7594:	e13ffd15 	stw	r4,-12(fp)
    7598:	e17ffe15 	stw	r5,-8(fp)
    759c:	e1bfff15 	stw	r6,-4(fp)
  ALT_FLAG_CREATE(&sp->events, 0);
  ALT_SEM_CREATE(&sp->read_lock, 1);
  ALT_SEM_CREATE(&sp->write_lock, 1);

  /* enable read interrupts at the device */
  sp->irq_enable = ALTERA_AVALON_JTAG_UART_CONTROL_RE_MSK;
    75a0:	e0bffd17 	ldw	r2,-12(fp)
    75a4:	00c00044 	movi	r3,1
    75a8:	10c00815 	stw	r3,32(r2)

  IOWR_ALTERA_AVALON_JTAG_UART_CONTROL(sp->base, sp->irq_enable); 
    75ac:	e0bffd17 	ldw	r2,-12(fp)
    75b0:	10800017 	ldw	r2,0(r2)
    75b4:	10800104 	addi	r2,r2,4
    75b8:	1007883a 	mov	r3,r2
    75bc:	e0bffd17 	ldw	r2,-12(fp)
    75c0:	10800817 	ldw	r2,32(r2)
    75c4:	18800035 	stwio	r2,0(r3)
  
  /* register the interrupt handler */
#ifdef ALT_ENHANCED_INTERRUPT_API_PRESENT
  alt_ic_isr_register(irq_controller_id, irq, altera_avalon_jtag_uart_irq, 
    75c8:	e0bffe17 	ldw	r2,-8(fp)
    75cc:	e0ffff17 	ldw	r3,-4(fp)
    75d0:	d8000015 	stw	zero,0(sp)
    75d4:	e1fffd17 	ldw	r7,-12(fp)
    75d8:	01800034 	movhi	r6,0
    75dc:	319d9104 	addi	r6,r6,30276
    75e0:	180b883a 	mov	r5,r3
    75e4:	1009883a 	mov	r4,r2
    75e8:	00085200 	call	8520 <alt_ic_isr_register>
#else
  alt_irq_register(irq, sp, altera_avalon_jtag_uart_irq);
#endif  

  /* Register an alarm to go off every second to check for presence of host */
  sp->host_inactive = 0;
    75ec:	e0bffd17 	ldw	r2,-12(fp)
    75f0:	10000915 	stw	zero,36(r2)

  if (alt_alarm_start(&sp->alarm, alt_ticks_per_second(), 
    75f4:	e0bffd17 	ldw	r2,-12(fp)
    75f8:	10800204 	addi	r2,r2,8
 * Obtain the system clock rate in ticks/s. 
 */

static ALT_INLINE alt_u32 ALT_ALWAYS_INLINE alt_ticks_per_second (void)
{
  return _alt_tick_rate;
    75fc:	d0e5f317 	ldw	r3,-26676(gp)
    7600:	e1fffd17 	ldw	r7,-12(fp)
    7604:	01800034 	movhi	r6,0
    7608:	319e1404 	addi	r6,r6,30800
    760c:	180b883a 	mov	r5,r3
    7610:	1009883a 	mov	r4,r2
    7614:	0007f7c0 	call	7f7c <alt_alarm_start>
    7618:	1000040e 	bge	r2,zero,762c <altera_avalon_jtag_uart_init+0xa8>
    &altera_avalon_jtag_uart_timeout, sp) < 0)
  {
    /* If we can't set the alarm then record "don't know if host present" 
     * and behave as though the host is present.
     */
    sp->timeout = INT_MAX;
    761c:	e0fffd17 	ldw	r3,-12(fp)
    7620:	00a00034 	movhi	r2,32768
    7624:	10bfffc4 	addi	r2,r2,-1
    7628:	18800115 	stw	r2,4(r3)
  }

  /* ALT_LOG - see altera_hal/HAL/inc/sys/alt_log_printf.h */ 
  ALT_LOG_JTAG_UART_ALARM_REGISTER(sp, sp->base);
}
    762c:	0001883a 	nop
    7630:	e037883a 	mov	sp,fp
    7634:	dfc00117 	ldw	ra,4(sp)
    7638:	df000017 	ldw	fp,0(sp)
    763c:	dec00204 	addi	sp,sp,8
    7640:	f800283a 	ret

00007644 <altera_avalon_jtag_uart_irq>:
#ifdef ALT_ENHANCED_INTERRUPT_API_PRESENT
static void altera_avalon_jtag_uart_irq(void* context)
#else
static void altera_avalon_jtag_uart_irq(void* context, alt_u32 id)
#endif
{
    7644:	defff804 	addi	sp,sp,-32
    7648:	df000715 	stw	fp,28(sp)
    764c:	df000704 	addi	fp,sp,28
    7650:	e13fff15 	stw	r4,-4(fp)
  altera_avalon_jtag_uart_state* sp = (altera_avalon_jtag_uart_state*) context;
    7654:	e0bfff17 	ldw	r2,-4(fp)
    7658:	e0bffb15 	stw	r2,-20(fp)
  unsigned int base = sp->base;
    765c:	e0bffb17 	ldw	r2,-20(fp)
    7660:	10800017 	ldw	r2,0(r2)
    7664:	e0bffc15 	stw	r2,-16(fp)
  /* ALT_LOG - see altera_hal/HAL/inc/sys/alt_log_printf.h */ 
  ALT_LOG_JTAG_UART_ISR_FUNCTION(base, sp);

  for ( ; ; )
  {
    unsigned int control = IORD_ALTERA_AVALON_JTAG_UART_CONTROL(base);
    7668:	e0bffc17 	ldw	r2,-16(fp)
    766c:	10800104 	addi	r2,r2,4
    7670:	10800037 	ldwio	r2,0(r2)
    7674:	e0bffd15 	stw	r2,-12(fp)

    /* Return once nothing more to do */
    if ((control & (ALTERA_AVALON_JTAG_UART_CONTROL_RI_MSK | ALTERA_AVALON_JTAG_UART_CONTROL_WI_MSK)) == 0)
    7678:	e0bffd17 	ldw	r2,-12(fp)
    767c:	1080c00c 	andi	r2,r2,768
    7680:	10006d26 	beq	r2,zero,7838 <altera_avalon_jtag_uart_irq+0x1f4>
      break;

    if (control & ALTERA_AVALON_JTAG_UART_CONTROL_RI_MSK)
    7684:	e0bffd17 	ldw	r2,-12(fp)
    7688:	1080400c 	andi	r2,r2,256
    768c:	10003526 	beq	r2,zero,7764 <altera_avalon_jtag_uart_irq+0x120>
    {
      /* process a read irq.  Start by assuming that there is data in the
       * receive FIFO (otherwise why would we have been interrupted?)
       */
      unsigned int data = 1 << ALTERA_AVALON_JTAG_UART_DATA_RAVAIL_OFST;
    7690:	00800074 	movhi	r2,1
    7694:	e0bff915 	stw	r2,-28(fp)
      for ( ; ; )
      {
        /* Check whether there is space in the buffer.  If not then we must not
         * read any characters from the buffer as they will be lost.
         */
        unsigned int next = (sp->rx_in + 1) % ALTERA_AVALON_JTAG_UART_BUF_LEN;
    7698:	e0bffb17 	ldw	r2,-20(fp)
    769c:	10800a17 	ldw	r2,40(r2)
    76a0:	10800044 	addi	r2,r2,1
    76a4:	1081ffcc 	andi	r2,r2,2047
    76a8:	e0bffe15 	stw	r2,-8(fp)
        if (next == sp->rx_out)
    76ac:	e0bffb17 	ldw	r2,-20(fp)
    76b0:	10c00b17 	ldw	r3,44(r2)
    76b4:	e0bffe17 	ldw	r2,-8(fp)
    76b8:	18801526 	beq	r3,r2,7710 <altera_avalon_jtag_uart_irq+0xcc>
          break;

        /* Try to remove a character from the FIFO and find out whether there
         * are any more characters remaining.
         */
        data = IORD_ALTERA_AVALON_JTAG_UART_DATA(base);
    76bc:	e0bffc17 	ldw	r2,-16(fp)
    76c0:	10800037 	ldwio	r2,0(r2)
    76c4:	e0bff915 	stw	r2,-28(fp)
        
        if ((data & ALTERA_AVALON_JTAG_UART_DATA_RVALID_MSK) == 0)
    76c8:	e0bff917 	ldw	r2,-28(fp)
    76cc:	10a0000c 	andi	r2,r2,32768
    76d0:	10001126 	beq	r2,zero,7718 <altera_avalon_jtag_uart_irq+0xd4>
          break;

        sp->rx_buf[sp->rx_in] = (data & ALTERA_AVALON_JTAG_UART_DATA_DATA_MSK) >> ALTERA_AVALON_JTAG_UART_DATA_DATA_OFST;
    76d4:	e0bffb17 	ldw	r2,-20(fp)
    76d8:	10800a17 	ldw	r2,40(r2)
    76dc:	e0fff917 	ldw	r3,-28(fp)
    76e0:	1809883a 	mov	r4,r3
    76e4:	e0fffb17 	ldw	r3,-20(fp)
    76e8:	1885883a 	add	r2,r3,r2
    76ec:	10800e04 	addi	r2,r2,56
    76f0:	11000005 	stb	r4,0(r2)
        sp->rx_in = (sp->rx_in + 1) % ALTERA_AVALON_JTAG_UART_BUF_LEN;
    76f4:	e0bffb17 	ldw	r2,-20(fp)
    76f8:	10800a17 	ldw	r2,40(r2)
    76fc:	10800044 	addi	r2,r2,1
    7700:	10c1ffcc 	andi	r3,r2,2047
    7704:	e0bffb17 	ldw	r2,-20(fp)
    7708:	10c00a15 	stw	r3,40(r2)

        /* Post an event to notify jtag_uart_read that a character has been read */
        ALT_FLAG_POST (sp->events, ALT_JTAG_UART_READ_RDY, OS_FLAG_SET);
      }
    770c:	003fe206 	br	7698 <__alt_mem_VGA_Subsystem_Char_Buf_Subsystem_Onchip_SRAM+0xf7007698>
        /* Check whether there is space in the buffer.  If not then we must not
         * read any characters from the buffer as they will be lost.
         */
        unsigned int next = (sp->rx_in + 1) % ALTERA_AVALON_JTAG_UART_BUF_LEN;
        if (next == sp->rx_out)
          break;
    7710:	0001883a 	nop
    7714:	00000106 	br	771c <altera_avalon_jtag_uart_irq+0xd8>
         * are any more characters remaining.
         */
        data = IORD_ALTERA_AVALON_JTAG_UART_DATA(base);
        
        if ((data & ALTERA_AVALON_JTAG_UART_DATA_RVALID_MSK) == 0)
          break;
    7718:	0001883a 	nop

        /* Post an event to notify jtag_uart_read that a character has been read */
        ALT_FLAG_POST (sp->events, ALT_JTAG_UART_READ_RDY, OS_FLAG_SET);
      }

      if (data & ALTERA_AVALON_JTAG_UART_DATA_RAVAIL_MSK)
    771c:	e0bff917 	ldw	r2,-28(fp)
    7720:	10bfffec 	andhi	r2,r2,65535
    7724:	10000f26 	beq	r2,zero,7764 <altera_avalon_jtag_uart_irq+0x120>
      {
        /* If there is still data available here then the buffer is full 
         * so turn off receive interrupts until some space becomes available.
         */
        sp->irq_enable &= ~ALTERA_AVALON_JTAG_UART_CONTROL_RE_MSK;
    7728:	e0bffb17 	ldw	r2,-20(fp)
    772c:	10c00817 	ldw	r3,32(r2)
    7730:	00bfff84 	movi	r2,-2
    7734:	1886703a 	and	r3,r3,r2
    7738:	e0bffb17 	ldw	r2,-20(fp)
    773c:	10c00815 	stw	r3,32(r2)
        IOWR_ALTERA_AVALON_JTAG_UART_CONTROL(base, sp->irq_enable);
    7740:	e0bffc17 	ldw	r2,-16(fp)
    7744:	10800104 	addi	r2,r2,4
    7748:	1007883a 	mov	r3,r2
    774c:	e0bffb17 	ldw	r2,-20(fp)
    7750:	10800817 	ldw	r2,32(r2)
    7754:	18800035 	stwio	r2,0(r3)
        
        /* Dummy read to ensure IRQ is cleared prior to ISR completion */
        IORD_ALTERA_AVALON_JTAG_UART_CONTROL(base);
    7758:	e0bffc17 	ldw	r2,-16(fp)
    775c:	10800104 	addi	r2,r2,4
    7760:	10800037 	ldwio	r2,0(r2)
      }
    }

    if (control & ALTERA_AVALON_JTAG_UART_CONTROL_WI_MSK)
    7764:	e0bffd17 	ldw	r2,-12(fp)
    7768:	1080800c 	andi	r2,r2,512
    776c:	103fbe26 	beq	r2,zero,7668 <__alt_mem_VGA_Subsystem_Char_Buf_Subsystem_Onchip_SRAM+0xf7007668>
    {
      /* process a write irq */
      unsigned int space = (control & ALTERA_AVALON_JTAG_UART_CONTROL_WSPACE_MSK) >> ALTERA_AVALON_JTAG_UART_CONTROL_WSPACE_OFST;
    7770:	e0bffd17 	ldw	r2,-12(fp)
    7774:	1004d43a 	srli	r2,r2,16
    7778:	e0bffa15 	stw	r2,-24(fp)

      while (space > 0 && sp->tx_out != sp->tx_in)
    777c:	00001406 	br	77d0 <altera_avalon_jtag_uart_irq+0x18c>
      {
        IOWR_ALTERA_AVALON_JTAG_UART_DATA(base, sp->tx_buf[sp->tx_out]);
    7780:	e0bffc17 	ldw	r2,-16(fp)
    7784:	e0fffb17 	ldw	r3,-20(fp)
    7788:	18c00d17 	ldw	r3,52(r3)
    778c:	e13ffb17 	ldw	r4,-20(fp)
    7790:	20c7883a 	add	r3,r4,r3
    7794:	18c20e04 	addi	r3,r3,2104
    7798:	18c00003 	ldbu	r3,0(r3)
    779c:	18c03fcc 	andi	r3,r3,255
    77a0:	18c0201c 	xori	r3,r3,128
    77a4:	18ffe004 	addi	r3,r3,-128
    77a8:	10c00035 	stwio	r3,0(r2)

        sp->tx_out = (sp->tx_out + 1) % ALTERA_AVALON_JTAG_UART_BUF_LEN;
    77ac:	e0bffb17 	ldw	r2,-20(fp)
    77b0:	10800d17 	ldw	r2,52(r2)
    77b4:	10800044 	addi	r2,r2,1
    77b8:	10c1ffcc 	andi	r3,r2,2047
    77bc:	e0bffb17 	ldw	r2,-20(fp)
    77c0:	10c00d15 	stw	r3,52(r2)

        /* Post an event to notify jtag_uart_write that a character has been written */
        ALT_FLAG_POST (sp->events, ALT_JTAG_UART_WRITE_RDY, OS_FLAG_SET);

        space--;
    77c4:	e0bffa17 	ldw	r2,-24(fp)
    77c8:	10bfffc4 	addi	r2,r2,-1
    77cc:	e0bffa15 	stw	r2,-24(fp)
    if (control & ALTERA_AVALON_JTAG_UART_CONTROL_WI_MSK)
    {
      /* process a write irq */
      unsigned int space = (control & ALTERA_AVALON_JTAG_UART_CONTROL_WSPACE_MSK) >> ALTERA_AVALON_JTAG_UART_CONTROL_WSPACE_OFST;

      while (space > 0 && sp->tx_out != sp->tx_in)
    77d0:	e0bffa17 	ldw	r2,-24(fp)
    77d4:	10000526 	beq	r2,zero,77ec <altera_avalon_jtag_uart_irq+0x1a8>
    77d8:	e0bffb17 	ldw	r2,-20(fp)
    77dc:	10c00d17 	ldw	r3,52(r2)
    77e0:	e0bffb17 	ldw	r2,-20(fp)
    77e4:	10800c17 	ldw	r2,48(r2)
    77e8:	18bfe51e 	bne	r3,r2,7780 <__alt_mem_VGA_Subsystem_Char_Buf_Subsystem_Onchip_SRAM+0xf7007780>
        ALT_FLAG_POST (sp->events, ALT_JTAG_UART_WRITE_RDY, OS_FLAG_SET);

        space--;
      }

      if (space > 0)
    77ec:	e0bffa17 	ldw	r2,-24(fp)
    77f0:	103f9d26 	beq	r2,zero,7668 <__alt_mem_VGA_Subsystem_Char_Buf_Subsystem_Onchip_SRAM+0xf7007668>
      {
        /* If we don't have any more data available then turn off the TX interrupt */
        sp->irq_enable &= ~ALTERA_AVALON_JTAG_UART_CONTROL_WE_MSK;
    77f4:	e0bffb17 	ldw	r2,-20(fp)
    77f8:	10c00817 	ldw	r3,32(r2)
    77fc:	00bfff44 	movi	r2,-3
    7800:	1886703a 	and	r3,r3,r2
    7804:	e0bffb17 	ldw	r2,-20(fp)
    7808:	10c00815 	stw	r3,32(r2)
        IOWR_ALTERA_AVALON_JTAG_UART_CONTROL(sp->base, sp->irq_enable);
    780c:	e0bffb17 	ldw	r2,-20(fp)
    7810:	10800017 	ldw	r2,0(r2)
    7814:	10800104 	addi	r2,r2,4
    7818:	1007883a 	mov	r3,r2
    781c:	e0bffb17 	ldw	r2,-20(fp)
    7820:	10800817 	ldw	r2,32(r2)
    7824:	18800035 	stwio	r2,0(r3)
        
        /* Dummy read to ensure IRQ is cleared prior to ISR completion */
        IORD_ALTERA_AVALON_JTAG_UART_CONTROL(base);
    7828:	e0bffc17 	ldw	r2,-16(fp)
    782c:	10800104 	addi	r2,r2,4
    7830:	10800037 	ldwio	r2,0(r2)
      }
    }
  }
    7834:	003f8c06 	br	7668 <__alt_mem_VGA_Subsystem_Char_Buf_Subsystem_Onchip_SRAM+0xf7007668>
  {
    unsigned int control = IORD_ALTERA_AVALON_JTAG_UART_CONTROL(base);

    /* Return once nothing more to do */
    if ((control & (ALTERA_AVALON_JTAG_UART_CONTROL_RI_MSK | ALTERA_AVALON_JTAG_UART_CONTROL_WI_MSK)) == 0)
      break;
    7838:	0001883a 	nop
        /* Dummy read to ensure IRQ is cleared prior to ISR completion */
        IORD_ALTERA_AVALON_JTAG_UART_CONTROL(base);
      }
    }
  }
}
    783c:	0001883a 	nop
    7840:	e037883a 	mov	sp,fp
    7844:	df000017 	ldw	fp,0(sp)
    7848:	dec00104 	addi	sp,sp,4
    784c:	f800283a 	ret

00007850 <altera_avalon_jtag_uart_timeout>:
 * Timeout routine is called every second
 */

static alt_u32 
altera_avalon_jtag_uart_timeout(void* context) 
{
    7850:	defff804 	addi	sp,sp,-32
    7854:	df000715 	stw	fp,28(sp)
    7858:	df000704 	addi	fp,sp,28
    785c:	e13ffb15 	stw	r4,-20(fp)
  altera_avalon_jtag_uart_state* sp = (altera_avalon_jtag_uart_state *) context;
    7860:	e0bffb17 	ldw	r2,-20(fp)
    7864:	e0bff915 	stw	r2,-28(fp)

  unsigned int control = IORD_ALTERA_AVALON_JTAG_UART_CONTROL(sp->base);
    7868:	e0bff917 	ldw	r2,-28(fp)
    786c:	10800017 	ldw	r2,0(r2)
    7870:	10800104 	addi	r2,r2,4
    7874:	10800037 	ldwio	r2,0(r2)
    7878:	e0bffa15 	stw	r2,-24(fp)

  if (control & ALTERA_AVALON_JTAG_UART_CONTROL_AC_MSK)
    787c:	e0bffa17 	ldw	r2,-24(fp)
    7880:	1081000c 	andi	r2,r2,1024
    7884:	10000b26 	beq	r2,zero,78b4 <altera_avalon_jtag_uart_timeout+0x64>
  {
    IOWR_ALTERA_AVALON_JTAG_UART_CONTROL(sp->base, sp->irq_enable | ALTERA_AVALON_JTAG_UART_CONTROL_AC_MSK);
    7888:	e0bff917 	ldw	r2,-28(fp)
    788c:	10800017 	ldw	r2,0(r2)
    7890:	10800104 	addi	r2,r2,4
    7894:	1007883a 	mov	r3,r2
    7898:	e0bff917 	ldw	r2,-28(fp)
    789c:	10800817 	ldw	r2,32(r2)
    78a0:	10810014 	ori	r2,r2,1024
    78a4:	18800035 	stwio	r2,0(r3)
    sp->host_inactive = 0;
    78a8:	e0bff917 	ldw	r2,-28(fp)
    78ac:	10000915 	stw	zero,36(r2)
    78b0:	00000a06 	br	78dc <altera_avalon_jtag_uart_timeout+0x8c>
  }
  else if (sp->host_inactive < INT_MAX - 2) {
    78b4:	e0bff917 	ldw	r2,-28(fp)
    78b8:	10c00917 	ldw	r3,36(r2)
    78bc:	00a00034 	movhi	r2,32768
    78c0:	10bfff04 	addi	r2,r2,-4
    78c4:	10c00536 	bltu	r2,r3,78dc <altera_avalon_jtag_uart_timeout+0x8c>
    sp->host_inactive++;
    78c8:	e0bff917 	ldw	r2,-28(fp)
    78cc:	10800917 	ldw	r2,36(r2)
    78d0:	10c00044 	addi	r3,r2,1
    78d4:	e0bff917 	ldw	r2,-28(fp)
    78d8:	10c00915 	stw	r3,36(r2)
    78dc:	d0a5f317 	ldw	r2,-26676(gp)
      ALT_FLAG_POST (sp->events, ALT_JTAG_UART_TIMEOUT, OS_FLAG_SET);
    }
  }

  return alt_ticks_per_second();
}
    78e0:	e037883a 	mov	sp,fp
    78e4:	df000017 	ldw	fp,0(sp)
    78e8:	dec00104 	addi	sp,sp,4
    78ec:	f800283a 	ret

000078f0 <altera_avalon_jtag_uart_close>:
 * The close routine is not implemented for the small driver; instead it will
 * map to null. This is because the small driver simply waits while characters
 * are transmitted; there is no interrupt-serviced buffer to empty 
 */
int altera_avalon_jtag_uart_close(altera_avalon_jtag_uart_state* sp, int flags)
{
    78f0:	defffd04 	addi	sp,sp,-12
    78f4:	df000215 	stw	fp,8(sp)
    78f8:	df000204 	addi	fp,sp,8
    78fc:	e13ffe15 	stw	r4,-8(fp)
    7900:	e17fff15 	stw	r5,-4(fp)
  /* 
   * Wait for all transmit data to be emptied by the JTAG UART ISR, or
   * for a host-inactivity timeout, in which case transmit data will be lost
   */
  while ( (sp->tx_out != sp->tx_in) && (sp->host_inactive < sp->timeout) ) {
    7904:	00000506 	br	791c <altera_avalon_jtag_uart_close+0x2c>
    if (flags & O_NONBLOCK) {
    7908:	e0bfff17 	ldw	r2,-4(fp)
    790c:	1090000c 	andi	r2,r2,16384
    7910:	10000226 	beq	r2,zero,791c <altera_avalon_jtag_uart_close+0x2c>
      return -EWOULDBLOCK; 
    7914:	00bffd44 	movi	r2,-11
    7918:	00000b06 	br	7948 <altera_avalon_jtag_uart_close+0x58>
{
  /* 
   * Wait for all transmit data to be emptied by the JTAG UART ISR, or
   * for a host-inactivity timeout, in which case transmit data will be lost
   */
  while ( (sp->tx_out != sp->tx_in) && (sp->host_inactive < sp->timeout) ) {
    791c:	e0bffe17 	ldw	r2,-8(fp)
    7920:	10c00d17 	ldw	r3,52(r2)
    7924:	e0bffe17 	ldw	r2,-8(fp)
    7928:	10800c17 	ldw	r2,48(r2)
    792c:	18800526 	beq	r3,r2,7944 <altera_avalon_jtag_uart_close+0x54>
    7930:	e0bffe17 	ldw	r2,-8(fp)
    7934:	10c00917 	ldw	r3,36(r2)
    7938:	e0bffe17 	ldw	r2,-8(fp)
    793c:	10800117 	ldw	r2,4(r2)
    7940:	18bff136 	bltu	r3,r2,7908 <__alt_mem_VGA_Subsystem_Char_Buf_Subsystem_Onchip_SRAM+0xf7007908>
    if (flags & O_NONBLOCK) {
      return -EWOULDBLOCK; 
    }
  }

  return 0;
    7944:	0005883a 	mov	r2,zero
}
    7948:	e037883a 	mov	sp,fp
    794c:	df000017 	ldw	fp,0(sp)
    7950:	dec00104 	addi	sp,sp,4
    7954:	f800283a 	ret

00007958 <altera_avalon_jtag_uart_ioctl>:
/* ----------------------------------------------------------- */

int 
altera_avalon_jtag_uart_ioctl(altera_avalon_jtag_uart_state* sp, int req,
  void* arg)
{
    7958:	defffa04 	addi	sp,sp,-24
    795c:	df000515 	stw	fp,20(sp)
    7960:	df000504 	addi	fp,sp,20
    7964:	e13ffd15 	stw	r4,-12(fp)
    7968:	e17ffe15 	stw	r5,-8(fp)
    796c:	e1bfff15 	stw	r6,-4(fp)
  int rc = -ENOTTY;
    7970:	00bff9c4 	movi	r2,-25
    7974:	e0bffb15 	stw	r2,-20(fp)

  switch (req)
    7978:	e0bffe17 	ldw	r2,-8(fp)
    797c:	10da8060 	cmpeqi	r3,r2,27137
    7980:	1800031e 	bne	r3,zero,7990 <altera_avalon_jtag_uart_ioctl+0x38>
    7984:	109a80a0 	cmpeqi	r2,r2,27138
    7988:	1000181e 	bne	r2,zero,79ec <altera_avalon_jtag_uart_ioctl+0x94>
      rc = 0;
    }
    break;

  default:
    break;
    798c:	00002906 	br	7a34 <altera_avalon_jtag_uart_ioctl+0xdc>

  switch (req)
  {
  case TIOCSTIMEOUT:
    /* Set the time to wait until assuming host is not connected */
    if (sp->timeout != INT_MAX)
    7990:	e0bffd17 	ldw	r2,-12(fp)
    7994:	10c00117 	ldw	r3,4(r2)
    7998:	00a00034 	movhi	r2,32768
    799c:	10bfffc4 	addi	r2,r2,-1
    79a0:	18802126 	beq	r3,r2,7a28 <altera_avalon_jtag_uart_ioctl+0xd0>
    {
      int timeout = *((int *)arg);
    79a4:	e0bfff17 	ldw	r2,-4(fp)
    79a8:	10800017 	ldw	r2,0(r2)
    79ac:	e0bffc15 	stw	r2,-16(fp)
      sp->timeout = (timeout >= 2 && timeout < INT_MAX) ? timeout : INT_MAX - 1;
    79b0:	e0bffc17 	ldw	r2,-16(fp)
    79b4:	10800090 	cmplti	r2,r2,2
    79b8:	1000061e 	bne	r2,zero,79d4 <altera_avalon_jtag_uart_ioctl+0x7c>
    79bc:	e0fffc17 	ldw	r3,-16(fp)
    79c0:	00a00034 	movhi	r2,32768
    79c4:	10bfffc4 	addi	r2,r2,-1
    79c8:	18800226 	beq	r3,r2,79d4 <altera_avalon_jtag_uart_ioctl+0x7c>
    79cc:	e0bffc17 	ldw	r2,-16(fp)
    79d0:	00000206 	br	79dc <altera_avalon_jtag_uart_ioctl+0x84>
    79d4:	00a00034 	movhi	r2,32768
    79d8:	10bfff84 	addi	r2,r2,-2
    79dc:	e0fffd17 	ldw	r3,-12(fp)
    79e0:	18800115 	stw	r2,4(r3)
      rc = 0;
    79e4:	e03ffb15 	stw	zero,-20(fp)
    }
    break;
    79e8:	00000f06 	br	7a28 <altera_avalon_jtag_uart_ioctl+0xd0>

  case TIOCGCONNECTED:
    /* Find out whether host is connected */
    if (sp->timeout != INT_MAX)
    79ec:	e0bffd17 	ldw	r2,-12(fp)
    79f0:	10c00117 	ldw	r3,4(r2)
    79f4:	00a00034 	movhi	r2,32768
    79f8:	10bfffc4 	addi	r2,r2,-1
    79fc:	18800c26 	beq	r3,r2,7a30 <altera_avalon_jtag_uart_ioctl+0xd8>
    {
      *((int *)arg) = (sp->host_inactive < sp->timeout) ? 1 : 0;
    7a00:	e0bffd17 	ldw	r2,-12(fp)
    7a04:	10c00917 	ldw	r3,36(r2)
    7a08:	e0bffd17 	ldw	r2,-12(fp)
    7a0c:	10800117 	ldw	r2,4(r2)
    7a10:	1885803a 	cmpltu	r2,r3,r2
    7a14:	10c03fcc 	andi	r3,r2,255
    7a18:	e0bfff17 	ldw	r2,-4(fp)
    7a1c:	10c00015 	stw	r3,0(r2)
      rc = 0;
    7a20:	e03ffb15 	stw	zero,-20(fp)
    }
    break;
    7a24:	00000206 	br	7a30 <altera_avalon_jtag_uart_ioctl+0xd8>
    {
      int timeout = *((int *)arg);
      sp->timeout = (timeout >= 2 && timeout < INT_MAX) ? timeout : INT_MAX - 1;
      rc = 0;
    }
    break;
    7a28:	0001883a 	nop
    7a2c:	00000106 	br	7a34 <altera_avalon_jtag_uart_ioctl+0xdc>
    if (sp->timeout != INT_MAX)
    {
      *((int *)arg) = (sp->host_inactive < sp->timeout) ? 1 : 0;
      rc = 0;
    }
    break;
    7a30:	0001883a 	nop

  default:
    break;
  }

  return rc;
    7a34:	e0bffb17 	ldw	r2,-20(fp)
}
    7a38:	e037883a 	mov	sp,fp
    7a3c:	df000017 	ldw	fp,0(sp)
    7a40:	dec00104 	addi	sp,sp,4
    7a44:	f800283a 	ret

00007a48 <altera_avalon_jtag_uart_read>:
/* ----------------------------------------------------------- */

int 
altera_avalon_jtag_uart_read(altera_avalon_jtag_uart_state* sp, 
  char * buffer, int space, int flags)
{
    7a48:	defff304 	addi	sp,sp,-52
    7a4c:	dfc00c15 	stw	ra,48(sp)
    7a50:	df000b15 	stw	fp,44(sp)
    7a54:	df000b04 	addi	fp,sp,44
    7a58:	e13ffc15 	stw	r4,-16(fp)
    7a5c:	e17ffd15 	stw	r5,-12(fp)
    7a60:	e1bffe15 	stw	r6,-8(fp)
    7a64:	e1ffff15 	stw	r7,-4(fp)
  char * ptr = buffer;
    7a68:	e0bffd17 	ldw	r2,-12(fp)
    7a6c:	e0bff515 	stw	r2,-44(fp)
   * When running in a multi threaded environment, obtain the "read_lock"
   * semaphore. This ensures that reading from the device is thread-safe.
   */
  ALT_SEM_PEND (sp->read_lock, 0);

  while (space > 0)
    7a70:	00004706 	br	7b90 <altera_avalon_jtag_uart_read+0x148>
    unsigned int in, out;

    /* Read as much data as possible */
    do
    {
      in  = sp->rx_in;
    7a74:	e0bffc17 	ldw	r2,-16(fp)
    7a78:	10800a17 	ldw	r2,40(r2)
    7a7c:	e0bff715 	stw	r2,-36(fp)
      out = sp->rx_out;
    7a80:	e0bffc17 	ldw	r2,-16(fp)
    7a84:	10800b17 	ldw	r2,44(r2)
    7a88:	e0bff815 	stw	r2,-32(fp)

      if (in >= out)
    7a8c:	e0fff717 	ldw	r3,-36(fp)
    7a90:	e0bff817 	ldw	r2,-32(fp)
    7a94:	18800536 	bltu	r3,r2,7aac <altera_avalon_jtag_uart_read+0x64>
        n = in - out;
    7a98:	e0fff717 	ldw	r3,-36(fp)
    7a9c:	e0bff817 	ldw	r2,-32(fp)
    7aa0:	1885c83a 	sub	r2,r3,r2
    7aa4:	e0bff615 	stw	r2,-40(fp)
    7aa8:	00000406 	br	7abc <altera_avalon_jtag_uart_read+0x74>
      else
        n = ALTERA_AVALON_JTAG_UART_BUF_LEN - out;
    7aac:	00c20004 	movi	r3,2048
    7ab0:	e0bff817 	ldw	r2,-32(fp)
    7ab4:	1885c83a 	sub	r2,r3,r2
    7ab8:	e0bff615 	stw	r2,-40(fp)

      if (n == 0)
    7abc:	e0bff617 	ldw	r2,-40(fp)
    7ac0:	10001e26 	beq	r2,zero,7b3c <altera_avalon_jtag_uart_read+0xf4>
        break; /* No more data available */

      if (n > space)
    7ac4:	e0fffe17 	ldw	r3,-8(fp)
    7ac8:	e0bff617 	ldw	r2,-40(fp)
    7acc:	1880022e 	bgeu	r3,r2,7ad8 <altera_avalon_jtag_uart_read+0x90>
        n = space;
    7ad0:	e0bffe17 	ldw	r2,-8(fp)
    7ad4:	e0bff615 	stw	r2,-40(fp)

      memcpy(ptr, sp->rx_buf + out, n);
    7ad8:	e0bffc17 	ldw	r2,-16(fp)
    7adc:	10c00e04 	addi	r3,r2,56
    7ae0:	e0bff817 	ldw	r2,-32(fp)
    7ae4:	1885883a 	add	r2,r3,r2
    7ae8:	e1bff617 	ldw	r6,-40(fp)
    7aec:	100b883a 	mov	r5,r2
    7af0:	e13ff517 	ldw	r4,-44(fp)
    7af4:	00091b00 	call	91b0 <memcpy>
      ptr   += n;
    7af8:	e0fff517 	ldw	r3,-44(fp)
    7afc:	e0bff617 	ldw	r2,-40(fp)
    7b00:	1885883a 	add	r2,r3,r2
    7b04:	e0bff515 	stw	r2,-44(fp)
      space -= n;
    7b08:	e0fffe17 	ldw	r3,-8(fp)
    7b0c:	e0bff617 	ldw	r2,-40(fp)
    7b10:	1885c83a 	sub	r2,r3,r2
    7b14:	e0bffe15 	stw	r2,-8(fp)

      sp->rx_out = (out + n) % ALTERA_AVALON_JTAG_UART_BUF_LEN;
    7b18:	e0fff817 	ldw	r3,-32(fp)
    7b1c:	e0bff617 	ldw	r2,-40(fp)
    7b20:	1885883a 	add	r2,r3,r2
    7b24:	10c1ffcc 	andi	r3,r2,2047
    7b28:	e0bffc17 	ldw	r2,-16(fp)
    7b2c:	10c00b15 	stw	r3,44(r2)
    }
    while (space > 0);
    7b30:	e0bffe17 	ldw	r2,-8(fp)
    7b34:	00bfcf16 	blt	zero,r2,7a74 <__alt_mem_VGA_Subsystem_Char_Buf_Subsystem_Onchip_SRAM+0xf7007a74>
    7b38:	00000106 	br	7b40 <altera_avalon_jtag_uart_read+0xf8>
        n = in - out;
      else
        n = ALTERA_AVALON_JTAG_UART_BUF_LEN - out;

      if (n == 0)
        break; /* No more data available */
    7b3c:	0001883a 	nop
      sp->rx_out = (out + n) % ALTERA_AVALON_JTAG_UART_BUF_LEN;
    }
    while (space > 0);

    /* If we read any data then return it */
    if (ptr != buffer)
    7b40:	e0fff517 	ldw	r3,-44(fp)
    7b44:	e0bffd17 	ldw	r2,-12(fp)
    7b48:	1880141e 	bne	r3,r2,7b9c <altera_avalon_jtag_uart_read+0x154>
      break;

    /* If in non-blocking mode then return error */
    if (flags & O_NONBLOCK)
    7b4c:	e0bfff17 	ldw	r2,-4(fp)
    7b50:	1090000c 	andi	r2,r2,16384
    7b54:	1000131e 	bne	r2,zero,7ba4 <altera_avalon_jtag_uart_read+0x15c>
      while (in == sp->rx_in && sp->host_inactive < sp->timeout)
        ;
    }
#else
    /* No OS: Always spin */
    while (in == sp->rx_in && sp->host_inactive < sp->timeout)
    7b58:	0001883a 	nop
    7b5c:	e0bffc17 	ldw	r2,-16(fp)
    7b60:	10c00a17 	ldw	r3,40(r2)
    7b64:	e0bff717 	ldw	r2,-36(fp)
    7b68:	1880051e 	bne	r3,r2,7b80 <altera_avalon_jtag_uart_read+0x138>
    7b6c:	e0bffc17 	ldw	r2,-16(fp)
    7b70:	10c00917 	ldw	r3,36(r2)
    7b74:	e0bffc17 	ldw	r2,-16(fp)
    7b78:	10800117 	ldw	r2,4(r2)
    7b7c:	18bff736 	bltu	r3,r2,7b5c <__alt_mem_VGA_Subsystem_Char_Buf_Subsystem_Onchip_SRAM+0xf7007b5c>
      ;
#endif /* __ucosii__ */

    if (in == sp->rx_in)
    7b80:	e0bffc17 	ldw	r2,-16(fp)
    7b84:	10c00a17 	ldw	r3,40(r2)
    7b88:	e0bff717 	ldw	r2,-36(fp)
    7b8c:	18800726 	beq	r3,r2,7bac <altera_avalon_jtag_uart_read+0x164>
   * When running in a multi threaded environment, obtain the "read_lock"
   * semaphore. This ensures that reading from the device is thread-safe.
   */
  ALT_SEM_PEND (sp->read_lock, 0);

  while (space > 0)
    7b90:	e0bffe17 	ldw	r2,-8(fp)
    7b94:	00bfb716 	blt	zero,r2,7a74 <__alt_mem_VGA_Subsystem_Char_Buf_Subsystem_Onchip_SRAM+0xf7007a74>
    7b98:	00000506 	br	7bb0 <altera_avalon_jtag_uart_read+0x168>
    }
    while (space > 0);

    /* If we read any data then return it */
    if (ptr != buffer)
      break;
    7b9c:	0001883a 	nop
    7ba0:	00000306 	br	7bb0 <altera_avalon_jtag_uart_read+0x168>

    /* If in non-blocking mode then return error */
    if (flags & O_NONBLOCK)
      break;
    7ba4:	0001883a 	nop
    7ba8:	00000106 	br	7bb0 <altera_avalon_jtag_uart_read+0x168>
    while (in == sp->rx_in && sp->host_inactive < sp->timeout)
      ;
#endif /* __ucosii__ */

    if (in == sp->rx_in)
      break;
    7bac:	0001883a 	nop
   * semaphore so that other threads can access the buffer.
   */

  ALT_SEM_POST (sp->read_lock);

  if (ptr != buffer)
    7bb0:	e0fff517 	ldw	r3,-44(fp)
    7bb4:	e0bffd17 	ldw	r2,-12(fp)
    7bb8:	18801826 	beq	r3,r2,7c1c <altera_avalon_jtag_uart_read+0x1d4>
static ALT_INLINE alt_irq_context ALT_ALWAYS_INLINE 
       alt_irq_disable_all (void)
{
  alt_irq_context context;

  NIOS2_READ_STATUS (context);
    7bbc:	0005303a 	rdctl	r2,status
    7bc0:	e0bffb15 	stw	r2,-20(fp)

  NIOS2_WRITE_STATUS (context & ~NIOS2_STATUS_PIE_MSK);
    7bc4:	e0fffb17 	ldw	r3,-20(fp)
    7bc8:	00bfff84 	movi	r2,-2
    7bcc:	1884703a 	and	r2,r3,r2
    7bd0:	1001703a 	wrctl	status,r2
  
  return context;
    7bd4:	e0bffb17 	ldw	r2,-20(fp)
  {
    /* If we read any data then there is space in the buffer so enable interrupts */
    context = alt_irq_disable_all();
    7bd8:	e0bffa15 	stw	r2,-24(fp)
    sp->irq_enable |= ALTERA_AVALON_JTAG_UART_CONTROL_RE_MSK;
    7bdc:	e0bffc17 	ldw	r2,-16(fp)
    7be0:	10800817 	ldw	r2,32(r2)
    7be4:	10c00054 	ori	r3,r2,1
    7be8:	e0bffc17 	ldw	r2,-16(fp)
    7bec:	10c00815 	stw	r3,32(r2)
    IOWR_ALTERA_AVALON_JTAG_UART_CONTROL(sp->base, sp->irq_enable);
    7bf0:	e0bffc17 	ldw	r2,-16(fp)
    7bf4:	10800017 	ldw	r2,0(r2)
    7bf8:	10800104 	addi	r2,r2,4
    7bfc:	1007883a 	mov	r3,r2
    7c00:	e0bffc17 	ldw	r2,-16(fp)
    7c04:	10800817 	ldw	r2,32(r2)
    7c08:	18800035 	stwio	r2,0(r3)
    7c0c:	e0bffa17 	ldw	r2,-24(fp)
    7c10:	e0bff915 	stw	r2,-28(fp)
  status &= ~NIOS2_STATUS_PIE_MSK;
  status |= (context & NIOS2_STATUS_PIE_MSK);
  
  NIOS2_WRITE_STATUS (status);
#else
  NIOS2_WRITE_STATUS (context);
    7c14:	e0bff917 	ldw	r2,-28(fp)
    7c18:	1001703a 	wrctl	status,r2
    alt_irq_enable_all(context);
  }

  if (ptr != buffer)
    7c1c:	e0fff517 	ldw	r3,-44(fp)
    7c20:	e0bffd17 	ldw	r2,-12(fp)
    7c24:	18800426 	beq	r3,r2,7c38 <altera_avalon_jtag_uart_read+0x1f0>
    return ptr - buffer;
    7c28:	e0fff517 	ldw	r3,-44(fp)
    7c2c:	e0bffd17 	ldw	r2,-12(fp)
    7c30:	1885c83a 	sub	r2,r3,r2
    7c34:	00000606 	br	7c50 <altera_avalon_jtag_uart_read+0x208>
  else if (flags & O_NONBLOCK)
    7c38:	e0bfff17 	ldw	r2,-4(fp)
    7c3c:	1090000c 	andi	r2,r2,16384
    7c40:	10000226 	beq	r2,zero,7c4c <altera_avalon_jtag_uart_read+0x204>
    return -EWOULDBLOCK;
    7c44:	00bffd44 	movi	r2,-11
    7c48:	00000106 	br	7c50 <altera_avalon_jtag_uart_read+0x208>
  else
    return -EIO;
    7c4c:	00bffec4 	movi	r2,-5
}
    7c50:	e037883a 	mov	sp,fp
    7c54:	dfc00117 	ldw	ra,4(sp)
    7c58:	df000017 	ldw	fp,0(sp)
    7c5c:	dec00204 	addi	sp,sp,8
    7c60:	f800283a 	ret

00007c64 <altera_avalon_jtag_uart_write>:
/* ----------------------------------------------------------- */

int 
altera_avalon_jtag_uart_write(altera_avalon_jtag_uart_state* sp, 
  const char * ptr, int count, int flags)
{
    7c64:	defff304 	addi	sp,sp,-52
    7c68:	dfc00c15 	stw	ra,48(sp)
    7c6c:	df000b15 	stw	fp,44(sp)
    7c70:	df000b04 	addi	fp,sp,44
    7c74:	e13ffc15 	stw	r4,-16(fp)
    7c78:	e17ffd15 	stw	r5,-12(fp)
    7c7c:	e1bffe15 	stw	r6,-8(fp)
    7c80:	e1ffff15 	stw	r7,-4(fp)
  /* Remove warning at optimisation level 03 by seting out to 0 */
  unsigned int in, out=0;
    7c84:	e03ff515 	stw	zero,-44(fp)
  unsigned int n;
  alt_irq_context context;

  const char * start = ptr;
    7c88:	e0bffd17 	ldw	r2,-12(fp)
    7c8c:	e0bff715 	stw	r2,-36(fp)
  ALT_SEM_PEND (sp->write_lock, 0);

  do
  {
    /* Copy as much as we can into the transmit buffer */
    while (count > 0)
    7c90:	00003706 	br	7d70 <altera_avalon_jtag_uart_write+0x10c>
    {
      /* We need a stable value of the out pointer to calculate the space available */
      in  = sp->tx_in;
    7c94:	e0bffc17 	ldw	r2,-16(fp)
    7c98:	10800c17 	ldw	r2,48(r2)
    7c9c:	e0bff915 	stw	r2,-28(fp)
      out = sp->tx_out;
    7ca0:	e0bffc17 	ldw	r2,-16(fp)
    7ca4:	10800d17 	ldw	r2,52(r2)
    7ca8:	e0bff515 	stw	r2,-44(fp)

      if (in < out)
    7cac:	e0fff917 	ldw	r3,-28(fp)
    7cb0:	e0bff517 	ldw	r2,-44(fp)
    7cb4:	1880062e 	bgeu	r3,r2,7cd0 <altera_avalon_jtag_uart_write+0x6c>
        n = out - 1 - in;
    7cb8:	e0fff517 	ldw	r3,-44(fp)
    7cbc:	e0bff917 	ldw	r2,-28(fp)
    7cc0:	1885c83a 	sub	r2,r3,r2
    7cc4:	10bfffc4 	addi	r2,r2,-1
    7cc8:	e0bff615 	stw	r2,-40(fp)
    7ccc:	00000b06 	br	7cfc <altera_avalon_jtag_uart_write+0x98>
      else if (out > 0)
    7cd0:	e0bff517 	ldw	r2,-44(fp)
    7cd4:	10000526 	beq	r2,zero,7cec <altera_avalon_jtag_uart_write+0x88>
        n = ALTERA_AVALON_JTAG_UART_BUF_LEN - in;
    7cd8:	00c20004 	movi	r3,2048
    7cdc:	e0bff917 	ldw	r2,-28(fp)
    7ce0:	1885c83a 	sub	r2,r3,r2
    7ce4:	e0bff615 	stw	r2,-40(fp)
    7ce8:	00000406 	br	7cfc <altera_avalon_jtag_uart_write+0x98>
      else
        n = ALTERA_AVALON_JTAG_UART_BUF_LEN - 1 - in;
    7cec:	00c1ffc4 	movi	r3,2047
    7cf0:	e0bff917 	ldw	r2,-28(fp)
    7cf4:	1885c83a 	sub	r2,r3,r2
    7cf8:	e0bff615 	stw	r2,-40(fp)

      if (n == 0)
    7cfc:	e0bff617 	ldw	r2,-40(fp)
    7d00:	10001e26 	beq	r2,zero,7d7c <altera_avalon_jtag_uart_write+0x118>
        break;

      if (n > count)
    7d04:	e0fffe17 	ldw	r3,-8(fp)
    7d08:	e0bff617 	ldw	r2,-40(fp)
    7d0c:	1880022e 	bgeu	r3,r2,7d18 <altera_avalon_jtag_uart_write+0xb4>
        n = count;
    7d10:	e0bffe17 	ldw	r2,-8(fp)
    7d14:	e0bff615 	stw	r2,-40(fp)

      memcpy(sp->tx_buf + in, ptr, n);
    7d18:	e0bffc17 	ldw	r2,-16(fp)
    7d1c:	10c20e04 	addi	r3,r2,2104
    7d20:	e0bff917 	ldw	r2,-28(fp)
    7d24:	1885883a 	add	r2,r3,r2
    7d28:	e1bff617 	ldw	r6,-40(fp)
    7d2c:	e17ffd17 	ldw	r5,-12(fp)
    7d30:	1009883a 	mov	r4,r2
    7d34:	00091b00 	call	91b0 <memcpy>
      ptr   += n;
    7d38:	e0fffd17 	ldw	r3,-12(fp)
    7d3c:	e0bff617 	ldw	r2,-40(fp)
    7d40:	1885883a 	add	r2,r3,r2
    7d44:	e0bffd15 	stw	r2,-12(fp)
      count -= n;
    7d48:	e0fffe17 	ldw	r3,-8(fp)
    7d4c:	e0bff617 	ldw	r2,-40(fp)
    7d50:	1885c83a 	sub	r2,r3,r2
    7d54:	e0bffe15 	stw	r2,-8(fp)

      sp->tx_in = (in + n) % ALTERA_AVALON_JTAG_UART_BUF_LEN;
    7d58:	e0fff917 	ldw	r3,-28(fp)
    7d5c:	e0bff617 	ldw	r2,-40(fp)
    7d60:	1885883a 	add	r2,r3,r2
    7d64:	10c1ffcc 	andi	r3,r2,2047
    7d68:	e0bffc17 	ldw	r2,-16(fp)
    7d6c:	10c00c15 	stw	r3,48(r2)
  ALT_SEM_PEND (sp->write_lock, 0);

  do
  {
    /* Copy as much as we can into the transmit buffer */
    while (count > 0)
    7d70:	e0bffe17 	ldw	r2,-8(fp)
    7d74:	00bfc716 	blt	zero,r2,7c94 <__alt_mem_VGA_Subsystem_Char_Buf_Subsystem_Onchip_SRAM+0xf7007c94>
    7d78:	00000106 	br	7d80 <altera_avalon_jtag_uart_write+0x11c>
        n = ALTERA_AVALON_JTAG_UART_BUF_LEN - in;
      else
        n = ALTERA_AVALON_JTAG_UART_BUF_LEN - 1 - in;

      if (n == 0)
        break;
    7d7c:	0001883a 	nop
static ALT_INLINE alt_irq_context ALT_ALWAYS_INLINE 
       alt_irq_disable_all (void)
{
  alt_irq_context context;

  NIOS2_READ_STATUS (context);
    7d80:	0005303a 	rdctl	r2,status
    7d84:	e0bffb15 	stw	r2,-20(fp)

  NIOS2_WRITE_STATUS (context & ~NIOS2_STATUS_PIE_MSK);
    7d88:	e0fffb17 	ldw	r3,-20(fp)
    7d8c:	00bfff84 	movi	r2,-2
    7d90:	1884703a 	and	r2,r3,r2
    7d94:	1001703a 	wrctl	status,r2
  
  return context;
    7d98:	e0bffb17 	ldw	r2,-20(fp)
     * to enable interrupts if there is no space left in the FIFO
     *
     * For now kick the interrupt routine every time to make it transmit 
     * the data 
     */
    context = alt_irq_disable_all();
    7d9c:	e0bffa15 	stw	r2,-24(fp)
    sp->irq_enable |= ALTERA_AVALON_JTAG_UART_CONTROL_WE_MSK;
    7da0:	e0bffc17 	ldw	r2,-16(fp)
    7da4:	10800817 	ldw	r2,32(r2)
    7da8:	10c00094 	ori	r3,r2,2
    7dac:	e0bffc17 	ldw	r2,-16(fp)
    7db0:	10c00815 	stw	r3,32(r2)
    IOWR_ALTERA_AVALON_JTAG_UART_CONTROL(sp->base, sp->irq_enable);
    7db4:	e0bffc17 	ldw	r2,-16(fp)
    7db8:	10800017 	ldw	r2,0(r2)
    7dbc:	10800104 	addi	r2,r2,4
    7dc0:	1007883a 	mov	r3,r2
    7dc4:	e0bffc17 	ldw	r2,-16(fp)
    7dc8:	10800817 	ldw	r2,32(r2)
    7dcc:	18800035 	stwio	r2,0(r3)
    7dd0:	e0bffa17 	ldw	r2,-24(fp)
    7dd4:	e0bff815 	stw	r2,-32(fp)
  status &= ~NIOS2_STATUS_PIE_MSK;
  status |= (context & NIOS2_STATUS_PIE_MSK);
  
  NIOS2_WRITE_STATUS (status);
#else
  NIOS2_WRITE_STATUS (context);
    7dd8:	e0bff817 	ldw	r2,-32(fp)
    7ddc:	1001703a 	wrctl	status,r2
    /* 
     * If there is any data left then either return now or block until 
     * some has been sent 
     */
    /* consider: test whether there is anything there while doing this and delay for at most 2s. */
    if (count > 0)
    7de0:	e0bffe17 	ldw	r2,-8(fp)
    7de4:	0080100e 	bge	zero,r2,7e28 <altera_avalon_jtag_uart_write+0x1c4>
    {
      if (flags & O_NONBLOCK)
    7de8:	e0bfff17 	ldw	r2,-4(fp)
    7dec:	1090000c 	andi	r2,r2,16384
    7df0:	1000101e 	bne	r2,zero,7e34 <altera_avalon_jtag_uart_write+0x1d0>
      /*
       * No OS present: Always wait for data to be removed from buffer.  Once
       * the interrupt routine has removed some data then we will be able to
       * insert some more.
       */
      while (out == sp->tx_out && sp->host_inactive < sp->timeout)
    7df4:	0001883a 	nop
    7df8:	e0bffc17 	ldw	r2,-16(fp)
    7dfc:	10c00d17 	ldw	r3,52(r2)
    7e00:	e0bff517 	ldw	r2,-44(fp)
    7e04:	1880051e 	bne	r3,r2,7e1c <altera_avalon_jtag_uart_write+0x1b8>
    7e08:	e0bffc17 	ldw	r2,-16(fp)
    7e0c:	10c00917 	ldw	r3,36(r2)
    7e10:	e0bffc17 	ldw	r2,-16(fp)
    7e14:	10800117 	ldw	r2,4(r2)
    7e18:	18bff736 	bltu	r3,r2,7df8 <__alt_mem_VGA_Subsystem_Char_Buf_Subsystem_Onchip_SRAM+0xf7007df8>
        ;
#endif /* __ucosii__ */

      if  (sp->host_inactive)
    7e1c:	e0bffc17 	ldw	r2,-16(fp)
    7e20:	10800917 	ldw	r2,36(r2)
    7e24:	1000051e 	bne	r2,zero,7e3c <altera_avalon_jtag_uart_write+0x1d8>
         break;
    }
  }
  while (count > 0);
    7e28:	e0bffe17 	ldw	r2,-8(fp)
    7e2c:	00bfd016 	blt	zero,r2,7d70 <__alt_mem_VGA_Subsystem_Char_Buf_Subsystem_Onchip_SRAM+0xf7007d70>
    7e30:	00000306 	br	7e40 <altera_avalon_jtag_uart_write+0x1dc>
     */
    /* consider: test whether there is anything there while doing this and delay for at most 2s. */
    if (count > 0)
    {
      if (flags & O_NONBLOCK)
        break;
    7e34:	0001883a 	nop
    7e38:	00000106 	br	7e40 <altera_avalon_jtag_uart_write+0x1dc>
      while (out == sp->tx_out && sp->host_inactive < sp->timeout)
        ;
#endif /* __ucosii__ */

      if  (sp->host_inactive)
         break;
    7e3c:	0001883a 	nop
   * Now that access to the circular buffer is complete, release the write
   * semaphore so that other threads can access the buffer.
   */
  ALT_SEM_POST (sp->write_lock);

  if (ptr != start)
    7e40:	e0fffd17 	ldw	r3,-12(fp)
    7e44:	e0bff717 	ldw	r2,-36(fp)
    7e48:	18800426 	beq	r3,r2,7e5c <altera_avalon_jtag_uart_write+0x1f8>
    return ptr - start;
    7e4c:	e0fffd17 	ldw	r3,-12(fp)
    7e50:	e0bff717 	ldw	r2,-36(fp)
    7e54:	1885c83a 	sub	r2,r3,r2
    7e58:	00000606 	br	7e74 <altera_avalon_jtag_uart_write+0x210>
  else if (flags & O_NONBLOCK)
    7e5c:	e0bfff17 	ldw	r2,-4(fp)
    7e60:	1090000c 	andi	r2,r2,16384
    7e64:	10000226 	beq	r2,zero,7e70 <altera_avalon_jtag_uart_write+0x20c>
    return -EWOULDBLOCK;
    7e68:	00bffd44 	movi	r2,-11
    7e6c:	00000106 	br	7e74 <altera_avalon_jtag_uart_write+0x210>
    sp->tx_out = sp->tx_in = 0;
    return ptr - start + count;
  }
#endif
  else
    return -EIO; /* Host not connected */
    7e70:	00bffec4 	movi	r2,-5
}
    7e74:	e037883a 	mov	sp,fp
    7e78:	dfc00117 	ldw	ra,4(sp)
    7e7c:	df000017 	ldw	fp,0(sp)
    7e80:	dec00204 	addi	sp,sp,8
    7e84:	f800283a 	ret

00007e88 <alt_avalon_timer_sc_irq>:
#ifdef ALT_ENHANCED_INTERRUPT_API_PRESENT
static void alt_avalon_timer_sc_irq (void* base)
#else
static void alt_avalon_timer_sc_irq (void* base, alt_u32 id)
#endif
{
    7e88:	defffa04 	addi	sp,sp,-24
    7e8c:	dfc00515 	stw	ra,20(sp)
    7e90:	df000415 	stw	fp,16(sp)
    7e94:	df000404 	addi	fp,sp,16
    7e98:	e13fff15 	stw	r4,-4(fp)
  alt_irq_context cpu_sr;
  
  /* clear the interrupt */
  IOWR_ALTERA_AVALON_TIMER_STATUS (base, 0);
    7e9c:	0007883a 	mov	r3,zero
    7ea0:	e0bfff17 	ldw	r2,-4(fp)
    7ea4:	10c00035 	stwio	r3,0(r2)
  /* 
   * Dummy read to ensure IRQ is negated before the ISR returns.
   * The control register is read because reading the status
   * register has side-effects per the register map documentation.
   */
  IORD_ALTERA_AVALON_TIMER_CONTROL (base);
    7ea8:	e0bfff17 	ldw	r2,-4(fp)
    7eac:	10800104 	addi	r2,r2,4
    7eb0:	10800037 	ldwio	r2,0(r2)
static ALT_INLINE alt_irq_context ALT_ALWAYS_INLINE 
       alt_irq_disable_all (void)
{
  alt_irq_context context;

  NIOS2_READ_STATUS (context);
    7eb4:	0005303a 	rdctl	r2,status
    7eb8:	e0bffd15 	stw	r2,-12(fp)

  NIOS2_WRITE_STATUS (context & ~NIOS2_STATUS_PIE_MSK);
    7ebc:	e0fffd17 	ldw	r3,-12(fp)
    7ec0:	00bfff84 	movi	r2,-2
    7ec4:	1884703a 	and	r2,r3,r2
    7ec8:	1001703a 	wrctl	status,r2
  
  return context;
    7ecc:	e0bffd17 	ldw	r2,-12(fp)

  /* 
   * Notify the system of a clock tick. disable interrupts 
   * during this time to safely support ISR preemption
   */
  cpu_sr = alt_irq_disable_all();
    7ed0:	e0bffc15 	stw	r2,-16(fp)
  alt_tick ();
    7ed4:	0008cc40 	call	8cc4 <alt_tick>
    7ed8:	e0bffc17 	ldw	r2,-16(fp)
    7edc:	e0bffe15 	stw	r2,-8(fp)
  status &= ~NIOS2_STATUS_PIE_MSK;
  status |= (context & NIOS2_STATUS_PIE_MSK);
  
  NIOS2_WRITE_STATUS (status);
#else
  NIOS2_WRITE_STATUS (context);
    7ee0:	e0bffe17 	ldw	r2,-8(fp)
    7ee4:	1001703a 	wrctl	status,r2
  alt_irq_enable_all(cpu_sr);
}
    7ee8:	0001883a 	nop
    7eec:	e037883a 	mov	sp,fp
    7ef0:	dfc00117 	ldw	ra,4(sp)
    7ef4:	df000017 	ldw	fp,0(sp)
    7ef8:	dec00204 	addi	sp,sp,8
    7efc:	f800283a 	ret

00007f00 <alt_avalon_timer_sc_init>:
 * auto-generated alt_sys_init() function.
 */

void alt_avalon_timer_sc_init (void* base, alt_u32 irq_controller_id, 
                                alt_u32 irq, alt_u32 freq)
{
    7f00:	defff804 	addi	sp,sp,-32
    7f04:	dfc00715 	stw	ra,28(sp)
    7f08:	df000615 	stw	fp,24(sp)
    7f0c:	df000604 	addi	fp,sp,24
    7f10:	e13ffc15 	stw	r4,-16(fp)
    7f14:	e17ffd15 	stw	r5,-12(fp)
    7f18:	e1bffe15 	stw	r6,-8(fp)
    7f1c:	e1ffff15 	stw	r7,-4(fp)
    7f20:	e0bfff17 	ldw	r2,-4(fp)
    7f24:	e0bffb15 	stw	r2,-20(fp)
 * in order to initialise the value of the clock frequency.
 */

static ALT_INLINE int ALT_ALWAYS_INLINE alt_sysclk_init (alt_u32 nticks)
{
  if (! _alt_tick_rate)
    7f28:	d0a5f317 	ldw	r2,-26676(gp)
    7f2c:	1000021e 	bne	r2,zero,7f38 <alt_avalon_timer_sc_init+0x38>
  {
    _alt_tick_rate = nticks;
    7f30:	e0bffb17 	ldw	r2,-20(fp)
    7f34:	d0a5f315 	stw	r2,-26676(gp)
  
  alt_sysclk_init (freq);
  
  /* set to free running mode */
  
  IOWR_ALTERA_AVALON_TIMER_CONTROL (base, 
    7f38:	e0bffc17 	ldw	r2,-16(fp)
    7f3c:	10800104 	addi	r2,r2,4
    7f40:	00c001c4 	movi	r3,7
    7f44:	10c00035 	stwio	r3,0(r2)
            ALTERA_AVALON_TIMER_CONTROL_CONT_MSK |
            ALTERA_AVALON_TIMER_CONTROL_START_MSK);

  /* register the interrupt handler, and enable the interrupt */
#ifdef ALT_ENHANCED_INTERRUPT_API_PRESENT
  alt_ic_isr_register(irq_controller_id, irq, alt_avalon_timer_sc_irq, 
    7f48:	d8000015 	stw	zero,0(sp)
    7f4c:	e1fffc17 	ldw	r7,-16(fp)
    7f50:	01800034 	movhi	r6,0
    7f54:	319fa204 	addi	r6,r6,32392
    7f58:	e17ffe17 	ldw	r5,-8(fp)
    7f5c:	e13ffd17 	ldw	r4,-12(fp)
    7f60:	00085200 	call	8520 <alt_ic_isr_register>
                      base, NULL);
#else
  alt_irq_register (irq, base, alt_avalon_timer_sc_irq);
#endif  
}
    7f64:	0001883a 	nop
    7f68:	e037883a 	mov	sp,fp
    7f6c:	dfc00117 	ldw	ra,4(sp)
    7f70:	df000017 	ldw	fp,0(sp)
    7f74:	dec00204 	addi	sp,sp,8
    7f78:	f800283a 	ret

00007f7c <alt_alarm_start>:
 */ 

int alt_alarm_start (alt_alarm* alarm, alt_u32 nticks,
                     alt_u32 (*callback) (void* context),
                     void* context)
{
    7f7c:	defff504 	addi	sp,sp,-44
    7f80:	df000a15 	stw	fp,40(sp)
    7f84:	df000a04 	addi	fp,sp,40
    7f88:	e13ffc15 	stw	r4,-16(fp)
    7f8c:	e17ffd15 	stw	r5,-12(fp)
    7f90:	e1bffe15 	stw	r6,-8(fp)
    7f94:	e1ffff15 	stw	r7,-4(fp)
  alt_irq_context irq_context;
  alt_u32 current_nticks = 0;
    7f98:	e03ff615 	stw	zero,-40(fp)
 * Obtain the system clock rate in ticks/s. 
 */

static ALT_INLINE alt_u32 ALT_ALWAYS_INLINE alt_ticks_per_second (void)
{
  return _alt_tick_rate;
    7f9c:	d0a5f317 	ldw	r2,-26676(gp)
  
  if (alt_ticks_per_second ())
    7fa0:	10003c26 	beq	r2,zero,8094 <alt_alarm_start+0x118>
  {
    if (alarm)
    7fa4:	e0bffc17 	ldw	r2,-16(fp)
    7fa8:	10003826 	beq	r2,zero,808c <alt_alarm_start+0x110>
    {
      alarm->callback = callback;
    7fac:	e0bffc17 	ldw	r2,-16(fp)
    7fb0:	e0fffe17 	ldw	r3,-8(fp)
    7fb4:	10c00315 	stw	r3,12(r2)
      alarm->context  = context;
    7fb8:	e0bffc17 	ldw	r2,-16(fp)
    7fbc:	e0ffff17 	ldw	r3,-4(fp)
    7fc0:	10c00515 	stw	r3,20(r2)
static ALT_INLINE alt_irq_context ALT_ALWAYS_INLINE 
       alt_irq_disable_all (void)
{
  alt_irq_context context;

  NIOS2_READ_STATUS (context);
    7fc4:	0005303a 	rdctl	r2,status
    7fc8:	e0bff915 	stw	r2,-28(fp)

  NIOS2_WRITE_STATUS (context & ~NIOS2_STATUS_PIE_MSK);
    7fcc:	e0fff917 	ldw	r3,-28(fp)
    7fd0:	00bfff84 	movi	r2,-2
    7fd4:	1884703a 	and	r2,r3,r2
    7fd8:	1001703a 	wrctl	status,r2
  
  return context;
    7fdc:	e0bff917 	ldw	r2,-28(fp)
 
      irq_context = alt_irq_disable_all ();
    7fe0:	e0bff815 	stw	r2,-32(fp)
 * alt_nticks() returns the elapsed number of system clock ticks since reset.
 */

static ALT_INLINE alt_u32 ALT_ALWAYS_INLINE alt_nticks (void)
{
  return _alt_nticks;
    7fe4:	d0a5f417 	ldw	r2,-26672(gp)
      
      current_nticks = alt_nticks();
    7fe8:	e0bff615 	stw	r2,-40(fp)
      
      alarm->time = nticks + current_nticks + 1; 
    7fec:	e0fffd17 	ldw	r3,-12(fp)
    7ff0:	e0bff617 	ldw	r2,-40(fp)
    7ff4:	1885883a 	add	r2,r3,r2
    7ff8:	10c00044 	addi	r3,r2,1
    7ffc:	e0bffc17 	ldw	r2,-16(fp)
    8000:	10c00215 	stw	r3,8(r2)
      /* 
       * If the desired alarm time causes a roll-over, set the rollover
       * flag. This will prevent the subsequent tick event from causing
       * an alarm too early.
       */
      if(alarm->time < current_nticks)
    8004:	e0bffc17 	ldw	r2,-16(fp)
    8008:	10c00217 	ldw	r3,8(r2)
    800c:	e0bff617 	ldw	r2,-40(fp)
    8010:	1880042e 	bgeu	r3,r2,8024 <alt_alarm_start+0xa8>
      {
        alarm->rollover = 1;
    8014:	e0bffc17 	ldw	r2,-16(fp)
    8018:	00c00044 	movi	r3,1
    801c:	10c00405 	stb	r3,16(r2)
    8020:	00000206 	br	802c <alt_alarm_start+0xb0>
      }
      else
      {
        alarm->rollover = 0;
    8024:	e0bffc17 	ldw	r2,-16(fp)
    8028:	10000405 	stb	zero,16(r2)
      }
    
      alt_llist_insert (&alt_alarm_list, &alarm->llist);
    802c:	e0bffc17 	ldw	r2,-16(fp)
    8030:	d0e00b04 	addi	r3,gp,-32724
    8034:	e0fffa15 	stw	r3,-24(fp)
    8038:	e0bffb15 	stw	r2,-20(fp)
 */

static ALT_INLINE void ALT_ALWAYS_INLINE alt_llist_insert(alt_llist* list, 
                alt_llist* entry)
{
  entry->previous = list;
    803c:	e0bffb17 	ldw	r2,-20(fp)
    8040:	e0fffa17 	ldw	r3,-24(fp)
    8044:	10c00115 	stw	r3,4(r2)
  entry->next     = list->next;
    8048:	e0bffa17 	ldw	r2,-24(fp)
    804c:	10c00017 	ldw	r3,0(r2)
    8050:	e0bffb17 	ldw	r2,-20(fp)
    8054:	10c00015 	stw	r3,0(r2)

  list->next->previous = entry;
    8058:	e0bffa17 	ldw	r2,-24(fp)
    805c:	10800017 	ldw	r2,0(r2)
    8060:	e0fffb17 	ldw	r3,-20(fp)
    8064:	10c00115 	stw	r3,4(r2)
  list->next           = entry;
    8068:	e0bffa17 	ldw	r2,-24(fp)
    806c:	e0fffb17 	ldw	r3,-20(fp)
    8070:	10c00015 	stw	r3,0(r2)
    8074:	e0bff817 	ldw	r2,-32(fp)
    8078:	e0bff715 	stw	r2,-36(fp)
  status &= ~NIOS2_STATUS_PIE_MSK;
  status |= (context & NIOS2_STATUS_PIE_MSK);
  
  NIOS2_WRITE_STATUS (status);
#else
  NIOS2_WRITE_STATUS (context);
    807c:	e0bff717 	ldw	r2,-36(fp)
    8080:	1001703a 	wrctl	status,r2
      alt_irq_enable_all (irq_context);

      return 0;
    8084:	0005883a 	mov	r2,zero
    8088:	00000306 	br	8098 <alt_alarm_start+0x11c>
    }
    else
    {
      return -EINVAL;
    808c:	00bffa84 	movi	r2,-22
    8090:	00000106 	br	8098 <alt_alarm_start+0x11c>
    }
  }
  else
  {
    return -ENOTSUP;
    8094:	00bfde84 	movi	r2,-134
  }
}
    8098:	e037883a 	mov	sp,fp
    809c:	df000017 	ldw	fp,0(sp)
    80a0:	dec00104 	addi	sp,sp,4
    80a4:	f800283a 	ret

000080a8 <alt_busy_sleep>:
#include "alt_types.h"

#include "priv/alt_busy_sleep.h"

unsigned int alt_busy_sleep (unsigned int us)
{
    80a8:	defffa04 	addi	sp,sp,-24
    80ac:	dfc00515 	stw	ra,20(sp)
    80b0:	df000415 	stw	fp,16(sp)
    80b4:	df000404 	addi	fp,sp,16
    80b8:	e13fff15 	stw	r4,-4(fp)
  int big_loops;
  alt_u32 cycles_per_loop;
  
  if (!strcmp(NIOS2_CPU_IMPLEMENTATION,"tiny"))
  {
    cycles_per_loop = 9;
    80bc:	00800244 	movi	r2,9
    80c0:	e0bffd15 	stw	r2,-12(fp)
    cycles_per_loop = 3;
  }
  

  big_loops = us / (INT_MAX/
  (ALT_CPU_FREQ/(cycles_per_loop * 1000000)));
    80c4:	014003f4 	movhi	r5,15
    80c8:	29509004 	addi	r5,r5,16960
    80cc:	e13ffd17 	ldw	r4,-12(fp)
    80d0:	00043e00 	call	43e0 <__mulsi3>
    80d4:	100b883a 	mov	r5,r2
    80d8:	01017db4 	movhi	r4,1526
    80dc:	21384004 	addi	r4,r4,-7936
    80e0:	00043240 	call	4324 <__udivsi3>
  {
    cycles_per_loop = 3;
  }
  

  big_loops = us / (INT_MAX/
    80e4:	100b883a 	mov	r5,r2
    80e8:	01200034 	movhi	r4,32768
    80ec:	213fffc4 	addi	r4,r4,-1
    80f0:	00043240 	call	4324 <__udivsi3>
    80f4:	100b883a 	mov	r5,r2
    80f8:	e13fff17 	ldw	r4,-4(fp)
    80fc:	00043240 	call	4324 <__udivsi3>
    8100:	e0bffe15 	stw	r2,-8(fp)
  (ALT_CPU_FREQ/(cycles_per_loop * 1000000)));

  if (big_loops)
    8104:	e0bffe17 	ldw	r2,-8(fp)
    8108:	10002a26 	beq	r2,zero,81b4 <alt_busy_sleep+0x10c>
  {
    for(i=0;i<big_loops;i++)
    810c:	e03ffc15 	stw	zero,-16(fp)
    8110:	00001706 	br	8170 <alt_busy_sleep+0xc8>
      /*
      * Do NOT Try to single step the asm statement below 
      * (single step will never return)
      * Step out of this function or set a breakpoint after the asm statements
      */
      __asm__ volatile (
    8114:	00a00034 	movhi	r2,32768
    8118:	10bfffc4 	addi	r2,r2,-1
    811c:	10bfffc4 	addi	r2,r2,-1
    8120:	103ffe1e 	bne	r2,zero,811c <__alt_mem_VGA_Subsystem_Char_Buf_Subsystem_Onchip_SRAM+0xf700811c>
        "\n\t.pushsection .debug_alt_sim_info"
        "\n\t.int 4, 0, 0b, 1b"
        "\n\t.popsection"
        :: "r" (INT_MAX));
      us -= (INT_MAX/(ALT_CPU_FREQ/
      (cycles_per_loop * 1000000)));
    8124:	014003f4 	movhi	r5,15
    8128:	29509004 	addi	r5,r5,16960
    812c:	e13ffd17 	ldw	r4,-12(fp)
    8130:	00043e00 	call	43e0 <__mulsi3>
        "\n1:"
        "\n\t.pushsection .debug_alt_sim_info"
        "\n\t.int 4, 0, 0b, 1b"
        "\n\t.popsection"
        :: "r" (INT_MAX));
      us -= (INT_MAX/(ALT_CPU_FREQ/
    8134:	100b883a 	mov	r5,r2
    8138:	01017db4 	movhi	r4,1526
    813c:	21384004 	addi	r4,r4,-7936
    8140:	00043240 	call	4324 <__udivsi3>
    8144:	100b883a 	mov	r5,r2
    8148:	01200034 	movhi	r4,32768
    814c:	213fffc4 	addi	r4,r4,-1
    8150:	00043240 	call	4324 <__udivsi3>
    8154:	1007883a 	mov	r3,r2
    8158:	e0bfff17 	ldw	r2,-4(fp)
    815c:	10c5c83a 	sub	r2,r2,r3
    8160:	e0bfff15 	stw	r2,-4(fp)
  big_loops = us / (INT_MAX/
  (ALT_CPU_FREQ/(cycles_per_loop * 1000000)));

  if (big_loops)
  {
    for(i=0;i<big_loops;i++)
    8164:	e0bffc17 	ldw	r2,-16(fp)
    8168:	10800044 	addi	r2,r2,1
    816c:	e0bffc15 	stw	r2,-16(fp)
    8170:	e0fffc17 	ldw	r3,-16(fp)
    8174:	e0bffe17 	ldw	r2,-8(fp)
    8178:	18bfe616 	blt	r3,r2,8114 <__alt_mem_VGA_Subsystem_Char_Buf_Subsystem_Onchip_SRAM+0xf7008114>
      "\n\tbne %0,zero,0b"
      "\n1:"
      "\n\t.pushsection .debug_alt_sim_info"
      "\n\t.int 4, 0, 0b, 1b"
      "\n\t.popsection"
      :: "r" (us*(ALT_CPU_FREQ/(cycles_per_loop * 1000000))));
    817c:	014003f4 	movhi	r5,15
    8180:	29509004 	addi	r5,r5,16960
    8184:	e13ffd17 	ldw	r4,-12(fp)
    8188:	00043e00 	call	43e0 <__mulsi3>
    818c:	100b883a 	mov	r5,r2
    8190:	01017db4 	movhi	r4,1526
    8194:	21384004 	addi	r4,r4,-7936
    8198:	00043240 	call	4324 <__udivsi3>
    819c:	e17fff17 	ldw	r5,-4(fp)
    81a0:	1009883a 	mov	r4,r2
    81a4:	00043e00 	call	43e0 <__mulsi3>
    /*
    * Do NOT Try to single step the asm statement below 
    * (single step will never return)
    * Step out of this function or set a breakpoint after the asm statements
    */
    __asm__ volatile (
    81a8:	10bfffc4 	addi	r2,r2,-1
    81ac:	103ffe1e 	bne	r2,zero,81a8 <__alt_mem_VGA_Subsystem_Char_Buf_Subsystem_Onchip_SRAM+0xf70081a8>
    81b0:	00000d06 	br	81e8 <alt_busy_sleep+0x140>
      "\n\tbgt %0,zero,0b"
      "\n1:"
      "\n\t.pushsection .debug_alt_sim_info"
      "\n\t.int 4, 0, 0b, 1b"
      "\n\t.popsection"
      :: "r" (us*(ALT_CPU_FREQ/(cycles_per_loop * 1000000))));
    81b4:	014003f4 	movhi	r5,15
    81b8:	29509004 	addi	r5,r5,16960
    81bc:	e13ffd17 	ldw	r4,-12(fp)
    81c0:	00043e00 	call	43e0 <__mulsi3>
    81c4:	100b883a 	mov	r5,r2
    81c8:	01017db4 	movhi	r4,1526
    81cc:	21384004 	addi	r4,r4,-7936
    81d0:	00043240 	call	4324 <__udivsi3>
    81d4:	e17fff17 	ldw	r5,-4(fp)
    81d8:	1009883a 	mov	r4,r2
    81dc:	00043e00 	call	43e0 <__mulsi3>
    /*
    * Do NOT Try to single step the asm statement below 
    * (single step will never return)
    * Step out of this function or set a breakpoint after the asm statements
    */
    __asm__ volatile (
    81e0:	10bfffc4 	addi	r2,r2,-1
    81e4:	00bffe16 	blt	zero,r2,81e0 <__alt_mem_VGA_Subsystem_Char_Buf_Subsystem_Onchip_SRAM+0xf70081e0>
      "\n\t.int 4, 0, 0b, 1b"
      "\n\t.popsection"
      :: "r" (us*(ALT_CPU_FREQ/(cycles_per_loop * 1000000))));
  }
#endif /* #ifndef ALT_SIM_OPTIMIZE */
  return 0;
    81e8:	0005883a 	mov	r2,zero
}
    81ec:	e037883a 	mov	sp,fp
    81f0:	dfc00117 	ldw	ra,4(sp)
    81f4:	df000017 	ldw	fp,0(sp)
    81f8:	dec00204 	addi	sp,sp,8
    81fc:	f800283a 	ret

00008200 <alt_get_errno>:
#undef errno

extern int errno;

static ALT_INLINE int* alt_get_errno(void)
{
    8200:	defffe04 	addi	sp,sp,-8
    8204:	dfc00115 	stw	ra,4(sp)
    8208:	df000015 	stw	fp,0(sp)
    820c:	d839883a 	mov	fp,sp
  return ((alt_errno) ? alt_errno() : &errno);
    8210:	d0a00917 	ldw	r2,-32732(gp)
    8214:	10000326 	beq	r2,zero,8224 <alt_get_errno+0x24>
    8218:	d0a00917 	ldw	r2,-32732(gp)
    821c:	103ee83a 	callr	r2
    8220:	00000106 	br	8228 <alt_get_errno+0x28>
    8224:	d0a5f604 	addi	r2,gp,-26664
}
    8228:	e037883a 	mov	sp,fp
    822c:	dfc00117 	ldw	ra,4(sp)
    8230:	df000017 	ldw	fp,0(sp)
    8234:	dec00204 	addi	sp,sp,8
    8238:	f800283a 	ret

0000823c <close>:
 *
 * ALT_CLOSE is mapped onto the close() system call in alt_syscall.h
 */
 
int ALT_CLOSE (int fildes)
{
    823c:	defffb04 	addi	sp,sp,-20
    8240:	dfc00415 	stw	ra,16(sp)
    8244:	df000315 	stw	fp,12(sp)
    8248:	df000304 	addi	fp,sp,12
    824c:	e13fff15 	stw	r4,-4(fp)
   * A common error case is that when the file descriptor was created, the call
   * to open() failed resulting in a negative file descriptor. This is trapped
   * below so that we don't try and process an invalid file descriptor.
   */

  fd = (fildes < 0) ? NULL : &alt_fd_list[fildes];
    8250:	e0bfff17 	ldw	r2,-4(fp)
    8254:	10000816 	blt	r2,zero,8278 <close+0x3c>
    8258:	01400304 	movi	r5,12
    825c:	e13fff17 	ldw	r4,-4(fp)
    8260:	00043e00 	call	43e0 <__mulsi3>
    8264:	1007883a 	mov	r3,r2
    8268:	00800074 	movhi	r2,1
    826c:	10ab1504 	addi	r2,r2,-21420
    8270:	1885883a 	add	r2,r3,r2
    8274:	00000106 	br	827c <close+0x40>
    8278:	0005883a 	mov	r2,zero
    827c:	e0bffd15 	stw	r2,-12(fp)

  if (fd)
    8280:	e0bffd17 	ldw	r2,-12(fp)
    8284:	10001926 	beq	r2,zero,82ec <close+0xb0>
    /*
     * If the associated file system/device has a close function, call it so 
     * that any necessary cleanup code can run.
     */

    rval = (fd->dev->close) ? fd->dev->close(fd) : 0;
    8288:	e0bffd17 	ldw	r2,-12(fp)
    828c:	10800017 	ldw	r2,0(r2)
    8290:	10800417 	ldw	r2,16(r2)
    8294:	10000626 	beq	r2,zero,82b0 <close+0x74>
    8298:	e0bffd17 	ldw	r2,-12(fp)
    829c:	10800017 	ldw	r2,0(r2)
    82a0:	10800417 	ldw	r2,16(r2)
    82a4:	e13ffd17 	ldw	r4,-12(fp)
    82a8:	103ee83a 	callr	r2
    82ac:	00000106 	br	82b4 <close+0x78>
    82b0:	0005883a 	mov	r2,zero
    82b4:	e0bffe15 	stw	r2,-8(fp)

    /* Free the file descriptor structure and return. */

    alt_release_fd (fildes);
    82b8:	e13fff17 	ldw	r4,-4(fp)
    82bc:	0008ba40 	call	8ba4 <alt_release_fd>
    if (rval < 0)
    82c0:	e0bffe17 	ldw	r2,-8(fp)
    82c4:	1000070e 	bge	r2,zero,82e4 <close+0xa8>
    {
      ALT_ERRNO = -rval;
    82c8:	00082000 	call	8200 <alt_get_errno>
    82cc:	1007883a 	mov	r3,r2
    82d0:	e0bffe17 	ldw	r2,-8(fp)
    82d4:	0085c83a 	sub	r2,zero,r2
    82d8:	18800015 	stw	r2,0(r3)
      return -1;
    82dc:	00bfffc4 	movi	r2,-1
    82e0:	00000706 	br	8300 <close+0xc4>
    }
    return 0;
    82e4:	0005883a 	mov	r2,zero
    82e8:	00000506 	br	8300 <close+0xc4>
  }
  else
  {
    ALT_ERRNO = EBADFD;
    82ec:	00082000 	call	8200 <alt_get_errno>
    82f0:	1007883a 	mov	r3,r2
    82f4:	00801444 	movi	r2,81
    82f8:	18800015 	stw	r2,0(r3)
    return -1;
    82fc:	00bfffc4 	movi	r2,-1
  }
}
    8300:	e037883a 	mov	sp,fp
    8304:	dfc00117 	ldw	ra,4(sp)
    8308:	df000017 	ldw	fp,0(sp)
    830c:	dec00204 	addi	sp,sp,8
    8310:	f800283a 	ret

00008314 <alt_dcache_flush_all>:
/*
 * alt_dcache_flush_all() is called to flush the entire data cache.
 */

void alt_dcache_flush_all (void)
{
    8314:	deffff04 	addi	sp,sp,-4
    8318:	df000015 	stw	fp,0(sp)
    831c:	d839883a 	mov	fp,sp
  for (i = (char*) 0; i < (char*) NIOS2_DCACHE_SIZE; i+= NIOS2_DCACHE_LINE_SIZE)
  { 
    __asm__ volatile ("flushd (%0)" :: "r" (i));
  }
#endif /* NIOS2_DCACHE_SIZE > 0 */
}
    8320:	0001883a 	nop
    8324:	e037883a 	mov	sp,fp
    8328:	df000017 	ldw	fp,0(sp)
    832c:	dec00104 	addi	sp,sp,4
    8330:	f800283a 	ret

00008334 <alt_dev_null_write>:
 * by the alt_dev_null device. It simple discards all data passed to it, and
 * indicates that the data has been successfully transmitted.
 */

static int alt_dev_null_write (alt_fd* fd, const char* ptr, int len)
{
    8334:	defffc04 	addi	sp,sp,-16
    8338:	df000315 	stw	fp,12(sp)
    833c:	df000304 	addi	fp,sp,12
    8340:	e13ffd15 	stw	r4,-12(fp)
    8344:	e17ffe15 	stw	r5,-8(fp)
    8348:	e1bfff15 	stw	r6,-4(fp)
  return len;
    834c:	e0bfff17 	ldw	r2,-4(fp)
}
    8350:	e037883a 	mov	sp,fp
    8354:	df000017 	ldw	fp,0(sp)
    8358:	dec00104 	addi	sp,sp,4
    835c:	f800283a 	ret

00008360 <alt_get_errno>:
#undef errno

extern int errno;

static ALT_INLINE int* alt_get_errno(void)
{
    8360:	defffe04 	addi	sp,sp,-8
    8364:	dfc00115 	stw	ra,4(sp)
    8368:	df000015 	stw	fp,0(sp)
    836c:	d839883a 	mov	fp,sp
  return ((alt_errno) ? alt_errno() : &errno);
    8370:	d0a00917 	ldw	r2,-32732(gp)
    8374:	10000326 	beq	r2,zero,8384 <alt_get_errno+0x24>
    8378:	d0a00917 	ldw	r2,-32732(gp)
    837c:	103ee83a 	callr	r2
    8380:	00000106 	br	8388 <alt_get_errno+0x28>
    8384:	d0a5f604 	addi	r2,gp,-26664
}
    8388:	e037883a 	mov	sp,fp
    838c:	dfc00117 	ldw	ra,4(sp)
    8390:	df000017 	ldw	fp,0(sp)
    8394:	dec00204 	addi	sp,sp,8
    8398:	f800283a 	ret

0000839c <alt_dev_llist_insert>:
/*
 *
 */

int alt_dev_llist_insert (alt_dev_llist* dev, alt_llist* list)
{
    839c:	defffa04 	addi	sp,sp,-24
    83a0:	dfc00515 	stw	ra,20(sp)
    83a4:	df000415 	stw	fp,16(sp)
    83a8:	df000404 	addi	fp,sp,16
    83ac:	e13ffe15 	stw	r4,-8(fp)
    83b0:	e17fff15 	stw	r5,-4(fp)
  /*
   * check that the device exists, and that it has a valid name.
   */

  if (!dev || !dev->name)
    83b4:	e0bffe17 	ldw	r2,-8(fp)
    83b8:	10000326 	beq	r2,zero,83c8 <alt_dev_llist_insert+0x2c>
    83bc:	e0bffe17 	ldw	r2,-8(fp)
    83c0:	10800217 	ldw	r2,8(r2)
    83c4:	1000061e 	bne	r2,zero,83e0 <alt_dev_llist_insert+0x44>
  {
    ALT_ERRNO = EINVAL;
    83c8:	00083600 	call	8360 <alt_get_errno>
    83cc:	1007883a 	mov	r3,r2
    83d0:	00800584 	movi	r2,22
    83d4:	18800015 	stw	r2,0(r3)
    return -EINVAL;
    83d8:	00bffa84 	movi	r2,-22
    83dc:	00001306 	br	842c <alt_dev_llist_insert+0x90>
  
  /*
   * register the device.
   */
  
  alt_llist_insert(list, &dev->llist);
    83e0:	e0bffe17 	ldw	r2,-8(fp)
    83e4:	e0ffff17 	ldw	r3,-4(fp)
    83e8:	e0fffc15 	stw	r3,-16(fp)
    83ec:	e0bffd15 	stw	r2,-12(fp)
 */

static ALT_INLINE void ALT_ALWAYS_INLINE alt_llist_insert(alt_llist* list, 
                alt_llist* entry)
{
  entry->previous = list;
    83f0:	e0bffd17 	ldw	r2,-12(fp)
    83f4:	e0fffc17 	ldw	r3,-16(fp)
    83f8:	10c00115 	stw	r3,4(r2)
  entry->next     = list->next;
    83fc:	e0bffc17 	ldw	r2,-16(fp)
    8400:	10c00017 	ldw	r3,0(r2)
    8404:	e0bffd17 	ldw	r2,-12(fp)
    8408:	10c00015 	stw	r3,0(r2)

  list->next->previous = entry;
    840c:	e0bffc17 	ldw	r2,-16(fp)
    8410:	10800017 	ldw	r2,0(r2)
    8414:	e0fffd17 	ldw	r3,-12(fp)
    8418:	10c00115 	stw	r3,4(r2)
  list->next           = entry;
    841c:	e0bffc17 	ldw	r2,-16(fp)
    8420:	e0fffd17 	ldw	r3,-12(fp)
    8424:	10c00015 	stw	r3,0(r2)

  return 0;  
    8428:	0005883a 	mov	r2,zero
}
    842c:	e037883a 	mov	sp,fp
    8430:	dfc00117 	ldw	ra,4(sp)
    8434:	df000017 	ldw	fp,0(sp)
    8438:	dec00204 	addi	sp,sp,8
    843c:	f800283a 	ret

00008440 <_do_ctors>:
/*
 * Run the C++ static constructors.
 */

void _do_ctors(void)
{
    8440:	defffd04 	addi	sp,sp,-12
    8444:	dfc00215 	stw	ra,8(sp)
    8448:	df000115 	stw	fp,4(sp)
    844c:	df000104 	addi	fp,sp,4
  constructor* ctor;

  for (ctor = &__CTOR_END__[-1]; ctor >= __CTOR_LIST__; ctor--)
    8450:	00800074 	movhi	r2,1
    8454:	10a59604 	addi	r2,r2,-27048
    8458:	e0bfff15 	stw	r2,-4(fp)
    845c:	00000606 	br	8478 <_do_ctors+0x38>
        (*ctor) (); 
    8460:	e0bfff17 	ldw	r2,-4(fp)
    8464:	10800017 	ldw	r2,0(r2)
    8468:	103ee83a 	callr	r2

void _do_ctors(void)
{
  constructor* ctor;

  for (ctor = &__CTOR_END__[-1]; ctor >= __CTOR_LIST__; ctor--)
    846c:	e0bfff17 	ldw	r2,-4(fp)
    8470:	10bfff04 	addi	r2,r2,-4
    8474:	e0bfff15 	stw	r2,-4(fp)
    8478:	e0ffff17 	ldw	r3,-4(fp)
    847c:	00800074 	movhi	r2,1
    8480:	10a59704 	addi	r2,r2,-27044
    8484:	18bff62e 	bgeu	r3,r2,8460 <__alt_mem_VGA_Subsystem_Char_Buf_Subsystem_Onchip_SRAM+0xf7008460>
        (*ctor) (); 
}
    8488:	0001883a 	nop
    848c:	e037883a 	mov	sp,fp
    8490:	dfc00117 	ldw	ra,4(sp)
    8494:	df000017 	ldw	fp,0(sp)
    8498:	dec00204 	addi	sp,sp,8
    849c:	f800283a 	ret

000084a0 <_do_dtors>:
/*
 * Run the C++ static destructors.
 */

void _do_dtors(void)
{
    84a0:	defffd04 	addi	sp,sp,-12
    84a4:	dfc00215 	stw	ra,8(sp)
    84a8:	df000115 	stw	fp,4(sp)
    84ac:	df000104 	addi	fp,sp,4
  destructor* dtor;

  for (dtor = &__DTOR_END__[-1]; dtor >= __DTOR_LIST__; dtor--)
    84b0:	00800074 	movhi	r2,1
    84b4:	10a59604 	addi	r2,r2,-27048
    84b8:	e0bfff15 	stw	r2,-4(fp)
    84bc:	00000606 	br	84d8 <_do_dtors+0x38>
        (*dtor) (); 
    84c0:	e0bfff17 	ldw	r2,-4(fp)
    84c4:	10800017 	ldw	r2,0(r2)
    84c8:	103ee83a 	callr	r2

void _do_dtors(void)
{
  destructor* dtor;

  for (dtor = &__DTOR_END__[-1]; dtor >= __DTOR_LIST__; dtor--)
    84cc:	e0bfff17 	ldw	r2,-4(fp)
    84d0:	10bfff04 	addi	r2,r2,-4
    84d4:	e0bfff15 	stw	r2,-4(fp)
    84d8:	e0ffff17 	ldw	r3,-4(fp)
    84dc:	00800074 	movhi	r2,1
    84e0:	10a59704 	addi	r2,r2,-27044
    84e4:	18bff62e 	bgeu	r3,r2,84c0 <__alt_mem_VGA_Subsystem_Char_Buf_Subsystem_Onchip_SRAM+0xf70084c0>
        (*dtor) (); 
}
    84e8:	0001883a 	nop
    84ec:	e037883a 	mov	sp,fp
    84f0:	dfc00117 	ldw	ra,4(sp)
    84f4:	df000017 	ldw	fp,0(sp)
    84f8:	dec00204 	addi	sp,sp,8
    84fc:	f800283a 	ret

00008500 <alt_icache_flush_all>:
/*
 * alt_icache_flush_all() is called to flush the entire instruction cache.
 */

void alt_icache_flush_all (void)
{
    8500:	deffff04 	addi	sp,sp,-4
    8504:	df000015 	stw	fp,0(sp)
    8508:	d839883a 	mov	fp,sp
#if NIOS2_ICACHE_SIZE > 0
  alt_icache_flush (0, NIOS2_ICACHE_SIZE);
#endif
}
    850c:	0001883a 	nop
    8510:	e037883a 	mov	sp,fp
    8514:	df000017 	ldw	fp,0(sp)
    8518:	dec00104 	addi	sp,sp,4
    851c:	f800283a 	ret

00008520 <alt_ic_isr_register>:
  * @param irq              IRQ number
  * @return                 0 if successful, else error (-1)
  */
int alt_ic_isr_register(alt_u32 ic_id, alt_u32 irq, alt_isr_func isr, 
  void *isr_context, void *flags)
{
    8520:	defff904 	addi	sp,sp,-28
    8524:	dfc00615 	stw	ra,24(sp)
    8528:	df000515 	stw	fp,20(sp)
    852c:	df000504 	addi	fp,sp,20
    8530:	e13ffc15 	stw	r4,-16(fp)
    8534:	e17ffd15 	stw	r5,-12(fp)
    8538:	e1bffe15 	stw	r6,-8(fp)
    853c:	e1ffff15 	stw	r7,-4(fp)
    return alt_iic_isr_register(ic_id, irq, isr, isr_context, flags);
    8540:	e0800217 	ldw	r2,8(fp)
    8544:	d8800015 	stw	r2,0(sp)
    8548:	e1ffff17 	ldw	r7,-4(fp)
    854c:	e1bffe17 	ldw	r6,-8(fp)
    8550:	e17ffd17 	ldw	r5,-12(fp)
    8554:	e13ffc17 	ldw	r4,-16(fp)
    8558:	00086d00 	call	86d0 <alt_iic_isr_register>
}  
    855c:	e037883a 	mov	sp,fp
    8560:	dfc00117 	ldw	ra,4(sp)
    8564:	df000017 	ldw	fp,0(sp)
    8568:	dec00204 	addi	sp,sp,8
    856c:	f800283a 	ret

00008570 <alt_ic_irq_enable>:
  * @param ic_id            Ignored.
  * @param irq              IRQ number
  * @return                 0 if successful, else error (-1)
  */
int alt_ic_irq_enable (alt_u32 ic_id, alt_u32 irq)
{
    8570:	defff904 	addi	sp,sp,-28
    8574:	df000615 	stw	fp,24(sp)
    8578:	df000604 	addi	fp,sp,24
    857c:	e13ffe15 	stw	r4,-8(fp)
    8580:	e17fff15 	stw	r5,-4(fp)
    8584:	e0bfff17 	ldw	r2,-4(fp)
    8588:	e0bffa15 	stw	r2,-24(fp)
static ALT_INLINE alt_irq_context ALT_ALWAYS_INLINE 
       alt_irq_disable_all (void)
{
  alt_irq_context context;

  NIOS2_READ_STATUS (context);
    858c:	0005303a 	rdctl	r2,status
    8590:	e0bffb15 	stw	r2,-20(fp)

  NIOS2_WRITE_STATUS (context & ~NIOS2_STATUS_PIE_MSK);
    8594:	e0fffb17 	ldw	r3,-20(fp)
    8598:	00bfff84 	movi	r2,-2
    859c:	1884703a 	and	r2,r3,r2
    85a0:	1001703a 	wrctl	status,r2
  
  return context;
    85a4:	e0bffb17 	ldw	r2,-20(fp)
static ALT_INLINE int ALT_ALWAYS_INLINE alt_irq_enable (alt_u32 id)
{
  alt_irq_context  status;
  extern volatile alt_u32 alt_irq_active;

  status = alt_irq_disable_all ();
    85a8:	e0bffc15 	stw	r2,-16(fp)

  alt_irq_active |= (1 << id);
    85ac:	00c00044 	movi	r3,1
    85b0:	e0bffa17 	ldw	r2,-24(fp)
    85b4:	1884983a 	sll	r2,r3,r2
    85b8:	1007883a 	mov	r3,r2
    85bc:	d0a5f217 	ldw	r2,-26680(gp)
    85c0:	1884b03a 	or	r2,r3,r2
    85c4:	d0a5f215 	stw	r2,-26680(gp)
  NIOS2_WRITE_IENABLE (alt_irq_active);
    85c8:	d0a5f217 	ldw	r2,-26680(gp)
    85cc:	100170fa 	wrctl	ienable,r2
    85d0:	e0bffc17 	ldw	r2,-16(fp)
    85d4:	e0bffd15 	stw	r2,-12(fp)
  status &= ~NIOS2_STATUS_PIE_MSK;
  status |= (context & NIOS2_STATUS_PIE_MSK);
  
  NIOS2_WRITE_STATUS (status);
#else
  NIOS2_WRITE_STATUS (context);
    85d8:	e0bffd17 	ldw	r2,-12(fp)
    85dc:	1001703a 	wrctl	status,r2

  alt_irq_enable_all(status);

  return 0;
    85e0:	0005883a 	mov	r2,zero
    return alt_irq_enable(irq);
    85e4:	0001883a 	nop
}
    85e8:	e037883a 	mov	sp,fp
    85ec:	df000017 	ldw	fp,0(sp)
    85f0:	dec00104 	addi	sp,sp,4
    85f4:	f800283a 	ret

000085f8 <alt_ic_irq_disable>:
  * @param ic_id            Ignored.
  * @param irq              IRQ number
  * @return                 0 if successful, else error (-1)
  */
int alt_ic_irq_disable(alt_u32 ic_id, alt_u32 irq)
{
    85f8:	defff904 	addi	sp,sp,-28
    85fc:	df000615 	stw	fp,24(sp)
    8600:	df000604 	addi	fp,sp,24
    8604:	e13ffe15 	stw	r4,-8(fp)
    8608:	e17fff15 	stw	r5,-4(fp)
    860c:	e0bfff17 	ldw	r2,-4(fp)
    8610:	e0bffa15 	stw	r2,-24(fp)
static ALT_INLINE alt_irq_context ALT_ALWAYS_INLINE 
       alt_irq_disable_all (void)
{
  alt_irq_context context;

  NIOS2_READ_STATUS (context);
    8614:	0005303a 	rdctl	r2,status
    8618:	e0bffb15 	stw	r2,-20(fp)

  NIOS2_WRITE_STATUS (context & ~NIOS2_STATUS_PIE_MSK);
    861c:	e0fffb17 	ldw	r3,-20(fp)
    8620:	00bfff84 	movi	r2,-2
    8624:	1884703a 	and	r2,r3,r2
    8628:	1001703a 	wrctl	status,r2
  
  return context;
    862c:	e0bffb17 	ldw	r2,-20(fp)
static ALT_INLINE int ALT_ALWAYS_INLINE alt_irq_disable (alt_u32 id)
{
  alt_irq_context  status;
  extern volatile alt_u32 alt_irq_active;

  status = alt_irq_disable_all ();
    8630:	e0bffc15 	stw	r2,-16(fp)

  alt_irq_active &= ~(1 << id);
    8634:	00c00044 	movi	r3,1
    8638:	e0bffa17 	ldw	r2,-24(fp)
    863c:	1884983a 	sll	r2,r3,r2
    8640:	0084303a 	nor	r2,zero,r2
    8644:	1007883a 	mov	r3,r2
    8648:	d0a5f217 	ldw	r2,-26680(gp)
    864c:	1884703a 	and	r2,r3,r2
    8650:	d0a5f215 	stw	r2,-26680(gp)
  NIOS2_WRITE_IENABLE (alt_irq_active);
    8654:	d0a5f217 	ldw	r2,-26680(gp)
    8658:	100170fa 	wrctl	ienable,r2
    865c:	e0bffc17 	ldw	r2,-16(fp)
    8660:	e0bffd15 	stw	r2,-12(fp)
  status &= ~NIOS2_STATUS_PIE_MSK;
  status |= (context & NIOS2_STATUS_PIE_MSK);
  
  NIOS2_WRITE_STATUS (status);
#else
  NIOS2_WRITE_STATUS (context);
    8664:	e0bffd17 	ldw	r2,-12(fp)
    8668:	1001703a 	wrctl	status,r2

  alt_irq_enable_all(status);

  return 0;
    866c:	0005883a 	mov	r2,zero
    return alt_irq_disable(irq);
    8670:	0001883a 	nop
}
    8674:	e037883a 	mov	sp,fp
    8678:	df000017 	ldw	fp,0(sp)
    867c:	dec00104 	addi	sp,sp,4
    8680:	f800283a 	ret

00008684 <alt_ic_irq_enabled>:
  * @param irq              IRQ number
  * @return                 Zero if corresponding interrupt is disabled and
  *                         non-zero otherwise.
  */
alt_u32 alt_ic_irq_enabled(alt_u32 ic_id, alt_u32 irq)
{
    8684:	defffc04 	addi	sp,sp,-16
    8688:	df000315 	stw	fp,12(sp)
    868c:	df000304 	addi	fp,sp,12
    8690:	e13ffe15 	stw	r4,-8(fp)
    8694:	e17fff15 	stw	r5,-4(fp)
    alt_u32 irq_enabled;

    NIOS2_READ_IENABLE(irq_enabled);
    8698:	000530fa 	rdctl	r2,ienable
    869c:	e0bffd15 	stw	r2,-12(fp)

    return (irq_enabled & (1 << irq)) ? 1: 0;
    86a0:	00c00044 	movi	r3,1
    86a4:	e0bfff17 	ldw	r2,-4(fp)
    86a8:	1884983a 	sll	r2,r3,r2
    86ac:	1007883a 	mov	r3,r2
    86b0:	e0bffd17 	ldw	r2,-12(fp)
    86b4:	1884703a 	and	r2,r3,r2
    86b8:	1004c03a 	cmpne	r2,r2,zero
    86bc:	10803fcc 	andi	r2,r2,255
}
    86c0:	e037883a 	mov	sp,fp
    86c4:	df000017 	ldw	fp,0(sp)
    86c8:	dec00104 	addi	sp,sp,4
    86cc:	f800283a 	ret

000086d0 <alt_iic_isr_register>:
  * @param flags            
  * @return                 0 if successful, else error (-1)
  */
int alt_iic_isr_register(alt_u32 ic_id, alt_u32 irq, alt_isr_func isr, 
  void *isr_context, void *flags)
{
    86d0:	defff504 	addi	sp,sp,-44
    86d4:	dfc00a15 	stw	ra,40(sp)
    86d8:	df000915 	stw	fp,36(sp)
    86dc:	df000904 	addi	fp,sp,36
    86e0:	e13ffc15 	stw	r4,-16(fp)
    86e4:	e17ffd15 	stw	r5,-12(fp)
    86e8:	e1bffe15 	stw	r6,-8(fp)
    86ec:	e1ffff15 	stw	r7,-4(fp)
  int rc = -EINVAL;  
    86f0:	00bffa84 	movi	r2,-22
    86f4:	e0bff715 	stw	r2,-36(fp)
  int id = irq;             /* IRQ interpreted as the interrupt ID. */
    86f8:	e0bffd17 	ldw	r2,-12(fp)
    86fc:	e0bff815 	stw	r2,-32(fp)
  alt_irq_context status;

  if (id < ALT_NIRQ)
    8700:	e0bff817 	ldw	r2,-32(fp)
    8704:	10800808 	cmpgei	r2,r2,32
    8708:	1000271e 	bne	r2,zero,87a8 <alt_iic_isr_register+0xd8>
static ALT_INLINE alt_irq_context ALT_ALWAYS_INLINE 
       alt_irq_disable_all (void)
{
  alt_irq_context context;

  NIOS2_READ_STATUS (context);
    870c:	0005303a 	rdctl	r2,status
    8710:	e0bffb15 	stw	r2,-20(fp)

  NIOS2_WRITE_STATUS (context & ~NIOS2_STATUS_PIE_MSK);
    8714:	e0fffb17 	ldw	r3,-20(fp)
    8718:	00bfff84 	movi	r2,-2
    871c:	1884703a 	and	r2,r3,r2
    8720:	1001703a 	wrctl	status,r2
  
  return context;
    8724:	e0bffb17 	ldw	r2,-20(fp)
     * interrupts are disabled while the handler tables are updated to ensure
     * that an interrupt doesn't occur while the tables are in an inconsistant
     * state.
     */

    status = alt_irq_disable_all();
    8728:	e0bffa15 	stw	r2,-24(fp)

    alt_irq[id].handler = isr;
    872c:	00800074 	movhi	r2,1
    8730:	10b28504 	addi	r2,r2,-13804
    8734:	e0fff817 	ldw	r3,-32(fp)
    8738:	180690fa 	slli	r3,r3,3
    873c:	10c5883a 	add	r2,r2,r3
    8740:	e0fffe17 	ldw	r3,-8(fp)
    8744:	10c00015 	stw	r3,0(r2)
    alt_irq[id].context = isr_context;
    8748:	00800074 	movhi	r2,1
    874c:	10b28504 	addi	r2,r2,-13804
    8750:	e0fff817 	ldw	r3,-32(fp)
    8754:	180690fa 	slli	r3,r3,3
    8758:	10c5883a 	add	r2,r2,r3
    875c:	10800104 	addi	r2,r2,4
    8760:	e0ffff17 	ldw	r3,-4(fp)
    8764:	10c00015 	stw	r3,0(r2)

    rc = (isr) ? alt_ic_irq_enable(ic_id, id) : alt_ic_irq_disable(ic_id, id);
    8768:	e0bffe17 	ldw	r2,-8(fp)
    876c:	10000526 	beq	r2,zero,8784 <alt_iic_isr_register+0xb4>
    8770:	e0bff817 	ldw	r2,-32(fp)
    8774:	100b883a 	mov	r5,r2
    8778:	e13ffc17 	ldw	r4,-16(fp)
    877c:	00085700 	call	8570 <alt_ic_irq_enable>
    8780:	00000406 	br	8794 <alt_iic_isr_register+0xc4>
    8784:	e0bff817 	ldw	r2,-32(fp)
    8788:	100b883a 	mov	r5,r2
    878c:	e13ffc17 	ldw	r4,-16(fp)
    8790:	00085f80 	call	85f8 <alt_ic_irq_disable>
    8794:	e0bff715 	stw	r2,-36(fp)
    8798:	e0bffa17 	ldw	r2,-24(fp)
    879c:	e0bff915 	stw	r2,-28(fp)
  status &= ~NIOS2_STATUS_PIE_MSK;
  status |= (context & NIOS2_STATUS_PIE_MSK);
  
  NIOS2_WRITE_STATUS (status);
#else
  NIOS2_WRITE_STATUS (context);
    87a0:	e0bff917 	ldw	r2,-28(fp)
    87a4:	1001703a 	wrctl	status,r2

    alt_irq_enable_all(status);
  }

  return rc; 
    87a8:	e0bff717 	ldw	r2,-36(fp)
}
    87ac:	e037883a 	mov	sp,fp
    87b0:	dfc00117 	ldw	ra,4(sp)
    87b4:	df000017 	ldw	fp,0(sp)
    87b8:	dec00204 	addi	sp,sp,8
    87bc:	f800283a 	ret

000087c0 <alt_open_fd>:
 * If the device can not be succesfully opened, then the input file descriptor
 * remains unchanged.
 */

static void alt_open_fd(alt_fd* fd, const char* name, int flags, int mode)
{
    87c0:	defff804 	addi	sp,sp,-32
    87c4:	dfc00715 	stw	ra,28(sp)
    87c8:	df000615 	stw	fp,24(sp)
    87cc:	dc000515 	stw	r16,20(sp)
    87d0:	df000604 	addi	fp,sp,24
    87d4:	e13ffb15 	stw	r4,-20(fp)
    87d8:	e17ffc15 	stw	r5,-16(fp)
    87dc:	e1bffd15 	stw	r6,-12(fp)
    87e0:	e1fffe15 	stw	r7,-8(fp)
  int old;

  old = open (name, flags, mode);
    87e4:	e1bffe17 	ldw	r6,-8(fp)
    87e8:	e17ffd17 	ldw	r5,-12(fp)
    87ec:	e13ffc17 	ldw	r4,-16(fp)
    87f0:	0008a480 	call	8a48 <open>
    87f4:	e0bffa15 	stw	r2,-24(fp)

  if (old >= 0)
    87f8:	e0bffa17 	ldw	r2,-24(fp)
    87fc:	10002216 	blt	r2,zero,8888 <alt_open_fd+0xc8>
  {
    fd->dev      = alt_fd_list[old].dev;
    8800:	04000074 	movhi	r16,1
    8804:	842b1504 	addi	r16,r16,-21420
    8808:	e0bffa17 	ldw	r2,-24(fp)
    880c:	01400304 	movi	r5,12
    8810:	1009883a 	mov	r4,r2
    8814:	00043e00 	call	43e0 <__mulsi3>
    8818:	8085883a 	add	r2,r16,r2
    881c:	10c00017 	ldw	r3,0(r2)
    8820:	e0bffb17 	ldw	r2,-20(fp)
    8824:	10c00015 	stw	r3,0(r2)
    fd->priv     = alt_fd_list[old].priv;
    8828:	04000074 	movhi	r16,1
    882c:	842b1504 	addi	r16,r16,-21420
    8830:	e0bffa17 	ldw	r2,-24(fp)
    8834:	01400304 	movi	r5,12
    8838:	1009883a 	mov	r4,r2
    883c:	00043e00 	call	43e0 <__mulsi3>
    8840:	8085883a 	add	r2,r16,r2
    8844:	10800104 	addi	r2,r2,4
    8848:	10c00017 	ldw	r3,0(r2)
    884c:	e0bffb17 	ldw	r2,-20(fp)
    8850:	10c00115 	stw	r3,4(r2)
    fd->fd_flags = alt_fd_list[old].fd_flags;
    8854:	04000074 	movhi	r16,1
    8858:	842b1504 	addi	r16,r16,-21420
    885c:	e0bffa17 	ldw	r2,-24(fp)
    8860:	01400304 	movi	r5,12
    8864:	1009883a 	mov	r4,r2
    8868:	00043e00 	call	43e0 <__mulsi3>
    886c:	8085883a 	add	r2,r16,r2
    8870:	10800204 	addi	r2,r2,8
    8874:	10c00017 	ldw	r3,0(r2)
    8878:	e0bffb17 	ldw	r2,-20(fp)
    887c:	10c00215 	stw	r3,8(r2)

    alt_release_fd (old);
    8880:	e13ffa17 	ldw	r4,-24(fp)
    8884:	0008ba40 	call	8ba4 <alt_release_fd>
  }
} 
    8888:	0001883a 	nop
    888c:	e6ffff04 	addi	sp,fp,-4
    8890:	dfc00217 	ldw	ra,8(sp)
    8894:	df000117 	ldw	fp,4(sp)
    8898:	dc000017 	ldw	r16,0(sp)
    889c:	dec00304 	addi	sp,sp,12
    88a0:	f800283a 	ret

000088a4 <alt_io_redirect>:
 */
 
void alt_io_redirect(const char* stdout_dev, 
                     const char* stdin_dev, 
                     const char* stderr_dev)
{
    88a4:	defffb04 	addi	sp,sp,-20
    88a8:	dfc00415 	stw	ra,16(sp)
    88ac:	df000315 	stw	fp,12(sp)
    88b0:	df000304 	addi	fp,sp,12
    88b4:	e13ffd15 	stw	r4,-12(fp)
    88b8:	e17ffe15 	stw	r5,-8(fp)
    88bc:	e1bfff15 	stw	r6,-4(fp)
  /* Redirect the channels */

  alt_open_fd (&alt_fd_list[STDOUT_FILENO], stdout_dev, O_WRONLY, 0777);
    88c0:	01c07fc4 	movi	r7,511
    88c4:	01800044 	movi	r6,1
    88c8:	e17ffd17 	ldw	r5,-12(fp)
    88cc:	01000074 	movhi	r4,1
    88d0:	212b1804 	addi	r4,r4,-21408
    88d4:	00087c00 	call	87c0 <alt_open_fd>
  alt_open_fd (&alt_fd_list[STDIN_FILENO], stdin_dev, O_RDONLY, 0777);
    88d8:	01c07fc4 	movi	r7,511
    88dc:	000d883a 	mov	r6,zero
    88e0:	e17ffe17 	ldw	r5,-8(fp)
    88e4:	01000074 	movhi	r4,1
    88e8:	212b1504 	addi	r4,r4,-21420
    88ec:	00087c00 	call	87c0 <alt_open_fd>
  alt_open_fd (&alt_fd_list[STDERR_FILENO], stderr_dev, O_WRONLY, 0777);
    88f0:	01c07fc4 	movi	r7,511
    88f4:	01800044 	movi	r6,1
    88f8:	e17fff17 	ldw	r5,-4(fp)
    88fc:	01000074 	movhi	r4,1
    8900:	212b1b04 	addi	r4,r4,-21396
    8904:	00087c00 	call	87c0 <alt_open_fd>
}  
    8908:	0001883a 	nop
    890c:	e037883a 	mov	sp,fp
    8910:	dfc00117 	ldw	ra,4(sp)
    8914:	df000017 	ldw	fp,0(sp)
    8918:	dec00204 	addi	sp,sp,8
    891c:	f800283a 	ret

00008920 <alt_get_errno>:
#undef errno

extern int errno;

static ALT_INLINE int* alt_get_errno(void)
{
    8920:	defffe04 	addi	sp,sp,-8
    8924:	dfc00115 	stw	ra,4(sp)
    8928:	df000015 	stw	fp,0(sp)
    892c:	d839883a 	mov	fp,sp
  return ((alt_errno) ? alt_errno() : &errno);
    8930:	d0a00917 	ldw	r2,-32732(gp)
    8934:	10000326 	beq	r2,zero,8944 <alt_get_errno+0x24>
    8938:	d0a00917 	ldw	r2,-32732(gp)
    893c:	103ee83a 	callr	r2
    8940:	00000106 	br	8948 <alt_get_errno+0x28>
    8944:	d0a5f604 	addi	r2,gp,-26664
}
    8948:	e037883a 	mov	sp,fp
    894c:	dfc00117 	ldw	ra,4(sp)
    8950:	df000017 	ldw	fp,0(sp)
    8954:	dec00204 	addi	sp,sp,8
    8958:	f800283a 	ret

0000895c <alt_file_locked>:
 * performed for devices. Filesystems are required to handle the ioctl() call
 * themselves, and report the error from the filesystems open() function. 
 */ 

static int alt_file_locked (alt_fd* fd)
{
    895c:	defffb04 	addi	sp,sp,-20
    8960:	dfc00415 	stw	ra,16(sp)
    8964:	df000315 	stw	fp,12(sp)
    8968:	dc000215 	stw	r16,8(sp)
    896c:	df000304 	addi	fp,sp,12
    8970:	e13ffe15 	stw	r4,-8(fp)

  /*
   * Mark the file descriptor as belonging to a device.
   */

  fd->fd_flags |= ALT_FD_DEV;
    8974:	e0bffe17 	ldw	r2,-8(fp)
    8978:	10800217 	ldw	r2,8(r2)
    897c:	10d00034 	orhi	r3,r2,16384
    8980:	e0bffe17 	ldw	r2,-8(fp)
    8984:	10c00215 	stw	r3,8(r2)
  /*
   * Loop through all current file descriptors searching for one that's locked
   * for exclusive access. If a match is found, generate an error.
   */

  for (i = 0; i <= alt_max_fd; i++)
    8988:	e03ffd15 	stw	zero,-12(fp)
    898c:	00002306 	br	8a1c <alt_file_locked+0xc0>
  {
    if ((alt_fd_list[i].dev == fd->dev) &&
    8990:	04000074 	movhi	r16,1
    8994:	842b1504 	addi	r16,r16,-21420
    8998:	e0bffd17 	ldw	r2,-12(fp)
    899c:	01400304 	movi	r5,12
    89a0:	1009883a 	mov	r4,r2
    89a4:	00043e00 	call	43e0 <__mulsi3>
    89a8:	8085883a 	add	r2,r16,r2
    89ac:	10c00017 	ldw	r3,0(r2)
    89b0:	e0bffe17 	ldw	r2,-8(fp)
    89b4:	10800017 	ldw	r2,0(r2)
    89b8:	1880151e 	bne	r3,r2,8a10 <alt_file_locked+0xb4>
        (alt_fd_list[i].fd_flags & ALT_FD_EXCL) &&
    89bc:	04000074 	movhi	r16,1
    89c0:	842b1504 	addi	r16,r16,-21420
    89c4:	e0bffd17 	ldw	r2,-12(fp)
    89c8:	01400304 	movi	r5,12
    89cc:	1009883a 	mov	r4,r2
    89d0:	00043e00 	call	43e0 <__mulsi3>
    89d4:	8085883a 	add	r2,r16,r2
    89d8:	10800204 	addi	r2,r2,8
    89dc:	10800017 	ldw	r2,0(r2)
   * for exclusive access. If a match is found, generate an error.
   */

  for (i = 0; i <= alt_max_fd; i++)
  {
    if ((alt_fd_list[i].dev == fd->dev) &&
    89e0:	10000b0e 	bge	r2,zero,8a10 <alt_file_locked+0xb4>
        (alt_fd_list[i].fd_flags & ALT_FD_EXCL) &&
        (&alt_fd_list[i] != fd))
    89e4:	01400304 	movi	r5,12
    89e8:	e13ffd17 	ldw	r4,-12(fp)
    89ec:	00043e00 	call	43e0 <__mulsi3>
    89f0:	1007883a 	mov	r3,r2
    89f4:	00800074 	movhi	r2,1
    89f8:	10ab1504 	addi	r2,r2,-21420
    89fc:	1887883a 	add	r3,r3,r2
   */

  for (i = 0; i <= alt_max_fd; i++)
  {
    if ((alt_fd_list[i].dev == fd->dev) &&
        (alt_fd_list[i].fd_flags & ALT_FD_EXCL) &&
    8a00:	e0bffe17 	ldw	r2,-8(fp)
    8a04:	18800226 	beq	r3,r2,8a10 <alt_file_locked+0xb4>
        (&alt_fd_list[i] != fd))
    {
      return -EACCES;
    8a08:	00bffcc4 	movi	r2,-13
    8a0c:	00000806 	br	8a30 <alt_file_locked+0xd4>
  /*
   * Loop through all current file descriptors searching for one that's locked
   * for exclusive access. If a match is found, generate an error.
   */

  for (i = 0; i <= alt_max_fd; i++)
    8a10:	e0bffd17 	ldw	r2,-12(fp)
    8a14:	10800044 	addi	r2,r2,1
    8a18:	e0bffd15 	stw	r2,-12(fp)
    8a1c:	d0a00817 	ldw	r2,-32736(gp)
    8a20:	1007883a 	mov	r3,r2
    8a24:	e0bffd17 	ldw	r2,-12(fp)
    8a28:	18bfd92e 	bgeu	r3,r2,8990 <__alt_mem_VGA_Subsystem_Char_Buf_Subsystem_Onchip_SRAM+0xf7008990>
    }
  }
  
  /* The device is not locked */
 
  return 0;
    8a2c:	0005883a 	mov	r2,zero
}
    8a30:	e6ffff04 	addi	sp,fp,-4
    8a34:	dfc00217 	ldw	ra,8(sp)
    8a38:	df000117 	ldw	fp,4(sp)
    8a3c:	dc000017 	ldw	r16,0(sp)
    8a40:	dec00304 	addi	sp,sp,12
    8a44:	f800283a 	ret

00008a48 <open>:
 *
 * ALT_OPEN is mapped onto the open() system call in alt_syscall.h
 */
 
int ALT_OPEN (const char* file, int flags, int mode)
{ 
    8a48:	defff604 	addi	sp,sp,-40
    8a4c:	dfc00915 	stw	ra,36(sp)
    8a50:	df000815 	stw	fp,32(sp)
    8a54:	df000804 	addi	fp,sp,32
    8a58:	e13ffd15 	stw	r4,-12(fp)
    8a5c:	e17ffe15 	stw	r5,-8(fp)
    8a60:	e1bfff15 	stw	r6,-4(fp)
  alt_dev* dev;
  alt_fd*  fd;
  int index  = -1;
    8a64:	00bfffc4 	movi	r2,-1
    8a68:	e0bff915 	stw	r2,-28(fp)
  int status = -ENODEV;
    8a6c:	00bffb44 	movi	r2,-19
    8a70:	e0bffa15 	stw	r2,-24(fp)
  int isafs = 0;
    8a74:	e03ffb15 	stw	zero,-20(fp)
  /* 
   * Check the device list, to see if a device with a matching name is 
   * registered.
   */
  
  if (!(dev = alt_find_dev (file, &alt_dev_list)))
    8a78:	d1600604 	addi	r5,gp,-32744
    8a7c:	e13ffd17 	ldw	r4,-12(fp)
    8a80:	0008df00 	call	8df0 <alt_find_dev>
    8a84:	e0bff815 	stw	r2,-32(fp)
    8a88:	e0bff817 	ldw	r2,-32(fp)
    8a8c:	1000051e 	bne	r2,zero,8aa4 <open+0x5c>
  {
    /* No matching device, so try the filesystem list */

    dev   = alt_find_file (file);
    8a90:	e13ffd17 	ldw	r4,-12(fp)
    8a94:	0008e800 	call	8e80 <alt_find_file>
    8a98:	e0bff815 	stw	r2,-32(fp)
    isafs = 1;
    8a9c:	00800044 	movi	r2,1
    8aa0:	e0bffb15 	stw	r2,-20(fp)

  /* 
   * If a matching device or filesystem is found, allocate a file descriptor. 
   */

  if (dev)
    8aa4:	e0bff817 	ldw	r2,-32(fp)
    8aa8:	10002b26 	beq	r2,zero,8b58 <open+0x110>
  {
    if ((index = alt_get_fd (dev)) < 0)
    8aac:	e13ff817 	ldw	r4,-32(fp)
    8ab0:	0008f880 	call	8f88 <alt_get_fd>
    8ab4:	e0bff915 	stw	r2,-28(fp)
    8ab8:	e0bff917 	ldw	r2,-28(fp)
    8abc:	1000030e 	bge	r2,zero,8acc <open+0x84>
    {
      status = index;
    8ac0:	e0bff917 	ldw	r2,-28(fp)
    8ac4:	e0bffa15 	stw	r2,-24(fp)
    8ac8:	00002506 	br	8b60 <open+0x118>
    }
    else
    {
      fd = &alt_fd_list[index];
    8acc:	01400304 	movi	r5,12
    8ad0:	e13ff917 	ldw	r4,-28(fp)
    8ad4:	00043e00 	call	43e0 <__mulsi3>
    8ad8:	1007883a 	mov	r3,r2
    8adc:	00800074 	movhi	r2,1
    8ae0:	10ab1504 	addi	r2,r2,-21420
    8ae4:	1885883a 	add	r2,r3,r2
    8ae8:	e0bffc15 	stw	r2,-16(fp)
      fd->fd_flags = (flags & ~ALT_FD_FLAGS_MASK);
    8aec:	e0fffe17 	ldw	r3,-8(fp)
    8af0:	00900034 	movhi	r2,16384
    8af4:	10bfffc4 	addi	r2,r2,-1
    8af8:	1886703a 	and	r3,r3,r2
    8afc:	e0bffc17 	ldw	r2,-16(fp)
    8b00:	10c00215 	stw	r3,8(r2)
      
      /* If this is a device, ensure it isn't already locked */

      if (isafs || ((status = alt_file_locked (fd)) >= 0))
    8b04:	e0bffb17 	ldw	r2,-20(fp)
    8b08:	1000051e 	bne	r2,zero,8b20 <open+0xd8>
    8b0c:	e13ffc17 	ldw	r4,-16(fp)
    8b10:	000895c0 	call	895c <alt_file_locked>
    8b14:	e0bffa15 	stw	r2,-24(fp)
    8b18:	e0bffa17 	ldw	r2,-24(fp)
    8b1c:	10001016 	blt	r2,zero,8b60 <open+0x118>
        /* 
         * If the device or filesystem provides an open() callback function,
         * call it now to perform any device/filesystem specific operations.
         */
    
        status = (dev->open) ? dev->open(fd, file, flags, mode): 0;
    8b20:	e0bff817 	ldw	r2,-32(fp)
    8b24:	10800317 	ldw	r2,12(r2)
    8b28:	10000826 	beq	r2,zero,8b4c <open+0x104>
    8b2c:	e0bff817 	ldw	r2,-32(fp)
    8b30:	10800317 	ldw	r2,12(r2)
    8b34:	e1ffff17 	ldw	r7,-4(fp)
    8b38:	e1bffe17 	ldw	r6,-8(fp)
    8b3c:	e17ffd17 	ldw	r5,-12(fp)
    8b40:	e13ffc17 	ldw	r4,-16(fp)
    8b44:	103ee83a 	callr	r2
    8b48:	00000106 	br	8b50 <open+0x108>
    8b4c:	0005883a 	mov	r2,zero
    8b50:	e0bffa15 	stw	r2,-24(fp)
    8b54:	00000206 	br	8b60 <open+0x118>
      }
    }
  }
  else
  {
    status = -ENODEV;
    8b58:	00bffb44 	movi	r2,-19
    8b5c:	e0bffa15 	stw	r2,-24(fp)
  }

  /* Allocation failed, so clean up and return an error */ 

  if (status < 0)
    8b60:	e0bffa17 	ldw	r2,-24(fp)
    8b64:	1000090e 	bge	r2,zero,8b8c <open+0x144>
  {
    alt_release_fd (index);  
    8b68:	e13ff917 	ldw	r4,-28(fp)
    8b6c:	0008ba40 	call	8ba4 <alt_release_fd>
    ALT_ERRNO = -status;
    8b70:	00089200 	call	8920 <alt_get_errno>
    8b74:	1007883a 	mov	r3,r2
    8b78:	e0bffa17 	ldw	r2,-24(fp)
    8b7c:	0085c83a 	sub	r2,zero,r2
    8b80:	18800015 	stw	r2,0(r3)
    return -1;
    8b84:	00bfffc4 	movi	r2,-1
    8b88:	00000106 	br	8b90 <open+0x148>
  }
  
  /* return the reference upon success */

  return index;
    8b8c:	e0bff917 	ldw	r2,-28(fp)
}
    8b90:	e037883a 	mov	sp,fp
    8b94:	dfc00117 	ldw	ra,4(sp)
    8b98:	df000017 	ldw	fp,0(sp)
    8b9c:	dec00204 	addi	sp,sp,8
    8ba0:	f800283a 	ret

00008ba4 <alt_release_fd>:
 * File descriptors correcponding to standard in, standard out and standard 
 * error cannont be released backed to the pool. They are always reserved.
 */

void alt_release_fd (int fd)
{
    8ba4:	defffc04 	addi	sp,sp,-16
    8ba8:	dfc00315 	stw	ra,12(sp)
    8bac:	df000215 	stw	fp,8(sp)
    8bb0:	dc000115 	stw	r16,4(sp)
    8bb4:	df000204 	addi	fp,sp,8
    8bb8:	e13ffe15 	stw	r4,-8(fp)
  if (fd > 2)
    8bbc:	e0bffe17 	ldw	r2,-8(fp)
    8bc0:	108000d0 	cmplti	r2,r2,3
    8bc4:	1000111e 	bne	r2,zero,8c0c <alt_release_fd+0x68>
  {
    alt_fd_list[fd].fd_flags = 0;
    8bc8:	04000074 	movhi	r16,1
    8bcc:	842b1504 	addi	r16,r16,-21420
    8bd0:	e0bffe17 	ldw	r2,-8(fp)
    8bd4:	01400304 	movi	r5,12
    8bd8:	1009883a 	mov	r4,r2
    8bdc:	00043e00 	call	43e0 <__mulsi3>
    8be0:	8085883a 	add	r2,r16,r2
    8be4:	10800204 	addi	r2,r2,8
    8be8:	10000015 	stw	zero,0(r2)
    alt_fd_list[fd].dev      = 0;
    8bec:	04000074 	movhi	r16,1
    8bf0:	842b1504 	addi	r16,r16,-21420
    8bf4:	e0bffe17 	ldw	r2,-8(fp)
    8bf8:	01400304 	movi	r5,12
    8bfc:	1009883a 	mov	r4,r2
    8c00:	00043e00 	call	43e0 <__mulsi3>
    8c04:	8085883a 	add	r2,r16,r2
    8c08:	10000015 	stw	zero,0(r2)
  }
}
    8c0c:	0001883a 	nop
    8c10:	e6ffff04 	addi	sp,fp,-4
    8c14:	dfc00217 	ldw	ra,8(sp)
    8c18:	df000117 	ldw	fp,4(sp)
    8c1c:	dc000017 	ldw	r16,0(sp)
    8c20:	dec00304 	addi	sp,sp,12
    8c24:	f800283a 	ret

00008c28 <alt_alarm_stop>:
 * alarms. Alternatively an alarm can unregister itself by returning zero when 
 * the alarm executes.
 */

void alt_alarm_stop (alt_alarm* alarm)
{
    8c28:	defffa04 	addi	sp,sp,-24
    8c2c:	df000515 	stw	fp,20(sp)
    8c30:	df000504 	addi	fp,sp,20
    8c34:	e13fff15 	stw	r4,-4(fp)
static ALT_INLINE alt_irq_context ALT_ALWAYS_INLINE 
       alt_irq_disable_all (void)
{
  alt_irq_context context;

  NIOS2_READ_STATUS (context);
    8c38:	0005303a 	rdctl	r2,status
    8c3c:	e0bffc15 	stw	r2,-16(fp)

  NIOS2_WRITE_STATUS (context & ~NIOS2_STATUS_PIE_MSK);
    8c40:	e0fffc17 	ldw	r3,-16(fp)
    8c44:	00bfff84 	movi	r2,-2
    8c48:	1884703a 	and	r2,r3,r2
    8c4c:	1001703a 	wrctl	status,r2
  
  return context;
    8c50:	e0bffc17 	ldw	r2,-16(fp)
  alt_irq_context irq_context;

  irq_context = alt_irq_disable_all();
    8c54:	e0bffb15 	stw	r2,-20(fp)
  alt_llist_remove (&alarm->llist);
    8c58:	e0bfff17 	ldw	r2,-4(fp)
    8c5c:	e0bffd15 	stw	r2,-12(fp)
 * input argument is the element to remove.
 */
     
static ALT_INLINE void ALT_ALWAYS_INLINE alt_llist_remove(alt_llist* entry)
{
  entry->next->previous = entry->previous;
    8c60:	e0bffd17 	ldw	r2,-12(fp)
    8c64:	10800017 	ldw	r2,0(r2)
    8c68:	e0fffd17 	ldw	r3,-12(fp)
    8c6c:	18c00117 	ldw	r3,4(r3)
    8c70:	10c00115 	stw	r3,4(r2)
  entry->previous->next = entry->next;
    8c74:	e0bffd17 	ldw	r2,-12(fp)
    8c78:	10800117 	ldw	r2,4(r2)
    8c7c:	e0fffd17 	ldw	r3,-12(fp)
    8c80:	18c00017 	ldw	r3,0(r3)
    8c84:	10c00015 	stw	r3,0(r2)
  /* 
   * Set the entry to point to itself, so that any further calls to
   * alt_llist_remove() are harmless.
   */

  entry->previous = entry;
    8c88:	e0bffd17 	ldw	r2,-12(fp)
    8c8c:	e0fffd17 	ldw	r3,-12(fp)
    8c90:	10c00115 	stw	r3,4(r2)
  entry->next     = entry;
    8c94:	e0bffd17 	ldw	r2,-12(fp)
    8c98:	e0fffd17 	ldw	r3,-12(fp)
    8c9c:	10c00015 	stw	r3,0(r2)
    8ca0:	e0bffb17 	ldw	r2,-20(fp)
    8ca4:	e0bffe15 	stw	r2,-8(fp)
  status &= ~NIOS2_STATUS_PIE_MSK;
  status |= (context & NIOS2_STATUS_PIE_MSK);
  
  NIOS2_WRITE_STATUS (status);
#else
  NIOS2_WRITE_STATUS (context);
    8ca8:	e0bffe17 	ldw	r2,-8(fp)
    8cac:	1001703a 	wrctl	status,r2
  alt_irq_enable_all (irq_context);
}
    8cb0:	0001883a 	nop
    8cb4:	e037883a 	mov	sp,fp
    8cb8:	df000017 	ldw	fp,0(sp)
    8cbc:	dec00104 	addi	sp,sp,4
    8cc0:	f800283a 	ret

00008cc4 <alt_tick>:
 * 
 * alt_tick() is expected to run at interrupt level.
 */

void alt_tick (void)
{
    8cc4:	defffb04 	addi	sp,sp,-20
    8cc8:	dfc00415 	stw	ra,16(sp)
    8ccc:	df000315 	stw	fp,12(sp)
    8cd0:	df000304 	addi	fp,sp,12
  alt_alarm* next;
  alt_alarm* alarm = (alt_alarm*) alt_alarm_list.next;
    8cd4:	d0a00b17 	ldw	r2,-32724(gp)
    8cd8:	e0bffd15 	stw	r2,-12(fp)

  alt_u32    next_callback;

  /* update the tick counter */

  _alt_nticks++;
    8cdc:	d0a5f417 	ldw	r2,-26672(gp)
    8ce0:	10800044 	addi	r2,r2,1
    8ce4:	d0a5f415 	stw	r2,-26672(gp)

  /* process the registered callbacks */

  while (alarm != (alt_alarm*) &alt_alarm_list)
    8ce8:	00002e06 	br	8da4 <alt_tick+0xe0>
  {
    next = (alt_alarm*) alarm->llist.next;
    8cec:	e0bffd17 	ldw	r2,-12(fp)
    8cf0:	10800017 	ldw	r2,0(r2)
    8cf4:	e0bffe15 	stw	r2,-8(fp)
    /* 
     * Upon the tick-counter rolling over it is safe to clear the 
     * roll-over flag; once the flag is cleared this (or subsequnt)
     * tick events are enabled to generate an alarm event. 
     */
    if ((alarm->rollover) && (_alt_nticks == 0))
    8cf8:	e0bffd17 	ldw	r2,-12(fp)
    8cfc:	10800403 	ldbu	r2,16(r2)
    8d00:	10803fcc 	andi	r2,r2,255
    8d04:	10000426 	beq	r2,zero,8d18 <alt_tick+0x54>
    8d08:	d0a5f417 	ldw	r2,-26672(gp)
    8d0c:	1000021e 	bne	r2,zero,8d18 <alt_tick+0x54>
    {
      alarm->rollover = 0;
    8d10:	e0bffd17 	ldw	r2,-12(fp)
    8d14:	10000405 	stb	zero,16(r2)
    }
    
    /* if the alarm period has expired, make the callback */    
    if ((alarm->time <= _alt_nticks) && (alarm->rollover == 0))
    8d18:	e0bffd17 	ldw	r2,-12(fp)
    8d1c:	10800217 	ldw	r2,8(r2)
    8d20:	d0e5f417 	ldw	r3,-26672(gp)
    8d24:	18801d36 	bltu	r3,r2,8d9c <alt_tick+0xd8>
    8d28:	e0bffd17 	ldw	r2,-12(fp)
    8d2c:	10800403 	ldbu	r2,16(r2)
    8d30:	10803fcc 	andi	r2,r2,255
    8d34:	1000191e 	bne	r2,zero,8d9c <alt_tick+0xd8>
    {
      next_callback = alarm->callback (alarm->context);
    8d38:	e0bffd17 	ldw	r2,-12(fp)
    8d3c:	10800317 	ldw	r2,12(r2)
    8d40:	e0fffd17 	ldw	r3,-12(fp)
    8d44:	18c00517 	ldw	r3,20(r3)
    8d48:	1809883a 	mov	r4,r3
    8d4c:	103ee83a 	callr	r2
    8d50:	e0bfff15 	stw	r2,-4(fp)

      /* deactivate the alarm if the return value is zero */

      if (next_callback == 0)
    8d54:	e0bfff17 	ldw	r2,-4(fp)
    8d58:	1000031e 	bne	r2,zero,8d68 <alt_tick+0xa4>
      {
        alt_alarm_stop (alarm);
    8d5c:	e13ffd17 	ldw	r4,-12(fp)
    8d60:	0008c280 	call	8c28 <alt_alarm_stop>
    8d64:	00000d06 	br	8d9c <alt_tick+0xd8>
      }
      else
      {
        alarm->time += next_callback;
    8d68:	e0bffd17 	ldw	r2,-12(fp)
    8d6c:	10c00217 	ldw	r3,8(r2)
    8d70:	e0bfff17 	ldw	r2,-4(fp)
    8d74:	1887883a 	add	r3,r3,r2
    8d78:	e0bffd17 	ldw	r2,-12(fp)
    8d7c:	10c00215 	stw	r3,8(r2)
        /* 
         * If the desired alarm time causes a roll-over, set the rollover
         * flag. This will prevent the subsequent tick event from causing
         * an alarm too early.
         */
        if(alarm->time < _alt_nticks)
    8d80:	e0bffd17 	ldw	r2,-12(fp)
    8d84:	10c00217 	ldw	r3,8(r2)
    8d88:	d0a5f417 	ldw	r2,-26672(gp)
    8d8c:	1880032e 	bgeu	r3,r2,8d9c <alt_tick+0xd8>
        {
          alarm->rollover = 1;
    8d90:	e0bffd17 	ldw	r2,-12(fp)
    8d94:	00c00044 	movi	r3,1
    8d98:	10c00405 	stb	r3,16(r2)
        }
      }
    }
    alarm = next;
    8d9c:	e0bffe17 	ldw	r2,-8(fp)
    8da0:	e0bffd15 	stw	r2,-12(fp)

  _alt_nticks++;

  /* process the registered callbacks */

  while (alarm != (alt_alarm*) &alt_alarm_list)
    8da4:	e0fffd17 	ldw	r3,-12(fp)
    8da8:	d0a00b04 	addi	r2,gp,-32724
    8dac:	18bfcf1e 	bne	r3,r2,8cec <__alt_mem_VGA_Subsystem_Char_Buf_Subsystem_Onchip_SRAM+0xf7008cec>

  /* 
   * Update the operating system specific timer facilities.
   */

  ALT_OS_TIME_TICK();
    8db0:	0001883a 	nop
}
    8db4:	0001883a 	nop
    8db8:	e037883a 	mov	sp,fp
    8dbc:	dfc00117 	ldw	ra,4(sp)
    8dc0:	df000017 	ldw	fp,0(sp)
    8dc4:	dec00204 	addi	sp,sp,8
    8dc8:	f800283a 	ret

00008dcc <altera_nios2_gen2_irq_init>:
/*
 * To initialize the internal interrupt controller, just clear the IENABLE
 * register so that all possible IRQs are disabled.
 */
void altera_nios2_gen2_irq_init(void) 
{
    8dcc:	deffff04 	addi	sp,sp,-4
    8dd0:	df000015 	stw	fp,0(sp)
    8dd4:	d839883a 	mov	fp,sp
    NIOS2_WRITE_IENABLE(0);
    8dd8:	000170fa 	wrctl	ienable,zero
}
    8ddc:	0001883a 	nop
    8de0:	e037883a 	mov	sp,fp
    8de4:	df000017 	ldw	fp,0(sp)
    8de8:	dec00104 	addi	sp,sp,4
    8dec:	f800283a 	ret

00008df0 <alt_find_dev>:
 * "name" must be an exact match for the devices registered name for a match to
 * be found.
 */
 
alt_dev* alt_find_dev(const char* name, alt_llist* llist)
{
    8df0:	defffa04 	addi	sp,sp,-24
    8df4:	dfc00515 	stw	ra,20(sp)
    8df8:	df000415 	stw	fp,16(sp)
    8dfc:	df000404 	addi	fp,sp,16
    8e00:	e13ffe15 	stw	r4,-8(fp)
    8e04:	e17fff15 	stw	r5,-4(fp)
  alt_dev* next = (alt_dev*) llist->next;
    8e08:	e0bfff17 	ldw	r2,-4(fp)
    8e0c:	10800017 	ldw	r2,0(r2)
    8e10:	e0bffc15 	stw	r2,-16(fp)
  alt_32 len;

  len  = strlen(name) + 1;
    8e14:	e13ffe17 	ldw	r4,-8(fp)
    8e18:	00092f80 	call	92f8 <strlen>
    8e1c:	10800044 	addi	r2,r2,1
    8e20:	e0bffd15 	stw	r2,-12(fp)
  /*
   * Check each list entry in turn, until a match is found, or we reach the
   * end of the list (i.e. next winds up pointing back to the list head).
   */ 

  while (next != (alt_dev*) llist)
    8e24:	00000d06 	br	8e5c <alt_find_dev+0x6c>
    /* 
     * memcmp() is used here rather than strcmp() in order to reduce the size
     * of the executable.
     */

    if (!memcmp (next->name, name, len))
    8e28:	e0bffc17 	ldw	r2,-16(fp)
    8e2c:	10800217 	ldw	r2,8(r2)
    8e30:	e0fffd17 	ldw	r3,-12(fp)
    8e34:	180d883a 	mov	r6,r3
    8e38:	e17ffe17 	ldw	r5,-8(fp)
    8e3c:	1009883a 	mov	r4,r2
    8e40:	00091340 	call	9134 <memcmp>
    8e44:	1000021e 	bne	r2,zero,8e50 <alt_find_dev+0x60>
    {
      /* match found */

      return next;
    8e48:	e0bffc17 	ldw	r2,-16(fp)
    8e4c:	00000706 	br	8e6c <alt_find_dev+0x7c>
    }
    next = (alt_dev*) next->llist.next;
    8e50:	e0bffc17 	ldw	r2,-16(fp)
    8e54:	10800017 	ldw	r2,0(r2)
    8e58:	e0bffc15 	stw	r2,-16(fp)
  /*
   * Check each list entry in turn, until a match is found, or we reach the
   * end of the list (i.e. next winds up pointing back to the list head).
   */ 

  while (next != (alt_dev*) llist)
    8e5c:	e0fffc17 	ldw	r3,-16(fp)
    8e60:	e0bfff17 	ldw	r2,-4(fp)
    8e64:	18bff01e 	bne	r3,r2,8e28 <__alt_mem_VGA_Subsystem_Char_Buf_Subsystem_Onchip_SRAM+0xf7008e28>
    next = (alt_dev*) next->llist.next;
  }
  
  /* No match found */
  
  return NULL;
    8e68:	0005883a 	mov	r2,zero
}
    8e6c:	e037883a 	mov	sp,fp
    8e70:	dfc00117 	ldw	ra,4(sp)
    8e74:	df000017 	ldw	fp,0(sp)
    8e78:	dec00204 	addi	sp,sp,8
    8e7c:	f800283a 	ret

00008e80 <alt_find_file>:
 * either '/' or '\0' is the prefix of the filename. For example the filename:
 * "/myfilesystem/junk.txt" would match: "/myfilesystem", but not: "/myfile". 
 */
 
alt_dev* alt_find_file (const char* name)
{
    8e80:	defffb04 	addi	sp,sp,-20
    8e84:	dfc00415 	stw	ra,16(sp)
    8e88:	df000315 	stw	fp,12(sp)
    8e8c:	df000304 	addi	fp,sp,12
    8e90:	e13fff15 	stw	r4,-4(fp)
  alt_dev* next = (alt_dev*) alt_fs_list.next;   
    8e94:	d0a00417 	ldw	r2,-32752(gp)
    8e98:	e0bffd15 	stw	r2,-12(fp)
  /*
   * Check each list entry in turn, until a match is found, or we reach the
   * end of the list (i.e. next winds up pointing back to the list head).
   */ 
 
  while (next != (alt_dev*) &alt_fs_list)
    8e9c:	00003106 	br	8f64 <alt_find_file+0xe4>
  {
    len = strlen(next->name);
    8ea0:	e0bffd17 	ldw	r2,-12(fp)
    8ea4:	10800217 	ldw	r2,8(r2)
    8ea8:	1009883a 	mov	r4,r2
    8eac:	00092f80 	call	92f8 <strlen>
    8eb0:	e0bffe15 	stw	r2,-8(fp)
    
    if (next->name[len-1] == '/')
    8eb4:	e0bffd17 	ldw	r2,-12(fp)
    8eb8:	10c00217 	ldw	r3,8(r2)
    8ebc:	e0bffe17 	ldw	r2,-8(fp)
    8ec0:	10bfffc4 	addi	r2,r2,-1
    8ec4:	1885883a 	add	r2,r3,r2
    8ec8:	10800003 	ldbu	r2,0(r2)
    8ecc:	10803fcc 	andi	r2,r2,255
    8ed0:	1080201c 	xori	r2,r2,128
    8ed4:	10bfe004 	addi	r2,r2,-128
    8ed8:	10800bd8 	cmpnei	r2,r2,47
    8edc:	1000031e 	bne	r2,zero,8eec <alt_find_file+0x6c>
    {
      len -= 1;
    8ee0:	e0bffe17 	ldw	r2,-8(fp)
    8ee4:	10bfffc4 	addi	r2,r2,-1
    8ee8:	e0bffe15 	stw	r2,-8(fp)
    }

    if (((name[len] == '/') || (name[len] == '\0')) && 
    8eec:	e0bffe17 	ldw	r2,-8(fp)
    8ef0:	e0ffff17 	ldw	r3,-4(fp)
    8ef4:	1885883a 	add	r2,r3,r2
    8ef8:	10800003 	ldbu	r2,0(r2)
    8efc:	10803fcc 	andi	r2,r2,255
    8f00:	1080201c 	xori	r2,r2,128
    8f04:	10bfe004 	addi	r2,r2,-128
    8f08:	10800be0 	cmpeqi	r2,r2,47
    8f0c:	1000081e 	bne	r2,zero,8f30 <alt_find_file+0xb0>
    8f10:	e0bffe17 	ldw	r2,-8(fp)
    8f14:	e0ffff17 	ldw	r3,-4(fp)
    8f18:	1885883a 	add	r2,r3,r2
    8f1c:	10800003 	ldbu	r2,0(r2)
    8f20:	10803fcc 	andi	r2,r2,255
    8f24:	1080201c 	xori	r2,r2,128
    8f28:	10bfe004 	addi	r2,r2,-128
    8f2c:	10000a1e 	bne	r2,zero,8f58 <alt_find_file+0xd8>
        !memcmp (next->name, name, len))
    8f30:	e0bffd17 	ldw	r2,-12(fp)
    8f34:	10800217 	ldw	r2,8(r2)
    8f38:	e0fffe17 	ldw	r3,-8(fp)
    8f3c:	180d883a 	mov	r6,r3
    8f40:	e17fff17 	ldw	r5,-4(fp)
    8f44:	1009883a 	mov	r4,r2
    8f48:	00091340 	call	9134 <memcmp>
    if (next->name[len-1] == '/')
    {
      len -= 1;
    }

    if (((name[len] == '/') || (name[len] == '\0')) && 
    8f4c:	1000021e 	bne	r2,zero,8f58 <alt_find_file+0xd8>
        !memcmp (next->name, name, len))
    {
      /* match found */

      return next;
    8f50:	e0bffd17 	ldw	r2,-12(fp)
    8f54:	00000706 	br	8f74 <alt_find_file+0xf4>
    }
    next = (alt_dev*) next->llist.next;
    8f58:	e0bffd17 	ldw	r2,-12(fp)
    8f5c:	10800017 	ldw	r2,0(r2)
    8f60:	e0bffd15 	stw	r2,-12(fp)
  /*
   * Check each list entry in turn, until a match is found, or we reach the
   * end of the list (i.e. next winds up pointing back to the list head).
   */ 
 
  while (next != (alt_dev*) &alt_fs_list)
    8f64:	e0fffd17 	ldw	r3,-12(fp)
    8f68:	d0a00404 	addi	r2,gp,-32752
    8f6c:	18bfcc1e 	bne	r3,r2,8ea0 <__alt_mem_VGA_Subsystem_Char_Buf_Subsystem_Onchip_SRAM+0xf7008ea0>
    next = (alt_dev*) next->llist.next;
  }
  
  /* No match found */
  
  return NULL;     
    8f70:	0005883a 	mov	r2,zero
}
    8f74:	e037883a 	mov	sp,fp
    8f78:	dfc00117 	ldw	ra,4(sp)
    8f7c:	df000017 	ldw	fp,0(sp)
    8f80:	dec00204 	addi	sp,sp,8
    8f84:	f800283a 	ret

00008f88 <alt_get_fd>:
 * the offset of the file descriptor within the file descriptor array). A
 * negative value indicates failure.
 */

int alt_get_fd (alt_dev* dev)
{
    8f88:	defffa04 	addi	sp,sp,-24
    8f8c:	dfc00515 	stw	ra,20(sp)
    8f90:	df000415 	stw	fp,16(sp)
    8f94:	dc000315 	stw	r16,12(sp)
    8f98:	df000404 	addi	fp,sp,16
    8f9c:	e13ffe15 	stw	r4,-8(fp)
  alt_32 i;
  int rc = -EMFILE;
    8fa0:	00bffa04 	movi	r2,-24
    8fa4:	e0bffd15 	stw	r2,-12(fp)
   * indicates the highest file descriptor ever allocated. This is used to
   * improve efficency when searching the file descriptor list, and 
   * therefore reduce contention on the alt_fd_list_lock semaphore. 
   */

  for (i = 0; i < ALT_MAX_FD; i++)
    8fa8:	e03ffc15 	stw	zero,-16(fp)
    8fac:	00001d06 	br	9024 <alt_get_fd+0x9c>
  {
    if (!alt_fd_list[i].dev)
    8fb0:	04000074 	movhi	r16,1
    8fb4:	842b1504 	addi	r16,r16,-21420
    8fb8:	e0bffc17 	ldw	r2,-16(fp)
    8fbc:	01400304 	movi	r5,12
    8fc0:	1009883a 	mov	r4,r2
    8fc4:	00043e00 	call	43e0 <__mulsi3>
    8fc8:	8085883a 	add	r2,r16,r2
    8fcc:	10800017 	ldw	r2,0(r2)
    8fd0:	1000111e 	bne	r2,zero,9018 <alt_get_fd+0x90>
    {
      alt_fd_list[i].dev = dev;
    8fd4:	04000074 	movhi	r16,1
    8fd8:	842b1504 	addi	r16,r16,-21420
    8fdc:	e0bffc17 	ldw	r2,-16(fp)
    8fe0:	01400304 	movi	r5,12
    8fe4:	1009883a 	mov	r4,r2
    8fe8:	00043e00 	call	43e0 <__mulsi3>
    8fec:	8085883a 	add	r2,r16,r2
    8ff0:	e0fffe17 	ldw	r3,-8(fp)
    8ff4:	10c00015 	stw	r3,0(r2)
      if (i > alt_max_fd)
    8ff8:	d0e00817 	ldw	r3,-32736(gp)
    8ffc:	e0bffc17 	ldw	r2,-16(fp)
    9000:	1880020e 	bge	r3,r2,900c <alt_get_fd+0x84>
      {
        alt_max_fd = i;
    9004:	e0bffc17 	ldw	r2,-16(fp)
    9008:	d0a00815 	stw	r2,-32736(gp)
      }
      rc = i;
    900c:	e0bffc17 	ldw	r2,-16(fp)
    9010:	e0bffd15 	stw	r2,-12(fp)
      goto alt_get_fd_exit;
    9014:	00000606 	br	9030 <alt_get_fd+0xa8>
   * indicates the highest file descriptor ever allocated. This is used to
   * improve efficency when searching the file descriptor list, and 
   * therefore reduce contention on the alt_fd_list_lock semaphore. 
   */

  for (i = 0; i < ALT_MAX_FD; i++)
    9018:	e0bffc17 	ldw	r2,-16(fp)
    901c:	10800044 	addi	r2,r2,1
    9020:	e0bffc15 	stw	r2,-16(fp)
    9024:	e0bffc17 	ldw	r2,-16(fp)
    9028:	10800810 	cmplti	r2,r2,32
    902c:	103fe01e 	bne	r2,zero,8fb0 <__alt_mem_VGA_Subsystem_Char_Buf_Subsystem_Onchip_SRAM+0xf7008fb0>
   * file descriptor pool.
   */

  ALT_SEM_POST(alt_fd_list_lock);

  return rc;
    9030:	e0bffd17 	ldw	r2,-12(fp)
}
    9034:	e6ffff04 	addi	sp,fp,-4
    9038:	dfc00217 	ldw	ra,8(sp)
    903c:	df000117 	ldw	fp,4(sp)
    9040:	dc000017 	ldw	r16,0(sp)
    9044:	dec00304 	addi	sp,sp,12
    9048:	f800283a 	ret

0000904c <alt_exception_cause_generated_bad_addr>:
 * Return: 1: BADADDR (bad_addr argument to handler) is valid
 *         0: BADADDR is not valid
 */
int 
alt_exception_cause_generated_bad_addr(alt_exception_cause cause)
{
    904c:	defffe04 	addi	sp,sp,-8
    9050:	df000115 	stw	fp,4(sp)
    9054:	df000104 	addi	fp,sp,4
    9058:	e13fff15 	stw	r4,-4(fp)
  switch (cause) {
    905c:	e0bfff17 	ldw	r2,-4(fp)
    9060:	10bffe84 	addi	r2,r2,-6
    9064:	10c00428 	cmpgeui	r3,r2,16
    9068:	18001a1e 	bne	r3,zero,90d4 <alt_exception_cause_generated_bad_addr+0x88>
    906c:	100690ba 	slli	r3,r2,2
    9070:	00800074 	movhi	r2,1
    9074:	10a42104 	addi	r2,r2,-28540
    9078:	1885883a 	add	r2,r3,r2
    907c:	10800017 	ldw	r2,0(r2)
    9080:	1000683a 	jmp	r2
    9084:	000090c4 	movi	zero,579
    9088:	000090c4 	movi	zero,579
    908c:	000090d4 	movui	zero,579
    9090:	000090d4 	movui	zero,579
    9094:	000090d4 	movui	zero,579
    9098:	000090c4 	movi	zero,579
    909c:	000090cc 	andi	zero,zero,579
    90a0:	000090d4 	movui	zero,579
    90a4:	000090c4 	movi	zero,579
    90a8:	000090c4 	movi	zero,579
    90ac:	000090d4 	movui	zero,579
    90b0:	000090c4 	movi	zero,579
    90b4:	000090cc 	andi	zero,zero,579
    90b8:	000090d4 	movui	zero,579
    90bc:	000090d4 	movui	zero,579
    90c0:	000090c4 	movi	zero,579
  case NIOS2_EXCEPTION_MISALIGNED_TARGET_PC:
  case NIOS2_EXCEPTION_TLB_READ_PERM_VIOLATION:
  case NIOS2_EXCEPTION_TLB_WRITE_PERM_VIOLATION:
  case NIOS2_EXCEPTION_MPU_DATA_REGION_VIOLATION:
  case NIOS2_EXCEPTION_ECC_DATA_ERR:
    return 1;
    90c4:	00800044 	movi	r2,1
    90c8:	00000306 	br	90d8 <alt_exception_cause_generated_bad_addr+0x8c>

  case NIOS2_EXCEPTION_TLB_MISS:
  case NIOS2_EXCEPTION_ECC_TLB_ERR:
    return 0;
    90cc:	0005883a 	mov	r2,zero
    90d0:	00000106 	br	90d8 <alt_exception_cause_generated_bad_addr+0x8c>

  default:
    return 0;
    90d4:	0005883a 	mov	r2,zero
  }
}
    90d8:	e037883a 	mov	sp,fp
    90dc:	df000017 	ldw	fp,0(sp)
    90e0:	dec00104 	addi	sp,sp,4
    90e4:	f800283a 	ret

000090e8 <atexit>:
    90e8:	200b883a 	mov	r5,r4
    90ec:	000f883a 	mov	r7,zero
    90f0:	000d883a 	mov	r6,zero
    90f4:	0009883a 	mov	r4,zero
    90f8:	00093901 	jmpi	9390 <__register_exitproc>

000090fc <exit>:
    90fc:	defffe04 	addi	sp,sp,-8
    9100:	000b883a 	mov	r5,zero
    9104:	dc000015 	stw	r16,0(sp)
    9108:	dfc00115 	stw	ra,4(sp)
    910c:	2021883a 	mov	r16,r4
    9110:	00094a80 	call	94a8 <__call_exitprocs>
    9114:	00800074 	movhi	r2,1
    9118:	10ac8b04 	addi	r2,r2,-19924
    911c:	11000017 	ldw	r4,0(r2)
    9120:	20800f17 	ldw	r2,60(r4)
    9124:	10000126 	beq	r2,zero,912c <exit+0x30>
    9128:	103ee83a 	callr	r2
    912c:	8009883a 	mov	r4,r16
    9130:	00096280 	call	9628 <_exit>

00009134 <memcmp>:
    9134:	01c000c4 	movi	r7,3
    9138:	3980192e 	bgeu	r7,r6,91a0 <memcmp+0x6c>
    913c:	2144b03a 	or	r2,r4,r5
    9140:	11c4703a 	and	r2,r2,r7
    9144:	10000f26 	beq	r2,zero,9184 <memcmp+0x50>
    9148:	20800003 	ldbu	r2,0(r4)
    914c:	28c00003 	ldbu	r3,0(r5)
    9150:	10c0151e 	bne	r2,r3,91a8 <memcmp+0x74>
    9154:	31bfff84 	addi	r6,r6,-2
    9158:	01ffffc4 	movi	r7,-1
    915c:	00000406 	br	9170 <memcmp+0x3c>
    9160:	20800003 	ldbu	r2,0(r4)
    9164:	28c00003 	ldbu	r3,0(r5)
    9168:	31bfffc4 	addi	r6,r6,-1
    916c:	10c00e1e 	bne	r2,r3,91a8 <memcmp+0x74>
    9170:	21000044 	addi	r4,r4,1
    9174:	29400044 	addi	r5,r5,1
    9178:	31fff91e 	bne	r6,r7,9160 <__alt_mem_VGA_Subsystem_Char_Buf_Subsystem_Onchip_SRAM+0xf7009160>
    917c:	0005883a 	mov	r2,zero
    9180:	f800283a 	ret
    9184:	20c00017 	ldw	r3,0(r4)
    9188:	28800017 	ldw	r2,0(r5)
    918c:	18bfee1e 	bne	r3,r2,9148 <__alt_mem_VGA_Subsystem_Char_Buf_Subsystem_Onchip_SRAM+0xf7009148>
    9190:	31bfff04 	addi	r6,r6,-4
    9194:	21000104 	addi	r4,r4,4
    9198:	29400104 	addi	r5,r5,4
    919c:	39bff936 	bltu	r7,r6,9184 <__alt_mem_VGA_Subsystem_Char_Buf_Subsystem_Onchip_SRAM+0xf7009184>
    91a0:	303fe91e 	bne	r6,zero,9148 <__alt_mem_VGA_Subsystem_Char_Buf_Subsystem_Onchip_SRAM+0xf7009148>
    91a4:	003ff506 	br	917c <__alt_mem_VGA_Subsystem_Char_Buf_Subsystem_Onchip_SRAM+0xf700917c>
    91a8:	10c5c83a 	sub	r2,r2,r3
    91ac:	f800283a 	ret

000091b0 <memcpy>:
    91b0:	defffd04 	addi	sp,sp,-12
    91b4:	dfc00215 	stw	ra,8(sp)
    91b8:	dc400115 	stw	r17,4(sp)
    91bc:	dc000015 	stw	r16,0(sp)
    91c0:	00c003c4 	movi	r3,15
    91c4:	2005883a 	mov	r2,r4
    91c8:	1980452e 	bgeu	r3,r6,92e0 <memcpy+0x130>
    91cc:	2906b03a 	or	r3,r5,r4
    91d0:	18c000cc 	andi	r3,r3,3
    91d4:	1800441e 	bne	r3,zero,92e8 <memcpy+0x138>
    91d8:	347ffc04 	addi	r17,r6,-16
    91dc:	8822d13a 	srli	r17,r17,4
    91e0:	28c00104 	addi	r3,r5,4
    91e4:	23400104 	addi	r13,r4,4
    91e8:	8820913a 	slli	r16,r17,4
    91ec:	2b000204 	addi	r12,r5,8
    91f0:	22c00204 	addi	r11,r4,8
    91f4:	84000504 	addi	r16,r16,20
    91f8:	2a800304 	addi	r10,r5,12
    91fc:	22400304 	addi	r9,r4,12
    9200:	2c21883a 	add	r16,r5,r16
    9204:	2811883a 	mov	r8,r5
    9208:	200f883a 	mov	r7,r4
    920c:	41000017 	ldw	r4,0(r8)
    9210:	1fc00017 	ldw	ra,0(r3)
    9214:	63c00017 	ldw	r15,0(r12)
    9218:	39000015 	stw	r4,0(r7)
    921c:	53800017 	ldw	r14,0(r10)
    9220:	6fc00015 	stw	ra,0(r13)
    9224:	5bc00015 	stw	r15,0(r11)
    9228:	4b800015 	stw	r14,0(r9)
    922c:	18c00404 	addi	r3,r3,16
    9230:	39c00404 	addi	r7,r7,16
    9234:	42000404 	addi	r8,r8,16
    9238:	6b400404 	addi	r13,r13,16
    923c:	63000404 	addi	r12,r12,16
    9240:	5ac00404 	addi	r11,r11,16
    9244:	52800404 	addi	r10,r10,16
    9248:	4a400404 	addi	r9,r9,16
    924c:	1c3fef1e 	bne	r3,r16,920c <__alt_mem_VGA_Subsystem_Char_Buf_Subsystem_Onchip_SRAM+0xf700920c>
    9250:	89c00044 	addi	r7,r17,1
    9254:	380e913a 	slli	r7,r7,4
    9258:	310003cc 	andi	r4,r6,15
    925c:	02c000c4 	movi	r11,3
    9260:	11c7883a 	add	r3,r2,r7
    9264:	29cb883a 	add	r5,r5,r7
    9268:	5900212e 	bgeu	r11,r4,92f0 <memcpy+0x140>
    926c:	1813883a 	mov	r9,r3
    9270:	2811883a 	mov	r8,r5
    9274:	200f883a 	mov	r7,r4
    9278:	42800017 	ldw	r10,0(r8)
    927c:	4a400104 	addi	r9,r9,4
    9280:	39ffff04 	addi	r7,r7,-4
    9284:	4abfff15 	stw	r10,-4(r9)
    9288:	42000104 	addi	r8,r8,4
    928c:	59fffa36 	bltu	r11,r7,9278 <__alt_mem_VGA_Subsystem_Char_Buf_Subsystem_Onchip_SRAM+0xf7009278>
    9290:	213fff04 	addi	r4,r4,-4
    9294:	2008d0ba 	srli	r4,r4,2
    9298:	318000cc 	andi	r6,r6,3
    929c:	21000044 	addi	r4,r4,1
    92a0:	2109883a 	add	r4,r4,r4
    92a4:	2109883a 	add	r4,r4,r4
    92a8:	1907883a 	add	r3,r3,r4
    92ac:	290b883a 	add	r5,r5,r4
    92b0:	30000626 	beq	r6,zero,92cc <memcpy+0x11c>
    92b4:	198d883a 	add	r6,r3,r6
    92b8:	29c00003 	ldbu	r7,0(r5)
    92bc:	18c00044 	addi	r3,r3,1
    92c0:	29400044 	addi	r5,r5,1
    92c4:	19ffffc5 	stb	r7,-1(r3)
    92c8:	19bffb1e 	bne	r3,r6,92b8 <__alt_mem_VGA_Subsystem_Char_Buf_Subsystem_Onchip_SRAM+0xf70092b8>
    92cc:	dfc00217 	ldw	ra,8(sp)
    92d0:	dc400117 	ldw	r17,4(sp)
    92d4:	dc000017 	ldw	r16,0(sp)
    92d8:	dec00304 	addi	sp,sp,12
    92dc:	f800283a 	ret
    92e0:	2007883a 	mov	r3,r4
    92e4:	003ff206 	br	92b0 <__alt_mem_VGA_Subsystem_Char_Buf_Subsystem_Onchip_SRAM+0xf70092b0>
    92e8:	2007883a 	mov	r3,r4
    92ec:	003ff106 	br	92b4 <__alt_mem_VGA_Subsystem_Char_Buf_Subsystem_Onchip_SRAM+0xf70092b4>
    92f0:	200d883a 	mov	r6,r4
    92f4:	003fee06 	br	92b0 <__alt_mem_VGA_Subsystem_Char_Buf_Subsystem_Onchip_SRAM+0xf70092b0>

000092f8 <strlen>:
    92f8:	208000cc 	andi	r2,r4,3
    92fc:	10002026 	beq	r2,zero,9380 <strlen+0x88>
    9300:	20800007 	ldb	r2,0(r4)
    9304:	10002026 	beq	r2,zero,9388 <strlen+0x90>
    9308:	2005883a 	mov	r2,r4
    930c:	00000206 	br	9318 <strlen+0x20>
    9310:	10c00007 	ldb	r3,0(r2)
    9314:	18001826 	beq	r3,zero,9378 <strlen+0x80>
    9318:	10800044 	addi	r2,r2,1
    931c:	10c000cc 	andi	r3,r2,3
    9320:	183ffb1e 	bne	r3,zero,9310 <__alt_mem_VGA_Subsystem_Char_Buf_Subsystem_Onchip_SRAM+0xf7009310>
    9324:	10c00017 	ldw	r3,0(r2)
    9328:	01ffbff4 	movhi	r7,65279
    932c:	39ffbfc4 	addi	r7,r7,-257
    9330:	00ca303a 	nor	r5,zero,r3
    9334:	01a02074 	movhi	r6,32897
    9338:	19c7883a 	add	r3,r3,r7
    933c:	31a02004 	addi	r6,r6,-32640
    9340:	1946703a 	and	r3,r3,r5
    9344:	1986703a 	and	r3,r3,r6
    9348:	1800091e 	bne	r3,zero,9370 <strlen+0x78>
    934c:	10800104 	addi	r2,r2,4
    9350:	10c00017 	ldw	r3,0(r2)
    9354:	19cb883a 	add	r5,r3,r7
    9358:	00c6303a 	nor	r3,zero,r3
    935c:	28c6703a 	and	r3,r5,r3
    9360:	1986703a 	and	r3,r3,r6
    9364:	183ff926 	beq	r3,zero,934c <__alt_mem_VGA_Subsystem_Char_Buf_Subsystem_Onchip_SRAM+0xf700934c>
    9368:	00000106 	br	9370 <strlen+0x78>
    936c:	10800044 	addi	r2,r2,1
    9370:	10c00007 	ldb	r3,0(r2)
    9374:	183ffd1e 	bne	r3,zero,936c <__alt_mem_VGA_Subsystem_Char_Buf_Subsystem_Onchip_SRAM+0xf700936c>
    9378:	1105c83a 	sub	r2,r2,r4
    937c:	f800283a 	ret
    9380:	2005883a 	mov	r2,r4
    9384:	003fe706 	br	9324 <__alt_mem_VGA_Subsystem_Char_Buf_Subsystem_Onchip_SRAM+0xf7009324>
    9388:	0005883a 	mov	r2,zero
    938c:	f800283a 	ret

00009390 <__register_exitproc>:
    9390:	defffa04 	addi	sp,sp,-24
    9394:	dc000315 	stw	r16,12(sp)
    9398:	04000074 	movhi	r16,1
    939c:	842c8b04 	addi	r16,r16,-19924
    93a0:	80c00017 	ldw	r3,0(r16)
    93a4:	dc400415 	stw	r17,16(sp)
    93a8:	dfc00515 	stw	ra,20(sp)
    93ac:	18805217 	ldw	r2,328(r3)
    93b0:	2023883a 	mov	r17,r4
    93b4:	10003726 	beq	r2,zero,9494 <__register_exitproc+0x104>
    93b8:	10c00117 	ldw	r3,4(r2)
    93bc:	010007c4 	movi	r4,31
    93c0:	20c00e16 	blt	r4,r3,93fc <__register_exitproc+0x6c>
    93c4:	1a000044 	addi	r8,r3,1
    93c8:	8800221e 	bne	r17,zero,9454 <__register_exitproc+0xc4>
    93cc:	18c00084 	addi	r3,r3,2
    93d0:	18c7883a 	add	r3,r3,r3
    93d4:	18c7883a 	add	r3,r3,r3
    93d8:	12000115 	stw	r8,4(r2)
    93dc:	10c7883a 	add	r3,r2,r3
    93e0:	19400015 	stw	r5,0(r3)
    93e4:	0005883a 	mov	r2,zero
    93e8:	dfc00517 	ldw	ra,20(sp)
    93ec:	dc400417 	ldw	r17,16(sp)
    93f0:	dc000317 	ldw	r16,12(sp)
    93f4:	dec00604 	addi	sp,sp,24
    93f8:	f800283a 	ret
    93fc:	00800034 	movhi	r2,0
    9400:	10800004 	addi	r2,r2,0
    9404:	10002626 	beq	r2,zero,94a0 <__register_exitproc+0x110>
    9408:	01006404 	movi	r4,400
    940c:	d9400015 	stw	r5,0(sp)
    9410:	d9800115 	stw	r6,4(sp)
    9414:	d9c00215 	stw	r7,8(sp)
    9418:	00000000 	call	0 <__alt_mem_SDRAM>
    941c:	d9400017 	ldw	r5,0(sp)
    9420:	d9800117 	ldw	r6,4(sp)
    9424:	d9c00217 	ldw	r7,8(sp)
    9428:	10001d26 	beq	r2,zero,94a0 <__register_exitproc+0x110>
    942c:	81000017 	ldw	r4,0(r16)
    9430:	10000115 	stw	zero,4(r2)
    9434:	02000044 	movi	r8,1
    9438:	22405217 	ldw	r9,328(r4)
    943c:	0007883a 	mov	r3,zero
    9440:	12400015 	stw	r9,0(r2)
    9444:	20805215 	stw	r2,328(r4)
    9448:	10006215 	stw	zero,392(r2)
    944c:	10006315 	stw	zero,396(r2)
    9450:	883fde26 	beq	r17,zero,93cc <__alt_mem_VGA_Subsystem_Char_Buf_Subsystem_Onchip_SRAM+0xf70093cc>
    9454:	18c9883a 	add	r4,r3,r3
    9458:	2109883a 	add	r4,r4,r4
    945c:	1109883a 	add	r4,r2,r4
    9460:	21802215 	stw	r6,136(r4)
    9464:	01800044 	movi	r6,1
    9468:	12406217 	ldw	r9,392(r2)
    946c:	30cc983a 	sll	r6,r6,r3
    9470:	4992b03a 	or	r9,r9,r6
    9474:	12406215 	stw	r9,392(r2)
    9478:	21c04215 	stw	r7,264(r4)
    947c:	01000084 	movi	r4,2
    9480:	893fd21e 	bne	r17,r4,93cc <__alt_mem_VGA_Subsystem_Char_Buf_Subsystem_Onchip_SRAM+0xf70093cc>
    9484:	11006317 	ldw	r4,396(r2)
    9488:	218cb03a 	or	r6,r4,r6
    948c:	11806315 	stw	r6,396(r2)
    9490:	003fce06 	br	93cc <__alt_mem_VGA_Subsystem_Char_Buf_Subsystem_Onchip_SRAM+0xf70093cc>
    9494:	18805304 	addi	r2,r3,332
    9498:	18805215 	stw	r2,328(r3)
    949c:	003fc606 	br	93b8 <__alt_mem_VGA_Subsystem_Char_Buf_Subsystem_Onchip_SRAM+0xf70093b8>
    94a0:	00bfffc4 	movi	r2,-1
    94a4:	003fd006 	br	93e8 <__alt_mem_VGA_Subsystem_Char_Buf_Subsystem_Onchip_SRAM+0xf70093e8>

000094a8 <__call_exitprocs>:
    94a8:	defff504 	addi	sp,sp,-44
    94ac:	df000915 	stw	fp,36(sp)
    94b0:	dd400615 	stw	r21,24(sp)
    94b4:	dc800315 	stw	r18,12(sp)
    94b8:	dfc00a15 	stw	ra,40(sp)
    94bc:	ddc00815 	stw	r23,32(sp)
    94c0:	dd800715 	stw	r22,28(sp)
    94c4:	dd000515 	stw	r20,20(sp)
    94c8:	dcc00415 	stw	r19,16(sp)
    94cc:	dc400215 	stw	r17,8(sp)
    94d0:	dc000115 	stw	r16,4(sp)
    94d4:	d9000015 	stw	r4,0(sp)
    94d8:	2839883a 	mov	fp,r5
    94dc:	04800044 	movi	r18,1
    94e0:	057fffc4 	movi	r21,-1
    94e4:	00800074 	movhi	r2,1
    94e8:	10ac8b04 	addi	r2,r2,-19924
    94ec:	12000017 	ldw	r8,0(r2)
    94f0:	45005217 	ldw	r20,328(r8)
    94f4:	44c05204 	addi	r19,r8,328
    94f8:	a0001c26 	beq	r20,zero,956c <__call_exitprocs+0xc4>
    94fc:	a0800117 	ldw	r2,4(r20)
    9500:	15ffffc4 	addi	r23,r2,-1
    9504:	b8000d16 	blt	r23,zero,953c <__call_exitprocs+0x94>
    9508:	14000044 	addi	r16,r2,1
    950c:	8421883a 	add	r16,r16,r16
    9510:	8421883a 	add	r16,r16,r16
    9514:	84402004 	addi	r17,r16,128
    9518:	a463883a 	add	r17,r20,r17
    951c:	a421883a 	add	r16,r20,r16
    9520:	e0001e26 	beq	fp,zero,959c <__call_exitprocs+0xf4>
    9524:	80804017 	ldw	r2,256(r16)
    9528:	e0801c26 	beq	fp,r2,959c <__call_exitprocs+0xf4>
    952c:	bdffffc4 	addi	r23,r23,-1
    9530:	843fff04 	addi	r16,r16,-4
    9534:	8c7fff04 	addi	r17,r17,-4
    9538:	bd7ff91e 	bne	r23,r21,9520 <__alt_mem_VGA_Subsystem_Char_Buf_Subsystem_Onchip_SRAM+0xf7009520>
    953c:	00800034 	movhi	r2,0
    9540:	10800004 	addi	r2,r2,0
    9544:	10000926 	beq	r2,zero,956c <__call_exitprocs+0xc4>
    9548:	a0800117 	ldw	r2,4(r20)
    954c:	1000301e 	bne	r2,zero,9610 <__call_exitprocs+0x168>
    9550:	a0800017 	ldw	r2,0(r20)
    9554:	10003226 	beq	r2,zero,9620 <__call_exitprocs+0x178>
    9558:	a009883a 	mov	r4,r20
    955c:	98800015 	stw	r2,0(r19)
    9560:	00000000 	call	0 <__alt_mem_SDRAM>
    9564:	9d000017 	ldw	r20,0(r19)
    9568:	a03fe41e 	bne	r20,zero,94fc <__alt_mem_VGA_Subsystem_Char_Buf_Subsystem_Onchip_SRAM+0xf70094fc>
    956c:	dfc00a17 	ldw	ra,40(sp)
    9570:	df000917 	ldw	fp,36(sp)
    9574:	ddc00817 	ldw	r23,32(sp)
    9578:	dd800717 	ldw	r22,28(sp)
    957c:	dd400617 	ldw	r21,24(sp)
    9580:	dd000517 	ldw	r20,20(sp)
    9584:	dcc00417 	ldw	r19,16(sp)
    9588:	dc800317 	ldw	r18,12(sp)
    958c:	dc400217 	ldw	r17,8(sp)
    9590:	dc000117 	ldw	r16,4(sp)
    9594:	dec00b04 	addi	sp,sp,44
    9598:	f800283a 	ret
    959c:	a0800117 	ldw	r2,4(r20)
    95a0:	80c00017 	ldw	r3,0(r16)
    95a4:	10bfffc4 	addi	r2,r2,-1
    95a8:	15c01426 	beq	r2,r23,95fc <__call_exitprocs+0x154>
    95ac:	80000015 	stw	zero,0(r16)
    95b0:	183fde26 	beq	r3,zero,952c <__alt_mem_VGA_Subsystem_Char_Buf_Subsystem_Onchip_SRAM+0xf700952c>
    95b4:	95c8983a 	sll	r4,r18,r23
    95b8:	a0806217 	ldw	r2,392(r20)
    95bc:	a5800117 	ldw	r22,4(r20)
    95c0:	2084703a 	and	r2,r4,r2
    95c4:	10000b26 	beq	r2,zero,95f4 <__call_exitprocs+0x14c>
    95c8:	a0806317 	ldw	r2,396(r20)
    95cc:	2088703a 	and	r4,r4,r2
    95d0:	20000c1e 	bne	r4,zero,9604 <__call_exitprocs+0x15c>
    95d4:	89400017 	ldw	r5,0(r17)
    95d8:	d9000017 	ldw	r4,0(sp)
    95dc:	183ee83a 	callr	r3
    95e0:	a0800117 	ldw	r2,4(r20)
    95e4:	15bfbf1e 	bne	r2,r22,94e4 <__alt_mem_VGA_Subsystem_Char_Buf_Subsystem_Onchip_SRAM+0xf70094e4>
    95e8:	98800017 	ldw	r2,0(r19)
    95ec:	153fcf26 	beq	r2,r20,952c <__alt_mem_VGA_Subsystem_Char_Buf_Subsystem_Onchip_SRAM+0xf700952c>
    95f0:	003fbc06 	br	94e4 <__alt_mem_VGA_Subsystem_Char_Buf_Subsystem_Onchip_SRAM+0xf70094e4>
    95f4:	183ee83a 	callr	r3
    95f8:	003ff906 	br	95e0 <__alt_mem_VGA_Subsystem_Char_Buf_Subsystem_Onchip_SRAM+0xf70095e0>
    95fc:	a5c00115 	stw	r23,4(r20)
    9600:	003feb06 	br	95b0 <__alt_mem_VGA_Subsystem_Char_Buf_Subsystem_Onchip_SRAM+0xf70095b0>
    9604:	89000017 	ldw	r4,0(r17)
    9608:	183ee83a 	callr	r3
    960c:	003ff406 	br	95e0 <__alt_mem_VGA_Subsystem_Char_Buf_Subsystem_Onchip_SRAM+0xf70095e0>
    9610:	a0800017 	ldw	r2,0(r20)
    9614:	a027883a 	mov	r19,r20
    9618:	1029883a 	mov	r20,r2
    961c:	003fb606 	br	94f8 <__alt_mem_VGA_Subsystem_Char_Buf_Subsystem_Onchip_SRAM+0xf70094f8>
    9620:	0005883a 	mov	r2,zero
    9624:	003ffb06 	br	9614 <__alt_mem_VGA_Subsystem_Char_Buf_Subsystem_Onchip_SRAM+0xf7009614>

00009628 <_exit>:
 *
 * ALT_EXIT is mapped onto the _exit() system call in alt_syscall.h
 */

void ALT_EXIT (int exit_code)
{
    9628:	defffd04 	addi	sp,sp,-12
    962c:	df000215 	stw	fp,8(sp)
    9630:	df000204 	addi	fp,sp,8
    9634:	e13fff15 	stw	r4,-4(fp)
  ALT_LOG_PRINT_BOOT("[alt_exit.c] Entering _exit() function.\r\n");
  ALT_LOG_PRINT_BOOT("[alt_exit.c] Exit code from main was %d.\r\n",exit_code);
  /* Stop all other threads */

  ALT_LOG_PRINT_BOOT("[alt_exit.c] Calling ALT_OS_STOP().\r\n");
  ALT_OS_STOP();
    9638:	0001883a 	nop
    963c:	e0bfff17 	ldw	r2,-4(fp)
    9640:	e0bffe15 	stw	r2,-8(fp)
/*
 * Routine called on exit.
 */
static ALT_INLINE ALT_ALWAYS_INLINE void alt_sim_halt(int exit_code)
{
  register int r2 asm ("r2") = exit_code;
    9644:	e0bffe17 	ldw	r2,-8(fp)
  __asm__ volatile ("\n0:\n\taddi %0,%0, -1\n\tbgt %0,zero,0b" : : "r" (ALT_CPU_FREQ/100) ); /* Delay for >30ms */

  __asm__ volatile ("break 2" : : "r"(r2), "r"(r3) ALT_GMON_DATA );

#else /* !DEBUG_STUB */
  if (r2) {
    9648:	10000226 	beq	r2,zero,9654 <_exit+0x2c>
    ALT_SIM_FAIL();
    964c:	002af070 	cmpltui	zero,zero,43969
    9650:	00000106 	br	9658 <_exit+0x30>
  } else {
    ALT_SIM_PASS();
    9654:	002af0b0 	cmpltui	zero,zero,43970
  ALT_SIM_HALT(exit_code);

  /* spin forever, since there's no where to go back to */

  ALT_LOG_PRINT_BOOT("[alt_exit.c] Spinning forever.\r\n");
  while (1);
    9658:	003fff06 	br	9658 <__alt_mem_VGA_Subsystem_Char_Buf_Subsystem_Onchip_SRAM+0xf7009658>
