
radar_final.elf:     file format elf32-littlenios2
radar_final.elf
architecture: nios2:r1, flags 0x00000112:
EXEC_P, HAS_SYMS, D_PAGED
start address 0x00000230

Program Header:
    LOAD off    0x00001000 vaddr 0x00000000 paddr 0x00000000 align 2**12
         filesz 0x00000020 memsz 0x00000020 flags r-x
    LOAD off    0x00001020 vaddr 0x00000020 paddr 0x00000020 align 2**12
         filesz 0x00012b68 memsz 0x00012b68 flags r-x
    LOAD off    0x00013b88 vaddr 0x00012b88 paddr 0x0001477c align 2**12
         filesz 0x00001bf4 memsz 0x00001bf4 flags rw-
    LOAD off    0x00016370 vaddr 0x00016370 paddr 0x00016370 align 2**12
         filesz 0x00000000 memsz 0x000001bc flags rw-

Sections:
Idx Name          Size      VMA       LMA       File off  Algn
  0 .entry        00000020  00000000  00000000  00001000  2**5
                  CONTENTS, ALLOC, LOAD, READONLY, CODE
  1 .exceptions   00000210  00000020  00000020  00001020  2**2
                  CONTENTS, ALLOC, LOAD, READONLY, CODE
  2 .text         000122fc  00000230  00000230  00001230  2**2
                  CONTENTS, ALLOC, LOAD, READONLY, CODE
  3 .rodata       0000065c  0001252c  0001252c  0001352c  2**2
                  CONTENTS, ALLOC, LOAD, READONLY, DATA
  4 .rwdata       00001bf4  00012b88  0001477c  00013b88  2**2
                  CONTENTS, ALLOC, LOAD, DATA, SMALL_DATA
  5 .bss          000001bc  00016370  00016370  00016370  2**2
                  ALLOC, SMALL_DATA
  6 .SDRAM        00000000  0001652c  0001652c  0001577c  2**0
                  CONTENTS
  7 .Onchip_SRAM  00000000  08000000  08000000  0001577c  2**0
                  CONTENTS
  8 .VGA_Subsystem_Char_Buf_Subsystem_Onchip_SRAM 00000000  09000000  09000000  0001577c  2**0
                  CONTENTS
  9 .comment      00000023  00000000  00000000  0001577c  2**0
                  CONTENTS, READONLY
 10 .debug_aranges 00000c58  00000000  00000000  000157a0  2**3
                  CONTENTS, READONLY, DEBUGGING
 11 .debug_info   00017c26  00000000  00000000  000163f8  2**0
                  CONTENTS, READONLY, DEBUGGING
 12 .debug_abbrev 000069a7  00000000  00000000  0002e01e  2**0
                  CONTENTS, READONLY, DEBUGGING
 13 .debug_line   00009ac6  00000000  00000000  000349c5  2**0
                  CONTENTS, READONLY, DEBUGGING
 14 .debug_frame  0000204c  00000000  00000000  0003e48c  2**2
                  CONTENTS, READONLY, DEBUGGING
 15 .debug_str    00003ad9  00000000  00000000  000404d8  2**0
                  CONTENTS, READONLY, DEBUGGING
 16 .debug_loc    00017157  00000000  00000000  00043fb1  2**0
                  CONTENTS, READONLY, DEBUGGING
 17 .debug_alt_sim_info 00000040  00000000  00000000  0005b108  2**2
                  CONTENTS, READONLY, DEBUGGING
 18 .debug_ranges 00001498  00000000  00000000  0005b148  2**3
                  CONTENTS, READONLY, DEBUGGING
 19 .thread_model 00000003  00000000  00000000  0005f876  2**0
                  CONTENTS, READONLY
 20 .cpu          00000005  00000000  00000000  0005f879  2**0
                  CONTENTS, READONLY
 21 .qsys         00000001  00000000  00000000  0005f87e  2**0
                  CONTENTS, READONLY
 22 .simulation_enabled 00000001  00000000  00000000  0005f87f  2**0
                  CONTENTS, READONLY
 23 .sysid_hash   00000004  00000000  00000000  0005f880  2**0
                  CONTENTS, READONLY
 24 .sysid_base   00000004  00000000  00000000  0005f884  2**0
                  CONTENTS, READONLY
 25 .sysid_time   00000004  00000000  00000000  0005f888  2**0
                  CONTENTS, READONLY
 26 .stderr_dev   00000009  00000000  00000000  0005f88c  2**0
                  CONTENTS, READONLY
 27 .stdin_dev    00000009  00000000  00000000  0005f895  2**0
                  CONTENTS, READONLY
 28 .stdout_dev   00000009  00000000  00000000  0005f89e  2**0
                  CONTENTS, READONLY
 29 .sopc_system_name 0000000f  00000000  00000000  0005f8a7  2**0
                  CONTENTS, READONLY
 30 .quartus_project_dir 00000055  00000000  00000000  0005f8b6  2**0
                  CONTENTS, READONLY
 31 .jdi          000080a5  00000000  00000000  0005f90b  2**0
                  CONTENTS, READONLY
 32 .sopcinfo     0010915a  00000000  00000000  000679b0  2**0
                  CONTENTS, READONLY
SYMBOL TABLE:
00000000 l    d  .entry	00000000 .entry
00000020 l    d  .exceptions	00000000 .exceptions
00000230 l    d  .text	00000000 .text
0001252c l    d  .rodata	00000000 .rodata
00012b88 l    d  .rwdata	00000000 .rwdata
00016370 l    d  .bss	00000000 .bss
0001652c l    d  .SDRAM	00000000 .SDRAM
08000000 l    d  .Onchip_SRAM	00000000 .Onchip_SRAM
09000000 l    d  .VGA_Subsystem_Char_Buf_Subsystem_Onchip_SRAM	00000000 .VGA_Subsystem_Char_Buf_Subsystem_Onchip_SRAM
00000000 l    d  .comment	00000000 .comment
00000000 l    d  .debug_aranges	00000000 .debug_aranges
00000000 l    d  .debug_info	00000000 .debug_info
00000000 l    d  .debug_abbrev	00000000 .debug_abbrev
00000000 l    d  .debug_line	00000000 .debug_line
00000000 l    d  .debug_frame	00000000 .debug_frame
00000000 l    d  .debug_str	00000000 .debug_str
00000000 l    d  .debug_loc	00000000 .debug_loc
00000000 l    d  .debug_alt_sim_info	00000000 .debug_alt_sim_info
00000000 l    d  .debug_ranges	00000000 .debug_ranges
00000000 l    df *ABS*	00000000 ../radar_final_bsp//obj/HAL/src/crt0.o
00000268 l       .text	00000000 alt_after_alt_main
00000000 l    df *ABS*	00000000 alt_irq_handler.c
00000000 l    df *ABS*	00000000 alt_instruction_exception_entry.c
00000000 l    df *ABS*	00000000 radar_final.c
0001252c l     O .rodata	0000000a SEG7_LUT
00016370 l     O .bss	00000004 res_offset
00016374 l     O .bss	00000004 col_offset
00016378 l     O .bss	00000004 cx
0001637c l     O .bss	00000004 cy
00016380 l     O .bss	00000004 radar_r
00016384 l     O .bss	00000004 angle_min
00014730 l     O .rwdata	00000004 angle_max
00014734 l     O .rwdata	00000004 step_deg
00014738 l     O .rwdata	00000004 dist_max_cm
00016388 l     O .bss	00000004 state
0001473c l     O .rwdata	00000004 stop_level_sw0
0000026c l     F .text	0000004c seg7
000002b8 l     F .text	000000b8 split3
00000370 l     F .text	00000054 clamp_u32
000003c4 l     F .text	00000054 pos_from_angle
00000418 l     F .text	0000007c cm_to_px
00000494 l     F .text	00000028 uart_status
000004bc l     F .text	00000054 uart_putchar
00000510 l     F .text	0000006c uart_puts
0000057c l     F .text	00000058 uart_getchar_blocking
000005d4 l     F .text	000000d8 uart_put_u32
000006ac l     F .text	00000060 is_space
0000070c l     F .text	0000004c up
00000758 l     F .text	0000003c sw0_level
00000794 l     F .text	00000034 msg_init
000007c8 l     F .text	00000034 reply_ok
000007fc l     F .text	00000034 reply_run
00000830 l     F .text	00000034 reply_stop
00000864 l     F .text	00000034 reply_err
00000898 l     F .text	00000034 reply_unknown
000008cc l     F .text	00000094 clear_char_buffer
00000960 l     F .text	00000090 video_text
000009f0 l     F .text	000000ac video_text_px
00000a9c l     F .text	000000f4 video_text_px_pad
00000b90 l     F .text	00000140 video_box
00000cd0 l     F .text	000000fc plot
00000dcc l     F .text	00000178 draw_line
00000f44 l     F .text	000001b0 draw_arc_cm
000010f4 l     F .text	00000090 draw_live_status
00001184 l     F .text	00000294 draw_range_labels
00001418 l     F .text	00000124 draw_static
0000153c l     F .text	00000088 print_help
000015c4 l     F .text	00000090 print_params
00001654 l     F .text	00000084 skip_spaces
000016d8 l     F .text	000000e0 parse_u32_adv
000017b8 l     F .text	00000174 is_run_cmd
0000192c l     F .text	00000190 is_help_cmd
00001abc l     F .text	000000f4 is_p_cmd
00001bb0 l     F .text	000002b0 handle_cmd_line
00001e60 l     F .text	000000dc cmd_wait_and_process
000163c4 l     O .bss	00000040 ln.3607
00001f3c l     F .text	00000090 init_hex_displays_zero
00001fcc l     F .text	000004e4 run_step
00000000 l    df *ABS*	00000000 s_cos.c
00000000 l    df *ABS*	00000000 s_sin.c
00000000 l    df *ABS*	00000000 e_rem_pio2.c
000126b8 l     O .rodata	00000108 two_over_pi
00012638 l     O .rodata	00000080 npio2_hw
00000000 l    df *ABS*	00000000 k_cos.c
00000000 l    df *ABS*	00000000 k_rem_pio2.c
00012800 l     O .rodata	00000010 init_jk
000127c0 l     O .rodata	00000040 PIo2
00000000 l    df *ABS*	00000000 k_sin.c
00000000 l    df *ABS*	00000000 s_fabs.c
00000000 l    df *ABS*	00000000 s_floor.c
00000000 l    df *ABS*	00000000 s_scalbn.c
00000000 l    df *ABS*	00000000 s_copysign.c
00000000 l    df *ABS*	00000000 lib2-divmod.c
00000000 l    df *ABS*	00000000 lib2-mul.c
00000000 l    df *ABS*	00000000 adddf3.c
00000000 l    df *ABS*	00000000 divdf3.c
00000000 l    df *ABS*	00000000 eqdf2.c
00000000 l    df *ABS*	00000000 gedf2.c
00000000 l    df *ABS*	00000000 muldf3.c
00000000 l    df *ABS*	00000000 subdf3.c
00000000 l    df *ABS*	00000000 fixdfsi.c
00000000 l    df *ABS*	00000000 floatsidf.c
00000000 l    df *ABS*	00000000 floatunsidf.c
00000000 l    df *ABS*	00000000 libgcc2.c
00000000 l    df *ABS*	00000000 libgcc2.c
00000000 l    df *ABS*	00000000 snprintf.c
00000000 l    df *ABS*	00000000 vfprintf.c
00012952 l     O .rodata	00000010 zeroes.4389
00012962 l     O .rodata	00000010 blanks.4388
00000000 l    df *ABS*	00000000 dtoa.c
0000959c l     F .text	00000228 quorem
00000000 l    df *ABS*	00000000 impure.c
00012b88 l     O .rwdata	00000424 impure_data
00000000 l    df *ABS*	00000000 locale.c
00012fcc l     O .rwdata	00000020 lc_ctype_charset
00012fac l     O .rwdata	00000020 lc_message_charset
00012fec l     O .rwdata	00000038 lconv
00000000 l    df *ABS*	00000000 mallocr.c
00000000 l    df *ABS*	00000000 memchr.c
00000000 l    df *ABS*	00000000 memcpy.c
00000000 l    df *ABS*	00000000 mprec.c
00012994 l     O .rodata	0000000c p05.2768
00000000 l    df *ABS*	00000000 s_fpclassify.c
00000000 l    df *ABS*	00000000 sbrkr.c
00000000 l    df *ABS*	00000000 strcmp.c
00000000 l    df *ABS*	00000000 strlen.c
00000000 l    df *ABS*	00000000 vfprintf.c
00012ab8 l     O .rodata	00000010 zeroes.4333
00012ac8 l     O .rodata	00000010 blanks.4332
00000000 l    df *ABS*	00000000 mallocr.c
00000000 l    df *ABS*	00000000 mallocr.c
00000000 l    df *ABS*	00000000 int_errno.c
00000000 l    df *ABS*	00000000 memmove.c
00000000 l    df *ABS*	00000000 memset.c
00000000 l    df *ABS*	00000000 mallocr.c
00000000 l    df *ABS*	00000000 libgcc2.c
00000000 l    df *ABS*	00000000 libgcc2.c
00000000 l    df *ABS*	00000000 ledf2.c
00000000 l    df *ABS*	00000000 alt_load.c
0000fb70 l     F .text	00000068 alt_load_section
00000000 l    df *ABS*	00000000 alt_main.c
00000000 l    df *ABS*	00000000 alt_malloc_lock.c
00000000 l    df *ABS*	00000000 alt_sbrk.c
00014754 l     O .rwdata	00000004 heap_end
00000000 l    df *ABS*	00000000 alt_usleep.c
00000000 l    df *ABS*	00000000 alt_sys_init.c
0000fe00 l     F .text	00000034 alt_dev_reg
0001342c l     O .rwdata	00001060 JTAG_UART
0001448c l     O .rwdata	0000005c VGA_Subsystem_Char_Buf_Subsystem_Char_Buf_DMA
000144e8 l     O .rwdata	0000005c VGA_Subsystem_VGA_Pixel_DMA
00014544 l     O .rwdata	00000044 VGA_Subsystem_VGA_Pixel_RGB_Resampler
00000000 l    df *ABS*	00000000 altera_avalon_jtag_uart_fd.c
00000000 l    df *ABS*	00000000 altera_avalon_jtag_uart_init.c
000106f4 l     F .text	0000020c altera_avalon_jtag_uart_irq
00010900 l     F .text	000000a0 altera_avalon_jtag_uart_timeout
00000000 l    df *ABS*	00000000 altera_avalon_jtag_uart_ioctl.c
00000000 l    df *ABS*	00000000 altera_avalon_jtag_uart_read.c
00000000 l    df *ABS*	00000000 altera_avalon_jtag_uart_write.c
00000000 l    df *ABS*	00000000 altera_avalon_timer_sc.c
00010f38 l     F .text	00000078 alt_avalon_timer_sc_irq
00000000 l    df *ABS*	00000000 alt_alarm_start.c
00000000 l    df *ABS*	00000000 alt_busy_sleep.c
00000000 l    df *ABS*	00000000 alt_close.c
000112b0 l     F .text	0000003c alt_get_errno
00000000 l    df *ABS*	00000000 alt_dcache_flush_all.c
00000000 l    df *ABS*	00000000 alt_dev.c
000113e4 l     F .text	0000002c alt_dev_null_write
00000000 l    df *ABS*	00000000 alt_dev_llist_insert.c
00011410 l     F .text	0000003c alt_get_errno
00000000 l    df *ABS*	00000000 alt_do_ctors.c
00000000 l    df *ABS*	00000000 alt_do_dtors.c
00000000 l    df *ABS*	00000000 alt_errno.c
00000000 l    df *ABS*	00000000 alt_icache_flush_all.c
00000000 l    df *ABS*	00000000 alt_iic.c
00000000 l    df *ABS*	00000000 alt_iic_isr_register.c
00000000 l    df *ABS*	00000000 alt_io_redirect.c
00011870 l     F .text	000000e4 alt_open_fd
00000000 l    df *ABS*	00000000 alt_irq_vars.c
00000000 l    df *ABS*	00000000 alt_open.c
000119d0 l     F .text	0000003c alt_get_errno
00011a0c l     F .text	000000ec alt_file_locked
00000000 l    df *ABS*	00000000 alt_release_fd.c
00000000 l    df *ABS*	00000000 alt_tick.c
00000000 l    df *ABS*	00000000 altera_nios2_gen2_irq.c
00000000 l    df *ABS*	00000000 alt_find_dev.c
00000000 l    df *ABS*	00000000 alt_find_file.c
00000000 l    df *ABS*	00000000 alt_get_fd.c
00000000 l    df *ABS*	00000000 atexit.c
00000000 l    df *ABS*	00000000 exit.c
00000000 l    df *ABS*	00000000 memcmp.c
00000000 l    df *ABS*	00000000 __atexit.c
00000000 l    df *ABS*	00000000 __call_atexit.c
00000000 l    df *ABS*	00000000 alt_exit.c
000163c0 g     O .bss	00000004 alt_instruction_exception_handler
0000c8a0 g     F .text	00000074 _mprec_log10
0000c98c g     F .text	0000008c __any_on
000129a0 g     O .rodata	00000028 __mprec_tinytens
0000fc5c g     F .text	0000007c alt_main
0001642c g     O .bss	00000100 alt_irq
000043e0 g     F .text	00000014 fabs
0001477c g       *ABS*	00000000 __flash_rwdata_start
00005bf0 g     F .text	00000088 .hidden __eqdf2
0001652c g       *ABS*	00000000 __alt_heap_start
0000ae4c g     F .text	0000007c _setlocale_r
0000fcfc g     F .text	00000024 __malloc_unlock
0000e6d4 g     F .text	0000015c memmove
000071fc g     F .text	000000e4 snprintf
0000b960 g     F .text	000000a8 _Balloc
00005c78 g     F .text	000000dc .hidden __gtdf2
00011e7c g     F .text	00000024 altera_nios2_gen2_irq_init
00000000 g     F .entry	0000000c __reset
00000020 g       *ABS*	00000000 __flash_exceptions_start
000163a4 g     O .bss	00000004 errno
000043f4 g     F .text	000001ec floor
0000ce24 g     F .text	000013a0 ___svfiprintf_internal_r
000163ac g     O .bss	00000004 alt_argv
0001c730 g       *ABS*	00000000 _gp
0000fdd0 g     F .text	00000030 usleep
000145b0 g     O .rwdata	00000180 alt_fd_list
0000276c g     F .text	0000076c __ieee754_rem_pio2
00011ea0 g     F .text	00000090 alt_find_dev
0000b818 g     F .text	00000148 memcpy
00006f3c g     F .text	000000dc .hidden __floatsidf
00011954 g     F .text	0000007c alt_io_redirect
0000fa7c g     F .text	000000f4 .hidden __ltdf2
0001252c g       *ABS*	00000000 __DTOR_END__
000120fc g     F .text	0000009c alt_exception_cause_generated_bad_addr
0000ca18 g     F .text	00000074 __fpclassifyd
0000c7fc g     F .text	000000a4 __ratio
00010af8 g     F .text	0000021c altera_avalon_jtag_uart_read
00004890 g     F .text	00000064 .hidden __udivsi3
000129f0 g     O .rodata	000000c8 __mprec_tens
0000aec8 g     F .text	0000000c __locale_charset
00002ed8 g     F .text	000004a4 __kernel_cos
000163a0 g     O .bss	00000004 __malloc_top_pad
00014748 g     O .rwdata	00000004 __mb_cur_max
0000aef8 g     F .text	0000000c _localeconv_r
0000bd94 g     F .text	0000003c __i2b
0000ca8c g     F .text	00000054 _sbrk_r
00014768 g     O .rwdata	00000004 alt_max_fd
0001639c g     O .bss	00000004 __malloc_max_sbrked_mem
00004114 g     F .text	000002cc __kernel_sin
00004974 g     F .text	000008ac .hidden __adddf3
0000c5a4 g     F .text	0000010c __b2d
0000f4b8 g     F .text	000005c4 .hidden __umoddi3
00014740 g     O .rwdata	00000004 _global_impure_ptr
0000e958 g     F .text	00000564 _realloc_r
0001652c g       *ABS*	00000000 __bss_end
00011780 g     F .text	000000f0 alt_iic_isr_register
00011d74 g     F .text	00000108 alt_tick
0000eebc g     F .text	000005fc .hidden __udivdi3
000129c8 g     O .rodata	00000028 __mprec_bigtens
0000bb78 g     F .text	00000104 __s2b
00007018 g     F .text	000000a8 .hidden __floatunsidf
0000c2e4 g     F .text	00000060 __mcmp
00011734 g     F .text	0000004c alt_ic_irq_enabled
00011cd8 g     F .text	0000009c alt_alarm_stop
000163b4 g     O .bss	00000004 alt_irq_active
000000fc g     F .exceptions	000000d4 alt_irq_handler
00014588 g     O .rwdata	00000028 alt_dev_null
0000337c g     F .text	00000d98 __kernel_rem_pio2
000113c4 g     F .text	00000020 alt_dcache_flush_all
0000bc7c g     F .text	00000068 __hi0bits
00006ebc g     F .text	00000080 .hidden __fixdfsi
0001477c g       *ABS*	00000000 __ram_rwdata_end
00014760 g     O .rwdata	00000008 alt_dev_list
00012b88 g       *ABS*	00000000 __ram_rodata_end
00000000 g       *ABS*	00000000 __alt_mem_SDRAM
0000fa7c g     F .text	000000f4 .hidden __ledf2
0000c05c g     F .text	00000140 __pow5mult
00016394 g     O .bss	00000004 __nlocale_changed
000048f4 g     F .text	00000058 .hidden __umodsi3
0001652c g       *ABS*	00000000 end
00010634 g     F .text	000000c0 altera_avalon_jtag_uart_init
000001d0 g     F .exceptions	00000060 alt_instruction_exception_entry
0001252c g       *ABS*	00000000 __CTOR_LIST__
04000000 g       *ABS*	00000000 __alt_stack_pointer
00010fb0 g     F .text	0000007c alt_avalon_timer_sc_init
000070c0 g     F .text	00000064 .hidden __clzsi2
00007124 g     F .text	000000d8 _snprintf_r
00010d14 g     F .text	00000224 altera_avalon_jtag_uart_write
00002590 g     F .text	000000ec cos
0000b734 g     F .text	000000e4 memchr
0000e3c4 g     F .text	00000310 _free_r
0000aed4 g     F .text	00000010 __locale_mb_cur_max
00012378 g     F .text	00000180 __call_exitprocs
00016390 g     O .bss	00000004 __mlocale_changed
0001474c g     O .rwdata	00000004 __malloc_sbrk_base
00000230 g     F .text	0000003c _start
000163b8 g     O .bss	00000004 _alt_tick_rate
0000267c g     F .text	000000f0 sin
0000c19c g     F .text	00000148 __lshift
000163bc g     O .bss	00000004 _alt_nticks
0000fe6c g     F .text	00000664 alt_sys_init
0000cc54 g     F .text	000001d0 __ssprint_r
00012260 g     F .text	00000118 __register_exitproc
0000bdd0 g     F .text	0000028c __multiply
000109a0 g     F .text	00000068 altera_avalon_jtag_uart_close
0000494c g     F .text	00000028 .hidden __mulsi3
00012b88 g       *ABS*	00000000 __ram_rwdata_start
0001252c g       *ABS*	00000000 __ram_rodata_start
00016404 g     O .bss	00000028 __malloc_current_mallinfo
0000c6b0 g     F .text	0000014c __d2b
000104d0 g     F .text	00000060 altera_avalon_jtag_uart_read_fd
00012038 g     F .text	000000c4 alt_get_fd
00011158 g     F .text	00000158 alt_busy_sleep
000121e4 g     F .text	0000007c memcmp
00010590 g     F .text	00000050 altera_avalon_jtag_uart_close_fd
0001652c g       *ABS*	00000000 __alt_stack_base
000105e0 g     F .text	00000054 altera_avalon_jtag_uart_ioctl_fd
00005220 g     F .text	000009d0 .hidden __divdf3
0000c914 g     F .text	00000078 __copybits
00013024 g     O .rwdata	00000408 __malloc_av_
00005d54 g     F .text	0000086c .hidden __muldf3
00011f30 g     F .text	00000108 alt_find_file
0001144c g     F .text	000000a4 alt_dev_llist_insert
0000fcd8 g     F .text	00000024 __malloc_lock
0000fd20 g     F .text	000000b0 sbrk
000072e0 g     F .text	000022bc ___svfprintf_internal_r
0000e1c4 g     F .text	000000dc _calloc_r
00016370 g       *ABS*	00000000 __bss_start
0000e830 g     F .text	00000128 memset
000024b0 g     F .text	000000e0 main
000163b0 g     O .bss	00000004 alt_envp
00016398 g     O .bss	00000004 __malloc_max_total_mem
00010530 g     F .text	00000060 altera_avalon_jtag_uart_write_fd
04000000 g       *ABS*	00000000 __alt_heap_limit
000097c4 g     F .text	00001688 _dtoa_r
0000af28 g     F .text	0000080c _malloc_r
0001476c g     O .rwdata	00000004 alt_errno
00004798 g     F .text	00000084 .hidden __divsi3
0000e2a0 g     F .text	00000124 _malloc_trim_r
0001252c g       *ABS*	00000000 __CTOR_END__
0000cae0 g     F .text	000000dc strcmp
0001252c g       *ABS*	00000000 __flash_rodata_start
0001252c g       *ABS*	00000000 __DTOR_LIST__
0000477c g     F .text	0000001c copysign
00005bf0 g     F .text	00000088 .hidden __nedf2
0000fe34 g     F .text	00000038 alt_irq_init
00011c54 g     F .text	00000084 alt_release_fd
00012810 g     O .rodata	00000100 .hidden __clz_tab
0001638c g     O .bss	00000004 _PathLocale
00012198 g     F .text	00000014 atexit
0000af04 g     F .text	00000018 setlocale
00014744 g     O .rwdata	00000004 _impure_ptr
000163a8 g     O .bss	00000004 alt_argc
000045e0 g     F .text	0000019c scalbn
00011550 g     F .text	00000060 _do_dtors
0000aef0 g     F .text	00000008 __locale_cjk_lang
09000000 g       *ABS*	00000000 __alt_mem_VGA_Subsystem_Char_Buf_Subsystem_Onchip_SRAM
00000020 g       .exceptions	00000000 alt_irq_entry
0000c540 g     F .text	00000064 __ulp
00014758 g     O .rwdata	00000008 alt_fs_list
00000020 g       *ABS*	00000000 __ram_exceptions_start
0000af1c g     F .text	0000000c localeconv
000115d0 g     F .text	00000050 alt_ic_isr_register
0001477c g       *ABS*	00000000 _edata
0001652c g       *ABS*	00000000 _end
00000230 g       *ABS*	00000000 __ram_exceptions_end
00010a08 g     F .text	000000f0 altera_avalon_jtag_uart_ioctl
08000000 g       *ABS*	00000000 __alt_mem_Onchip_SRAM
000116a8 g     F .text	0000008c alt_ic_irq_disable
00014750 g     O .rwdata	00000004 __malloc_trim_threshold
0000aee4 g     F .text	0000000c __locale_msgcharset
000121ac g     F .text	00000038 exit
0000c344 g     F .text	000001fc __mdiff
0000481c g     F .text	00000074 .hidden __modsi3
04000000 g       *ABS*	00000000 __alt_data_end
00000020 g     F .exceptions	00000000 alt_exception
000124f8 g     F .text	00000034 _exit
0001102c g     F .text	0000012c alt_alarm_start
0000cbbc g     F .text	00000098 strlen
00011af8 g     F .text	0000015c open
00005c78 g     F .text	000000dc .hidden __gedf2
000115b0 g     F .text	00000020 alt_icache_flush_all
00014770 g     O .rwdata	00000004 alt_priority_mask
00011620 g     F .text	00000088 alt_ic_irq_enable
000065c0 g     F .text	000008fc .hidden __subdf3
0000bce4 g     F .text	000000b0 __lo0bits
00014774 g     O .rwdata	00000008 alt_alarm_list
000114f0 g     F .text	00000060 _do_ctors
000112ec g     F .text	000000d8 close
0000fbd8 g     F .text	00000084 alt_load
0000ba30 g     F .text	00000148 __multadd
0000ba08 g     F .text	00000028 _Bfree



Disassembly of section .entry:

00000000 <__reset>:
 * Jump to the _start entry point in the .text section if reset code
 * is allowed or if optimizing for RTL simulation.
 */
#if defined(ALT_ALLOW_CODE_AT_RESET) || defined(ALT_SIM_OPTIMIZE)
    /* Jump to the _start entry point in the .text section. */
    movhi r1, %hi(_start)
   0:	00400034 	movhi	at,0
    ori r1, r1, %lo(_start)
   4:	08408c14 	ori	at,at,560
    jmp r1
   8:	0800683a 	jmp	at
	...

Disassembly of section .exceptions:

00000020 <alt_exception>:

#else /* ALT_EXCEPTION_STACK disabled */
        /* 
         * Reserve space on normal stack for registers about to be pushed.
         */
        addi  sp, sp, -76
  20:	deffed04 	addi	sp,sp,-76
         * documentation for details).
         *
         * Leave a gap in the stack frame at 4(sp) for the muldiv handler to
         * store zero into.
         */
        stw   ra,  0(sp)
  24:	dfc00015 	stw	ra,0(sp)
        stw   r1,   8(sp)
  28:	d8400215 	stw	at,8(sp)
        stw   r2,  12(sp)
  2c:	d8800315 	stw	r2,12(sp)
        stw   r3,  16(sp)
  30:	d8c00415 	stw	r3,16(sp)
        stw   r4,  20(sp)
  34:	d9000515 	stw	r4,20(sp)
        stw   r5,  24(sp)
  38:	d9400615 	stw	r5,24(sp)
        stw   r6,  28(sp)
  3c:	d9800715 	stw	r6,28(sp)
        stw   r7,  32(sp)
  40:	d9c00815 	stw	r7,32(sp)
        rdctl r5, estatus   /* Read early to avoid usage stall */
  44:	000b307a 	rdctl	r5,estatus
        stw   r8,  36(sp)
  48:	da000915 	stw	r8,36(sp)
        stw   r9,  40(sp)
  4c:	da400a15 	stw	r9,40(sp)
        stw   r10, 44(sp)
  50:	da800b15 	stw	r10,44(sp)
        stw   r11, 48(sp)
  54:	dac00c15 	stw	r11,48(sp)
        stw   r12, 52(sp)
  58:	db000d15 	stw	r12,52(sp)
        stw   r13, 56(sp)
  5c:	db400e15 	stw	r13,56(sp)
        stw   r14, 60(sp)
  60:	db800f15 	stw	r14,60(sp)
        stw   r15, 64(sp)
  64:	dbc01015 	stw	r15,64(sp)
        /*
         * ea-4 contains the address of the instruction being executed
         * when the exception occured. For interrupt exceptions, we will
         * will be re-issue the isntruction. Store it in 72(sp)
         */
        stw   r5,  68(sp)  /* estatus */
  68:	d9401115 	stw	r5,68(sp)
        addi  r15, ea, -4  /* instruction that caused exception */
  6c:	ebffff04 	addi	r15,ea,-4
        stw   r15,  72(sp)
  70:	dbc01215 	stw	r15,72(sp)
#else
        /*
         * Test to see if the exception was a software exception or caused 
         * by an external interrupt, and vector accordingly.
         */
        rdctl r4, ipending
  74:	0009313a 	rdctl	r4,ipending
        andi  r2, r5, 1
  78:	2880004c 	andi	r2,r5,1
        beq   r2, zero, .Lnot_irq
  7c:	10000326 	beq	r2,zero,8c <alt_exception+0x6c>
        beq   r4, zero, .Lnot_irq
  80:	20000226 	beq	r4,zero,8c <alt_exception+0x6c>
        /*
         * Now that all necessary registers have been preserved, call 
         * alt_irq_handler() to process the interrupts.
         */

        call alt_irq_handler
  84:	00000fc0 	call	fc <alt_irq_handler>

        .section .exceptions.irqreturn, "xa"

        br    .Lexception_exit
  88:	00000706 	br	a8 <alt_exception+0x88>
         * upon completion, so we write ea (address of instruction *after*
         * the one where the exception occured) into 72(sp). The actual
         * instruction that caused the exception is written in r2, which these
         * handlers will utilize.
         */
        stw ea, 72(sp) /* EA is PC+4 so will skip over instruction causing exception */
  8c:	df401215 	stw	ea,72(sp)
.Lunknown_16bit:
        addi.n r4, r4, 2 /* Need PC+2 to skip over instruction causing exception */
        stw r4, 72(sp)

#else /* CDX is not Enabled and all instructions are 32bits */
        ldw r2, -4(ea) /* Instruction value that caused exception */
  90:	e8bfff17 	ldw	r2,-4(ea)
         * debugger is present) or go into an infinite loop since the
         * handling behavior is undefined; in that case we will not return here.
         */

        /* Load exception-causing address as first argument (r4) */
        addi   r4, ea, -4
  94:	e93fff04 	addi	r4,ea,-4

        /* Call the instruction-exception entry */
        call   alt_instruction_exception_entry
  98:	00001d00 	call	1d0 <alt_instruction_exception_entry>
         * instruction
         *
         * Return code was 0: Skip. The instruction after the exception is
         * already stored in 72(sp).
         */
        bne   r2, r0, .Lexception_exit
  9c:	1000021e 	bne	r2,zero,a8 <alt_exception+0x88>

        /*
         * Otherwise, modify 72(sp) to re-issue the instruction that caused the
         * exception.
         */
        addi  r15, ea, -4  /* instruction that caused exception */
  a0:	ebffff04 	addi	r15,ea,-4
        stw   r15,  72(sp)
  a4:	dbc01215 	stw	r15,72(sp)
        /* 
         * Restore the saved registers, so that all general purpose registers 
         * have been restored to their state at the time the interrupt occured.
         */

        ldw   r5,  68(sp)
  a8:	d9401117 	ldw	r5,68(sp)
        ldw   ea,  72(sp)  /* This becomes the PC once eret is executed */
  ac:	df401217 	ldw	ea,72(sp)
        ldw   ra,   0(sp)
  b0:	dfc00017 	ldw	ra,0(sp)

        wrctl estatus, r5
  b4:	2801707a 	wrctl	estatus,r5

        ldw   r1,   8(sp)
  b8:	d8400217 	ldw	at,8(sp)
        ldw   r2,  12(sp)
  bc:	d8800317 	ldw	r2,12(sp)
        ldw   r3,  16(sp)
  c0:	d8c00417 	ldw	r3,16(sp)
        ldw   r4,  20(sp)
  c4:	d9000517 	ldw	r4,20(sp)
        ldw   r5,  24(sp)
  c8:	d9400617 	ldw	r5,24(sp)
        ldw   r6,  28(sp)
  cc:	d9800717 	ldw	r6,28(sp)
        ldw   r7,  32(sp)
  d0:	d9c00817 	ldw	r7,32(sp)

#if defined(ALT_EXCEPTION_STACK) && defined(ALT_STACK_CHECK)
        ldw   et, %gprel(alt_exception_old_stack_limit)(gp)
#endif

        ldw   r8,  36(sp)
  d4:	da000917 	ldw	r8,36(sp)
        ldw   r9,  40(sp)
  d8:	da400a17 	ldw	r9,40(sp)
        ldw   r10, 44(sp)
  dc:	da800b17 	ldw	r10,44(sp)
        ldw   r11, 48(sp)
  e0:	dac00c17 	ldw	r11,48(sp)
        ldw   r12, 52(sp)
  e4:	db000d17 	ldw	r12,52(sp)
        ldw   r13, 56(sp)
  e8:	db400e17 	ldw	r13,56(sp)
        ldw   r14, 60(sp)
  ec:	db800f17 	ldw	r14,60(sp)
        ldw   r15, 64(sp)
  f0:	dbc01017 	ldw	r15,64(sp)
        stw   et, %gprel(alt_stack_limit_value)(gp)
        stw   zero, %gprel(alt_exception_old_stack_limit)(gp)
#endif /* ALT_STACK_CHECK */
        ldw   sp,  76(sp)
#else /* ALT_EXCEPTION_STACK disabled */
        addi  sp, sp, 76
  f4:	dec01304 	addi	sp,sp,76

        /*
         * Return to the interrupted instruction.
         */

        eret
  f8:	ef80083a 	eret

000000fc <alt_irq_handler>:
 * instruction is present if the macro ALT_CI_INTERRUPT_VECTOR defined.
 */

void alt_irq_handler (void) __attribute__ ((section (".exceptions")));
void alt_irq_handler (void)
{
  fc:	defff904 	addi	sp,sp,-28
 100:	dfc00615 	stw	ra,24(sp)
 104:	df000515 	stw	fp,20(sp)
 108:	df000504 	addi	fp,sp,20
  
  /*
   * Notify the operating system that we are at interrupt level.
   */ 
  
  ALT_OS_INT_ENTER();
 10c:	0001883a 	nop
#ifndef NIOS2_EIC_PRESENT
static ALT_INLINE alt_u32 ALT_ALWAYS_INLINE alt_irq_pending (void)
{
  alt_u32 active;

  NIOS2_READ_IPENDING (active);
 110:	0005313a 	rdctl	r2,ipending
 114:	e0bffe15 	stw	r2,-8(fp)

  return active;
 118:	e0bffe17 	ldw	r2,-8(fp)
   * Consider the case where the high priority interupt is asserted during
   * the interrupt entry sequence for a lower priority interrupt to see why
   * this is the case.
   */

  active = alt_irq_pending ();
 11c:	e0bffb15 	stw	r2,-20(fp)

  do
  {
    i = 0;
 120:	e03ffd15 	stw	zero,-12(fp)
    mask = 1;
 124:	00800044 	movi	r2,1
 128:	e0bffc15 	stw	r2,-16(fp)
     * called to clear the interrupt condition.
     */

    do
    {
      if (active & mask)
 12c:	e0fffb17 	ldw	r3,-20(fp)
 130:	e0bffc17 	ldw	r2,-16(fp)
 134:	1884703a 	and	r2,r3,r2
 138:	10001426 	beq	r2,zero,18c <alt_irq_handler+0x90>
      { 
#ifdef ALT_ENHANCED_INTERRUPT_API_PRESENT
        alt_irq[i].handler(alt_irq[i].context); 
 13c:	00800074 	movhi	r2,1
 140:	10990b04 	addi	r2,r2,25644
 144:	e0fffd17 	ldw	r3,-12(fp)
 148:	180690fa 	slli	r3,r3,3
 14c:	10c5883a 	add	r2,r2,r3
 150:	10c00017 	ldw	r3,0(r2)
 154:	00800074 	movhi	r2,1
 158:	10990b04 	addi	r2,r2,25644
 15c:	e13ffd17 	ldw	r4,-12(fp)
 160:	200890fa 	slli	r4,r4,3
 164:	1105883a 	add	r2,r2,r4
 168:	10800104 	addi	r2,r2,4
 16c:	10800017 	ldw	r2,0(r2)
 170:	1009883a 	mov	r4,r2
 174:	183ee83a 	callr	r3
#else
        alt_irq[i].handler(alt_irq[i].context, i); 
#endif
        break;
 178:	0001883a 	nop
#ifndef NIOS2_EIC_PRESENT
static ALT_INLINE alt_u32 ALT_ALWAYS_INLINE alt_irq_pending (void)
{
  alt_u32 active;

  NIOS2_READ_IPENDING (active);
 17c:	0005313a 	rdctl	r2,ipending
 180:	e0bfff15 	stw	r2,-4(fp)

  return active;
 184:	e0bfff17 	ldw	r2,-4(fp)
 188:	00000706 	br	1a8 <alt_irq_handler+0xac>
      }
      mask <<= 1;
 18c:	e0bffc17 	ldw	r2,-16(fp)
 190:	1085883a 	add	r2,r2,r2
 194:	e0bffc15 	stw	r2,-16(fp)
      i++;
 198:	e0bffd17 	ldw	r2,-12(fp)
 19c:	10800044 	addi	r2,r2,1
 1a0:	e0bffd15 	stw	r2,-12(fp)

    } while (1);
 1a4:	003fe106 	br	12c <__alt_mem_VGA_Subsystem_Char_Buf_Subsystem_Onchip_SRAM+0xf700012c>

    active = alt_irq_pending ();
 1a8:	e0bffb15 	stw	r2,-20(fp)
    
  } while (active);
 1ac:	e0bffb17 	ldw	r2,-20(fp)
 1b0:	103fdb1e 	bne	r2,zero,120 <__alt_mem_VGA_Subsystem_Char_Buf_Subsystem_Onchip_SRAM+0xf7000120>

  /*
   * Notify the operating system that interrupt processing is complete.
   */ 

  ALT_OS_INT_EXIT();
 1b4:	0001883a 	nop
}
 1b8:	0001883a 	nop
 1bc:	e037883a 	mov	sp,fp
 1c0:	dfc00117 	ldw	ra,4(sp)
 1c4:	df000017 	ldw	fp,0(sp)
 1c8:	dec00204 	addi	sp,sp,8
 1cc:	f800283a 	ret

000001d0 <alt_instruction_exception_entry>:
 * that handler if it has been registered. Absent a handler, it will
 * break break or hang as discussed below.
 */
int 
alt_instruction_exception_entry (alt_u32 exception_pc)
{
 1d0:	defffb04 	addi	sp,sp,-20
 1d4:	dfc00415 	stw	ra,16(sp)
 1d8:	df000315 	stw	fp,12(sp)
 1dc:	df000304 	addi	fp,sp,12
 1e0:	e13fff15 	stw	r4,-4(fp)
  cause = ( (cause & NIOS2_EXCEPTION_REG_CAUSE_MASK) >>
              NIOS2_EXCEPTION_REG_CAUSE_OFST );

  NIOS2_READ_BADADDR(badaddr);
#else
  cause = NIOS2_EXCEPTION_CAUSE_NOT_PRESENT;
 1e4:	00bfffc4 	movi	r2,-1
 1e8:	e0bffd15 	stw	r2,-12(fp)
  badaddr = 0;
 1ec:	e03ffe15 	stw	zero,-8(fp)
#endif /* NIOS2_HAS_EXTRA_EXCEPTION_INFO */

  if(alt_instruction_exception_handler) {
 1f0:	d0a72417 	ldw	r2,-25456(gp)
 1f4:	10000726 	beq	r2,zero,214 <alt_instruction_exception_entry+0x44>
     * Call handler. Its return value indicates whether the exception-causing
     * instruction should be re-issued. The code that called us,
     * alt_eceptions_entry.S, will look at this value and adjust the ea
     * register as necessary
     */
    return alt_instruction_exception_handler(cause, exception_pc, badaddr);
 1f8:	d0a72417 	ldw	r2,-25456(gp)
 1fc:	e0fffd17 	ldw	r3,-12(fp)
 200:	e1bffe17 	ldw	r6,-8(fp)
 204:	e17fff17 	ldw	r5,-4(fp)
 208:	1809883a 	mov	r4,r3
 20c:	103ee83a 	callr	r2
 210:	00000206 	br	21c <alt_instruction_exception_entry+0x4c>
   *    (a peripheral which negates its interrupt output before its
   *    interrupt handler has been executed will cause spurious interrupts)
   */
  else {
#ifdef NIOS2_HAS_DEBUG_STUB
    NIOS2_BREAK();
 214:	003da03a 	break	0
      ;
#endif /* NIOS2_HAS_DEBUG_STUB */
  }

  /* We should not get here. Remove compiler warning. */
  return NIOS2_EXCEPTION_RETURN_REISSUE_INST;
 218:	0005883a 	mov	r2,zero
}
 21c:	e037883a 	mov	sp,fp
 220:	dfc00117 	ldw	ra,4(sp)
 224:	df000017 	ldw	fp,0(sp)
 228:	dec00204 	addi	sp,sp,8
 22c:	f800283a 	ret

Disassembly of section .text:

00000230 <_start>:

    /*
     * Now that the caches are initialized, set up the stack pointer and global pointer.
     * The values provided by the linker are assumed to be correctly aligned.
     */
    movhi sp, %hi(__alt_stack_pointer)
     230:	06c10034 	movhi	sp,1024
    ori sp, sp, %lo(__alt_stack_pointer)
     234:	dec00014 	ori	sp,sp,0
    movhi gp, %hi(_gp)
     238:	06800074 	movhi	gp,1
    ori gp, gp, %lo(_gp)
     23c:	d6b1cc14 	ori	gp,gp,50992
 */
#ifndef ALT_SIM_OPTIMIZE
    /* Log that the BSS is about to be cleared. */
    ALT_LOG_PUTS(alt_log_msg_bss)

    movhi r2, %hi(__bss_start)
     240:	00800074 	movhi	r2,1
    ori r2, r2, %lo(__bss_start)
     244:	1098dc14 	ori	r2,r2,25456

    movhi r3, %hi(__bss_end)
     248:	00c00074 	movhi	r3,1
    ori r3, r3, %lo(__bss_end)
     24c:	18d94b14 	ori	r3,r3,25900

    beq r2, r3, 1f
     250:	10c00326 	beq	r2,r3,260 <_start+0x30>

0:
    stw zero, (r2)
     254:	10000015 	stw	zero,0(r2)
    addi r2, r2, 4
     258:	10800104 	addi	r2,r2,4
    bltu r2, r3, 0b
     25c:	10fffd36 	bltu	r2,r3,254 <__alt_mem_VGA_Subsystem_Char_Buf_Subsystem_Onchip_SRAM+0xf7000254>
     * section aren't defined until alt_load() has been called).
     */
    mov   et, zero
#endif

    call alt_load
     260:	000fbd80 	call	fbd8 <alt_load>

    /* Log that alt_main is about to be called. */
    ALT_LOG_PUTS(alt_log_msg_alt_main)

    /* Call the C entry point. It should never return. */
    call alt_main
     264:	000fc5c0 	call	fc5c <alt_main>

00000268 <alt_after_alt_main>:

    /* Wait in infinite loop in case alt_main does return. */
alt_after_alt_main:
    br alt_after_alt_main
     268:	003fff06 	br	268 <__alt_mem_VGA_Subsystem_Char_Buf_Subsystem_Onchip_SRAM+0xf7000268>

0000026c <seg7>:
typedef enum { STATE_CMD = 0, STATE_RUN = 1 } radar_state_t;
static radar_state_t state = STATE_CMD;

static int stop_level_sw0 = 1;

static inline uint8_t seg7(uint8_t d) { return (d < 10u) ? SEG7_LUT[d] : 0u; }
     26c:	defffe04 	addi	sp,sp,-8
     270:	df000115 	stw	fp,4(sp)
     274:	df000104 	addi	fp,sp,4
     278:	2005883a 	mov	r2,r4
     27c:	e0bfff05 	stb	r2,-4(fp)
     280:	e0bfff03 	ldbu	r2,-4(fp)
     284:	108002a8 	cmpgeui	r2,r2,10
     288:	1000061e 	bne	r2,zero,2a4 <seg7+0x38>
     28c:	e0ffff03 	ldbu	r3,-4(fp)
     290:	00800074 	movhi	r2,1
     294:	10894b04 	addi	r2,r2,9516
     298:	10c5883a 	add	r2,r2,r3
     29c:	10800003 	ldbu	r2,0(r2)
     2a0:	00000106 	br	2a8 <seg7+0x3c>
     2a4:	0005883a 	mov	r2,zero
     2a8:	e037883a 	mov	sp,fp
     2ac:	df000017 	ldw	fp,0(sp)
     2b0:	dec00104 	addi	sp,sp,4
     2b4:	f800283a 	ret

000002b8 <split3>:

static inline void split3(uint32_t v, uint8_t *h, uint8_t *t, uint8_t *u)
{
     2b8:	defffa04 	addi	sp,sp,-24
     2bc:	dfc00515 	stw	ra,20(sp)
     2c0:	df000415 	stw	fp,16(sp)
     2c4:	df000404 	addi	fp,sp,16
     2c8:	e13ffc15 	stw	r4,-16(fp)
     2cc:	e17ffd15 	stw	r5,-12(fp)
     2d0:	e1bffe15 	stw	r6,-8(fp)
     2d4:	e1ffff15 	stw	r7,-4(fp)
    if (v > 999u) v = 999u;
     2d8:	e0bffc17 	ldw	r2,-16(fp)
     2dc:	1080fa30 	cmpltui	r2,r2,1000
     2e0:	1000021e 	bne	r2,zero,2ec <split3+0x34>
     2e4:	0080f9c4 	movi	r2,999
     2e8:	e0bffc15 	stw	r2,-16(fp)
    *u = (uint8_t)(v % 10u);
     2ec:	e0bffc17 	ldw	r2,-16(fp)
     2f0:	01400284 	movi	r5,10
     2f4:	1009883a 	mov	r4,r2
     2f8:	00048f40 	call	48f4 <__umodsi3>
     2fc:	1007883a 	mov	r3,r2
     300:	e0bfff17 	ldw	r2,-4(fp)
     304:	10c00005 	stb	r3,0(r2)
    *t = (uint8_t)((v / 10u) % 10u);
     308:	e0bffc17 	ldw	r2,-16(fp)
     30c:	01400284 	movi	r5,10
     310:	1009883a 	mov	r4,r2
     314:	00048900 	call	4890 <__udivsi3>
     318:	01400284 	movi	r5,10
     31c:	1009883a 	mov	r4,r2
     320:	00048f40 	call	48f4 <__umodsi3>
     324:	1007883a 	mov	r3,r2
     328:	e0bffe17 	ldw	r2,-8(fp)
     32c:	10c00005 	stb	r3,0(r2)
    *h = (uint8_t)((v / 100u) % 10u);
     330:	e0bffc17 	ldw	r2,-16(fp)
     334:	01401904 	movi	r5,100
     338:	1009883a 	mov	r4,r2
     33c:	00048900 	call	4890 <__udivsi3>
     340:	01400284 	movi	r5,10
     344:	1009883a 	mov	r4,r2
     348:	00048f40 	call	48f4 <__umodsi3>
     34c:	1007883a 	mov	r3,r2
     350:	e0bffd17 	ldw	r2,-12(fp)
     354:	10c00005 	stb	r3,0(r2)
}
     358:	0001883a 	nop
     35c:	e037883a 	mov	sp,fp
     360:	dfc00117 	ldw	ra,4(sp)
     364:	df000017 	ldw	fp,0(sp)
     368:	dec00204 	addi	sp,sp,8
     36c:	f800283a 	ret

00000370 <clamp_u32>:

static inline uint32_t clamp_u32(uint32_t v, uint32_t lo, uint32_t hi)
{
     370:	defffc04 	addi	sp,sp,-16
     374:	df000315 	stw	fp,12(sp)
     378:	df000304 	addi	fp,sp,12
     37c:	e13ffd15 	stw	r4,-12(fp)
     380:	e17ffe15 	stw	r5,-8(fp)
     384:	e1bfff15 	stw	r6,-4(fp)
    if (v < lo) return lo;
     388:	e0fffd17 	ldw	r3,-12(fp)
     38c:	e0bffe17 	ldw	r2,-8(fp)
     390:	1880022e 	bgeu	r3,r2,39c <clamp_u32+0x2c>
     394:	e0bffe17 	ldw	r2,-8(fp)
     398:	00000606 	br	3b4 <clamp_u32+0x44>
    if (v > hi) return hi;
     39c:	e0bffd17 	ldw	r2,-12(fp)
     3a0:	e0ffff17 	ldw	r3,-4(fp)
     3a4:	1880022e 	bgeu	r3,r2,3b0 <clamp_u32+0x40>
     3a8:	e0bfff17 	ldw	r2,-4(fp)
     3ac:	00000106 	br	3b4 <clamp_u32+0x44>
    return v;
     3b0:	e0bffd17 	ldw	r2,-12(fp)
}
     3b4:	e037883a 	mov	sp,fp
     3b8:	df000017 	ldw	fp,0(sp)
     3bc:	dec00104 	addi	sp,sp,4
     3c0:	f800283a 	ret

000003c4 <pos_from_angle>:

static inline uint32_t pos_from_angle(uint32_t a)
{
     3c4:	defffd04 	addi	sp,sp,-12
     3c8:	dfc00215 	stw	ra,8(sp)
     3cc:	df000115 	stw	fp,4(sp)
     3d0:	df000104 	addi	fp,sp,4
     3d4:	e13fff15 	stw	r4,-4(fp)
    a = clamp_u32(a, 0u, 180u);
     3d8:	01802d04 	movi	r6,180
     3dc:	000b883a 	mov	r5,zero
     3e0:	e13fff17 	ldw	r4,-4(fp)
     3e4:	00003700 	call	370 <clamp_u32>
     3e8:	e0bfff15 	stw	r2,-4(fp)
    return (a * 1023u) / 180u;
     3ec:	0140ffc4 	movi	r5,1023
     3f0:	e13fff17 	ldw	r4,-4(fp)
     3f4:	000494c0 	call	494c <__mulsi3>
     3f8:	01402d04 	movi	r5,180
     3fc:	1009883a 	mov	r4,r2
     400:	00048900 	call	4890 <__udivsi3>
}
     404:	e037883a 	mov	sp,fp
     408:	dfc00117 	ldw	ra,4(sp)
     40c:	df000017 	ldw	fp,0(sp)
     410:	dec00204 	addi	sp,sp,8
     414:	f800283a 	ret

00000418 <cm_to_px>:

static inline int cm_to_px(int cm)
{
     418:	defffc04 	addi	sp,sp,-16
     41c:	dfc00315 	stw	ra,12(sp)
     420:	df000215 	stw	fp,8(sp)
     424:	df000204 	addi	fp,sp,8
     428:	e13fff15 	stw	r4,-4(fp)
    if (cm < 0) cm = 0;
     42c:	e0bfff17 	ldw	r2,-4(fp)
     430:	1000010e 	bge	r2,zero,438 <cm_to_px+0x20>
     434:	e03fff15 	stw	zero,-4(fp)
    int m = (int)dist_max_cm;
     438:	d0a00217 	ldw	r2,-32760(gp)
     43c:	e0bffe15 	stw	r2,-8(fp)
    if (m < 1) m = 1;
     440:	e0bffe17 	ldw	r2,-8(fp)
     444:	00800216 	blt	zero,r2,450 <cm_to_px+0x38>
     448:	00800044 	movi	r2,1
     44c:	e0bffe15 	stw	r2,-8(fp)
    if (cm > m) cm = m;
     450:	e0bfff17 	ldw	r2,-4(fp)
     454:	e0fffe17 	ldw	r3,-8(fp)
     458:	1880020e 	bge	r3,r2,464 <cm_to_px+0x4c>
     45c:	e0bffe17 	ldw	r2,-8(fp)
     460:	e0bfff15 	stw	r2,-4(fp)
    return (cm * radar_r) / m;
     464:	d0a71417 	ldw	r2,-25520(gp)
     468:	e17fff17 	ldw	r5,-4(fp)
     46c:	1009883a 	mov	r4,r2
     470:	000494c0 	call	494c <__mulsi3>
     474:	e17ffe17 	ldw	r5,-8(fp)
     478:	1009883a 	mov	r4,r2
     47c:	00047980 	call	4798 <__divsi3>
}
     480:	e037883a 	mov	sp,fp
     484:	dfc00117 	ldw	ra,4(sp)
     488:	df000017 	ldw	fp,0(sp)
     48c:	dec00204 	addi	sp,sp,8
     490:	f800283a 	ret

00000494 <uart_status>:

static inline uint32_t uart_status(void)
{
     494:	deffff04 	addi	sp,sp,-4
     498:	df000015 	stw	fp,0(sp)
     49c:	d839883a 	mov	fp,sp
    return IORD_32DIRECT(UART_0_BASE, UART_STATUS_OFFSET);
     4a0:	00810034 	movhi	r2,1024
     4a4:	10800504 	addi	r2,r2,20
     4a8:	10800037 	ldwio	r2,0(r2)
}
     4ac:	e037883a 	mov	sp,fp
     4b0:	df000017 	ldw	fp,0(sp)
     4b4:	dec00104 	addi	sp,sp,4
     4b8:	f800283a 	ret

000004bc <uart_putchar>:

static void uart_putchar(char c)
{
     4bc:	defffd04 	addi	sp,sp,-12
     4c0:	dfc00215 	stw	ra,8(sp)
     4c4:	df000115 	stw	fp,4(sp)
     4c8:	df000104 	addi	fp,sp,4
     4cc:	2005883a 	mov	r2,r4
     4d0:	e0bfff05 	stb	r2,-4(fp)
    while (uart_status() & UART_TX_BUSY) { }
     4d4:	0001883a 	nop
     4d8:	00004940 	call	494 <uart_status>
     4dc:	1080008c 	andi	r2,r2,2
     4e0:	103ffd1e 	bne	r2,zero,4d8 <__alt_mem_VGA_Subsystem_Char_Buf_Subsystem_Onchip_SRAM+0xf70004d8>
    IOWR_32DIRECT(UART_0_BASE, UART_DATA_OFFSET, (uint32_t)(uint8_t)c);
     4e4:	e0bfff03 	ldbu	r2,-4(fp)
     4e8:	10c03fcc 	andi	r3,r2,255
     4ec:	00810034 	movhi	r2,1024
     4f0:	10800404 	addi	r2,r2,16
     4f4:	10c00035 	stwio	r3,0(r2)
}
     4f8:	0001883a 	nop
     4fc:	e037883a 	mov	sp,fp
     500:	dfc00117 	ldw	ra,4(sp)
     504:	df000017 	ldw	fp,0(sp)
     508:	dec00204 	addi	sp,sp,8
     50c:	f800283a 	ret

00000510 <uart_puts>:

static void uart_puts(const char *s)
{
     510:	defffd04 	addi	sp,sp,-12
     514:	dfc00215 	stw	ra,8(sp)
     518:	df000115 	stw	fp,4(sp)
     51c:	df000104 	addi	fp,sp,4
     520:	e13fff15 	stw	r4,-4(fp)
    while (*s) uart_putchar(*s++);
     524:	00000906 	br	54c <uart_puts+0x3c>
     528:	e0bfff17 	ldw	r2,-4(fp)
     52c:	10c00044 	addi	r3,r2,1
     530:	e0ffff15 	stw	r3,-4(fp)
     534:	10800003 	ldbu	r2,0(r2)
     538:	10803fcc 	andi	r2,r2,255
     53c:	1080201c 	xori	r2,r2,128
     540:	10bfe004 	addi	r2,r2,-128
     544:	1009883a 	mov	r4,r2
     548:	00004bc0 	call	4bc <uart_putchar>
     54c:	e0bfff17 	ldw	r2,-4(fp)
     550:	10800003 	ldbu	r2,0(r2)
     554:	10803fcc 	andi	r2,r2,255
     558:	1080201c 	xori	r2,r2,128
     55c:	10bfe004 	addi	r2,r2,-128
     560:	103ff11e 	bne	r2,zero,528 <__alt_mem_VGA_Subsystem_Char_Buf_Subsystem_Onchip_SRAM+0xf7000528>
}
     564:	0001883a 	nop
     568:	e037883a 	mov	sp,fp
     56c:	dfc00117 	ldw	ra,4(sp)
     570:	df000017 	ldw	fp,0(sp)
     574:	dec00204 	addi	sp,sp,8
     578:	f800283a 	ret

0000057c <uart_getchar_blocking>:

static char uart_getchar_blocking(void)
{
     57c:	defffd04 	addi	sp,sp,-12
     580:	dfc00215 	stw	ra,8(sp)
     584:	df000115 	stw	fp,4(sp)
     588:	df000104 	addi	fp,sp,4
    while ((uart_status() & UART_RX_VALID) == 0u) { }
     58c:	0001883a 	nop
     590:	00004940 	call	494 <uart_status>
     594:	1080004c 	andi	r2,r2,1
     598:	103ffd26 	beq	r2,zero,590 <__alt_mem_VGA_Subsystem_Char_Buf_Subsystem_Onchip_SRAM+0xf7000590>
    char c = (char)(IORD_32DIRECT(UART_0_BASE, UART_DATA_OFFSET) & 0xFFu);
     59c:	00810034 	movhi	r2,1024
     5a0:	10800404 	addi	r2,r2,16
     5a4:	10800037 	ldwio	r2,0(r2)
     5a8:	e0bfff05 	stb	r2,-4(fp)
    IOWR_32DIRECT(UART_0_BASE, UART_STATUS_OFFSET, UART_RX_ACK);
     5ac:	00c00044 	movi	r3,1
     5b0:	00810034 	movhi	r2,1024
     5b4:	10800504 	addi	r2,r2,20
     5b8:	10c00035 	stwio	r3,0(r2)
    return c;
     5bc:	e0bfff03 	ldbu	r2,-4(fp)
}
     5c0:	e037883a 	mov	sp,fp
     5c4:	dfc00117 	ldw	ra,4(sp)
     5c8:	df000017 	ldw	fp,0(sp)
     5cc:	dec00204 	addi	sp,sp,8
     5d0:	f800283a 	ret

000005d4 <uart_put_u32>:

static void uart_put_u32(uint32_t v)
{
     5d4:	defff804 	addi	sp,sp,-32
     5d8:	dfc00715 	stw	ra,28(sp)
     5dc:	df000615 	stw	fp,24(sp)
     5e0:	dc000515 	stw	r16,20(sp)
     5e4:	df000604 	addi	fp,sp,24
     5e8:	e13ffe15 	stw	r4,-8(fp)
    char buf[11];
    int i = 0;
     5ec:	e03ffa15 	stw	zero,-24(fp)
    if (v == 0u) { uart_putchar('0'); return; }
     5f0:	e0bffe17 	ldw	r2,-8(fp)
     5f4:	1000141e 	bne	r2,zero,648 <uart_put_u32+0x74>
     5f8:	01000c04 	movi	r4,48
     5fc:	00004bc0 	call	4bc <uart_putchar>
     600:	00002406 	br	694 <uart_put_u32+0xc0>
    while (v && i < 10) {
        buf[i++] = (char)('0' + (v % 10u));
     604:	e43ffa17 	ldw	r16,-24(fp)
     608:	80800044 	addi	r2,r16,1
     60c:	e0bffa15 	stw	r2,-24(fp)
     610:	e0bffe17 	ldw	r2,-8(fp)
     614:	01400284 	movi	r5,10
     618:	1009883a 	mov	r4,r2
     61c:	00048f40 	call	48f4 <__umodsi3>
     620:	10800c04 	addi	r2,r2,48
     624:	1007883a 	mov	r3,r2
     628:	e0bffb04 	addi	r2,fp,-20
     62c:	1405883a 	add	r2,r2,r16
     630:	10c00005 	stb	r3,0(r2)
        v /= 10u;
     634:	e0bffe17 	ldw	r2,-8(fp)
     638:	01400284 	movi	r5,10
     63c:	1009883a 	mov	r4,r2
     640:	00048900 	call	4890 <__udivsi3>
     644:	e0bffe15 	stw	r2,-8(fp)
static void uart_put_u32(uint32_t v)
{
    char buf[11];
    int i = 0;
    if (v == 0u) { uart_putchar('0'); return; }
    while (v && i < 10) {
     648:	e0bffe17 	ldw	r2,-8(fp)
     64c:	10000d26 	beq	r2,zero,684 <uart_put_u32+0xb0>
     650:	e0bffa17 	ldw	r2,-24(fp)
     654:	10800290 	cmplti	r2,r2,10
     658:	103fea1e 	bne	r2,zero,604 <__alt_mem_VGA_Subsystem_Char_Buf_Subsystem_Onchip_SRAM+0xf7000604>
        buf[i++] = (char)('0' + (v % 10u));
        v /= 10u;
    }
    while (i--) uart_putchar(buf[i]);
     65c:	00000906 	br	684 <uart_put_u32+0xb0>
     660:	e0fffb04 	addi	r3,fp,-20
     664:	e0bffa17 	ldw	r2,-24(fp)
     668:	1885883a 	add	r2,r3,r2
     66c:	10800003 	ldbu	r2,0(r2)
     670:	10803fcc 	andi	r2,r2,255
     674:	1080201c 	xori	r2,r2,128
     678:	10bfe004 	addi	r2,r2,-128
     67c:	1009883a 	mov	r4,r2
     680:	00004bc0 	call	4bc <uart_putchar>
     684:	e0bffa17 	ldw	r2,-24(fp)
     688:	10ffffc4 	addi	r3,r2,-1
     68c:	e0fffa15 	stw	r3,-24(fp)
     690:	103ff31e 	bne	r2,zero,660 <__alt_mem_VGA_Subsystem_Char_Buf_Subsystem_Onchip_SRAM+0xf7000660>
}
     694:	e6ffff04 	addi	sp,fp,-4
     698:	dfc00217 	ldw	ra,8(sp)
     69c:	df000117 	ldw	fp,4(sp)
     6a0:	dc000017 	ldw	r16,0(sp)
     6a4:	dec00304 	addi	sp,sp,12
     6a8:	f800283a 	ret

000006ac <is_space>:

static int is_space(char c)
{
     6ac:	defffe04 	addi	sp,sp,-8
     6b0:	df000115 	stw	fp,4(sp)
     6b4:	df000104 	addi	fp,sp,4
     6b8:	2005883a 	mov	r2,r4
     6bc:	e0bfff05 	stb	r2,-4(fp)
    return (c == ' ' || c == '\t' || c == '\r' || c == '\n');
     6c0:	e0bfff07 	ldb	r2,-4(fp)
     6c4:	10800820 	cmpeqi	r2,r2,32
     6c8:	1000091e 	bne	r2,zero,6f0 <is_space+0x44>
     6cc:	e0bfff07 	ldb	r2,-4(fp)
     6d0:	10800260 	cmpeqi	r2,r2,9
     6d4:	1000061e 	bne	r2,zero,6f0 <is_space+0x44>
     6d8:	e0bfff07 	ldb	r2,-4(fp)
     6dc:	10800360 	cmpeqi	r2,r2,13
     6e0:	1000031e 	bne	r2,zero,6f0 <is_space+0x44>
     6e4:	e0bfff07 	ldb	r2,-4(fp)
     6e8:	10800298 	cmpnei	r2,r2,10
     6ec:	1000021e 	bne	r2,zero,6f8 <is_space+0x4c>
     6f0:	00800044 	movi	r2,1
     6f4:	00000106 	br	6fc <is_space+0x50>
     6f8:	0005883a 	mov	r2,zero
}
     6fc:	e037883a 	mov	sp,fp
     700:	df000017 	ldw	fp,0(sp)
     704:	dec00104 	addi	sp,sp,4
     708:	f800283a 	ret

0000070c <up>:

static char up(char c)
{
     70c:	defffe04 	addi	sp,sp,-8
     710:	df000115 	stw	fp,4(sp)
     714:	df000104 	addi	fp,sp,4
     718:	2005883a 	mov	r2,r4
     71c:	e0bfff05 	stb	r2,-4(fp)
    if (c >= 'a' && c <= 'z') return (char)(c - 'a' + 'A');
     720:	e0bfff07 	ldb	r2,-4(fp)
     724:	10801850 	cmplti	r2,r2,97
     728:	1000061e 	bne	r2,zero,744 <up+0x38>
     72c:	e0bfff07 	ldb	r2,-4(fp)
     730:	10801ec8 	cmpgei	r2,r2,123
     734:	1000031e 	bne	r2,zero,744 <up+0x38>
     738:	e0bfff03 	ldbu	r2,-4(fp)
     73c:	10bff804 	addi	r2,r2,-32
     740:	00000106 	br	748 <up+0x3c>
    return c;
     744:	e0bfff03 	ldbu	r2,-4(fp)
}
     748:	e037883a 	mov	sp,fp
     74c:	df000017 	ldw	fp,0(sp)
     750:	dec00104 	addi	sp,sp,4
     754:	f800283a 	ret

00000758 <sw0_level>:

static inline int sw0_level(void)
{
     758:	defffe04 	addi	sp,sp,-8
     75c:	df000115 	stw	fp,4(sp)
     760:	df000104 	addi	fp,sp,4
    uint32_t sw = IORD_32DIRECT(SLIDER_SWITCHES_BASE, 0);
     764:	00bfc834 	movhi	r2,65312
     768:	10801004 	addi	r2,r2,64
     76c:	10800037 	ldwio	r2,0(r2)
     770:	e0bfff15 	stw	r2,-4(fp)
    return ((sw & 0x1u) != 0u);
     774:	e0bfff17 	ldw	r2,-4(fp)
     778:	1080004c 	andi	r2,r2,1
     77c:	1004c03a 	cmpne	r2,r2,zero
     780:	10803fcc 	andi	r2,r2,255
}
     784:	e037883a 	mov	sp,fp
     788:	df000017 	ldw	fp,0(sp)
     78c:	dec00104 	addi	sp,sp,4
     790:	f800283a 	ret

00000794 <msg_init>:

static void msg_init(void) { uart_puts("Radar ready. Use HELP.\r\n"); }
     794:	defffe04 	addi	sp,sp,-8
     798:	dfc00115 	stw	ra,4(sp)
     79c:	df000015 	stw	fp,0(sp)
     7a0:	d839883a 	mov	fp,sp
     7a4:	01000074 	movhi	r4,1
     7a8:	21094e04 	addi	r4,r4,9528
     7ac:	00005100 	call	510 <uart_puts>
     7b0:	0001883a 	nop
     7b4:	e037883a 	mov	sp,fp
     7b8:	dfc00117 	ldw	ra,4(sp)
     7bc:	df000017 	ldw	fp,0(sp)
     7c0:	dec00204 	addi	sp,sp,8
     7c4:	f800283a 	ret

000007c8 <reply_ok>:
static void reply_ok(void) { uart_puts("OK\r\n"); }
     7c8:	defffe04 	addi	sp,sp,-8
     7cc:	dfc00115 	stw	ra,4(sp)
     7d0:	df000015 	stw	fp,0(sp)
     7d4:	d839883a 	mov	fp,sp
     7d8:	01000074 	movhi	r4,1
     7dc:	21095504 	addi	r4,r4,9556
     7e0:	00005100 	call	510 <uart_puts>
     7e4:	0001883a 	nop
     7e8:	e037883a 	mov	sp,fp
     7ec:	dfc00117 	ldw	ra,4(sp)
     7f0:	df000017 	ldw	fp,0(sp)
     7f4:	dec00204 	addi	sp,sp,8
     7f8:	f800283a 	ret

000007fc <reply_run>:
static void reply_run(void) { uart_puts("RUN\r\n"); }
     7fc:	defffe04 	addi	sp,sp,-8
     800:	dfc00115 	stw	ra,4(sp)
     804:	df000015 	stw	fp,0(sp)
     808:	d839883a 	mov	fp,sp
     80c:	01000074 	movhi	r4,1
     810:	21095704 	addi	r4,r4,9564
     814:	00005100 	call	510 <uart_puts>
     818:	0001883a 	nop
     81c:	e037883a 	mov	sp,fp
     820:	dfc00117 	ldw	ra,4(sp)
     824:	df000017 	ldw	fp,0(sp)
     828:	dec00204 	addi	sp,sp,8
     82c:	f800283a 	ret

00000830 <reply_stop>:
static void reply_stop(void) { uart_puts("STOP\r\n"); }
     830:	defffe04 	addi	sp,sp,-8
     834:	dfc00115 	stw	ra,4(sp)
     838:	df000015 	stw	fp,0(sp)
     83c:	d839883a 	mov	fp,sp
     840:	01000074 	movhi	r4,1
     844:	21095904 	addi	r4,r4,9572
     848:	00005100 	call	510 <uart_puts>
     84c:	0001883a 	nop
     850:	e037883a 	mov	sp,fp
     854:	dfc00117 	ldw	ra,4(sp)
     858:	df000017 	ldw	fp,0(sp)
     85c:	dec00204 	addi	sp,sp,8
     860:	f800283a 	ret

00000864 <reply_err>:
static void reply_err(void) { uart_puts("ERR\r\n"); }
     864:	defffe04 	addi	sp,sp,-8
     868:	dfc00115 	stw	ra,4(sp)
     86c:	df000015 	stw	fp,0(sp)
     870:	d839883a 	mov	fp,sp
     874:	01000074 	movhi	r4,1
     878:	21095b04 	addi	r4,r4,9580
     87c:	00005100 	call	510 <uart_puts>
     880:	0001883a 	nop
     884:	e037883a 	mov	sp,fp
     888:	dfc00117 	ldw	ra,4(sp)
     88c:	df000017 	ldw	fp,0(sp)
     890:	dec00204 	addi	sp,sp,8
     894:	f800283a 	ret

00000898 <reply_unknown>:
static void reply_unknown(void) { uart_puts("UNKNOWN\r\n"); }
     898:	defffe04 	addi	sp,sp,-8
     89c:	dfc00115 	stw	ra,4(sp)
     8a0:	df000015 	stw	fp,0(sp)
     8a4:	d839883a 	mov	fp,sp
     8a8:	01000074 	movhi	r4,1
     8ac:	21095d04 	addi	r4,r4,9588
     8b0:	00005100 	call	510 <uart_puts>
     8b4:	0001883a 	nop
     8b8:	e037883a 	mov	sp,fp
     8bc:	dfc00117 	ldw	ra,4(sp)
     8c0:	df000017 	ldw	fp,0(sp)
     8c4:	dec00204 	addi	sp,sp,8
     8c8:	f800283a 	ret

000008cc <clear_char_buffer>:

static void clear_char_buffer(void)
{
     8cc:	defffb04 	addi	sp,sp,-20
     8d0:	df000415 	stw	fp,16(sp)
     8d4:	df000404 	addi	fp,sp,16
    volatile char *cb = (volatile char *)CHAR_BUF_BASE;
     8d8:	00824034 	movhi	r2,2304
     8dc:	e0bffe15 	stw	r2,-8(fp)
    for (int y = 0; y < 60; y++) {
     8e0:	e03ffc15 	stw	zero,-16(fp)
     8e4:	00001606 	br	940 <clear_char_buffer+0x74>
        int off = (y << 7);
     8e8:	e0bffc17 	ldw	r2,-16(fp)
     8ec:	100491fa 	slli	r2,r2,7
     8f0:	e0bfff15 	stw	r2,-4(fp)
        for (int x = 0; x < 128; x++) cb[off + x] = ' ';
     8f4:	e03ffd15 	stw	zero,-12(fp)
     8f8:	00000b06 	br	928 <clear_char_buffer+0x5c>
     8fc:	e0ffff17 	ldw	r3,-4(fp)
     900:	e0bffd17 	ldw	r2,-12(fp)
     904:	1885883a 	add	r2,r3,r2
     908:	1007883a 	mov	r3,r2
     90c:	e0bffe17 	ldw	r2,-8(fp)
     910:	10c5883a 	add	r2,r2,r3
     914:	00c00804 	movi	r3,32
     918:	10c00005 	stb	r3,0(r2)
     91c:	e0bffd17 	ldw	r2,-12(fp)
     920:	10800044 	addi	r2,r2,1
     924:	e0bffd15 	stw	r2,-12(fp)
     928:	e0bffd17 	ldw	r2,-12(fp)
     92c:	10802010 	cmplti	r2,r2,128
     930:	103ff21e 	bne	r2,zero,8fc <__alt_mem_VGA_Subsystem_Char_Buf_Subsystem_Onchip_SRAM+0xf70008fc>
static void reply_unknown(void) { uart_puts("UNKNOWN\r\n"); }

static void clear_char_buffer(void)
{
    volatile char *cb = (volatile char *)CHAR_BUF_BASE;
    for (int y = 0; y < 60; y++) {
     934:	e0bffc17 	ldw	r2,-16(fp)
     938:	10800044 	addi	r2,r2,1
     93c:	e0bffc15 	stw	r2,-16(fp)
     940:	e0bffc17 	ldw	r2,-16(fp)
     944:	10800f10 	cmplti	r2,r2,60
     948:	103fe71e 	bne	r2,zero,8e8 <__alt_mem_VGA_Subsystem_Char_Buf_Subsystem_Onchip_SRAM+0xf70008e8>
        int off = (y << 7);
        for (int x = 0; x < 128; x++) cb[off + x] = ' ';
    }
}
     94c:	0001883a 	nop
     950:	e037883a 	mov	sp,fp
     954:	df000017 	ldw	fp,0(sp)
     958:	dec00104 	addi	sp,sp,4
     95c:	f800283a 	ret

00000960 <video_text>:

static void video_text(int x, int y, const char *text)
{
     960:	defffa04 	addi	sp,sp,-24
     964:	df000515 	stw	fp,20(sp)
     968:	df000504 	addi	fp,sp,20
     96c:	e13ffd15 	stw	r4,-12(fp)
     970:	e17ffe15 	stw	r5,-8(fp)
     974:	e1bfff15 	stw	r6,-4(fp)
    volatile char *cb = (volatile char *)CHAR_BUF_BASE;
     978:	00824034 	movhi	r2,2304
     97c:	e0bffc15 	stw	r2,-16(fp)
    int off = (y << 7) + x; // 128 colunas (stride 128)
     980:	e0bffe17 	ldw	r2,-8(fp)
     984:	100691fa 	slli	r3,r2,7
     988:	e0bffd17 	ldw	r2,-12(fp)
     98c:	1885883a 	add	r2,r3,r2
     990:	e0bffb15 	stw	r2,-20(fp)

    while (*text) {
     994:	00000b06 	br	9c4 <video_text+0x64>
        cb[off++] = *text++;
     998:	e0bffb17 	ldw	r2,-20(fp)
     99c:	10c00044 	addi	r3,r2,1
     9a0:	e0fffb15 	stw	r3,-20(fp)
     9a4:	1007883a 	mov	r3,r2
     9a8:	e0bffc17 	ldw	r2,-16(fp)
     9ac:	10c7883a 	add	r3,r2,r3
     9b0:	e0bfff17 	ldw	r2,-4(fp)
     9b4:	11000044 	addi	r4,r2,1
     9b8:	e13fff15 	stw	r4,-4(fp)
     9bc:	10800003 	ldbu	r2,0(r2)
     9c0:	18800005 	stb	r2,0(r3)
static void video_text(int x, int y, const char *text)
{
    volatile char *cb = (volatile char *)CHAR_BUF_BASE;
    int off = (y << 7) + x; // 128 colunas (stride 128)

    while (*text) {
     9c4:	e0bfff17 	ldw	r2,-4(fp)
     9c8:	10800003 	ldbu	r2,0(r2)
     9cc:	10803fcc 	andi	r2,r2,255
     9d0:	1080201c 	xori	r2,r2,128
     9d4:	10bfe004 	addi	r2,r2,-128
     9d8:	103fef1e 	bne	r2,zero,998 <__alt_mem_VGA_Subsystem_Char_Buf_Subsystem_Onchip_SRAM+0xf7000998>
        cb[off++] = *text++;
    }
}
     9dc:	0001883a 	nop
     9e0:	e037883a 	mov	sp,fp
     9e4:	df000017 	ldw	fp,0(sp)
     9e8:	dec00104 	addi	sp,sp,4
     9ec:	f800283a 	ret

000009f0 <video_text_px>:

// imprime texto em coordenadas de pixel (converte p/ char: 4x4 px por char)
static void video_text_px(int x_px, int y_px, const char *text)
{
     9f0:	defff904 	addi	sp,sp,-28
     9f4:	dfc00615 	stw	ra,24(sp)
     9f8:	df000515 	stw	fp,20(sp)
     9fc:	df000504 	addi	fp,sp,20
     a00:	e13ffd15 	stw	r4,-12(fp)
     a04:	e17ffe15 	stw	r5,-8(fp)
     a08:	e1bfff15 	stw	r6,-4(fp)
    int x = x_px / 4;
     a0c:	e0bffd17 	ldw	r2,-12(fp)
     a10:	1000010e 	bge	r2,zero,a18 <video_text_px+0x28>
     a14:	108000c4 	addi	r2,r2,3
     a18:	1005d0ba 	srai	r2,r2,2
     a1c:	e0bffb15 	stw	r2,-20(fp)
    int y = y_px / 4;
     a20:	e0bffe17 	ldw	r2,-8(fp)
     a24:	1000010e 	bge	r2,zero,a2c <video_text_px+0x3c>
     a28:	108000c4 	addi	r2,r2,3
     a2c:	1005d0ba 	srai	r2,r2,2
     a30:	e0bffc15 	stw	r2,-16(fp)
    if (x < 0) x = 0;
     a34:	e0bffb17 	ldw	r2,-20(fp)
     a38:	1000010e 	bge	r2,zero,a40 <video_text_px+0x50>
     a3c:	e03ffb15 	stw	zero,-20(fp)
    if (y < 0) y = 0;
     a40:	e0bffc17 	ldw	r2,-16(fp)
     a44:	1000010e 	bge	r2,zero,a4c <video_text_px+0x5c>
     a48:	e03ffc15 	stw	zero,-16(fp)
    if (x > 127) x = 127;
     a4c:	e0bffb17 	ldw	r2,-20(fp)
     a50:	10802010 	cmplti	r2,r2,128
     a54:	1000021e 	bne	r2,zero,a60 <video_text_px+0x70>
     a58:	00801fc4 	movi	r2,127
     a5c:	e0bffb15 	stw	r2,-20(fp)
    if (y > 59)  y = 59;
     a60:	e0bffc17 	ldw	r2,-16(fp)
     a64:	10800f10 	cmplti	r2,r2,60
     a68:	1000021e 	bne	r2,zero,a74 <video_text_px+0x84>
     a6c:	00800ec4 	movi	r2,59
     a70:	e0bffc15 	stw	r2,-16(fp)
    video_text(x, y, text);
     a74:	e1bfff17 	ldw	r6,-4(fp)
     a78:	e17ffc17 	ldw	r5,-16(fp)
     a7c:	e13ffb17 	ldw	r4,-20(fp)
     a80:	00009600 	call	960 <video_text>
}
     a84:	0001883a 	nop
     a88:	e037883a 	mov	sp,fp
     a8c:	dfc00117 	ldw	ra,4(sp)
     a90:	df000017 	ldw	fp,0(sp)
     a94:	dec00204 	addi	sp,sp,8
     a98:	f800283a 	ret

00000a9c <video_text_px_pad>:

// imprime e "limpa o resto" com espaos (pra atualizar sem sujeira)
static void video_text_px_pad(int x_px, int y_px, const char *text, int pad_len)
{
     a9c:	deffe904 	addi	sp,sp,-92
     aa0:	dfc01615 	stw	ra,88(sp)
     aa4:	df001515 	stw	fp,84(sp)
     aa8:	df001504 	addi	fp,sp,84
     aac:	e13ffc15 	stw	r4,-16(fp)
     ab0:	e17ffd15 	stw	r5,-12(fp)
     ab4:	e1bffe15 	stw	r6,-8(fp)
     ab8:	e1ffff15 	stw	r7,-4(fp)
    char buf[64];
    int i = 0;
     abc:	e03feb15 	stw	zero,-84(fp)

    // copia text
    while (text[i] && i < (int)sizeof(buf) - 1) {
     ac0:	00000b06 	br	af0 <video_text_px_pad+0x54>
        buf[i] = text[i];
     ac4:	e0bfeb17 	ldw	r2,-84(fp)
     ac8:	e0fffe17 	ldw	r3,-8(fp)
     acc:	1885883a 	add	r2,r3,r2
     ad0:	10c00003 	ldbu	r3,0(r2)
     ad4:	e13fec04 	addi	r4,fp,-80
     ad8:	e0bfeb17 	ldw	r2,-84(fp)
     adc:	2085883a 	add	r2,r4,r2
     ae0:	10c00005 	stb	r3,0(r2)
        i++;
     ae4:	e0bfeb17 	ldw	r2,-84(fp)
     ae8:	10800044 	addi	r2,r2,1
     aec:	e0bfeb15 	stw	r2,-84(fp)
{
    char buf[64];
    int i = 0;

    // copia text
    while (text[i] && i < (int)sizeof(buf) - 1) {
     af0:	e0bfeb17 	ldw	r2,-84(fp)
     af4:	e0fffe17 	ldw	r3,-8(fp)
     af8:	1885883a 	add	r2,r3,r2
     afc:	10800003 	ldbu	r2,0(r2)
     b00:	10803fcc 	andi	r2,r2,255
     b04:	1080201c 	xori	r2,r2,128
     b08:	10bfe004 	addi	r2,r2,-128
     b0c:	10000b26 	beq	r2,zero,b3c <video_text_px_pad+0xa0>
     b10:	e0bfeb17 	ldw	r2,-84(fp)
     b14:	10800fd0 	cmplti	r2,r2,63
     b18:	103fea1e 	bne	r2,zero,ac4 <__alt_mem_VGA_Subsystem_Char_Buf_Subsystem_Onchip_SRAM+0xf7000ac4>
        buf[i] = text[i];
        i++;
    }

    // completa com espaos at pad_len
    while (i < pad_len && i < (int)sizeof(buf) - 1) {
     b1c:	00000706 	br	b3c <video_text_px_pad+0xa0>
        buf[i++] = ' ';
     b20:	e0bfeb17 	ldw	r2,-84(fp)
     b24:	10c00044 	addi	r3,r2,1
     b28:	e0ffeb15 	stw	r3,-84(fp)
     b2c:	e0ffec04 	addi	r3,fp,-80
     b30:	1885883a 	add	r2,r3,r2
     b34:	00c00804 	movi	r3,32
     b38:	10c00005 	stb	r3,0(r2)
        buf[i] = text[i];
        i++;
    }

    // completa com espaos at pad_len
    while (i < pad_len && i < (int)sizeof(buf) - 1) {
     b3c:	e0ffeb17 	ldw	r3,-84(fp)
     b40:	e0bfff17 	ldw	r2,-4(fp)
     b44:	1880030e 	bge	r3,r2,b54 <video_text_px_pad+0xb8>
     b48:	e0bfeb17 	ldw	r2,-84(fp)
     b4c:	10800fd0 	cmplti	r2,r2,63
     b50:	103ff31e 	bne	r2,zero,b20 <__alt_mem_VGA_Subsystem_Char_Buf_Subsystem_Onchip_SRAM+0xf7000b20>
        buf[i++] = ' ';
    }
    buf[i] = '\0';
     b54:	e0ffec04 	addi	r3,fp,-80
     b58:	e0bfeb17 	ldw	r2,-84(fp)
     b5c:	1885883a 	add	r2,r3,r2
     b60:	10000005 	stb	zero,0(r2)

    video_text_px(x_px, y_px, buf);
     b64:	e0bfec04 	addi	r2,fp,-80
     b68:	100d883a 	mov	r6,r2
     b6c:	e17ffd17 	ldw	r5,-12(fp)
     b70:	e13ffc17 	ldw	r4,-16(fp)
     b74:	00009f00 	call	9f0 <video_text_px>
}
     b78:	0001883a 	nop
     b7c:	e037883a 	mov	sp,fp
     b80:	dfc00117 	ldw	ra,4(sp)
     b84:	df000017 	ldw	fp,0(sp)
     b88:	dec00204 	addi	sp,sp,8
     b8c:	f800283a 	ret

00000b90 <video_box>:


static void video_box(int x1, int y1, int x2, int y2, uint16_t color)
{
     b90:	defff304 	addi	sp,sp,-52
     b94:	dfc00c15 	stw	ra,48(sp)
     b98:	df000b15 	stw	fp,44(sp)
     b9c:	df000b04 	addi	fp,sp,44
     ba0:	e13ffb15 	stw	r4,-20(fp)
     ba4:	e17ffc15 	stw	r5,-16(fp)
     ba8:	e1bffd15 	stw	r6,-12(fp)
     bac:	e1fffe15 	stw	r7,-8(fp)
     bb0:	e0800217 	ldw	r2,8(fp)
     bb4:	e0bfff0d 	sth	r2,-4(fp)
    int base = *(volatile int *)PIXEL_BUF_CTRL_BASE;
     bb8:	00bfc834 	movhi	r2,65312
     bbc:	108c0804 	addi	r2,r2,12320
     bc0:	10800017 	ldw	r2,0(r2)
     bc4:	e0bff715 	stw	r2,-36(fp)
    int xf = 1 << (res_offset + col_offset);
     bc8:	d0e71017 	ldw	r3,-25536(gp)
     bcc:	d0a71117 	ldw	r2,-25532(gp)
     bd0:	1885883a 	add	r2,r3,r2
     bd4:	00c00044 	movi	r3,1
     bd8:	1884983a 	sll	r2,r3,r2
     bdc:	e0bff815 	stw	r2,-32(fp)
    int yf = 1 << res_offset;
     be0:	d0a71017 	ldw	r2,-25536(gp)
     be4:	00c00044 	movi	r3,1
     be8:	1884983a 	sll	r2,r3,r2
     bec:	e0bff915 	stw	r2,-28(fp)

    x1 /= xf; x2 /= xf;
     bf0:	e17ff817 	ldw	r5,-32(fp)
     bf4:	e13ffb17 	ldw	r4,-20(fp)
     bf8:	00047980 	call	4798 <__divsi3>
     bfc:	e0bffb15 	stw	r2,-20(fp)
     c00:	e17ff817 	ldw	r5,-32(fp)
     c04:	e13ffd17 	ldw	r4,-12(fp)
     c08:	00047980 	call	4798 <__divsi3>
     c0c:	e0bffd15 	stw	r2,-12(fp)
    y1 /= yf; y2 /= yf;
     c10:	e17ff917 	ldw	r5,-28(fp)
     c14:	e13ffc17 	ldw	r4,-16(fp)
     c18:	00047980 	call	4798 <__divsi3>
     c1c:	e0bffc15 	stw	r2,-16(fp)
     c20:	e17ff917 	ldw	r5,-28(fp)
     c24:	e13ffe17 	ldw	r4,-8(fp)
     c28:	00047980 	call	4798 <__divsi3>
     c2c:	e0bffe15 	stw	r2,-8(fp)

    for (int row = y1; row <= y2; row++) {
     c30:	e0bffc17 	ldw	r2,-16(fp)
     c34:	e0bff515 	stw	r2,-44(fp)
     c38:	00001c06 	br	cac <video_box+0x11c>
        for (int col = x1; col <= x2; col++) {
     c3c:	e0bffb17 	ldw	r2,-20(fp)
     c40:	e0bff615 	stw	r2,-40(fp)
     c44:	00001306 	br	c94 <video_box+0x104>
            int ptr = base + (row << (10 - res_offset - col_offset)) + (col << 1);
     c48:	d0a71017 	ldw	r2,-25536(gp)
     c4c:	00c00284 	movi	r3,10
     c50:	1887c83a 	sub	r3,r3,r2
     c54:	d0a71117 	ldw	r2,-25532(gp)
     c58:	1885c83a 	sub	r2,r3,r2
     c5c:	e0fff517 	ldw	r3,-44(fp)
     c60:	1886983a 	sll	r3,r3,r2
     c64:	e0bff717 	ldw	r2,-36(fp)
     c68:	1887883a 	add	r3,r3,r2
     c6c:	e0bff617 	ldw	r2,-40(fp)
     c70:	1085883a 	add	r2,r2,r2
     c74:	1885883a 	add	r2,r3,r2
     c78:	e0bffa15 	stw	r2,-24(fp)
            *(volatile uint16_t *)ptr = color;
     c7c:	e0bffa17 	ldw	r2,-24(fp)
     c80:	e0ffff0b 	ldhu	r3,-4(fp)
     c84:	10c0000d 	sth	r3,0(r2)

    x1 /= xf; x2 /= xf;
    y1 /= yf; y2 /= yf;

    for (int row = y1; row <= y2; row++) {
        for (int col = x1; col <= x2; col++) {
     c88:	e0bff617 	ldw	r2,-40(fp)
     c8c:	10800044 	addi	r2,r2,1
     c90:	e0bff615 	stw	r2,-40(fp)
     c94:	e0bff617 	ldw	r2,-40(fp)
     c98:	e0fffd17 	ldw	r3,-12(fp)
     c9c:	18bfea0e 	bge	r3,r2,c48 <__alt_mem_VGA_Subsystem_Char_Buf_Subsystem_Onchip_SRAM+0xf7000c48>
    int yf = 1 << res_offset;

    x1 /= xf; x2 /= xf;
    y1 /= yf; y2 /= yf;

    for (int row = y1; row <= y2; row++) {
     ca0:	e0bff517 	ldw	r2,-44(fp)
     ca4:	10800044 	addi	r2,r2,1
     ca8:	e0bff515 	stw	r2,-44(fp)
     cac:	e0bff517 	ldw	r2,-44(fp)
     cb0:	e0fffe17 	ldw	r3,-8(fp)
     cb4:	18bfe10e 	bge	r3,r2,c3c <__alt_mem_VGA_Subsystem_Char_Buf_Subsystem_Onchip_SRAM+0xf7000c3c>
        for (int col = x1; col <= x2; col++) {
            int ptr = base + (row << (10 - res_offset - col_offset)) + (col << 1);
            *(volatile uint16_t *)ptr = color;
        }
    }
}
     cb8:	0001883a 	nop
     cbc:	e037883a 	mov	sp,fp
     cc0:	dfc00117 	ldw	ra,4(sp)
     cc4:	df000017 	ldw	fp,0(sp)
     cc8:	dec00204 	addi	sp,sp,8
     ccc:	f800283a 	ret

00000cd0 <plot>:

static void plot(int x, int y, uint16_t c)
{
     cd0:	defff704 	addi	sp,sp,-36
     cd4:	dfc00815 	stw	ra,32(sp)
     cd8:	df000715 	stw	fp,28(sp)
     cdc:	df000704 	addi	fp,sp,28
     ce0:	e13ffd15 	stw	r4,-12(fp)
     ce4:	e17ffe15 	stw	r5,-8(fp)
     ce8:	3005883a 	mov	r2,r6
     cec:	e0bfff0d 	sth	r2,-4(fp)
    if (x < 0 || x >= SCREEN_W || y < 0 || y >= SCREEN_H) return;
     cf0:	e0bffd17 	ldw	r2,-12(fp)
     cf4:	10002f16 	blt	r2,zero,db4 <plot+0xe4>
     cf8:	e0bffd17 	ldw	r2,-12(fp)
     cfc:	10805008 	cmpgei	r2,r2,320
     d00:	10002c1e 	bne	r2,zero,db4 <plot+0xe4>
     d04:	e0bffe17 	ldw	r2,-8(fp)
     d08:	10002a16 	blt	r2,zero,db4 <plot+0xe4>
     d0c:	e0bffe17 	ldw	r2,-8(fp)
     d10:	10803c10 	cmplti	r2,r2,240
     d14:	10002726 	beq	r2,zero,db4 <plot+0xe4>

    int base = *(volatile int *)PIXEL_BUF_CTRL_BASE;
     d18:	00bfc834 	movhi	r2,65312
     d1c:	108c0804 	addi	r2,r2,12320
     d20:	10800017 	ldw	r2,0(r2)
     d24:	e0bff915 	stw	r2,-28(fp)
    int xf = 1 << (res_offset + col_offset);
     d28:	d0e71017 	ldw	r3,-25536(gp)
     d2c:	d0a71117 	ldw	r2,-25532(gp)
     d30:	1885883a 	add	r2,r3,r2
     d34:	00c00044 	movi	r3,1
     d38:	1884983a 	sll	r2,r3,r2
     d3c:	e0bffa15 	stw	r2,-24(fp)
    int yf = 1 << res_offset;
     d40:	d0a71017 	ldw	r2,-25536(gp)
     d44:	00c00044 	movi	r3,1
     d48:	1884983a 	sll	r2,r3,r2
     d4c:	e0bffb15 	stw	r2,-20(fp)

    x /= xf;
     d50:	e17ffa17 	ldw	r5,-24(fp)
     d54:	e13ffd17 	ldw	r4,-12(fp)
     d58:	00047980 	call	4798 <__divsi3>
     d5c:	e0bffd15 	stw	r2,-12(fp)
    y /= yf;
     d60:	e17ffb17 	ldw	r5,-20(fp)
     d64:	e13ffe17 	ldw	r4,-8(fp)
     d68:	00047980 	call	4798 <__divsi3>
     d6c:	e0bffe15 	stw	r2,-8(fp)

    int ptr = base + (y << (10 - res_offset - col_offset)) + (x << 1);
     d70:	d0a71017 	ldw	r2,-25536(gp)
     d74:	00c00284 	movi	r3,10
     d78:	1887c83a 	sub	r3,r3,r2
     d7c:	d0a71117 	ldw	r2,-25532(gp)
     d80:	1885c83a 	sub	r2,r3,r2
     d84:	e0fffe17 	ldw	r3,-8(fp)
     d88:	1886983a 	sll	r3,r3,r2
     d8c:	e0bff917 	ldw	r2,-28(fp)
     d90:	1887883a 	add	r3,r3,r2
     d94:	e0bffd17 	ldw	r2,-12(fp)
     d98:	1085883a 	add	r2,r2,r2
     d9c:	1885883a 	add	r2,r3,r2
     da0:	e0bffc15 	stw	r2,-16(fp)
    *(volatile uint16_t *)ptr = c;
     da4:	e0bffc17 	ldw	r2,-16(fp)
     da8:	e0ffff0b 	ldhu	r3,-4(fp)
     dac:	10c0000d 	sth	r3,0(r2)
     db0:	00000106 	br	db8 <plot+0xe8>
    }
}

static void plot(int x, int y, uint16_t c)
{
    if (x < 0 || x >= SCREEN_W || y < 0 || y >= SCREEN_H) return;
     db4:	0001883a 	nop
    x /= xf;
    y /= yf;

    int ptr = base + (y << (10 - res_offset - col_offset)) + (x << 1);
    *(volatile uint16_t *)ptr = c;
}
     db8:	e037883a 	mov	sp,fp
     dbc:	dfc00117 	ldw	ra,4(sp)
     dc0:	df000017 	ldw	fp,0(sp)
     dc4:	dec00204 	addi	sp,sp,8
     dc8:	f800283a 	ret

00000dcc <draw_line>:

static void draw_line(int x0, int y0, int x1, int y1, uint16_t c)
{
     dcc:	defff304 	addi	sp,sp,-52
     dd0:	dfc00c15 	stw	ra,48(sp)
     dd4:	df000b15 	stw	fp,44(sp)
     dd8:	df000b04 	addi	fp,sp,44
     ddc:	e13ffb15 	stw	r4,-20(fp)
     de0:	e17ffc15 	stw	r5,-16(fp)
     de4:	e1bffd15 	stw	r6,-12(fp)
     de8:	e1fffe15 	stw	r7,-8(fp)
     dec:	e0800217 	ldw	r2,8(fp)
     df0:	e0bfff0d 	sth	r2,-4(fp)
    int dx = (x1 > x0) ? (x1 - x0) : (x0 - x1);
     df4:	e0bffd17 	ldw	r2,-12(fp)
     df8:	e0fffb17 	ldw	r3,-20(fp)
     dfc:	1880040e 	bge	r3,r2,e10 <draw_line+0x44>
     e00:	e0fffd17 	ldw	r3,-12(fp)
     e04:	e0bffb17 	ldw	r2,-20(fp)
     e08:	1885c83a 	sub	r2,r3,r2
     e0c:	00000306 	br	e1c <draw_line+0x50>
     e10:	e0fffb17 	ldw	r3,-20(fp)
     e14:	e0bffd17 	ldw	r2,-12(fp)
     e18:	1885c83a 	sub	r2,r3,r2
     e1c:	e0bff615 	stw	r2,-40(fp)
    int sx = (x0 < x1) ? 1 : -1;
     e20:	e0fffb17 	ldw	r3,-20(fp)
     e24:	e0bffd17 	ldw	r2,-12(fp)
     e28:	1880020e 	bge	r3,r2,e34 <draw_line+0x68>
     e2c:	00800044 	movi	r2,1
     e30:	00000106 	br	e38 <draw_line+0x6c>
     e34:	00bfffc4 	movi	r2,-1
     e38:	e0bff715 	stw	r2,-36(fp)
    int dy = (y1 > y0) ? -(y1 - y0) : -(y0 - y1);
     e3c:	e0bffe17 	ldw	r2,-8(fp)
     e40:	e0fffc17 	ldw	r3,-16(fp)
     e44:	1880040e 	bge	r3,r2,e58 <draw_line+0x8c>
     e48:	e0fffc17 	ldw	r3,-16(fp)
     e4c:	e0bffe17 	ldw	r2,-8(fp)
     e50:	1885c83a 	sub	r2,r3,r2
     e54:	00000306 	br	e64 <draw_line+0x98>
     e58:	e0fffe17 	ldw	r3,-8(fp)
     e5c:	e0bffc17 	ldw	r2,-16(fp)
     e60:	1885c83a 	sub	r2,r3,r2
     e64:	e0bff815 	stw	r2,-32(fp)
    int sy = (y0 < y1) ? 1 : -1;
     e68:	e0fffc17 	ldw	r3,-16(fp)
     e6c:	e0bffe17 	ldw	r2,-8(fp)
     e70:	1880020e 	bge	r3,r2,e7c <draw_line+0xb0>
     e74:	00800044 	movi	r2,1
     e78:	00000106 	br	e80 <draw_line+0xb4>
     e7c:	00bfffc4 	movi	r2,-1
     e80:	e0bff915 	stw	r2,-28(fp)
    int err = dx + dy;
     e84:	e0fff617 	ldw	r3,-40(fp)
     e88:	e0bff817 	ldw	r2,-32(fp)
     e8c:	1885883a 	add	r2,r3,r2
     e90:	e0bff515 	stw	r2,-44(fp)

    for (;;) {
        plot(x0, y0, c);
     e94:	e0bfff0b 	ldhu	r2,-4(fp)
     e98:	100d883a 	mov	r6,r2
     e9c:	e17ffc17 	ldw	r5,-16(fp)
     ea0:	e13ffb17 	ldw	r4,-20(fp)
     ea4:	0000cd00 	call	cd0 <plot>
        if (x0 == x1 && y0 == y1) break;
     ea8:	e0fffb17 	ldw	r3,-20(fp)
     eac:	e0bffd17 	ldw	r2,-12(fp)
     eb0:	1880031e 	bne	r3,r2,ec0 <draw_line+0xf4>
     eb4:	e0fffc17 	ldw	r3,-16(fp)
     eb8:	e0bffe17 	ldw	r2,-8(fp)
     ebc:	18801a26 	beq	r3,r2,f28 <draw_line+0x15c>
        int e2 = err << 1;
     ec0:	e0bff517 	ldw	r2,-44(fp)
     ec4:	1085883a 	add	r2,r2,r2
     ec8:	e0bffa15 	stw	r2,-24(fp)
        if (e2 >= dy) { err += dy; x0 += sx; }
     ecc:	e0fffa17 	ldw	r3,-24(fp)
     ed0:	e0bff817 	ldw	r2,-32(fp)
     ed4:	18800816 	blt	r3,r2,ef8 <draw_line+0x12c>
     ed8:	e0fff517 	ldw	r3,-44(fp)
     edc:	e0bff817 	ldw	r2,-32(fp)
     ee0:	1885883a 	add	r2,r3,r2
     ee4:	e0bff515 	stw	r2,-44(fp)
     ee8:	e0fffb17 	ldw	r3,-20(fp)
     eec:	e0bff717 	ldw	r2,-36(fp)
     ef0:	1885883a 	add	r2,r3,r2
     ef4:	e0bffb15 	stw	r2,-20(fp)
        if (e2 <= dx) { err += dx; y0 += sy; }
     ef8:	e0bffa17 	ldw	r2,-24(fp)
     efc:	e0fff617 	ldw	r3,-40(fp)
     f00:	18bfe416 	blt	r3,r2,e94 <__alt_mem_VGA_Subsystem_Char_Buf_Subsystem_Onchip_SRAM+0xf7000e94>
     f04:	e0fff517 	ldw	r3,-44(fp)
     f08:	e0bff617 	ldw	r2,-40(fp)
     f0c:	1885883a 	add	r2,r3,r2
     f10:	e0bff515 	stw	r2,-44(fp)
     f14:	e0fffc17 	ldw	r3,-16(fp)
     f18:	e0bff917 	ldw	r2,-28(fp)
     f1c:	1885883a 	add	r2,r3,r2
     f20:	e0bffc15 	stw	r2,-16(fp)
    }
     f24:	003fdb06 	br	e94 <__alt_mem_VGA_Subsystem_Char_Buf_Subsystem_Onchip_SRAM+0xf7000e94>
    int sy = (y0 < y1) ? 1 : -1;
    int err = dx + dy;

    for (;;) {
        plot(x0, y0, c);
        if (x0 == x1 && y0 == y1) break;
     f28:	0001883a 	nop
        int e2 = err << 1;
        if (e2 >= dy) { err += dy; x0 += sx; }
        if (e2 <= dx) { err += dx; y0 += sy; }
    }
}
     f2c:	0001883a 	nop
     f30:	e037883a 	mov	sp,fp
     f34:	dfc00117 	ldw	ra,4(sp)
     f38:	df000017 	ldw	fp,0(sp)
     f3c:	dec00204 	addi	sp,sp,8
     f40:	f800283a 	ret

00000f44 <draw_arc_cm>:

static void draw_arc_cm(int cm, uint16_t c)
{
     f44:	defff304 	addi	sp,sp,-52
     f48:	dfc00c15 	stw	ra,48(sp)
     f4c:	df000b15 	stw	fp,44(sp)
     f50:	dc800a15 	stw	r18,40(sp)
     f54:	dc400915 	stw	r17,36(sp)
     f58:	dc000815 	stw	r16,32(sp)
     f5c:	df000b04 	addi	fp,sp,44
     f60:	e13ffb15 	stw	r4,-20(fp)
     f64:	2805883a 	mov	r2,r5
     f68:	e0bffc0d 	sth	r2,-16(fp)
    int r = cm_to_px(cm);
     f6c:	e13ffb17 	ldw	r4,-20(fp)
     f70:	00004180 	call	418 <cm_to_px>
     f74:	e0bff615 	stw	r2,-40(fp)
    for (int a = 0; a <= 180; a += 2) {
     f78:	e03ff515 	stw	zero,-44(fp)
     f7c:	00005106 	br	10c4 <draw_arc_cm+0x180>
        double rad = (double)a * PI / 180.0;
     f80:	e13ff517 	ldw	r4,-44(fp)
     f84:	0006f3c0 	call	6f3c <__floatsidf>
     f88:	1011883a 	mov	r8,r2
     f8c:	1813883a 	mov	r9,r3
     f90:	01980034 	movhi	r6,24576
     f94:	01d00274 	movhi	r7,16393
     f98:	39c87ec4 	addi	r7,r7,8699
     f9c:	4009883a 	mov	r4,r8
     fa0:	480b883a 	mov	r5,r9
     fa4:	0005d540 	call	5d54 <__muldf3>
     fa8:	1009883a 	mov	r4,r2
     fac:	180b883a 	mov	r5,r3
     fb0:	2005883a 	mov	r2,r4
     fb4:	2807883a 	mov	r3,r5
     fb8:	000d883a 	mov	r6,zero
     fbc:	01d019f4 	movhi	r7,16487
     fc0:	39e00004 	addi	r7,r7,-32768
     fc4:	1009883a 	mov	r4,r2
     fc8:	180b883a 	mov	r5,r3
     fcc:	00052200 	call	5220 <__divdf3>
     fd0:	1009883a 	mov	r4,r2
     fd4:	180b883a 	mov	r5,r3
     fd8:	e13ff715 	stw	r4,-36(fp)
     fdc:	e17ff815 	stw	r5,-32(fp)
        int x = cx + (int)(cos(rad) * r);
     fe0:	e13ff717 	ldw	r4,-36(fp)
     fe4:	e17ff817 	ldw	r5,-32(fp)
     fe8:	00025900 	call	2590 <cos>
     fec:	1021883a 	mov	r16,r2
     ff0:	1823883a 	mov	r17,r3
     ff4:	e13ff617 	ldw	r4,-40(fp)
     ff8:	0006f3c0 	call	6f3c <__floatsidf>
     ffc:	1009883a 	mov	r4,r2
    1000:	180b883a 	mov	r5,r3
    1004:	200d883a 	mov	r6,r4
    1008:	280f883a 	mov	r7,r5
    100c:	8009883a 	mov	r4,r16
    1010:	880b883a 	mov	r5,r17
    1014:	0005d540 	call	5d54 <__muldf3>
    1018:	1009883a 	mov	r4,r2
    101c:	180b883a 	mov	r5,r3
    1020:	2005883a 	mov	r2,r4
    1024:	2807883a 	mov	r3,r5
    1028:	1009883a 	mov	r4,r2
    102c:	180b883a 	mov	r5,r3
    1030:	0006ebc0 	call	6ebc <__fixdfsi>
    1034:	1007883a 	mov	r3,r2
    1038:	d0a71217 	ldw	r2,-25528(gp)
    103c:	1885883a 	add	r2,r3,r2
    1040:	e0bff915 	stw	r2,-28(fp)
        int y = cy - (int)(sin(rad) * r);
    1044:	d4a71317 	ldw	r18,-25524(gp)
    1048:	e13ff717 	ldw	r4,-36(fp)
    104c:	e17ff817 	ldw	r5,-32(fp)
    1050:	000267c0 	call	267c <sin>
    1054:	1021883a 	mov	r16,r2
    1058:	1823883a 	mov	r17,r3
    105c:	e13ff617 	ldw	r4,-40(fp)
    1060:	0006f3c0 	call	6f3c <__floatsidf>
    1064:	1009883a 	mov	r4,r2
    1068:	180b883a 	mov	r5,r3
    106c:	200d883a 	mov	r6,r4
    1070:	280f883a 	mov	r7,r5
    1074:	8009883a 	mov	r4,r16
    1078:	880b883a 	mov	r5,r17
    107c:	0005d540 	call	5d54 <__muldf3>
    1080:	1009883a 	mov	r4,r2
    1084:	180b883a 	mov	r5,r3
    1088:	2005883a 	mov	r2,r4
    108c:	2807883a 	mov	r3,r5
    1090:	1009883a 	mov	r4,r2
    1094:	180b883a 	mov	r5,r3
    1098:	0006ebc0 	call	6ebc <__fixdfsi>
    109c:	9085c83a 	sub	r2,r18,r2
    10a0:	e0bffa15 	stw	r2,-24(fp)
        plot(x, y, c);
    10a4:	e0bffc0b 	ldhu	r2,-16(fp)
    10a8:	100d883a 	mov	r6,r2
    10ac:	e17ffa17 	ldw	r5,-24(fp)
    10b0:	e13ff917 	ldw	r4,-28(fp)
    10b4:	0000cd00 	call	cd0 <plot>
}

static void draw_arc_cm(int cm, uint16_t c)
{
    int r = cm_to_px(cm);
    for (int a = 0; a <= 180; a += 2) {
    10b8:	e0bff517 	ldw	r2,-44(fp)
    10bc:	10800084 	addi	r2,r2,2
    10c0:	e0bff515 	stw	r2,-44(fp)
    10c4:	e0bff517 	ldw	r2,-44(fp)
    10c8:	10802d50 	cmplti	r2,r2,181
    10cc:	103fac1e 	bne	r2,zero,f80 <__alt_mem_VGA_Subsystem_Char_Buf_Subsystem_Onchip_SRAM+0xf7000f80>
        double rad = (double)a * PI / 180.0;
        int x = cx + (int)(cos(rad) * r);
        int y = cy - (int)(sin(rad) * r);
        plot(x, y, c);
    }
}
    10d0:	0001883a 	nop
    10d4:	e6fffd04 	addi	sp,fp,-12
    10d8:	dfc00417 	ldw	ra,16(sp)
    10dc:	df000317 	ldw	fp,12(sp)
    10e0:	dc800217 	ldw	r18,8(sp)
    10e4:	dc400117 	ldw	r17,4(sp)
    10e8:	dc000017 	ldw	r16,0(sp)
    10ec:	dec00504 	addi	sp,sp,20
    10f0:	f800283a 	ret

000010f4 <draw_live_status>:

static void draw_live_status(uint32_t angle_deg, uint32_t dist_cm)
{
    10f4:	deffec04 	addi	sp,sp,-80
    10f8:	dfc01315 	stw	ra,76(sp)
    10fc:	df001215 	stw	fp,72(sp)
    1100:	df001204 	addi	fp,sp,72
    1104:	e13ffe15 	stw	r4,-8(fp)
    1108:	e17fff15 	stw	r5,-4(fp)
    char s1[32], s2[32];

    // exemplo: "Ang: 123"
    snprintf(s1, sizeof(s1), "Ang:%3u", (unsigned)angle_deg);
    110c:	e1fffe17 	ldw	r7,-8(fp)
    1110:	01800074 	movhi	r6,1
    1114:	31896004 	addi	r6,r6,9600
    1118:	01400804 	movi	r5,32
    111c:	e13fee04 	addi	r4,fp,-72
    1120:	00071fc0 	call	71fc <snprintf>
    snprintf(s2, sizeof(s2), "Dst:%3ucm", (unsigned)dist_cm);
    1124:	e0bff604 	addi	r2,fp,-40
    1128:	e1ffff17 	ldw	r7,-4(fp)
    112c:	01800074 	movhi	r6,1
    1130:	31896204 	addi	r6,r6,9608
    1134:	01400804 	movi	r5,32
    1138:	1009883a 	mov	r4,r2
    113c:	00071fc0 	call	71fc <snprintf>

    // topo esquerdo
    video_text_px_pad(4, 4,  s1, 12);
    1140:	01c00304 	movi	r7,12
    1144:	e1bfee04 	addi	r6,fp,-72
    1148:	01400104 	movi	r5,4
    114c:	01000104 	movi	r4,4
    1150:	0000a9c0 	call	a9c <video_text_px_pad>
    video_text_px_pad(4, 16, s2, 12);
    1154:	e0bff604 	addi	r2,fp,-40
    1158:	01c00304 	movi	r7,12
    115c:	100d883a 	mov	r6,r2
    1160:	01400404 	movi	r5,16
    1164:	01000104 	movi	r4,4
    1168:	0000a9c0 	call	a9c <video_text_px_pad>
}
    116c:	0001883a 	nop
    1170:	e037883a 	mov	sp,fp
    1174:	dfc00117 	ldw	ra,4(sp)
    1178:	df000017 	ldw	fp,0(sp)
    117c:	dec00204 	addi	sp,sp,8
    1180:	f800283a 	ret

00001184 <draw_range_labels>:

static void draw_range_labels(void)
{
    1184:	deffe404 	addi	sp,sp,-112
    1188:	dfc01b15 	stw	ra,108(sp)
    118c:	df001a15 	stw	fp,104(sp)
    1190:	df001a04 	addi	fp,sp,104
    int m  = (int)dist_max_cm;
    1194:	d0a00217 	ldw	r2,-32760(gp)
    1198:	e0bfeb15 	stw	r2,-84(fp)
    int d1 = (m * 1) / 4;
    119c:	e0bfeb17 	ldw	r2,-84(fp)
    11a0:	1000010e 	bge	r2,zero,11a8 <draw_range_labels+0x24>
    11a4:	108000c4 	addi	r2,r2,3
    11a8:	1005d0ba 	srai	r2,r2,2
    11ac:	e0bfe615 	stw	r2,-104(fp)
    int d2 = (m * 2) / 4;
    11b0:	e0bfeb17 	ldw	r2,-84(fp)
    11b4:	1085883a 	add	r2,r2,r2
    11b8:	1000010e 	bge	r2,zero,11c0 <draw_range_labels+0x3c>
    11bc:	108000c4 	addi	r2,r2,3
    11c0:	1005d0ba 	srai	r2,r2,2
    11c4:	e0bfec15 	stw	r2,-80(fp)
    int d3 = (m * 3) / 4;
    11c8:	e0ffeb17 	ldw	r3,-84(fp)
    11cc:	1805883a 	mov	r2,r3
    11d0:	1085883a 	add	r2,r2,r2
    11d4:	10c5883a 	add	r2,r2,r3
    11d8:	1000010e 	bge	r2,zero,11e0 <draw_range_labels+0x5c>
    11dc:	108000c4 	addi	r2,r2,3
    11e0:	1005d0ba 	srai	r2,r2,2
    11e4:	e0bfed15 	stw	r2,-76(fp)
    if (d1 < 1) d1 = 1;
    11e8:	e0bfe617 	ldw	r2,-104(fp)
    11ec:	00800216 	blt	zero,r2,11f8 <draw_range_labels+0x74>
    11f0:	00800044 	movi	r2,1
    11f4:	e0bfe615 	stw	r2,-104(fp)

    // Dmax no topo (centro)
    {
        char s[32];
        snprintf(s, sizeof(s), "Dmax:%ucm", (unsigned)m);
    11f8:	e0ffeb17 	ldw	r3,-84(fp)
    11fc:	e0bff804 	addi	r2,fp,-32
    1200:	180f883a 	mov	r7,r3
    1204:	01800074 	movhi	r6,1
    1208:	31896504 	addi	r6,r6,9620
    120c:	01400804 	movi	r5,32
    1210:	1009883a 	mov	r4,r2
    1214:	00071fc0 	call	71fc <snprintf>
        video_text_px_pad(cx - 40, 4, s, 16);
    1218:	d0a71217 	ldw	r2,-25528(gp)
    121c:	10bff604 	addi	r2,r2,-40
    1220:	e0fff804 	addi	r3,fp,-32
    1224:	01c00404 	movi	r7,16
    1228:	180d883a 	mov	r6,r3
    122c:	01400104 	movi	r5,4
    1230:	1009883a 	mov	r4,r2
    1234:	0000a9c0 	call	a9c <video_text_px_pad>
    }

    // Eixo X: somente 1/4, 1/2, 3/4 (sem o mximo)
    int marks[3] = { d1, d2, d3 };
    1238:	e0bfe617 	ldw	r2,-104(fp)
    123c:	e0bff315 	stw	r2,-52(fp)
    1240:	e0bfec17 	ldw	r2,-80(fp)
    1244:	e0bff415 	stw	r2,-48(fp)
    1248:	e0bfed17 	ldw	r2,-76(fp)
    124c:	e0bff515 	stw	r2,-44(fp)

    // linha um pouquinho abaixo do eixo
    int y_px = cy + 6;
    1250:	d0a71317 	ldw	r2,-25524(gp)
    1254:	10800184 	addi	r2,r2,6
    1258:	e0bfee15 	stw	r2,-72(fp)

    for (int i = 0; i < 3; i++) {
    125c:	e03fe715 	stw	zero,-100(fp)
    1260:	00006406 	br	13f4 <draw_range_labels+0x270>
        int r = cm_to_px(marks[i]);
    1264:	e0bfe717 	ldw	r2,-100(fp)
    1268:	1085883a 	add	r2,r2,r2
    126c:	1085883a 	add	r2,r2,r2
    1270:	e0ffe604 	addi	r3,fp,-104
    1274:	1885883a 	add	r2,r3,r2
    1278:	10800d04 	addi	r2,r2,52
    127c:	10800017 	ldw	r2,0(r2)
    1280:	1009883a 	mov	r4,r2
    1284:	00004180 	call	418 <cm_to_px>
    1288:	e0bfef15 	stw	r2,-68(fp)

        char s[8];
        snprintf(s, sizeof(s), "%d", marks[i]);
    128c:	e0bfe717 	ldw	r2,-100(fp)
    1290:	1085883a 	add	r2,r2,r2
    1294:	1085883a 	add	r2,r2,r2
    1298:	e0ffe604 	addi	r3,fp,-104
    129c:	1885883a 	add	r2,r3,r2
    12a0:	10800d04 	addi	r2,r2,52
    12a4:	10c00017 	ldw	r3,0(r2)
    12a8:	e0bff604 	addi	r2,fp,-40
    12ac:	180f883a 	mov	r7,r3
    12b0:	01800074 	movhi	r6,1
    12b4:	31896804 	addi	r6,r6,9632
    12b8:	01400204 	movi	r5,8
    12bc:	1009883a 	mov	r4,r2
    12c0:	00071fc0 	call	71fc <snprintf>

        // largura em pixels aproximada do texto no char buffer:
        // 1 char ~ 4 px (porque usamos /4)
        int len = 0;
    12c4:	e03fe815 	stw	zero,-96(fp)
        while (s[len]) len++;
    12c8:	00000306 	br	12d8 <draw_range_labels+0x154>
    12cc:	e0bfe817 	ldw	r2,-96(fp)
    12d0:	10800044 	addi	r2,r2,1
    12d4:	e0bfe815 	stw	r2,-96(fp)
    12d8:	e0fff604 	addi	r3,fp,-40
    12dc:	e0bfe817 	ldw	r2,-96(fp)
    12e0:	1885883a 	add	r2,r3,r2
    12e4:	10800003 	ldbu	r2,0(r2)
    12e8:	10803fcc 	andi	r2,r2,255
    12ec:	1080201c 	xori	r2,r2,128
    12f0:	10bfe004 	addi	r2,r2,-128
    12f4:	103ff51e 	bne	r2,zero,12cc <__alt_mem_VGA_Subsystem_Char_Buf_Subsystem_Onchip_SRAM+0xf70012cc>
        int text_w_px = len * 4;
    12f8:	e0bfe817 	ldw	r2,-96(fp)
    12fc:	1085883a 	add	r2,r2,r2
    1300:	1085883a 	add	r2,r2,r2
    1304:	e0bff015 	stw	r2,-64(fp)

        // quer posicionar o texto centralizado na marca:
        // x_center - metade da largura
        int x_right = (cx + r) - (text_w_px / 2);
    1308:	d0e71217 	ldw	r3,-25528(gp)
    130c:	e0bfef17 	ldw	r2,-68(fp)
    1310:	1887883a 	add	r3,r3,r2
    1314:	e0bff017 	ldw	r2,-64(fp)
    1318:	1008d7fa 	srli	r4,r2,31
    131c:	2085883a 	add	r2,r4,r2
    1320:	1005d07a 	srai	r2,r2,1
    1324:	1885c83a 	sub	r2,r3,r2
    1328:	e0bfe915 	stw	r2,-92(fp)
        int x_left  = (cx - r) - (text_w_px / 2);
    132c:	d0e71217 	ldw	r3,-25528(gp)
    1330:	e0bfef17 	ldw	r2,-68(fp)
    1334:	1887c83a 	sub	r3,r3,r2
    1338:	e0bff017 	ldw	r2,-64(fp)
    133c:	1008d7fa 	srli	r4,r2,31
    1340:	2085883a 	add	r2,r4,r2
    1344:	1005d07a 	srai	r2,r2,1
    1348:	1885c83a 	sub	r2,r3,r2
    134c:	e0bfea15 	stw	r2,-88(fp)

        // clamp para no sair da tela (deixa 1 char de margem)
        int min_x = 4; // 1 char
    1350:	00800104 	movi	r2,4
    1354:	e0bff115 	stw	r2,-60(fp)
        int max_x = SCREEN_W - text_w_px - 4;
    1358:	00c04f04 	movi	r3,316
    135c:	e0bff017 	ldw	r2,-64(fp)
    1360:	1885c83a 	sub	r2,r3,r2
    1364:	e0bff215 	stw	r2,-56(fp)

        if (x_right < min_x) x_right = min_x;
    1368:	e0ffe917 	ldw	r3,-92(fp)
    136c:	e0bff117 	ldw	r2,-60(fp)
    1370:	1880020e 	bge	r3,r2,137c <draw_range_labels+0x1f8>
    1374:	e0bff117 	ldw	r2,-60(fp)
    1378:	e0bfe915 	stw	r2,-92(fp)
        if (x_right > max_x) x_right = max_x;
    137c:	e0bfe917 	ldw	r2,-92(fp)
    1380:	e0fff217 	ldw	r3,-56(fp)
    1384:	1880020e 	bge	r3,r2,1390 <draw_range_labels+0x20c>
    1388:	e0bff217 	ldw	r2,-56(fp)
    138c:	e0bfe915 	stw	r2,-92(fp)

        if (x_left < min_x) x_left = min_x;
    1390:	e0ffea17 	ldw	r3,-88(fp)
    1394:	e0bff117 	ldw	r2,-60(fp)
    1398:	1880020e 	bge	r3,r2,13a4 <draw_range_labels+0x220>
    139c:	e0bff117 	ldw	r2,-60(fp)
    13a0:	e0bfea15 	stw	r2,-88(fp)
        if (x_left > max_x) x_left = max_x;
    13a4:	e0bfea17 	ldw	r2,-88(fp)
    13a8:	e0fff217 	ldw	r3,-56(fp)
    13ac:	1880020e 	bge	r3,r2,13b8 <draw_range_labels+0x234>
    13b0:	e0bff217 	ldw	r2,-56(fp)
    13b4:	e0bfea15 	stw	r2,-88(fp)

        // escreve nos dois lados
        video_text_px_pad(x_right, y_px, s, 5);
    13b8:	e0bff604 	addi	r2,fp,-40
    13bc:	01c00144 	movi	r7,5
    13c0:	100d883a 	mov	r6,r2
    13c4:	e17fee17 	ldw	r5,-72(fp)
    13c8:	e13fe917 	ldw	r4,-92(fp)
    13cc:	0000a9c0 	call	a9c <video_text_px_pad>
        video_text_px_pad(x_left,  y_px, s, 5);
    13d0:	e0bff604 	addi	r2,fp,-40
    13d4:	01c00144 	movi	r7,5
    13d8:	100d883a 	mov	r6,r2
    13dc:	e17fee17 	ldw	r5,-72(fp)
    13e0:	e13fea17 	ldw	r4,-88(fp)
    13e4:	0000a9c0 	call	a9c <video_text_px_pad>
    int marks[3] = { d1, d2, d3 };

    // linha um pouquinho abaixo do eixo
    int y_px = cy + 6;

    for (int i = 0; i < 3; i++) {
    13e8:	e0bfe717 	ldw	r2,-100(fp)
    13ec:	10800044 	addi	r2,r2,1
    13f0:	e0bfe715 	stw	r2,-100(fp)
    13f4:	e0bfe717 	ldw	r2,-100(fp)
    13f8:	108000d0 	cmplti	r2,r2,3
    13fc:	103f991e 	bne	r2,zero,1264 <__alt_mem_VGA_Subsystem_Char_Buf_Subsystem_Onchip_SRAM+0xf7001264>

        // escreve nos dois lados
        video_text_px_pad(x_right, y_px, s, 5);
        video_text_px_pad(x_left,  y_px, s, 5);
    }
}
    1400:	0001883a 	nop
    1404:	e037883a 	mov	sp,fp
    1408:	dfc00117 	ldw	ra,4(sp)
    140c:	df000017 	ldw	fp,0(sp)
    1410:	dec00204 	addi	sp,sp,8
    1414:	f800283a 	ret

00001418 <draw_static>:




static void draw_static(void)
{
    1418:	defff904 	addi	sp,sp,-28
    141c:	dfc00615 	stw	ra,24(sp)
    1420:	df000515 	stw	fp,20(sp)
    1424:	df000504 	addi	fp,sp,20
    video_box(0, 0, SCREEN_W - 1, SCREEN_H - 1, BLACK);
    1428:	d8000015 	stw	zero,0(sp)
    142c:	01c03bc4 	movi	r7,239
    1430:	01804fc4 	movi	r6,319
    1434:	000b883a 	mov	r5,zero
    1438:	0009883a 	mov	r4,zero
    143c:	0000b900 	call	b90 <video_box>
    clear_char_buffer();
    1440:	00008cc0 	call	8cc <clear_char_buffer>

    int m = (int)dist_max_cm;
    1444:	d0a00217 	ldw	r2,-32760(gp)
    1448:	e0bffd15 	stw	r2,-12(fp)
    int a1 = (m * 1) / 4;
    144c:	e0bffd17 	ldw	r2,-12(fp)
    1450:	1000010e 	bge	r2,zero,1458 <draw_static+0x40>
    1454:	108000c4 	addi	r2,r2,3
    1458:	1005d0ba 	srai	r2,r2,2
    145c:	e0bffc15 	stw	r2,-16(fp)
    int a2 = (m * 2) / 4;
    1460:	e0bffd17 	ldw	r2,-12(fp)
    1464:	1085883a 	add	r2,r2,r2
    1468:	1000010e 	bge	r2,zero,1470 <draw_static+0x58>
    146c:	108000c4 	addi	r2,r2,3
    1470:	1005d0ba 	srai	r2,r2,2
    1474:	e0bffe15 	stw	r2,-8(fp)
    int a3 = (m * 3) / 4;
    1478:	e0fffd17 	ldw	r3,-12(fp)
    147c:	1805883a 	mov	r2,r3
    1480:	1085883a 	add	r2,r2,r2
    1484:	10c5883a 	add	r2,r2,r3
    1488:	1000010e 	bge	r2,zero,1490 <draw_static+0x78>
    148c:	108000c4 	addi	r2,r2,3
    1490:	1005d0ba 	srai	r2,r2,2
    1494:	e0bfff15 	stw	r2,-4(fp)
    if (a1 < 1) a1 = 1;
    1498:	e0bffc17 	ldw	r2,-16(fp)
    149c:	00800216 	blt	zero,r2,14a8 <draw_static+0x90>
    14a0:	00800044 	movi	r2,1
    14a4:	e0bffc15 	stw	r2,-16(fp)

    draw_arc_cm(m, WHITE);
    14a8:	017fffd4 	movui	r5,65535
    14ac:	e13ffd17 	ldw	r4,-12(fp)
    14b0:	0000f440 	call	f44 <draw_arc_cm>
    draw_arc_cm(a3, GRAY);
    14b4:	01610414 	movui	r5,33808
    14b8:	e13fff17 	ldw	r4,-4(fp)
    14bc:	0000f440 	call	f44 <draw_arc_cm>
    draw_arc_cm(a2, GRAY);
    14c0:	01610414 	movui	r5,33808
    14c4:	e13ffe17 	ldw	r4,-8(fp)
    14c8:	0000f440 	call	f44 <draw_arc_cm>
    draw_arc_cm(a1, GRAY);
    14cc:	01610414 	movui	r5,33808
    14d0:	e13ffc17 	ldw	r4,-16(fp)
    14d4:	0000f440 	call	f44 <draw_arc_cm>

    draw_line(0, cy, SCREEN_W - 1, cy, BLUE);
    14d8:	d0e71317 	ldw	r3,-25524(gp)
    14dc:	d1271317 	ldw	r4,-25524(gp)
    14e0:	008007c4 	movi	r2,31
    14e4:	d8800015 	stw	r2,0(sp)
    14e8:	200f883a 	mov	r7,r4
    14ec:	01804fc4 	movi	r6,319
    14f0:	180b883a 	mov	r5,r3
    14f4:	0009883a 	mov	r4,zero
    14f8:	0000dcc0 	call	dcc <draw_line>
    draw_line(cx, 0, cx, SCREEN_H - 1, BLUE);
    14fc:	d0e71217 	ldw	r3,-25528(gp)
    1500:	d1271217 	ldw	r4,-25528(gp)
    1504:	008007c4 	movi	r2,31
    1508:	d8800015 	stw	r2,0(sp)
    150c:	01c03bc4 	movi	r7,239
    1510:	200d883a 	mov	r6,r4
    1514:	000b883a 	mov	r5,zero
    1518:	1809883a 	mov	r4,r3
    151c:	0000dcc0 	call	dcc <draw_line>
    draw_range_labels();
    1520:	00011840 	call	1184 <draw_range_labels>
}
    1524:	0001883a 	nop
    1528:	e037883a 	mov	sp,fp
    152c:	dfc00117 	ldw	ra,4(sp)
    1530:	df000017 	ldw	fp,0(sp)
    1534:	dec00204 	addi	sp,sp,8
    1538:	f800283a 	ret

0000153c <print_help>:

static void print_help(void)
{
    153c:	defffe04 	addi	sp,sp,-8
    1540:	dfc00115 	stw	ra,4(sp)
    1544:	df000015 	stw	fp,0(sp)
    1548:	d839883a 	mov	fp,sp
    uart_puts("HELP\r\n");
    154c:	01000074 	movhi	r4,1
    1550:	21096904 	addi	r4,r4,9636
    1554:	00005100 	call	510 <uart_puts>
    uart_puts("  HELP\r\n");
    1558:	01000074 	movhi	r4,1
    155c:	21096b04 	addi	r4,r4,9644
    1560:	00005100 	call	510 <uart_puts>
    uart_puts("  P\r\n");
    1564:	01000074 	movhi	r4,1
    1568:	21096e04 	addi	r4,r4,9656
    156c:	00005100 	call	510 <uart_puts>
    uart_puts("  R <min_deg> <max_deg>\r\n");
    1570:	01000074 	movhi	r4,1
    1574:	21097004 	addi	r4,r4,9664
    1578:	00005100 	call	510 <uart_puts>
    uart_puts("  S <step_deg>\r\n");
    157c:	01000074 	movhi	r4,1
    1580:	21097704 	addi	r4,r4,9692
    1584:	00005100 	call	510 <uart_puts>
    uart_puts("  D <max_cm>\r\n");
    1588:	01000074 	movhi	r4,1
    158c:	21097c04 	addi	r4,r4,9712
    1590:	00005100 	call	510 <uart_puts>
    uart_puts("  RUN\r\n");
    1594:	01000074 	movhi	r4,1
    1598:	21098004 	addi	r4,r4,9728
    159c:	00005100 	call	510 <uart_puts>
    uart_puts("  (stop: toggle SW0)\r\n");
    15a0:	01000074 	movhi	r4,1
    15a4:	21098204 	addi	r4,r4,9736
    15a8:	00005100 	call	510 <uart_puts>
}
    15ac:	0001883a 	nop
    15b0:	e037883a 	mov	sp,fp
    15b4:	dfc00117 	ldw	ra,4(sp)
    15b8:	df000017 	ldw	fp,0(sp)
    15bc:	dec00204 	addi	sp,sp,8
    15c0:	f800283a 	ret

000015c4 <print_params>:

static void print_params(void)
{
    15c4:	defffe04 	addi	sp,sp,-8
    15c8:	dfc00115 	stw	ra,4(sp)
    15cc:	df000015 	stw	fp,0(sp)
    15d0:	d839883a 	mov	fp,sp
    uart_puts("R ");
    15d4:	01000074 	movhi	r4,1
    15d8:	21098804 	addi	r4,r4,9760
    15dc:	00005100 	call	510 <uart_puts>
    uart_put_u32(angle_min);
    15e0:	d0a71517 	ldw	r2,-25516(gp)
    15e4:	1009883a 	mov	r4,r2
    15e8:	00005d40 	call	5d4 <uart_put_u32>
    uart_putchar(' ');
    15ec:	01000804 	movi	r4,32
    15f0:	00004bc0 	call	4bc <uart_putchar>
    uart_put_u32(angle_max);
    15f4:	d0a00017 	ldw	r2,-32768(gp)
    15f8:	1009883a 	mov	r4,r2
    15fc:	00005d40 	call	5d4 <uart_put_u32>
    uart_puts("  S ");
    1600:	01000074 	movhi	r4,1
    1604:	21098904 	addi	r4,r4,9764
    1608:	00005100 	call	510 <uart_puts>
    uart_put_u32(step_deg);
    160c:	d0a00117 	ldw	r2,-32764(gp)
    1610:	1009883a 	mov	r4,r2
    1614:	00005d40 	call	5d4 <uart_put_u32>
    uart_puts("  D ");
    1618:	01000074 	movhi	r4,1
    161c:	21098b04 	addi	r4,r4,9772
    1620:	00005100 	call	510 <uart_puts>
    uart_put_u32(dist_max_cm);
    1624:	d0a00217 	ldw	r2,-32760(gp)
    1628:	1009883a 	mov	r4,r2
    162c:	00005d40 	call	5d4 <uart_put_u32>
    uart_puts("\r\n");
    1630:	01000074 	movhi	r4,1
    1634:	21098d04 	addi	r4,r4,9780
    1638:	00005100 	call	510 <uart_puts>
}
    163c:	0001883a 	nop
    1640:	e037883a 	mov	sp,fp
    1644:	dfc00117 	ldw	ra,4(sp)
    1648:	df000017 	ldw	fp,0(sp)
    164c:	dec00204 	addi	sp,sp,8
    1650:	f800283a 	ret

00001654 <skip_spaces>:

static void skip_spaces(char **pp)
{
    1654:	defffd04 	addi	sp,sp,-12
    1658:	dfc00215 	stw	ra,8(sp)
    165c:	df000115 	stw	fp,4(sp)
    1660:	df000104 	addi	fp,sp,4
    1664:	e13fff15 	stw	r4,-4(fp)
    while (**pp && is_space(**pp)) (*pp)++;
    1668:	00000506 	br	1680 <skip_spaces+0x2c>
    166c:	e0bfff17 	ldw	r2,-4(fp)
    1670:	10800017 	ldw	r2,0(r2)
    1674:	10c00044 	addi	r3,r2,1
    1678:	e0bfff17 	ldw	r2,-4(fp)
    167c:	10c00015 	stw	r3,0(r2)
    1680:	e0bfff17 	ldw	r2,-4(fp)
    1684:	10800017 	ldw	r2,0(r2)
    1688:	10800003 	ldbu	r2,0(r2)
    168c:	10803fcc 	andi	r2,r2,255
    1690:	1080201c 	xori	r2,r2,128
    1694:	10bfe004 	addi	r2,r2,-128
    1698:	10000926 	beq	r2,zero,16c0 <skip_spaces+0x6c>
    169c:	e0bfff17 	ldw	r2,-4(fp)
    16a0:	10800017 	ldw	r2,0(r2)
    16a4:	10800003 	ldbu	r2,0(r2)
    16a8:	10803fcc 	andi	r2,r2,255
    16ac:	1080201c 	xori	r2,r2,128
    16b0:	10bfe004 	addi	r2,r2,-128
    16b4:	1009883a 	mov	r4,r2
    16b8:	00006ac0 	call	6ac <is_space>
    16bc:	103feb1e 	bne	r2,zero,166c <__alt_mem_VGA_Subsystem_Char_Buf_Subsystem_Onchip_SRAM+0xf700166c>
}
    16c0:	0001883a 	nop
    16c4:	e037883a 	mov	sp,fp
    16c8:	dfc00117 	ldw	ra,4(sp)
    16cc:	df000017 	ldw	fp,0(sp)
    16d0:	dec00204 	addi	sp,sp,8
    16d4:	f800283a 	ret

000016d8 <parse_u32_adv>:

static uint32_t parse_u32_adv(char **pp, int *ok)
{
    16d8:	defffa04 	addi	sp,sp,-24
    16dc:	dfc00515 	stw	ra,20(sp)
    16e0:	df000415 	stw	fp,16(sp)
    16e4:	df000404 	addi	fp,sp,16
    16e8:	e13ffe15 	stw	r4,-8(fp)
    16ec:	e17fff15 	stw	r5,-4(fp)
    uint32_t v = 0;
    16f0:	e03ffc15 	stw	zero,-16(fp)
    int any = 0;
    16f4:	e03ffd15 	stw	zero,-12(fp)

    skip_spaces(pp);
    16f8:	e13ffe17 	ldw	r4,-8(fp)
    16fc:	00016540 	call	1654 <skip_spaces>

    while (**pp >= '0' && **pp <= '9') {
    1700:	00001406 	br	1754 <parse_u32_adv+0x7c>
        any = 1;
    1704:	00800044 	movi	r2,1
    1708:	e0bffd15 	stw	r2,-12(fp)
        v = (uint32_t)(v * 10u + (uint32_t)(**pp - '0'));
    170c:	01400284 	movi	r5,10
    1710:	e13ffc17 	ldw	r4,-16(fp)
    1714:	000494c0 	call	494c <__mulsi3>
    1718:	1007883a 	mov	r3,r2
    171c:	e0bffe17 	ldw	r2,-8(fp)
    1720:	10800017 	ldw	r2,0(r2)
    1724:	10800003 	ldbu	r2,0(r2)
    1728:	10803fcc 	andi	r2,r2,255
    172c:	1080201c 	xori	r2,r2,128
    1730:	10bfe004 	addi	r2,r2,-128
    1734:	1885883a 	add	r2,r3,r2
    1738:	10bff404 	addi	r2,r2,-48
    173c:	e0bffc15 	stw	r2,-16(fp)
        (*pp)++;
    1740:	e0bffe17 	ldw	r2,-8(fp)
    1744:	10800017 	ldw	r2,0(r2)
    1748:	10c00044 	addi	r3,r2,1
    174c:	e0bffe17 	ldw	r2,-8(fp)
    1750:	10c00015 	stw	r3,0(r2)
    uint32_t v = 0;
    int any = 0;

    skip_spaces(pp);

    while (**pp >= '0' && **pp <= '9') {
    1754:	e0bffe17 	ldw	r2,-8(fp)
    1758:	10800017 	ldw	r2,0(r2)
    175c:	10800003 	ldbu	r2,0(r2)
    1760:	10803fcc 	andi	r2,r2,255
    1764:	1080201c 	xori	r2,r2,128
    1768:	10bfe004 	addi	r2,r2,-128
    176c:	10800c10 	cmplti	r2,r2,48
    1770:	1000081e 	bne	r2,zero,1794 <parse_u32_adv+0xbc>
    1774:	e0bffe17 	ldw	r2,-8(fp)
    1778:	10800017 	ldw	r2,0(r2)
    177c:	10800003 	ldbu	r2,0(r2)
    1780:	10803fcc 	andi	r2,r2,255
    1784:	1080201c 	xori	r2,r2,128
    1788:	10bfe004 	addi	r2,r2,-128
    178c:	10800e90 	cmplti	r2,r2,58
    1790:	103fdc1e 	bne	r2,zero,1704 <__alt_mem_VGA_Subsystem_Char_Buf_Subsystem_Onchip_SRAM+0xf7001704>
        any = 1;
        v = (uint32_t)(v * 10u + (uint32_t)(**pp - '0'));
        (*pp)++;
    }

    *ok = any;
    1794:	e0bfff17 	ldw	r2,-4(fp)
    1798:	e0fffd17 	ldw	r3,-12(fp)
    179c:	10c00015 	stw	r3,0(r2)
    return v;
    17a0:	e0bffc17 	ldw	r2,-16(fp)
}
    17a4:	e037883a 	mov	sp,fp
    17a8:	dfc00117 	ldw	ra,4(sp)
    17ac:	df000017 	ldw	fp,0(sp)
    17b0:	dec00204 	addi	sp,sp,8
    17b4:	f800283a 	ret

000017b8 <is_run_cmd>:

static int is_run_cmd(const char *ln)
{
    17b8:	defffc04 	addi	sp,sp,-16
    17bc:	dfc00315 	stw	ra,12(sp)
    17c0:	df000215 	stw	fp,8(sp)
    17c4:	df000204 	addi	fp,sp,8
    17c8:	e13fff15 	stw	r4,-4(fp)
    const char *p = ln;
    17cc:	e0bfff17 	ldw	r2,-4(fp)
    17d0:	e0bffe15 	stw	r2,-8(fp)
    while (*p && is_space(*p)) p++;
    17d4:	00000306 	br	17e4 <is_run_cmd+0x2c>
    17d8:	e0bffe17 	ldw	r2,-8(fp)
    17dc:	10800044 	addi	r2,r2,1
    17e0:	e0bffe15 	stw	r2,-8(fp)
    17e4:	e0bffe17 	ldw	r2,-8(fp)
    17e8:	10800003 	ldbu	r2,0(r2)
    17ec:	10803fcc 	andi	r2,r2,255
    17f0:	1080201c 	xori	r2,r2,128
    17f4:	10bfe004 	addi	r2,r2,-128
    17f8:	10000826 	beq	r2,zero,181c <is_run_cmd+0x64>
    17fc:	e0bffe17 	ldw	r2,-8(fp)
    1800:	10800003 	ldbu	r2,0(r2)
    1804:	10803fcc 	andi	r2,r2,255
    1808:	1080201c 	xori	r2,r2,128
    180c:	10bfe004 	addi	r2,r2,-128
    1810:	1009883a 	mov	r4,r2
    1814:	00006ac0 	call	6ac <is_space>
    1818:	103fef1e 	bne	r2,zero,17d8 <__alt_mem_VGA_Subsystem_Char_Buf_Subsystem_Onchip_SRAM+0xf70017d8>
    if (up(p[0]) != 'R') return 0;
    181c:	e0bffe17 	ldw	r2,-8(fp)
    1820:	10800003 	ldbu	r2,0(r2)
    1824:	10803fcc 	andi	r2,r2,255
    1828:	1080201c 	xori	r2,r2,128
    182c:	10bfe004 	addi	r2,r2,-128
    1830:	1009883a 	mov	r4,r2
    1834:	000070c0 	call	70c <up>
    1838:	10803fcc 	andi	r2,r2,255
    183c:	1080201c 	xori	r2,r2,128
    1840:	10bfe004 	addi	r2,r2,-128
    1844:	108014a0 	cmpeqi	r2,r2,82
    1848:	1000021e 	bne	r2,zero,1854 <is_run_cmd+0x9c>
    184c:	0005883a 	mov	r2,zero
    1850:	00003106 	br	1918 <is_run_cmd+0x160>
    if (up(p[1]) != 'U') return 0;
    1854:	e0bffe17 	ldw	r2,-8(fp)
    1858:	10800044 	addi	r2,r2,1
    185c:	10800003 	ldbu	r2,0(r2)
    1860:	10803fcc 	andi	r2,r2,255
    1864:	1080201c 	xori	r2,r2,128
    1868:	10bfe004 	addi	r2,r2,-128
    186c:	1009883a 	mov	r4,r2
    1870:	000070c0 	call	70c <up>
    1874:	10803fcc 	andi	r2,r2,255
    1878:	1080201c 	xori	r2,r2,128
    187c:	10bfe004 	addi	r2,r2,-128
    1880:	10801560 	cmpeqi	r2,r2,85
    1884:	1000021e 	bne	r2,zero,1890 <is_run_cmd+0xd8>
    1888:	0005883a 	mov	r2,zero
    188c:	00002206 	br	1918 <is_run_cmd+0x160>
    if (up(p[2]) != 'N') return 0;
    1890:	e0bffe17 	ldw	r2,-8(fp)
    1894:	10800084 	addi	r2,r2,2
    1898:	10800003 	ldbu	r2,0(r2)
    189c:	10803fcc 	andi	r2,r2,255
    18a0:	1080201c 	xori	r2,r2,128
    18a4:	10bfe004 	addi	r2,r2,-128
    18a8:	1009883a 	mov	r4,r2
    18ac:	000070c0 	call	70c <up>
    18b0:	10803fcc 	andi	r2,r2,255
    18b4:	1080201c 	xori	r2,r2,128
    18b8:	10bfe004 	addi	r2,r2,-128
    18bc:	108013a0 	cmpeqi	r2,r2,78
    18c0:	1000021e 	bne	r2,zero,18cc <is_run_cmd+0x114>
    18c4:	0005883a 	mov	r2,zero
    18c8:	00001306 	br	1918 <is_run_cmd+0x160>
    if (p[3] != '\0' && !is_space(p[3])) return 0;
    18cc:	e0bffe17 	ldw	r2,-8(fp)
    18d0:	108000c4 	addi	r2,r2,3
    18d4:	10800003 	ldbu	r2,0(r2)
    18d8:	10803fcc 	andi	r2,r2,255
    18dc:	1080201c 	xori	r2,r2,128
    18e0:	10bfe004 	addi	r2,r2,-128
    18e4:	10000b26 	beq	r2,zero,1914 <is_run_cmd+0x15c>
    18e8:	e0bffe17 	ldw	r2,-8(fp)
    18ec:	108000c4 	addi	r2,r2,3
    18f0:	10800003 	ldbu	r2,0(r2)
    18f4:	10803fcc 	andi	r2,r2,255
    18f8:	1080201c 	xori	r2,r2,128
    18fc:	10bfe004 	addi	r2,r2,-128
    1900:	1009883a 	mov	r4,r2
    1904:	00006ac0 	call	6ac <is_space>
    1908:	1000021e 	bne	r2,zero,1914 <is_run_cmd+0x15c>
    190c:	0005883a 	mov	r2,zero
    1910:	00000106 	br	1918 <is_run_cmd+0x160>
    return 1;
    1914:	00800044 	movi	r2,1
}
    1918:	e037883a 	mov	sp,fp
    191c:	dfc00117 	ldw	ra,4(sp)
    1920:	df000017 	ldw	fp,0(sp)
    1924:	dec00204 	addi	sp,sp,8
    1928:	f800283a 	ret

0000192c <is_help_cmd>:

static int is_help_cmd(const char *ln)
{
    192c:	defffc04 	addi	sp,sp,-16
    1930:	dfc00315 	stw	ra,12(sp)
    1934:	df000215 	stw	fp,8(sp)
    1938:	df000204 	addi	fp,sp,8
    193c:	e13fff15 	stw	r4,-4(fp)
    const char *p = ln;
    1940:	e0bfff17 	ldw	r2,-4(fp)
    1944:	e0bffe15 	stw	r2,-8(fp)
    while (*p && is_space(*p)) p++;
    1948:	00000306 	br	1958 <is_help_cmd+0x2c>
    194c:	e0bffe17 	ldw	r2,-8(fp)
    1950:	10800044 	addi	r2,r2,1
    1954:	e0bffe15 	stw	r2,-8(fp)
    1958:	e0bffe17 	ldw	r2,-8(fp)
    195c:	10800003 	ldbu	r2,0(r2)
    1960:	10803fcc 	andi	r2,r2,255
    1964:	1080201c 	xori	r2,r2,128
    1968:	10bfe004 	addi	r2,r2,-128
    196c:	10000826 	beq	r2,zero,1990 <is_help_cmd+0x64>
    1970:	e0bffe17 	ldw	r2,-8(fp)
    1974:	10800003 	ldbu	r2,0(r2)
    1978:	10803fcc 	andi	r2,r2,255
    197c:	1080201c 	xori	r2,r2,128
    1980:	10bfe004 	addi	r2,r2,-128
    1984:	1009883a 	mov	r4,r2
    1988:	00006ac0 	call	6ac <is_space>
    198c:	103fef1e 	bne	r2,zero,194c <__alt_mem_VGA_Subsystem_Char_Buf_Subsystem_Onchip_SRAM+0xf700194c>
    return (up(p[0]) == 'H' && up(p[1]) == 'E' && up(p[2]) == 'L' && up(p[3]) == 'P' &&
    1990:	e0bffe17 	ldw	r2,-8(fp)
    1994:	10800003 	ldbu	r2,0(r2)
    1998:	10803fcc 	andi	r2,r2,255
    199c:	1080201c 	xori	r2,r2,128
    19a0:	10bfe004 	addi	r2,r2,-128
    19a4:	1009883a 	mov	r4,r2
    19a8:	000070c0 	call	70c <up>
    19ac:	10803fcc 	andi	r2,r2,255
    19b0:	1080201c 	xori	r2,r2,128
    19b4:	10bfe004 	addi	r2,r2,-128
    19b8:	10801218 	cmpnei	r2,r2,72
    19bc:	1000391e 	bne	r2,zero,1aa4 <is_help_cmd+0x178>
    19c0:	e0bffe17 	ldw	r2,-8(fp)
    19c4:	10800044 	addi	r2,r2,1
    19c8:	10800003 	ldbu	r2,0(r2)
    19cc:	10803fcc 	andi	r2,r2,255
    19d0:	1080201c 	xori	r2,r2,128
    19d4:	10bfe004 	addi	r2,r2,-128
    19d8:	1009883a 	mov	r4,r2
    19dc:	000070c0 	call	70c <up>
    19e0:	10803fcc 	andi	r2,r2,255
    19e4:	1080201c 	xori	r2,r2,128
    19e8:	10bfe004 	addi	r2,r2,-128
    19ec:	10801158 	cmpnei	r2,r2,69
    19f0:	10002c1e 	bne	r2,zero,1aa4 <is_help_cmd+0x178>
    19f4:	e0bffe17 	ldw	r2,-8(fp)
    19f8:	10800084 	addi	r2,r2,2
    19fc:	10800003 	ldbu	r2,0(r2)
    1a00:	10803fcc 	andi	r2,r2,255
    1a04:	1080201c 	xori	r2,r2,128
    1a08:	10bfe004 	addi	r2,r2,-128
    1a0c:	1009883a 	mov	r4,r2
    1a10:	000070c0 	call	70c <up>
    1a14:	10803fcc 	andi	r2,r2,255
    1a18:	1080201c 	xori	r2,r2,128
    1a1c:	10bfe004 	addi	r2,r2,-128
    1a20:	10801318 	cmpnei	r2,r2,76
    1a24:	10001f1e 	bne	r2,zero,1aa4 <is_help_cmd+0x178>
    1a28:	e0bffe17 	ldw	r2,-8(fp)
    1a2c:	108000c4 	addi	r2,r2,3
    1a30:	10800003 	ldbu	r2,0(r2)
    1a34:	10803fcc 	andi	r2,r2,255
    1a38:	1080201c 	xori	r2,r2,128
    1a3c:	10bfe004 	addi	r2,r2,-128
    1a40:	1009883a 	mov	r4,r2
    1a44:	000070c0 	call	70c <up>
    1a48:	10803fcc 	andi	r2,r2,255
    1a4c:	1080201c 	xori	r2,r2,128
    1a50:	10bfe004 	addi	r2,r2,-128
    1a54:	10801418 	cmpnei	r2,r2,80
    1a58:	1000121e 	bne	r2,zero,1aa4 <is_help_cmd+0x178>
            (p[4] == '\0' || is_space(p[4])));
    1a5c:	e0bffe17 	ldw	r2,-8(fp)
    1a60:	10800104 	addi	r2,r2,4
    1a64:	10800003 	ldbu	r2,0(r2)

static int is_help_cmd(const char *ln)
{
    const char *p = ln;
    while (*p && is_space(*p)) p++;
    return (up(p[0]) == 'H' && up(p[1]) == 'E' && up(p[2]) == 'L' && up(p[3]) == 'P' &&
    1a68:	10803fcc 	andi	r2,r2,255
    1a6c:	1080201c 	xori	r2,r2,128
    1a70:	10bfe004 	addi	r2,r2,-128
    1a74:	10000926 	beq	r2,zero,1a9c <is_help_cmd+0x170>
            (p[4] == '\0' || is_space(p[4])));
    1a78:	e0bffe17 	ldw	r2,-8(fp)
    1a7c:	10800104 	addi	r2,r2,4
    1a80:	10800003 	ldbu	r2,0(r2)
    1a84:	10803fcc 	andi	r2,r2,255
    1a88:	1080201c 	xori	r2,r2,128
    1a8c:	10bfe004 	addi	r2,r2,-128
    1a90:	1009883a 	mov	r4,r2
    1a94:	00006ac0 	call	6ac <is_space>
    1a98:	10000226 	beq	r2,zero,1aa4 <is_help_cmd+0x178>

static int is_help_cmd(const char *ln)
{
    const char *p = ln;
    while (*p && is_space(*p)) p++;
    return (up(p[0]) == 'H' && up(p[1]) == 'E' && up(p[2]) == 'L' && up(p[3]) == 'P' &&
    1a9c:	00800044 	movi	r2,1
    1aa0:	00000106 	br	1aa8 <is_help_cmd+0x17c>
    1aa4:	0005883a 	mov	r2,zero
            (p[4] == '\0' || is_space(p[4])));
}
    1aa8:	e037883a 	mov	sp,fp
    1aac:	dfc00117 	ldw	ra,4(sp)
    1ab0:	df000017 	ldw	fp,0(sp)
    1ab4:	dec00204 	addi	sp,sp,8
    1ab8:	f800283a 	ret

00001abc <is_p_cmd>:

static int is_p_cmd(const char *ln)
{
    1abc:	defffc04 	addi	sp,sp,-16
    1ac0:	dfc00315 	stw	ra,12(sp)
    1ac4:	df000215 	stw	fp,8(sp)
    1ac8:	df000204 	addi	fp,sp,8
    1acc:	e13fff15 	stw	r4,-4(fp)
    const char *p = ln;
    1ad0:	e0bfff17 	ldw	r2,-4(fp)
    1ad4:	e0bffe15 	stw	r2,-8(fp)
    while (*p && is_space(*p)) p++;
    1ad8:	00000306 	br	1ae8 <is_p_cmd+0x2c>
    1adc:	e0bffe17 	ldw	r2,-8(fp)
    1ae0:	10800044 	addi	r2,r2,1
    1ae4:	e0bffe15 	stw	r2,-8(fp)
    1ae8:	e0bffe17 	ldw	r2,-8(fp)
    1aec:	10800003 	ldbu	r2,0(r2)
    1af0:	10803fcc 	andi	r2,r2,255
    1af4:	1080201c 	xori	r2,r2,128
    1af8:	10bfe004 	addi	r2,r2,-128
    1afc:	10000826 	beq	r2,zero,1b20 <is_p_cmd+0x64>
    1b00:	e0bffe17 	ldw	r2,-8(fp)
    1b04:	10800003 	ldbu	r2,0(r2)
    1b08:	10803fcc 	andi	r2,r2,255
    1b0c:	1080201c 	xori	r2,r2,128
    1b10:	10bfe004 	addi	r2,r2,-128
    1b14:	1009883a 	mov	r4,r2
    1b18:	00006ac0 	call	6ac <is_space>
    1b1c:	103fef1e 	bne	r2,zero,1adc <__alt_mem_VGA_Subsystem_Char_Buf_Subsystem_Onchip_SRAM+0xf7001adc>
    return (up(p[0]) == 'P' && (p[1] == '\0' || is_space(p[1])));
    1b20:	e0bffe17 	ldw	r2,-8(fp)
    1b24:	10800003 	ldbu	r2,0(r2)
    1b28:	10803fcc 	andi	r2,r2,255
    1b2c:	1080201c 	xori	r2,r2,128
    1b30:	10bfe004 	addi	r2,r2,-128
    1b34:	1009883a 	mov	r4,r2
    1b38:	000070c0 	call	70c <up>
    1b3c:	10803fcc 	andi	r2,r2,255
    1b40:	1080201c 	xori	r2,r2,128
    1b44:	10bfe004 	addi	r2,r2,-128
    1b48:	10801418 	cmpnei	r2,r2,80
    1b4c:	1000121e 	bne	r2,zero,1b98 <is_p_cmd+0xdc>
    1b50:	e0bffe17 	ldw	r2,-8(fp)
    1b54:	10800044 	addi	r2,r2,1
    1b58:	10800003 	ldbu	r2,0(r2)
    1b5c:	10803fcc 	andi	r2,r2,255
    1b60:	1080201c 	xori	r2,r2,128
    1b64:	10bfe004 	addi	r2,r2,-128
    1b68:	10000926 	beq	r2,zero,1b90 <is_p_cmd+0xd4>
    1b6c:	e0bffe17 	ldw	r2,-8(fp)
    1b70:	10800044 	addi	r2,r2,1
    1b74:	10800003 	ldbu	r2,0(r2)
    1b78:	10803fcc 	andi	r2,r2,255
    1b7c:	1080201c 	xori	r2,r2,128
    1b80:	10bfe004 	addi	r2,r2,-128
    1b84:	1009883a 	mov	r4,r2
    1b88:	00006ac0 	call	6ac <is_space>
    1b8c:	10000226 	beq	r2,zero,1b98 <is_p_cmd+0xdc>
    1b90:	00800044 	movi	r2,1
    1b94:	00000106 	br	1b9c <is_p_cmd+0xe0>
    1b98:	0005883a 	mov	r2,zero
}
    1b9c:	e037883a 	mov	sp,fp
    1ba0:	dfc00117 	ldw	ra,4(sp)
    1ba4:	df000017 	ldw	fp,0(sp)
    1ba8:	dec00204 	addi	sp,sp,8
    1bac:	f800283a 	ret

00001bb0 <handle_cmd_line>:

static void handle_cmd_line(char *ln)
{
    1bb0:	defff204 	addi	sp,sp,-56
    1bb4:	dfc00d15 	stw	ra,52(sp)
    1bb8:	df000c15 	stw	fp,48(sp)
    1bbc:	df000c04 	addi	fp,sp,48
    1bc0:	e13fff15 	stw	r4,-4(fp)
    char *p = ln;
    1bc4:	e0bfff17 	ldw	r2,-4(fp)
    1bc8:	e0bffa15 	stw	r2,-24(fp)
    while (*p && is_space(*p)) p++;
    1bcc:	00000306 	br	1bdc <handle_cmd_line+0x2c>
    1bd0:	e0bffa17 	ldw	r2,-24(fp)
    1bd4:	10800044 	addi	r2,r2,1
    1bd8:	e0bffa15 	stw	r2,-24(fp)
    1bdc:	e0bffa17 	ldw	r2,-24(fp)
    1be0:	10800003 	ldbu	r2,0(r2)
    1be4:	10803fcc 	andi	r2,r2,255
    1be8:	1080201c 	xori	r2,r2,128
    1bec:	10bfe004 	addi	r2,r2,-128
    1bf0:	10000826 	beq	r2,zero,1c14 <handle_cmd_line+0x64>
    1bf4:	e0bffa17 	ldw	r2,-24(fp)
    1bf8:	10800003 	ldbu	r2,0(r2)
    1bfc:	10803fcc 	andi	r2,r2,255
    1c00:	1080201c 	xori	r2,r2,128
    1c04:	10bfe004 	addi	r2,r2,-128
    1c08:	1009883a 	mov	r4,r2
    1c0c:	00006ac0 	call	6ac <is_space>
    1c10:	103fef1e 	bne	r2,zero,1bd0 <__alt_mem_VGA_Subsystem_Char_Buf_Subsystem_Onchip_SRAM+0xf7001bd0>
    if (*p == '\0') return;
    1c14:	e0bffa17 	ldw	r2,-24(fp)
    1c18:	10800003 	ldbu	r2,0(r2)
    1c1c:	10803fcc 	andi	r2,r2,255
    1c20:	1080201c 	xori	r2,r2,128
    1c24:	10bfe004 	addi	r2,r2,-128
    1c28:	10008726 	beq	r2,zero,1e48 <handle_cmd_line+0x298>

    char cmd0 = up(*p);
    1c2c:	e0bffa17 	ldw	r2,-24(fp)
    1c30:	10800003 	ldbu	r2,0(r2)
    1c34:	10803fcc 	andi	r2,r2,255
    1c38:	1080201c 	xori	r2,r2,128
    1c3c:	10bfe004 	addi	r2,r2,-128
    1c40:	1009883a 	mov	r4,r2
    1c44:	000070c0 	call	70c <up>
    1c48:	e0bff605 	stb	r2,-40(fp)

    if (cmd0 == 'H') {
    1c4c:	e0bff607 	ldb	r2,-40(fp)
    1c50:	10801218 	cmpnei	r2,r2,72
    1c54:	1000081e 	bne	r2,zero,1c78 <handle_cmd_line+0xc8>
        if (is_help_cmd(p)) { print_help(); return; }
    1c58:	e0bffa17 	ldw	r2,-24(fp)
    1c5c:	1009883a 	mov	r4,r2
    1c60:	000192c0 	call	192c <is_help_cmd>
    1c64:	10000226 	beq	r2,zero,1c70 <handle_cmd_line+0xc0>
    1c68:	000153c0 	call	153c <print_help>
    1c6c:	00007706 	br	1e4c <handle_cmd_line+0x29c>
        reply_unknown();
    1c70:	00008980 	call	898 <reply_unknown>
        return;
    1c74:	00007506 	br	1e4c <handle_cmd_line+0x29c>
    }

    if (cmd0 == 'P') {
    1c78:	e0bff607 	ldb	r2,-40(fp)
    1c7c:	10801418 	cmpnei	r2,r2,80
    1c80:	1000081e 	bne	r2,zero,1ca4 <handle_cmd_line+0xf4>
        if (is_p_cmd(p)) { print_params(); return; }
    1c84:	e0bffa17 	ldw	r2,-24(fp)
    1c88:	1009883a 	mov	r4,r2
    1c8c:	0001abc0 	call	1abc <is_p_cmd>
    1c90:	10000226 	beq	r2,zero,1c9c <handle_cmd_line+0xec>
    1c94:	00015c40 	call	15c4 <print_params>
    1c98:	00006c06 	br	1e4c <handle_cmd_line+0x29c>
        reply_unknown();
    1c9c:	00008980 	call	898 <reply_unknown>
        return;
    1ca0:	00006a06 	br	1e4c <handle_cmd_line+0x29c>
    }

    if (cmd0 == 'R') {
    1ca4:	e0bff607 	ldb	r2,-40(fp)
    1ca8:	10801498 	cmpnei	r2,r2,82
    1cac:	1000311e 	bne	r2,zero,1d74 <handle_cmd_line+0x1c4>
        p++;
    1cb0:	e0bffa17 	ldw	r2,-24(fp)
    1cb4:	10800044 	addi	r2,r2,1
    1cb8:	e0bffa15 	stw	r2,-24(fp)
        int ok1 = 0, ok2 = 0;
    1cbc:	e03ffb15 	stw	zero,-20(fp)
    1cc0:	e03ffc15 	stw	zero,-16(fp)
        uint32_t a = parse_u32_adv(&p, &ok1);
    1cc4:	e0fffb04 	addi	r3,fp,-20
    1cc8:	e0bffa04 	addi	r2,fp,-24
    1ccc:	180b883a 	mov	r5,r3
    1cd0:	1009883a 	mov	r4,r2
    1cd4:	00016d80 	call	16d8 <parse_u32_adv>
    1cd8:	e0bff415 	stw	r2,-48(fp)
        uint32_t b = parse_u32_adv(&p, &ok2);
    1cdc:	e0fffc04 	addi	r3,fp,-16
    1ce0:	e0bffa04 	addi	r2,fp,-24
    1ce4:	180b883a 	mov	r5,r3
    1ce8:	1009883a 	mov	r4,r2
    1cec:	00016d80 	call	16d8 <parse_u32_adv>
    1cf0:	e0bff515 	stw	r2,-44(fp)
        if (!(ok1 && ok2)) { reply_err(); return; }
    1cf4:	e0bffb17 	ldw	r2,-20(fp)
    1cf8:	10000226 	beq	r2,zero,1d04 <handle_cmd_line+0x154>
    1cfc:	e0bffc17 	ldw	r2,-16(fp)
    1d00:	1000021e 	bne	r2,zero,1d0c <handle_cmd_line+0x15c>
    1d04:	00008640 	call	864 <reply_err>
    1d08:	00005006 	br	1e4c <handle_cmd_line+0x29c>
        a = clamp_u32(a, 0u, 180u);
    1d0c:	01802d04 	movi	r6,180
    1d10:	000b883a 	mov	r5,zero
    1d14:	e13ff417 	ldw	r4,-48(fp)
    1d18:	00003700 	call	370 <clamp_u32>
    1d1c:	e0bff415 	stw	r2,-48(fp)
        b = clamp_u32(b, 0u, 180u);
    1d20:	01802d04 	movi	r6,180
    1d24:	000b883a 	mov	r5,zero
    1d28:	e13ff517 	ldw	r4,-44(fp)
    1d2c:	00003700 	call	370 <clamp_u32>
    1d30:	e0bff515 	stw	r2,-44(fp)
        if (a > b) { uint32_t t = a; a = b; b = t; }
    1d34:	e0bff417 	ldw	r2,-48(fp)
    1d38:	e0fff517 	ldw	r3,-44(fp)
    1d3c:	1880062e 	bgeu	r3,r2,1d58 <handle_cmd_line+0x1a8>
    1d40:	e0bff417 	ldw	r2,-48(fp)
    1d44:	e0bff915 	stw	r2,-28(fp)
    1d48:	e0bff517 	ldw	r2,-44(fp)
    1d4c:	e0bff415 	stw	r2,-48(fp)
    1d50:	e0bff917 	ldw	r2,-28(fp)
    1d54:	e0bff515 	stw	r2,-44(fp)
        angle_min = a;
    1d58:	e0bff417 	ldw	r2,-48(fp)
    1d5c:	d0a71515 	stw	r2,-25516(gp)
        angle_max = b;
    1d60:	e0bff517 	ldw	r2,-44(fp)
    1d64:	d0a00015 	stw	r2,-32768(gp)
        reply_ok();
    1d68:	00007c80 	call	7c8 <reply_ok>
        return;
    1d6c:	0001883a 	nop
    1d70:	00003606 	br	1e4c <handle_cmd_line+0x29c>
    }

    if (cmd0 == 'S') {
    1d74:	e0bff607 	ldb	r2,-40(fp)
    1d78:	108014d8 	cmpnei	r2,r2,83
    1d7c:	1000161e 	bne	r2,zero,1dd8 <handle_cmd_line+0x228>
        p++;
    1d80:	e0bffa17 	ldw	r2,-24(fp)
    1d84:	10800044 	addi	r2,r2,1
    1d88:	e0bffa15 	stw	r2,-24(fp)
        int ok1 = 0;
    1d8c:	e03ffd15 	stw	zero,-12(fp)
        uint32_t s = parse_u32_adv(&p, &ok1);
    1d90:	e0fffd04 	addi	r3,fp,-12
    1d94:	e0bffa04 	addi	r2,fp,-24
    1d98:	180b883a 	mov	r5,r3
    1d9c:	1009883a 	mov	r4,r2
    1da0:	00016d80 	call	16d8 <parse_u32_adv>
    1da4:	e0bff815 	stw	r2,-32(fp)
        if (!ok1) { reply_err(); return; }
    1da8:	e0bffd17 	ldw	r2,-12(fp)
    1dac:	1000021e 	bne	r2,zero,1db8 <handle_cmd_line+0x208>
    1db0:	00008640 	call	864 <reply_err>
    1db4:	00002506 	br	1e4c <handle_cmd_line+0x29c>
        step_deg = clamp_u32(s, 1u, 30u);
    1db8:	01800784 	movi	r6,30
    1dbc:	01400044 	movi	r5,1
    1dc0:	e13ff817 	ldw	r4,-32(fp)
    1dc4:	00003700 	call	370 <clamp_u32>
    1dc8:	d0a00115 	stw	r2,-32764(gp)
        reply_ok();
    1dcc:	00007c80 	call	7c8 <reply_ok>
        return;
    1dd0:	0001883a 	nop
    1dd4:	00001d06 	br	1e4c <handle_cmd_line+0x29c>
    }

    if (cmd0 == 'D') {
    1dd8:	e0bff607 	ldb	r2,-40(fp)
    1ddc:	10801118 	cmpnei	r2,r2,68
    1de0:	1000171e 	bne	r2,zero,1e40 <handle_cmd_line+0x290>
        p++;
    1de4:	e0bffa17 	ldw	r2,-24(fp)
    1de8:	10800044 	addi	r2,r2,1
    1dec:	e0bffa15 	stw	r2,-24(fp)
        int ok1 = 0;
    1df0:	e03ffe15 	stw	zero,-8(fp)
        uint32_t d = parse_u32_adv(&p, &ok1);
    1df4:	e0fffe04 	addi	r3,fp,-8
    1df8:	e0bffa04 	addi	r2,fp,-24
    1dfc:	180b883a 	mov	r5,r3
    1e00:	1009883a 	mov	r4,r2
    1e04:	00016d80 	call	16d8 <parse_u32_adv>
    1e08:	e0bff715 	stw	r2,-36(fp)
        if (!ok1) { reply_err(); return; }
    1e0c:	e0bffe17 	ldw	r2,-8(fp)
    1e10:	1000021e 	bne	r2,zero,1e1c <handle_cmd_line+0x26c>
    1e14:	00008640 	call	864 <reply_err>
    1e18:	00000c06 	br	1e4c <handle_cmd_line+0x29c>
        dist_max_cm = clamp_u32(d, 1u, 200u);
    1e1c:	01803204 	movi	r6,200
    1e20:	01400044 	movi	r5,1
    1e24:	e13ff717 	ldw	r4,-36(fp)
    1e28:	00003700 	call	370 <clamp_u32>
    1e2c:	d0a00215 	stw	r2,-32760(gp)
        draw_static();
    1e30:	00014180 	call	1418 <draw_static>
        reply_ok();
    1e34:	00007c80 	call	7c8 <reply_ok>
        return;
    1e38:	0001883a 	nop
    1e3c:	00000306 	br	1e4c <handle_cmd_line+0x29c>
    }

    reply_unknown();
    1e40:	00008980 	call	898 <reply_unknown>
    1e44:	00000106 	br	1e4c <handle_cmd_line+0x29c>

static void handle_cmd_line(char *ln)
{
    char *p = ln;
    while (*p && is_space(*p)) p++;
    if (*p == '\0') return;
    1e48:	0001883a 	nop
        reply_ok();
        return;
    }

    reply_unknown();
}
    1e4c:	e037883a 	mov	sp,fp
    1e50:	dfc00117 	ldw	ra,4(sp)
    1e54:	df000017 	ldw	fp,0(sp)
    1e58:	dec00204 	addi	sp,sp,8
    1e5c:	f800283a 	ret

00001e60 <cmd_wait_and_process>:

static void cmd_wait_and_process(void)
{
    1e60:	defffb04 	addi	sp,sp,-20
    1e64:	dfc00415 	stw	ra,16(sp)
    1e68:	df000315 	stw	fp,12(sp)
    1e6c:	df000304 	addi	fp,sp,12
    static char ln[64];
    int i = 0;
    1e70:	e03ffd15 	stw	zero,-12(fp)

    for (;;) {
        char c = uart_getchar_blocking();
    1e74:	000057c0 	call	57c <uart_getchar_blocking>
    1e78:	e0bffe05 	stb	r2,-8(fp)

        if (c == '\r' || c == '\n') {
    1e7c:	e0bffe07 	ldb	r2,-8(fp)
    1e80:	10800360 	cmpeqi	r2,r2,13
    1e84:	1000031e 	bne	r2,zero,1e94 <cmd_wait_and_process+0x34>
    1e88:	e0bffe07 	ldb	r2,-8(fp)
    1e8c:	10800298 	cmpnei	r2,r2,10
    1e90:	1000191e 	bne	r2,zero,1ef8 <cmd_wait_and_process+0x98>
            ln[i] = '\0';
    1e94:	00800074 	movhi	r2,1
    1e98:	1098f104 	addi	r2,r2,25540
    1e9c:	e0fffd17 	ldw	r3,-12(fp)
    1ea0:	10c5883a 	add	r2,r2,r3
    1ea4:	10000005 	stb	zero,0(r2)

            if (is_run_cmd(ln)) {
    1ea8:	01000074 	movhi	r4,1
    1eac:	2118f104 	addi	r4,r4,25540
    1eb0:	00017b80 	call	17b8 <is_run_cmd>
    1eb4:	10000b26 	beq	r2,zero,1ee4 <cmd_wait_and_process+0x84>
                int start_level = sw0_level();
    1eb8:	00007580 	call	758 <sw0_level>
    1ebc:	e0bfff15 	stw	r2,-4(fp)
                stop_level_sw0 = start_level ? 0 : 1;
    1ec0:	e0bfff17 	ldw	r2,-4(fp)
    1ec4:	1005003a 	cmpeq	r2,r2,zero
    1ec8:	10803fcc 	andi	r2,r2,255
    1ecc:	d0a00315 	stw	r2,-32756(gp)
                draw_static();
    1ed0:	00014180 	call	1418 <draw_static>
                state = STATE_RUN;
    1ed4:	00800044 	movi	r2,1
    1ed8:	d0a71615 	stw	r2,-25512(gp)
                reply_run();
    1edc:	00007fc0 	call	7fc <reply_run>
                return;
    1ee0:	00001106 	br	1f28 <cmd_wait_and_process+0xc8>
            }

            handle_cmd_line(ln);
    1ee4:	01000074 	movhi	r4,1
    1ee8:	2118f104 	addi	r4,r4,25540
    1eec:	0001bb00 	call	1bb0 <handle_cmd_line>
            i = 0;
    1ef0:	e03ffd15 	stw	zero,-12(fp)
    1ef4:	00000b06 	br	1f24 <cmd_wait_and_process+0xc4>
        } else {
            if (i < (int)sizeof(ln) - 1) ln[i++] = c;
    1ef8:	e0bffd17 	ldw	r2,-12(fp)
    1efc:	10800fc8 	cmpgei	r2,r2,63
    1f00:	103fdc1e 	bne	r2,zero,1e74 <__alt_mem_VGA_Subsystem_Char_Buf_Subsystem_Onchip_SRAM+0xf7001e74>
    1f04:	e0fffd17 	ldw	r3,-12(fp)
    1f08:	18800044 	addi	r2,r3,1
    1f0c:	e0bffd15 	stw	r2,-12(fp)
    1f10:	00800074 	movhi	r2,1
    1f14:	1098f104 	addi	r2,r2,25540
    1f18:	10c5883a 	add	r2,r2,r3
    1f1c:	e0fffe03 	ldbu	r3,-8(fp)
    1f20:	10c00005 	stb	r3,0(r2)
        }
    }
    1f24:	003fd306 	br	1e74 <__alt_mem_VGA_Subsystem_Char_Buf_Subsystem_Onchip_SRAM+0xf7001e74>
}
    1f28:	e037883a 	mov	sp,fp
    1f2c:	dfc00117 	ldw	ra,4(sp)
    1f30:	df000017 	ldw	fp,0(sp)
    1f34:	dec00204 	addi	sp,sp,8
    1f38:	f800283a 	ret

00001f3c <init_hex_displays_zero>:

static void init_hex_displays_zero(void)
{
    1f3c:	defffd04 	addi	sp,sp,-12
    1f40:	dfc00215 	stw	ra,8(sp)
    1f44:	df000115 	stw	fp,4(sp)
    1f48:	df000104 	addi	fp,sp,4
    uint32_t z = seg7(0);
    1f4c:	0009883a 	mov	r4,zero
    1f50:	000026c0 	call	26c <seg7>
    1f54:	10803fcc 	andi	r2,r2,255
    1f58:	e0bfff15 	stw	r2,-4(fp)
    IOWR_32DIRECT(HEX3_HEX0_BASE, 0,
    1f5c:	e0bfff17 	ldw	r2,-4(fp)
    1f60:	1006923a 	slli	r3,r2,8
    1f64:	e0bfff17 	ldw	r2,-4(fp)
    1f68:	1886b03a 	or	r3,r3,r2
    1f6c:	e0bfff17 	ldw	r2,-4(fp)
    1f70:	1004943a 	slli	r2,r2,16
    1f74:	1886b03a 	or	r3,r3,r2
    1f78:	e0bfff17 	ldw	r2,-4(fp)
    1f7c:	1004963a 	slli	r2,r2,24
    1f80:	1884b03a 	or	r2,r3,r2
    1f84:	1007883a 	mov	r3,r2
    1f88:	00bfc834 	movhi	r2,65312
    1f8c:	10800804 	addi	r2,r2,32
    1f90:	10c00035 	stwio	r3,0(r2)
        (z << 0) | (z << 8) | (z << 16) | (z << 24));
    IOWR_32DIRECT(HEX5_HEX4_BASE, 0,
    1f94:	e0bfff17 	ldw	r2,-4(fp)
    1f98:	1006923a 	slli	r3,r2,8
    1f9c:	e0bfff17 	ldw	r2,-4(fp)
    1fa0:	1884b03a 	or	r2,r3,r2
    1fa4:	1007883a 	mov	r3,r2
    1fa8:	00bfc834 	movhi	r2,65312
    1fac:	10800c04 	addi	r2,r2,48
    1fb0:	10c00035 	stwio	r3,0(r2)
        (z << 0) | (z << 8));
}
    1fb4:	0001883a 	nop
    1fb8:	e037883a 	mov	sp,fp
    1fbc:	dfc00117 	ldw	ra,4(sp)
    1fc0:	df000017 	ldw	fp,0(sp)
    1fc4:	dec00204 	addi	sp,sp,8
    1fc8:	f800283a 	ret

00001fcc <run_step>:

static void run_step(uint32_t *angle, int *dir)
{
    1fcc:	deffed04 	addi	sp,sp,-76
    1fd0:	dfc01215 	stw	ra,72(sp)
    1fd4:	df001115 	stw	fp,68(sp)
    1fd8:	dc801015 	stw	r18,64(sp)
    1fdc:	dc400f15 	stw	r17,60(sp)
    1fe0:	dc000e15 	stw	r16,56(sp)
    1fe4:	df001104 	addi	fp,sp,68
    1fe8:	e13ffb15 	stw	r4,-20(fp)
    1fec:	e17ffc15 	stw	r5,-16(fp)
    if (*angle < angle_min) *angle = angle_min;
    1ff0:	e0bffb17 	ldw	r2,-20(fp)
    1ff4:	10c00017 	ldw	r3,0(r2)
    1ff8:	d0a71517 	ldw	r2,-25516(gp)
    1ffc:	1880032e 	bgeu	r3,r2,200c <run_step+0x40>
    2000:	d0e71517 	ldw	r3,-25516(gp)
    2004:	e0bffb17 	ldw	r2,-20(fp)
    2008:	10c00015 	stw	r3,0(r2)
    if (*angle > angle_max) *angle = angle_max;
    200c:	e0bffb17 	ldw	r2,-20(fp)
    2010:	10800017 	ldw	r2,0(r2)
    2014:	d0e00017 	ldw	r3,-32768(gp)
    2018:	1880032e 	bgeu	r3,r2,2028 <run_step+0x5c>
    201c:	d0e00017 	ldw	r3,-32768(gp)
    2020:	e0bffb17 	ldw	r2,-20(fp)
    2024:	10c00015 	stw	r3,0(r2)

    IOWR_32DIRECT(SERVOMOTEUR_0_BASE, 0, pos_from_angle(*angle));
    2028:	e0bffb17 	ldw	r2,-20(fp)
    202c:	10800017 	ldw	r2,0(r2)
    2030:	1009883a 	mov	r4,r2
    2034:	00003c40 	call	3c4 <pos_from_angle>
    2038:	1007883a 	mov	r3,r2
    203c:	00810034 	movhi	r2,1024
    2040:	10800104 	addi	r2,r2,4
    2044:	10c00035 	stwio	r3,0(r2)
    usleep(60000);
    2048:	013a9814 	movui	r4,60000
    204c:	000fdd00 	call	fdd0 <usleep>

    uint32_t raw = IORD_32DIRECT(TELEMETRE_0_BASE, 0);
    2050:	00810034 	movhi	r2,1024
    2054:	10800204 	addi	r2,r2,8
    2058:	10800037 	ldwio	r2,0(r2)
    205c:	e0bff115 	stw	r2,-60(fp)
    uint32_t dist = raw & 0x3FFu;
    2060:	e0bff117 	ldw	r2,-60(fp)
    2064:	1080ffcc 	andi	r2,r2,1023
    2068:	e0bff015 	stw	r2,-64(fp)
    if (dist > dist_max_cm) dist = dist_max_cm;
    206c:	d0e00217 	ldw	r3,-32760(gp)
    2070:	e0bff017 	ldw	r2,-64(fp)
    2074:	1880022e 	bgeu	r3,r2,2080 <run_step+0xb4>
    2078:	d0a00217 	ldw	r2,-32760(gp)
    207c:	e0bff015 	stw	r2,-64(fp)

    draw_live_status(*angle, dist);
    2080:	e0bffb17 	ldw	r2,-20(fp)
    2084:	10800017 	ldw	r2,0(r2)
    2088:	e17ff017 	ldw	r5,-64(fp)
    208c:	1009883a 	mov	r4,r2
    2090:	00010f40 	call	10f4 <draw_live_status>

    double rad = (double)(*angle) * PI / 180.0;
    2094:	e0bffb17 	ldw	r2,-20(fp)
    2098:	10800017 	ldw	r2,0(r2)
    209c:	1009883a 	mov	r4,r2
    20a0:	00070180 	call	7018 <__floatunsidf>
    20a4:	1011883a 	mov	r8,r2
    20a8:	1813883a 	mov	r9,r3
    20ac:	01980034 	movhi	r6,24576
    20b0:	01d00274 	movhi	r7,16393
    20b4:	39c87ec4 	addi	r7,r7,8699
    20b8:	4009883a 	mov	r4,r8
    20bc:	480b883a 	mov	r5,r9
    20c0:	0005d540 	call	5d54 <__muldf3>
    20c4:	1009883a 	mov	r4,r2
    20c8:	180b883a 	mov	r5,r3
    20cc:	2005883a 	mov	r2,r4
    20d0:	2807883a 	mov	r3,r5
    20d4:	000d883a 	mov	r6,zero
    20d8:	01d019f4 	movhi	r7,16487
    20dc:	39e00004 	addi	r7,r7,-32768
    20e0:	1009883a 	mov	r4,r2
    20e4:	180b883a 	mov	r5,r3
    20e8:	00052200 	call	5220 <__divdf3>
    20ec:	1009883a 	mov	r4,r2
    20f0:	180b883a 	mov	r5,r3
    20f4:	e13ff215 	stw	r4,-56(fp)
    20f8:	e17ff315 	stw	r5,-52(fp)
    int r_obj = cm_to_px((int)dist);
    20fc:	e0bff017 	ldw	r2,-64(fp)
    2100:	1009883a 	mov	r4,r2
    2104:	00004180 	call	418 <cm_to_px>
    2108:	e0bff415 	stw	r2,-48(fp)

    int x_obj = cx + (int)(cos(rad) * r_obj);
    210c:	e13ff217 	ldw	r4,-56(fp)
    2110:	e17ff317 	ldw	r5,-52(fp)
    2114:	00025900 	call	2590 <cos>
    2118:	1021883a 	mov	r16,r2
    211c:	1823883a 	mov	r17,r3
    2120:	e13ff417 	ldw	r4,-48(fp)
    2124:	0006f3c0 	call	6f3c <__floatsidf>
    2128:	1009883a 	mov	r4,r2
    212c:	180b883a 	mov	r5,r3
    2130:	200d883a 	mov	r6,r4
    2134:	280f883a 	mov	r7,r5
    2138:	8009883a 	mov	r4,r16
    213c:	880b883a 	mov	r5,r17
    2140:	0005d540 	call	5d54 <__muldf3>
    2144:	1009883a 	mov	r4,r2
    2148:	180b883a 	mov	r5,r3
    214c:	2005883a 	mov	r2,r4
    2150:	2807883a 	mov	r3,r5
    2154:	1009883a 	mov	r4,r2
    2158:	180b883a 	mov	r5,r3
    215c:	0006ebc0 	call	6ebc <__fixdfsi>
    2160:	1007883a 	mov	r3,r2
    2164:	d0a71217 	ldw	r2,-25528(gp)
    2168:	1885883a 	add	r2,r3,r2
    216c:	e0bff515 	stw	r2,-44(fp)
    int y_obj = cy - (int)(sin(rad) * r_obj);
    2170:	d4a71317 	ldw	r18,-25524(gp)
    2174:	e13ff217 	ldw	r4,-56(fp)
    2178:	e17ff317 	ldw	r5,-52(fp)
    217c:	000267c0 	call	267c <sin>
    2180:	1021883a 	mov	r16,r2
    2184:	1823883a 	mov	r17,r3
    2188:	e13ff417 	ldw	r4,-48(fp)
    218c:	0006f3c0 	call	6f3c <__floatsidf>
    2190:	1009883a 	mov	r4,r2
    2194:	180b883a 	mov	r5,r3
    2198:	200d883a 	mov	r6,r4
    219c:	280f883a 	mov	r7,r5
    21a0:	8009883a 	mov	r4,r16
    21a4:	880b883a 	mov	r5,r17
    21a8:	0005d540 	call	5d54 <__muldf3>
    21ac:	1009883a 	mov	r4,r2
    21b0:	180b883a 	mov	r5,r3
    21b4:	2005883a 	mov	r2,r4
    21b8:	2807883a 	mov	r3,r5
    21bc:	1009883a 	mov	r4,r2
    21c0:	180b883a 	mov	r5,r3
    21c4:	0006ebc0 	call	6ebc <__fixdfsi>
    21c8:	9085c83a 	sub	r2,r18,r2
    21cc:	e0bff615 	stw	r2,-40(fp)
    int x_max = cx + (int)(cos(rad) * radar_r);
    21d0:	e13ff217 	ldw	r4,-56(fp)
    21d4:	e17ff317 	ldw	r5,-52(fp)
    21d8:	00025900 	call	2590 <cos>
    21dc:	1021883a 	mov	r16,r2
    21e0:	1823883a 	mov	r17,r3
    21e4:	d0a71417 	ldw	r2,-25520(gp)
    21e8:	1009883a 	mov	r4,r2
    21ec:	0006f3c0 	call	6f3c <__floatsidf>
    21f0:	1009883a 	mov	r4,r2
    21f4:	180b883a 	mov	r5,r3
    21f8:	200d883a 	mov	r6,r4
    21fc:	280f883a 	mov	r7,r5
    2200:	8009883a 	mov	r4,r16
    2204:	880b883a 	mov	r5,r17
    2208:	0005d540 	call	5d54 <__muldf3>
    220c:	1009883a 	mov	r4,r2
    2210:	180b883a 	mov	r5,r3
    2214:	2005883a 	mov	r2,r4
    2218:	2807883a 	mov	r3,r5
    221c:	1009883a 	mov	r4,r2
    2220:	180b883a 	mov	r5,r3
    2224:	0006ebc0 	call	6ebc <__fixdfsi>
    2228:	1007883a 	mov	r3,r2
    222c:	d0a71217 	ldw	r2,-25528(gp)
    2230:	1885883a 	add	r2,r3,r2
    2234:	e0bff715 	stw	r2,-36(fp)
    int y_max = cy - (int)(sin(rad) * radar_r);
    2238:	d4a71317 	ldw	r18,-25524(gp)
    223c:	e13ff217 	ldw	r4,-56(fp)
    2240:	e17ff317 	ldw	r5,-52(fp)
    2244:	000267c0 	call	267c <sin>
    2248:	1021883a 	mov	r16,r2
    224c:	1823883a 	mov	r17,r3
    2250:	d0a71417 	ldw	r2,-25520(gp)
    2254:	1009883a 	mov	r4,r2
    2258:	0006f3c0 	call	6f3c <__floatsidf>
    225c:	1009883a 	mov	r4,r2
    2260:	180b883a 	mov	r5,r3
    2264:	200d883a 	mov	r6,r4
    2268:	280f883a 	mov	r7,r5
    226c:	8009883a 	mov	r4,r16
    2270:	880b883a 	mov	r5,r17
    2274:	0005d540 	call	5d54 <__muldf3>
    2278:	1009883a 	mov	r4,r2
    227c:	180b883a 	mov	r5,r3
    2280:	2005883a 	mov	r2,r4
    2284:	2807883a 	mov	r3,r5
    2288:	1009883a 	mov	r4,r2
    228c:	180b883a 	mov	r5,r3
    2290:	0006ebc0 	call	6ebc <__fixdfsi>
    2294:	9085c83a 	sub	r2,r18,r2
    2298:	e0bff815 	stw	r2,-32(fp)

    draw_line(cx, cy, x_obj, y_obj, GREEN);
    229c:	d0e71217 	ldw	r3,-25528(gp)
    22a0:	d1271317 	ldw	r4,-25524(gp)
    22a4:	0081f804 	movi	r2,2016
    22a8:	d8800015 	stw	r2,0(sp)
    22ac:	e1fff617 	ldw	r7,-40(fp)
    22b0:	e1bff517 	ldw	r6,-44(fp)
    22b4:	200b883a 	mov	r5,r4
    22b8:	1809883a 	mov	r4,r3
    22bc:	0000dcc0 	call	dcc <draw_line>
    draw_line(x_obj, y_obj, x_max, y_max, RED);
    22c0:	00be0014 	movui	r2,63488
    22c4:	d8800015 	stw	r2,0(sp)
    22c8:	e1fff817 	ldw	r7,-32(fp)
    22cc:	e1bff717 	ldw	r6,-36(fp)
    22d0:	e17ff617 	ldw	r5,-40(fp)
    22d4:	e13ff517 	ldw	r4,-44(fp)
    22d8:	0000dcc0 	call	dcc <draw_line>

    uint8_t ah, at, au, dh, dt, du;
    split3(*angle, &ah, &at, &au);
    22dc:	e0bffb17 	ldw	r2,-20(fp)
    22e0:	10800017 	ldw	r2,0(r2)
    22e4:	e17ff984 	addi	r5,fp,-26
    22e8:	e13ff944 	addi	r4,fp,-27
    22ec:	e0fff904 	addi	r3,fp,-28
    22f0:	280f883a 	mov	r7,r5
    22f4:	200d883a 	mov	r6,r4
    22f8:	180b883a 	mov	r5,r3
    22fc:	1009883a 	mov	r4,r2
    2300:	00002b80 	call	2b8 <split3>
    split3(dist,  &dh, &dt, &du);
    2304:	e13ffa44 	addi	r4,fp,-23
    2308:	e0fffa04 	addi	r3,fp,-24
    230c:	e0bff9c4 	addi	r2,fp,-25
    2310:	200f883a 	mov	r7,r4
    2314:	180d883a 	mov	r6,r3
    2318:	100b883a 	mov	r5,r2
    231c:	e13ff017 	ldw	r4,-64(fp)
    2320:	00002b80 	call	2b8 <split3>

    IOWR_32DIRECT(HEX3_HEX0_BASE, 0,
    2324:	e0bff983 	ldbu	r2,-26(fp)
    2328:	10803fcc 	andi	r2,r2,255
    232c:	1009883a 	mov	r4,r2
    2330:	000026c0 	call	26c <seg7>
    2334:	14003fcc 	andi	r16,r2,255
    2338:	e0bff943 	ldbu	r2,-27(fp)
    233c:	10803fcc 	andi	r2,r2,255
    2340:	1009883a 	mov	r4,r2
    2344:	000026c0 	call	26c <seg7>
    2348:	10803fcc 	andi	r2,r2,255
    234c:	1004923a 	slli	r2,r2,8
    2350:	80a0b03a 	or	r16,r16,r2
    2354:	e0bff903 	ldbu	r2,-28(fp)
    2358:	10803fcc 	andi	r2,r2,255
    235c:	1009883a 	mov	r4,r2
    2360:	000026c0 	call	26c <seg7>
    2364:	10803fcc 	andi	r2,r2,255
    2368:	1004943a 	slli	r2,r2,16
    236c:	80a0b03a 	or	r16,r16,r2
    2370:	e0bffa43 	ldbu	r2,-23(fp)
    2374:	10803fcc 	andi	r2,r2,255
    2378:	1009883a 	mov	r4,r2
    237c:	000026c0 	call	26c <seg7>
    2380:	10803fcc 	andi	r2,r2,255
    2384:	1004963a 	slli	r2,r2,24
    2388:	8084b03a 	or	r2,r16,r2
    238c:	1007883a 	mov	r3,r2
    2390:	00bfc834 	movhi	r2,65312
    2394:	10800804 	addi	r2,r2,32
    2398:	10c00035 	stwio	r3,0(r2)
        ((uint32_t)seg7(au) << 0)  |
        ((uint32_t)seg7(at) << 8)  |
        ((uint32_t)seg7(ah) << 16) |
        ((uint32_t)seg7(du) << 24));

    IOWR_32DIRECT(HEX5_HEX4_BASE, 0,
    239c:	e0bffa03 	ldbu	r2,-24(fp)
    23a0:	10803fcc 	andi	r2,r2,255
    23a4:	1009883a 	mov	r4,r2
    23a8:	000026c0 	call	26c <seg7>
    23ac:	14003fcc 	andi	r16,r2,255
    23b0:	e0bff9c3 	ldbu	r2,-25(fp)
    23b4:	10803fcc 	andi	r2,r2,255
    23b8:	1009883a 	mov	r4,r2
    23bc:	000026c0 	call	26c <seg7>
    23c0:	10803fcc 	andi	r2,r2,255
    23c4:	1004923a 	slli	r2,r2,8
    23c8:	8084b03a 	or	r2,r16,r2
    23cc:	1007883a 	mov	r3,r2
    23d0:	00bfc834 	movhi	r2,65312
    23d4:	10800c04 	addi	r2,r2,48
    23d8:	10c00035 	stwio	r3,0(r2)
        ((uint32_t)seg7(dt) << 0) |
        ((uint32_t)seg7(dh) << 8));

    if (*dir > 0) {
    23dc:	e0bffc17 	ldw	r2,-16(fp)
    23e0:	10800017 	ldw	r2,0(r2)
    23e4:	0080140e 	bge	zero,r2,2438 <run_step+0x46c>
        if (*angle + step_deg >= angle_max) { *angle = angle_max; *dir = -1; }
    23e8:	e0bffb17 	ldw	r2,-20(fp)
    23ec:	10c00017 	ldw	r3,0(r2)
    23f0:	d0a00117 	ldw	r2,-32764(gp)
    23f4:	1887883a 	add	r3,r3,r2
    23f8:	d0a00017 	ldw	r2,-32768(gp)
    23fc:	18800736 	bltu	r3,r2,241c <run_step+0x450>
    2400:	d0e00017 	ldw	r3,-32768(gp)
    2404:	e0bffb17 	ldw	r2,-20(fp)
    2408:	10c00015 	stw	r3,0(r2)
    240c:	e0bffc17 	ldw	r2,-16(fp)
    2410:	00ffffc4 	movi	r3,-1
    2414:	10c00015 	stw	r3,0(r2)
    2418:	00001a06 	br	2484 <run_step+0x4b8>
        else *angle += step_deg;
    241c:	e0bffb17 	ldw	r2,-20(fp)
    2420:	10c00017 	ldw	r3,0(r2)
    2424:	d0a00117 	ldw	r2,-32764(gp)
    2428:	1887883a 	add	r3,r3,r2
    242c:	e0bffb17 	ldw	r2,-20(fp)
    2430:	10c00015 	stw	r3,0(r2)
    2434:	00001306 	br	2484 <run_step+0x4b8>
    } else {
        if (*angle <= angle_min + step_deg) { *angle = angle_min; *dir = +1; }
    2438:	e0bffb17 	ldw	r2,-20(fp)
    243c:	10800017 	ldw	r2,0(r2)
    2440:	d1271517 	ldw	r4,-25516(gp)
    2444:	d0e00117 	ldw	r3,-32764(gp)
    2448:	20c7883a 	add	r3,r4,r3
    244c:	18800736 	bltu	r3,r2,246c <run_step+0x4a0>
    2450:	d0e71517 	ldw	r3,-25516(gp)
    2454:	e0bffb17 	ldw	r2,-20(fp)
    2458:	10c00015 	stw	r3,0(r2)
    245c:	e0bffc17 	ldw	r2,-16(fp)
    2460:	00c00044 	movi	r3,1
    2464:	10c00015 	stw	r3,0(r2)
    2468:	00000606 	br	2484 <run_step+0x4b8>
        else *angle -= step_deg;
    246c:	e0bffb17 	ldw	r2,-20(fp)
    2470:	10c00017 	ldw	r3,0(r2)
    2474:	d0a00117 	ldw	r2,-32764(gp)
    2478:	1887c83a 	sub	r3,r3,r2
    247c:	e0bffb17 	ldw	r2,-20(fp)
    2480:	10c00015 	stw	r3,0(r2)
    }

    usleep(40000);
    2484:	01271014 	movui	r4,40000
    2488:	000fdd00 	call	fdd0 <usleep>
}
    248c:	0001883a 	nop
    2490:	e6fffd04 	addi	sp,fp,-12
    2494:	dfc00417 	ldw	ra,16(sp)
    2498:	df000317 	ldw	fp,12(sp)
    249c:	dc800217 	ldw	r18,8(sp)
    24a0:	dc400117 	ldw	r17,4(sp)
    24a4:	dc000017 	ldw	r16,0(sp)
    24a8:	dec00504 	addi	sp,sp,20
    24ac:	f800283a 	ret

000024b0 <main>:

int main(void)
{
    24b0:	defff804 	addi	sp,sp,-32
    24b4:	dfc00715 	stw	ra,28(sp)
    24b8:	df000615 	stw	fp,24(sp)
    24bc:	df000604 	addi	fp,sp,24
    volatile int *res = (int *)(PIXEL_BUF_CTRL_BASE + 8);
    24c0:	00bfc834 	movhi	r2,65312
    24c4:	108c0a04 	addi	r2,r2,12328
    24c8:	e0bffa15 	stw	r2,-24(fp)
    int sx = (*res) & 0xFFFF;
    24cc:	e0bffa17 	ldw	r2,-24(fp)
    24d0:	10800017 	ldw	r2,0(r2)
    24d4:	10bfffcc 	andi	r2,r2,65535
    24d8:	e0bffb15 	stw	r2,-20(fp)

    volatile int *rgb = (int *)(RGB_RESAMPLER_BASE);
    24dc:	00810034 	movhi	r2,1024
    24e0:	e0bffc15 	stw	r2,-16(fp)
    int db = (*rgb) & 0x3F;
    24e4:	e0bffc17 	ldw	r2,-16(fp)
    24e8:	10800017 	ldw	r2,0(r2)
    24ec:	10800fcc 	andi	r2,r2,63
    24f0:	e0bffd15 	stw	r2,-12(fp)

    res_offset = (sx == 160) ? 1 : 0;
    24f4:	e0bffb17 	ldw	r2,-20(fp)
    24f8:	10802820 	cmpeqi	r2,r2,160
    24fc:	10803fcc 	andi	r2,r2,255
    2500:	d0a71015 	stw	r2,-25536(gp)
    col_offset = (db == 8) ? 1 : 0;
    2504:	e0bffd17 	ldw	r2,-12(fp)
    2508:	10800220 	cmpeqi	r2,r2,8
    250c:	10803fcc 	andi	r2,r2,255
    2510:	d0a71115 	stw	r2,-25532(gp)

    cx = SCREEN_W / 2;
    2514:	00802804 	movi	r2,160
    2518:	d0a71215 	stw	r2,-25528(gp)
    cy = SCREEN_H - 10;
    251c:	00803984 	movi	r2,230
    2520:	d0a71315 	stw	r2,-25524(gp)
    radar_r = 200;
    2524:	00803204 	movi	r2,200
    2528:	d0a71415 	stw	r2,-25520(gp)

    draw_static();
    252c:	00014180 	call	1418 <draw_static>
    init_hex_displays_zero();
    2530:	0001f3c0 	call	1f3c <init_hex_displays_zero>
    msg_init();
    2534:	00007940 	call	794 <msg_init>

    uint32_t angle = 0;
    2538:	e03ffe15 	stw	zero,-8(fp)
    int dir = +1;
    253c:	00800044 	movi	r2,1
    2540:	e0bfff15 	stw	r2,-4(fp)

    for (;;) {
        if (state == STATE_CMD) {
    2544:	d0a71617 	ldw	r2,-25512(gp)
    2548:	1000021e 	bne	r2,zero,2554 <main+0xa4>
            cmd_wait_and_process();
    254c:	0001e600 	call	1e60 <cmd_wait_and_process>
            continue;
    2550:	00000e06 	br	258c <main+0xdc>
        }

        if (sw0_level() == stop_level_sw0) {
    2554:	00007580 	call	758 <sw0_level>
    2558:	1007883a 	mov	r3,r2
    255c:	d0a00317 	ldw	r2,-32756(gp)
    2560:	1880051e 	bne	r3,r2,2578 <main+0xc8>
            state = STATE_CMD;
    2564:	d0271615 	stw	zero,-25512(gp)
            reply_stop();
    2568:	00008300 	call	830 <reply_stop>
            init_hex_displays_zero();
    256c:	0001f3c0 	call	1f3c <init_hex_displays_zero>
            msg_init();
    2570:	00007940 	call	794 <msg_init>
            continue;
    2574:	00000506 	br	258c <main+0xdc>
        }

        run_step(&angle, &dir);
    2578:	e0ffff04 	addi	r3,fp,-4
    257c:	e0bffe04 	addi	r2,fp,-8
    2580:	180b883a 	mov	r5,r3
    2584:	1009883a 	mov	r4,r2
    2588:	0001fcc0 	call	1fcc <run_step>
    }
    258c:	003fed06 	br	2544 <__alt_mem_VGA_Subsystem_Char_Buf_Subsystem_Onchip_SRAM+0xf7002544>

00002590 <cos>:
    2590:	00a00034 	movhi	r2,32768
    2594:	defffa04 	addi	sp,sp,-24
    2598:	10bfffc4 	addi	r2,r2,-1
    259c:	00cffa74 	movhi	r3,16361
    25a0:	dfc00515 	stw	ra,20(sp)
    25a4:	2884703a 	and	r2,r5,r2
    25a8:	18c87ec4 	addi	r3,r3,8699
    25ac:	1880180e 	bge	r3,r2,2610 <cos+0x80>
    25b0:	00dffc34 	movhi	r3,32752
    25b4:	18ffffc4 	addi	r3,r3,-1
    25b8:	1880060e 	bge	r3,r2,25d4 <cos+0x44>
    25bc:	280f883a 	mov	r7,r5
    25c0:	200d883a 	mov	r6,r4
    25c4:	00065c00 	call	65c0 <__subdf3>
    25c8:	dfc00517 	ldw	ra,20(sp)
    25cc:	dec00604 	addi	sp,sp,24
    25d0:	f800283a 	ret
    25d4:	d9800104 	addi	r6,sp,4
    25d8:	000276c0 	call	276c <__ieee754_rem_pio2>
    25dc:	108000cc 	andi	r2,r2,3
    25e0:	00c00044 	movi	r3,1
    25e4:	10c01726 	beq	r2,r3,2644 <cos+0xb4>
    25e8:	01000084 	movi	r4,2
    25ec:	11000e26 	beq	r2,r4,2628 <cos+0x98>
    25f0:	10001c26 	beq	r2,zero,2664 <cos+0xd4>
    25f4:	d9800317 	ldw	r6,12(sp)
    25f8:	d9c00417 	ldw	r7,16(sp)
    25fc:	d9000117 	ldw	r4,4(sp)
    2600:	d9400217 	ldw	r5,8(sp)
    2604:	d8c00015 	stw	r3,0(sp)
    2608:	00041140 	call	4114 <__kernel_sin>
    260c:	003fee06 	br	25c8 <__alt_mem_VGA_Subsystem_Char_Buf_Subsystem_Onchip_SRAM+0xf70025c8>
    2610:	000d883a 	mov	r6,zero
    2614:	000f883a 	mov	r7,zero
    2618:	0002ed80 	call	2ed8 <__kernel_cos>
    261c:	dfc00517 	ldw	ra,20(sp)
    2620:	dec00604 	addi	sp,sp,24
    2624:	f800283a 	ret
    2628:	d9800317 	ldw	r6,12(sp)
    262c:	d9c00417 	ldw	r7,16(sp)
    2630:	d9000117 	ldw	r4,4(sp)
    2634:	d9400217 	ldw	r5,8(sp)
    2638:	0002ed80 	call	2ed8 <__kernel_cos>
    263c:	18e0003c 	xorhi	r3,r3,32768
    2640:	003fe106 	br	25c8 <__alt_mem_VGA_Subsystem_Char_Buf_Subsystem_Onchip_SRAM+0xf70025c8>
    2644:	d9800317 	ldw	r6,12(sp)
    2648:	d9c00417 	ldw	r7,16(sp)
    264c:	d9000117 	ldw	r4,4(sp)
    2650:	d9400217 	ldw	r5,8(sp)
    2654:	d8800015 	stw	r2,0(sp)
    2658:	00041140 	call	4114 <__kernel_sin>
    265c:	18e0003c 	xorhi	r3,r3,32768
    2660:	003fd906 	br	25c8 <__alt_mem_VGA_Subsystem_Char_Buf_Subsystem_Onchip_SRAM+0xf70025c8>
    2664:	d9800317 	ldw	r6,12(sp)
    2668:	d9c00417 	ldw	r7,16(sp)
    266c:	d9000117 	ldw	r4,4(sp)
    2670:	d9400217 	ldw	r5,8(sp)
    2674:	0002ed80 	call	2ed8 <__kernel_cos>
    2678:	003fd306 	br	25c8 <__alt_mem_VGA_Subsystem_Char_Buf_Subsystem_Onchip_SRAM+0xf70025c8>

0000267c <sin>:
    267c:	00a00034 	movhi	r2,32768
    2680:	defffa04 	addi	sp,sp,-24
    2684:	10bfffc4 	addi	r2,r2,-1
    2688:	00cffa74 	movhi	r3,16361
    268c:	dfc00515 	stw	ra,20(sp)
    2690:	2884703a 	and	r2,r5,r2
    2694:	18c87ec4 	addi	r3,r3,8699
    2698:	1880180e 	bge	r3,r2,26fc <sin+0x80>
    269c:	00dffc34 	movhi	r3,32752
    26a0:	18ffffc4 	addi	r3,r3,-1
    26a4:	1880060e 	bge	r3,r2,26c0 <sin+0x44>
    26a8:	280f883a 	mov	r7,r5
    26ac:	200d883a 	mov	r6,r4
    26b0:	00065c00 	call	65c0 <__subdf3>
    26b4:	dfc00517 	ldw	ra,20(sp)
    26b8:	dec00604 	addi	sp,sp,24
    26bc:	f800283a 	ret
    26c0:	d9800104 	addi	r6,sp,4
    26c4:	000276c0 	call	276c <__ieee754_rem_pio2>
    26c8:	108000cc 	andi	r2,r2,3
    26cc:	00c00044 	movi	r3,1
    26d0:	10c01926 	beq	r2,r3,2738 <sin+0xbc>
    26d4:	01000084 	movi	r4,2
    26d8:	11000f26 	beq	r2,r4,2718 <sin+0x9c>
    26dc:	10001c26 	beq	r2,zero,2750 <sin+0xd4>
    26e0:	d9800317 	ldw	r6,12(sp)
    26e4:	d9c00417 	ldw	r7,16(sp)
    26e8:	d9000117 	ldw	r4,4(sp)
    26ec:	d9400217 	ldw	r5,8(sp)
    26f0:	0002ed80 	call	2ed8 <__kernel_cos>
    26f4:	18e0003c 	xorhi	r3,r3,32768
    26f8:	003fee06 	br	26b4 <__alt_mem_VGA_Subsystem_Char_Buf_Subsystem_Onchip_SRAM+0xf70026b4>
    26fc:	d8000015 	stw	zero,0(sp)
    2700:	000d883a 	mov	r6,zero
    2704:	000f883a 	mov	r7,zero
    2708:	00041140 	call	4114 <__kernel_sin>
    270c:	dfc00517 	ldw	ra,20(sp)
    2710:	dec00604 	addi	sp,sp,24
    2714:	f800283a 	ret
    2718:	d9800317 	ldw	r6,12(sp)
    271c:	d9c00417 	ldw	r7,16(sp)
    2720:	d9000117 	ldw	r4,4(sp)
    2724:	d9400217 	ldw	r5,8(sp)
    2728:	d8c00015 	stw	r3,0(sp)
    272c:	00041140 	call	4114 <__kernel_sin>
    2730:	18e0003c 	xorhi	r3,r3,32768
    2734:	003fdf06 	br	26b4 <__alt_mem_VGA_Subsystem_Char_Buf_Subsystem_Onchip_SRAM+0xf70026b4>
    2738:	d9800317 	ldw	r6,12(sp)
    273c:	d9c00417 	ldw	r7,16(sp)
    2740:	d9000117 	ldw	r4,4(sp)
    2744:	d9400217 	ldw	r5,8(sp)
    2748:	0002ed80 	call	2ed8 <__kernel_cos>
    274c:	003fd906 	br	26b4 <__alt_mem_VGA_Subsystem_Char_Buf_Subsystem_Onchip_SRAM+0xf70026b4>
    2750:	d9800317 	ldw	r6,12(sp)
    2754:	d9c00417 	ldw	r7,16(sp)
    2758:	d9000117 	ldw	r4,4(sp)
    275c:	d9400217 	ldw	r5,8(sp)
    2760:	d8c00015 	stw	r3,0(sp)
    2764:	00041140 	call	4114 <__kernel_sin>
    2768:	003fd206 	br	26b4 <__alt_mem_VGA_Subsystem_Char_Buf_Subsystem_Onchip_SRAM+0xf70026b4>

0000276c <__ieee754_rem_pio2>:
    276c:	02200034 	movhi	r8,32768
    2770:	deffea04 	addi	sp,sp,-88
    2774:	423fffc4 	addi	r8,r8,-1
    2778:	00cffa74 	movhi	r3,16361
    277c:	ddc01315 	stw	r23,76(sp)
    2780:	dc400d15 	stw	r17,52(sp)
    2784:	dfc01515 	stw	ra,84(sp)
    2788:	df001415 	stw	fp,80(sp)
    278c:	dd801215 	stw	r22,72(sp)
    2790:	dd401115 	stw	r21,68(sp)
    2794:	dd001015 	stw	r20,64(sp)
    2798:	dcc00f15 	stw	r19,60(sp)
    279c:	dc800e15 	stw	r18,56(sp)
    27a0:	dc000c15 	stw	r16,48(sp)
    27a4:	2a2e703a 	and	r23,r5,r8
    27a8:	18c87ec4 	addi	r3,r3,8699
    27ac:	2823883a 	mov	r17,r5
    27b0:	1dc0790e 	bge	r3,r23,2998 <__ieee754_rem_pio2+0x22c>
    27b4:	009000f4 	movhi	r2,16387
    27b8:	10b65ec4 	addi	r2,r2,-9861
    27bc:	3021883a 	mov	r16,r6
    27c0:	2027883a 	mov	r19,r4
    27c4:	15c02316 	blt	r2,r23,2854 <__ieee754_rem_pio2+0xe8>
    27c8:	01cffe74 	movhi	r7,16377
    27cc:	39c87ec4 	addi	r7,r7,8699
    27d0:	01951034 	movhi	r6,21568
    27d4:	01417a0e 	bge	zero,r5,2dc0 <__ieee754_rem_pio2+0x654>
    27d8:	00065c00 	call	65c0 <__subdf3>
    27dc:	1025883a 	mov	r18,r2
    27e0:	008ffe74 	movhi	r2,16377
    27e4:	10887ec4 	addi	r2,r2,8699
    27e8:	1823883a 	mov	r17,r3
    27ec:	b8808426 	beq	r23,r2,2a00 <__ieee754_rem_pio2+0x294>
    27f0:	018698b4 	movhi	r6,6754
    27f4:	01cf7474 	movhi	r7,15825
    27f8:	3198cc44 	addi	r6,r6,25393
    27fc:	39ed1844 	addi	r7,r7,-19359
    2800:	9009883a 	mov	r4,r18
    2804:	180b883a 	mov	r5,r3
    2808:	00065c00 	call	65c0 <__subdf3>
    280c:	100d883a 	mov	r6,r2
    2810:	180f883a 	mov	r7,r3
    2814:	9009883a 	mov	r4,r18
    2818:	880b883a 	mov	r5,r17
    281c:	80800015 	stw	r2,0(r16)
    2820:	80c00115 	stw	r3,4(r16)
    2824:	00065c00 	call	65c0 <__subdf3>
    2828:	018698b4 	movhi	r6,6754
    282c:	01cf7474 	movhi	r7,15825
    2830:	3198cc44 	addi	r6,r6,25393
    2834:	39ed1844 	addi	r7,r7,-19359
    2838:	1009883a 	mov	r4,r2
    283c:	180b883a 	mov	r5,r3
    2840:	00065c00 	call	65c0 <__subdf3>
    2844:	80800215 	stw	r2,8(r16)
    2848:	80c00315 	stw	r3,12(r16)
    284c:	00800044 	movi	r2,1
    2850:	00005606 	br	29ac <__ieee754_rem_pio2+0x240>
    2854:	00904e74 	movhi	r2,16697
    2858:	10887ec4 	addi	r2,r2,8699
    285c:	15c0830e 	bge	r2,r23,2a6c <__ieee754_rem_pio2+0x300>
    2860:	009ffc34 	movhi	r2,32752
    2864:	10bfffc4 	addi	r2,r2,-1
    2868:	15c05c16 	blt	r2,r23,29dc <__ieee754_rem_pio2+0x270>
    286c:	b829d53a 	srai	r20,r23,20
    2870:	a53efa84 	addi	r20,r20,-1046
    2874:	a024953a 	slli	r18,r20,20
    2878:	bca5c83a 	sub	r18,r23,r18
    287c:	900b883a 	mov	r5,r18
    2880:	0006ebc0 	call	6ebc <__fixdfsi>
    2884:	1009883a 	mov	r4,r2
    2888:	0006f3c0 	call	6f3c <__floatsidf>
    288c:	9809883a 	mov	r4,r19
    2890:	900b883a 	mov	r5,r18
    2894:	100d883a 	mov	r6,r2
    2898:	180f883a 	mov	r7,r3
    289c:	d8800215 	stw	r2,8(sp)
    28a0:	d8c00315 	stw	r3,12(sp)
    28a4:	00065c00 	call	65c0 <__subdf3>
    28a8:	000d883a 	mov	r6,zero
    28ac:	01d05c34 	movhi	r7,16752
    28b0:	1009883a 	mov	r4,r2
    28b4:	180b883a 	mov	r5,r3
    28b8:	0005d540 	call	5d54 <__muldf3>
    28bc:	180b883a 	mov	r5,r3
    28c0:	1009883a 	mov	r4,r2
    28c4:	182b883a 	mov	r21,r3
    28c8:	102d883a 	mov	r22,r2
    28cc:	0006ebc0 	call	6ebc <__fixdfsi>
    28d0:	1009883a 	mov	r4,r2
    28d4:	0006f3c0 	call	6f3c <__floatsidf>
    28d8:	100d883a 	mov	r6,r2
    28dc:	180f883a 	mov	r7,r3
    28e0:	b009883a 	mov	r4,r22
    28e4:	a80b883a 	mov	r5,r21
    28e8:	1027883a 	mov	r19,r2
    28ec:	1825883a 	mov	r18,r3
    28f0:	d8800415 	stw	r2,16(sp)
    28f4:	d8c00515 	stw	r3,20(sp)
    28f8:	00065c00 	call	65c0 <__subdf3>
    28fc:	000d883a 	mov	r6,zero
    2900:	01d05c34 	movhi	r7,16752
    2904:	1009883a 	mov	r4,r2
    2908:	180b883a 	mov	r5,r3
    290c:	0005d540 	call	5d54 <__muldf3>
    2910:	000d883a 	mov	r6,zero
    2914:	000f883a 	mov	r7,zero
    2918:	1009883a 	mov	r4,r2
    291c:	180b883a 	mov	r5,r3
    2920:	d8800615 	stw	r2,24(sp)
    2924:	d8c00715 	stw	r3,28(sp)
    2928:	0005bf00 	call	5bf0 <__eqdf2>
    292c:	1001431e 	bne	r2,zero,2e3c <__ieee754_rem_pio2+0x6d0>
    2930:	000f883a 	mov	r7,zero
    2934:	000d883a 	mov	r6,zero
    2938:	9809883a 	mov	r4,r19
    293c:	900b883a 	mov	r5,r18
    2940:	0005bf00 	call	5bf0 <__eqdf2>
    2944:	100f003a 	cmpeq	r7,r2,zero
    2948:	00800084 	movi	r2,2
    294c:	11cfc83a 	sub	r7,r2,r7
    2950:	00800084 	movi	r2,2
    2954:	d8800015 	stw	r2,0(sp)
    2958:	00800074 	movhi	r2,1
    295c:	1089ae04 	addi	r2,r2,9912
    2960:	d8800115 	stw	r2,4(sp)
    2964:	a00d883a 	mov	r6,r20
    2968:	800b883a 	mov	r5,r16
    296c:	d9000204 	addi	r4,sp,8
    2970:	000337c0 	call	337c <__kernel_rem_pio2>
    2974:	88000d0e 	bge	r17,zero,29ac <__ieee754_rem_pio2+0x240>
    2978:	81000117 	ldw	r4,4(r16)
    297c:	80c00317 	ldw	r3,12(r16)
    2980:	0085c83a 	sub	r2,zero,r2
    2984:	2120003c 	xorhi	r4,r4,32768
    2988:	18e0003c 	xorhi	r3,r3,32768
    298c:	81000115 	stw	r4,4(r16)
    2990:	80c00315 	stw	r3,12(r16)
    2994:	00000506 	br	29ac <__ieee754_rem_pio2+0x240>
    2998:	31000015 	stw	r4,0(r6)
    299c:	31400115 	stw	r5,4(r6)
    29a0:	30000215 	stw	zero,8(r6)
    29a4:	30000315 	stw	zero,12(r6)
    29a8:	0005883a 	mov	r2,zero
    29ac:	dfc01517 	ldw	ra,84(sp)
    29b0:	df001417 	ldw	fp,80(sp)
    29b4:	ddc01317 	ldw	r23,76(sp)
    29b8:	dd801217 	ldw	r22,72(sp)
    29bc:	dd401117 	ldw	r21,68(sp)
    29c0:	dd001017 	ldw	r20,64(sp)
    29c4:	dcc00f17 	ldw	r19,60(sp)
    29c8:	dc800e17 	ldw	r18,56(sp)
    29cc:	dc400d17 	ldw	r17,52(sp)
    29d0:	dc000c17 	ldw	r16,48(sp)
    29d4:	dec01604 	addi	sp,sp,88
    29d8:	f800283a 	ret
    29dc:	200d883a 	mov	r6,r4
    29e0:	280f883a 	mov	r7,r5
    29e4:	00065c00 	call	65c0 <__subdf3>
    29e8:	80800215 	stw	r2,8(r16)
    29ec:	80800015 	stw	r2,0(r16)
    29f0:	80c00315 	stw	r3,12(r16)
    29f4:	80c00115 	stw	r3,4(r16)
    29f8:	0005883a 	mov	r2,zero
    29fc:	003feb06 	br	29ac <__alt_mem_VGA_Subsystem_Char_Buf_Subsystem_Onchip_SRAM+0xf70029ac>
    2a00:	01cf7474 	movhi	r7,15825
    2a04:	9009883a 	mov	r4,r18
    2a08:	39ed1844 	addi	r7,r7,-19359
    2a0c:	01869834 	movhi	r6,6752
    2a10:	180b883a 	mov	r5,r3
    2a14:	00065c00 	call	65c0 <__subdf3>
    2a18:	018b80f4 	movhi	r6,11779
    2a1c:	01cee8f4 	movhi	r7,15267
    2a20:	319c1cc4 	addi	r6,r6,28787
    2a24:	39c66284 	addi	r7,r7,6538
    2a28:	1009883a 	mov	r4,r2
    2a2c:	180b883a 	mov	r5,r3
    2a30:	1025883a 	mov	r18,r2
    2a34:	1823883a 	mov	r17,r3
    2a38:	00065c00 	call	65c0 <__subdf3>
    2a3c:	100d883a 	mov	r6,r2
    2a40:	180f883a 	mov	r7,r3
    2a44:	9009883a 	mov	r4,r18
    2a48:	880b883a 	mov	r5,r17
    2a4c:	80800015 	stw	r2,0(r16)
    2a50:	80c00115 	stw	r3,4(r16)
    2a54:	00065c00 	call	65c0 <__subdf3>
    2a58:	018b80f4 	movhi	r6,11779
    2a5c:	01cee8f4 	movhi	r7,15267
    2a60:	319c1cc4 	addi	r6,r6,28787
    2a64:	39c66284 	addi	r7,r7,6538
    2a68:	003f7306 	br	2838 <__alt_mem_VGA_Subsystem_Char_Buf_Subsystem_Onchip_SRAM+0xf7002838>
    2a6c:	00043e00 	call	43e0 <fabs>
    2a70:	019b72b4 	movhi	r6,28106
    2a74:	01cff934 	movhi	r7,16356
    2a78:	31b220c4 	addi	r6,r6,-14205
    2a7c:	39d7cc04 	addi	r7,r7,24368
    2a80:	1009883a 	mov	r4,r2
    2a84:	180b883a 	mov	r5,r3
    2a88:	102d883a 	mov	r22,r2
    2a8c:	182b883a 	mov	r21,r3
    2a90:	0005d540 	call	5d54 <__muldf3>
    2a94:	000d883a 	mov	r6,zero
    2a98:	01cff834 	movhi	r7,16352
    2a9c:	1009883a 	mov	r4,r2
    2aa0:	180b883a 	mov	r5,r3
    2aa4:	00049740 	call	4974 <__adddf3>
    2aa8:	180b883a 	mov	r5,r3
    2aac:	1009883a 	mov	r4,r2
    2ab0:	0006ebc0 	call	6ebc <__fixdfsi>
    2ab4:	1009883a 	mov	r4,r2
    2ab8:	1025883a 	mov	r18,r2
    2abc:	0006f3c0 	call	6f3c <__floatsidf>
    2ac0:	01cffe74 	movhi	r7,16377
    2ac4:	39c87ec4 	addi	r7,r7,8699
    2ac8:	01951034 	movhi	r6,21568
    2acc:	1009883a 	mov	r4,r2
    2ad0:	180b883a 	mov	r5,r3
    2ad4:	1029883a 	mov	r20,r2
    2ad8:	1827883a 	mov	r19,r3
    2adc:	0005d540 	call	5d54 <__muldf3>
    2ae0:	b009883a 	mov	r4,r22
    2ae4:	a80b883a 	mov	r5,r21
    2ae8:	100d883a 	mov	r6,r2
    2aec:	180f883a 	mov	r7,r3
    2af0:	00065c00 	call	65c0 <__subdf3>
    2af4:	018698b4 	movhi	r6,6754
    2af8:	01cf7474 	movhi	r7,15825
    2afc:	a009883a 	mov	r4,r20
    2b00:	3198cc44 	addi	r6,r6,25393
    2b04:	39ed1844 	addi	r7,r7,-19359
    2b08:	980b883a 	mov	r5,r19
    2b0c:	1039883a 	mov	fp,r2
    2b10:	d8c00815 	stw	r3,32(sp)
    2b14:	0005d540 	call	5d54 <__muldf3>
    2b18:	010007c4 	movi	r4,31
    2b1c:	e017883a 	mov	r11,fp
    2b20:	da800817 	ldw	r10,32(sp)
    2b24:	102d883a 	mov	r22,r2
    2b28:	182b883a 	mov	r21,r3
    2b2c:	24802816 	blt	r4,r18,2bd0 <__ieee754_rem_pio2+0x464>
    2b30:	913fffc4 	addi	r4,r18,-1
    2b34:	2109883a 	add	r4,r4,r4
    2b38:	01400074 	movhi	r5,1
    2b3c:	2109883a 	add	r4,r4,r4
    2b40:	29498e04 	addi	r5,r5,9784
    2b44:	2909883a 	add	r4,r5,r4
    2b48:	21000017 	ldw	r4,0(r4)
    2b4c:	b9002026 	beq	r23,r4,2bd0 <__ieee754_rem_pio2+0x464>
    2b50:	100d883a 	mov	r6,r2
    2b54:	180f883a 	mov	r7,r3
    2b58:	e009883a 	mov	r4,fp
    2b5c:	500b883a 	mov	r5,r10
    2b60:	da800b15 	stw	r10,44(sp)
    2b64:	df000a15 	stw	fp,40(sp)
    2b68:	00065c00 	call	65c0 <__subdf3>
    2b6c:	da800b17 	ldw	r10,44(sp)
    2b70:	dac00a17 	ldw	r11,40(sp)
    2b74:	1019883a 	mov	r12,r2
    2b78:	1813883a 	mov	r9,r3
    2b7c:	80800015 	stw	r2,0(r16)
    2b80:	80c00115 	stw	r3,4(r16)
    2b84:	600d883a 	mov	r6,r12
    2b88:	480f883a 	mov	r7,r9
    2b8c:	5809883a 	mov	r4,r11
    2b90:	500b883a 	mov	r5,r10
    2b94:	da400b15 	stw	r9,44(sp)
    2b98:	db000a15 	stw	r12,40(sp)
    2b9c:	00065c00 	call	65c0 <__subdf3>
    2ba0:	b00d883a 	mov	r6,r22
    2ba4:	a80f883a 	mov	r7,r21
    2ba8:	1009883a 	mov	r4,r2
    2bac:	180b883a 	mov	r5,r3
    2bb0:	00065c00 	call	65c0 <__subdf3>
    2bb4:	80800215 	stw	r2,8(r16)
    2bb8:	80c00315 	stw	r3,12(r16)
    2bbc:	da400b17 	ldw	r9,44(sp)
    2bc0:	db000a17 	ldw	r12,40(sp)
    2bc4:	88009f16 	blt	r17,zero,2e44 <__ieee754_rem_pio2+0x6d8>
    2bc8:	9005883a 	mov	r2,r18
    2bcc:	003f7706 	br	29ac <__alt_mem_VGA_Subsystem_Char_Buf_Subsystem_Onchip_SRAM+0xf70029ac>
    2bd0:	d9400817 	ldw	r5,32(sp)
    2bd4:	100d883a 	mov	r6,r2
    2bd8:	180f883a 	mov	r7,r3
    2bdc:	e009883a 	mov	r4,fp
    2be0:	da800b15 	stw	r10,44(sp)
    2be4:	dac00a15 	stw	r11,40(sp)
    2be8:	00065c00 	call	65c0 <__subdf3>
    2bec:	1019883a 	mov	r12,r2
    2bf0:	1804d53a 	srli	r2,r3,20
    2bf4:	b811d53a 	srai	r8,r23,20
    2bf8:	1813883a 	mov	r9,r3
    2bfc:	1081ffcc 	andi	r2,r2,2047
    2c00:	80c00115 	stw	r3,4(r16)
    2c04:	83000015 	stw	r12,0(r16)
    2c08:	4085c83a 	sub	r2,r8,r2
    2c0c:	00c00404 	movi	r3,16
    2c10:	da800b17 	ldw	r10,44(sp)
    2c14:	dac00a17 	ldw	r11,40(sp)
    2c18:	18bfda0e 	bge	r3,r2,2b84 <__alt_mem_VGA_Subsystem_Char_Buf_Subsystem_Onchip_SRAM+0xf7002b84>
    2c1c:	01cf7474 	movhi	r7,15825
    2c20:	39ed1844 	addi	r7,r7,-19359
    2c24:	01869834 	movhi	r6,6752
    2c28:	a009883a 	mov	r4,r20
    2c2c:	980b883a 	mov	r5,r19
    2c30:	da000a15 	stw	r8,40(sp)
    2c34:	0005d540 	call	5d54 <__muldf3>
    2c38:	d9400817 	ldw	r5,32(sp)
    2c3c:	100d883a 	mov	r6,r2
    2c40:	180f883a 	mov	r7,r3
    2c44:	e009883a 	mov	r4,fp
    2c48:	102d883a 	mov	r22,r2
    2c4c:	182b883a 	mov	r21,r3
    2c50:	00065c00 	call	65c0 <__subdf3>
    2c54:	d9400817 	ldw	r5,32(sp)
    2c58:	100d883a 	mov	r6,r2
    2c5c:	180f883a 	mov	r7,r3
    2c60:	e009883a 	mov	r4,fp
    2c64:	182f883a 	mov	r23,r3
    2c68:	d8800915 	stw	r2,36(sp)
    2c6c:	00065c00 	call	65c0 <__subdf3>
    2c70:	b00d883a 	mov	r6,r22
    2c74:	a80f883a 	mov	r7,r21
    2c78:	1009883a 	mov	r4,r2
    2c7c:	180b883a 	mov	r5,r3
    2c80:	00065c00 	call	65c0 <__subdf3>
    2c84:	018b80f4 	movhi	r6,11779
    2c88:	01cee8f4 	movhi	r7,15267
    2c8c:	319c1cc4 	addi	r6,r6,28787
    2c90:	39c66284 	addi	r7,r7,6538
    2c94:	a009883a 	mov	r4,r20
    2c98:	980b883a 	mov	r5,r19
    2c9c:	102d883a 	mov	r22,r2
    2ca0:	182b883a 	mov	r21,r3
    2ca4:	0005d540 	call	5d54 <__muldf3>
    2ca8:	b00d883a 	mov	r6,r22
    2cac:	a80f883a 	mov	r7,r21
    2cb0:	1009883a 	mov	r4,r2
    2cb4:	180b883a 	mov	r5,r3
    2cb8:	00065c00 	call	65c0 <__subdf3>
    2cbc:	d9000917 	ldw	r4,36(sp)
    2cc0:	100d883a 	mov	r6,r2
    2cc4:	180f883a 	mov	r7,r3
    2cc8:	b80b883a 	mov	r5,r23
    2ccc:	102d883a 	mov	r22,r2
    2cd0:	182b883a 	mov	r21,r3
    2cd4:	00065c00 	call	65c0 <__subdf3>
    2cd8:	1019883a 	mov	r12,r2
    2cdc:	1804d53a 	srli	r2,r3,20
    2ce0:	da000a17 	ldw	r8,40(sp)
    2ce4:	83000015 	stw	r12,0(r16)
    2ce8:	1081ffcc 	andi	r2,r2,2047
    2cec:	4091c83a 	sub	r8,r8,r2
    2cf0:	80c00115 	stw	r3,4(r16)
    2cf4:	00800c44 	movi	r2,49
    2cf8:	1813883a 	mov	r9,r3
    2cfc:	1200730e 	bge	r2,r8,2ecc <__ieee754_rem_pio2+0x760>
    2d00:	01cee8f4 	movhi	r7,15267
    2d04:	39c66284 	addi	r7,r7,6538
    2d08:	018b8034 	movhi	r6,11776
    2d0c:	a009883a 	mov	r4,r20
    2d10:	980b883a 	mov	r5,r19
    2d14:	0005d540 	call	5d54 <__muldf3>
    2d18:	d9000917 	ldw	r4,36(sp)
    2d1c:	100d883a 	mov	r6,r2
    2d20:	180f883a 	mov	r7,r3
    2d24:	b80b883a 	mov	r5,r23
    2d28:	102d883a 	mov	r22,r2
    2d2c:	182b883a 	mov	r21,r3
    2d30:	00065c00 	call	65c0 <__subdf3>
    2d34:	d9000917 	ldw	r4,36(sp)
    2d38:	100d883a 	mov	r6,r2
    2d3c:	180f883a 	mov	r7,r3
    2d40:	b80b883a 	mov	r5,r23
    2d44:	d8c00b15 	stw	r3,44(sp)
    2d48:	d8800a15 	stw	r2,40(sp)
    2d4c:	00065c00 	call	65c0 <__subdf3>
    2d50:	b00d883a 	mov	r6,r22
    2d54:	a80f883a 	mov	r7,r21
    2d58:	1009883a 	mov	r4,r2
    2d5c:	180b883a 	mov	r5,r3
    2d60:	00065c00 	call	65c0 <__subdf3>
    2d64:	01894834 	movhi	r6,9504
    2d68:	01ce5f34 	movhi	r7,14716
    2d6c:	31927044 	addi	r6,r6,18881
    2d70:	39e0e684 	addi	r7,r7,-31846
    2d74:	a009883a 	mov	r4,r20
    2d78:	980b883a 	mov	r5,r19
    2d7c:	102d883a 	mov	r22,r2
    2d80:	182b883a 	mov	r21,r3
    2d84:	0005d540 	call	5d54 <__muldf3>
    2d88:	b00d883a 	mov	r6,r22
    2d8c:	a80f883a 	mov	r7,r21
    2d90:	1009883a 	mov	r4,r2
    2d94:	180b883a 	mov	r5,r3
    2d98:	00065c00 	call	65c0 <__subdf3>
    2d9c:	dac00a17 	ldw	r11,40(sp)
    2da0:	da800b17 	ldw	r10,44(sp)
    2da4:	102d883a 	mov	r22,r2
    2da8:	182b883a 	mov	r21,r3
    2dac:	100d883a 	mov	r6,r2
    2db0:	180f883a 	mov	r7,r3
    2db4:	5809883a 	mov	r4,r11
    2db8:	500b883a 	mov	r5,r10
    2dbc:	003f6a06 	br	2b68 <__alt_mem_VGA_Subsystem_Char_Buf_Subsystem_Onchip_SRAM+0xf7002b68>
    2dc0:	00049740 	call	4974 <__adddf3>
    2dc4:	1025883a 	mov	r18,r2
    2dc8:	008ffe74 	movhi	r2,16377
    2dcc:	10887ec4 	addi	r2,r2,8699
    2dd0:	1823883a 	mov	r17,r3
    2dd4:	b8802226 	beq	r23,r2,2e60 <__ieee754_rem_pio2+0x6f4>
    2dd8:	018698b4 	movhi	r6,6754
    2ddc:	01cf7474 	movhi	r7,15825
    2de0:	3198cc44 	addi	r6,r6,25393
    2de4:	39ed1844 	addi	r7,r7,-19359
    2de8:	9009883a 	mov	r4,r18
    2dec:	180b883a 	mov	r5,r3
    2df0:	00049740 	call	4974 <__adddf3>
    2df4:	100d883a 	mov	r6,r2
    2df8:	180f883a 	mov	r7,r3
    2dfc:	9009883a 	mov	r4,r18
    2e00:	880b883a 	mov	r5,r17
    2e04:	80800015 	stw	r2,0(r16)
    2e08:	80c00115 	stw	r3,4(r16)
    2e0c:	00065c00 	call	65c0 <__subdf3>
    2e10:	018698b4 	movhi	r6,6754
    2e14:	01cf7474 	movhi	r7,15825
    2e18:	3198cc44 	addi	r6,r6,25393
    2e1c:	39ed1844 	addi	r7,r7,-19359
    2e20:	1009883a 	mov	r4,r2
    2e24:	180b883a 	mov	r5,r3
    2e28:	00049740 	call	4974 <__adddf3>
    2e2c:	80800215 	stw	r2,8(r16)
    2e30:	80c00315 	stw	r3,12(r16)
    2e34:	00bfffc4 	movi	r2,-1
    2e38:	003edc06 	br	29ac <__alt_mem_VGA_Subsystem_Char_Buf_Subsystem_Onchip_SRAM+0xf70029ac>
    2e3c:	01c000c4 	movi	r7,3
    2e40:	003ec306 	br	2950 <__alt_mem_VGA_Subsystem_Char_Buf_Subsystem_Onchip_SRAM+0xf7002950>
    2e44:	4a60003c 	xorhi	r9,r9,32768
    2e48:	18e0003c 	xorhi	r3,r3,32768
    2e4c:	83000015 	stw	r12,0(r16)
    2e50:	82400115 	stw	r9,4(r16)
    2e54:	80c00315 	stw	r3,12(r16)
    2e58:	0485c83a 	sub	r2,zero,r18
    2e5c:	003ed306 	br	29ac <__alt_mem_VGA_Subsystem_Char_Buf_Subsystem_Onchip_SRAM+0xf70029ac>
    2e60:	01cf7474 	movhi	r7,15825
    2e64:	9009883a 	mov	r4,r18
    2e68:	39ed1844 	addi	r7,r7,-19359
    2e6c:	01869834 	movhi	r6,6752
    2e70:	180b883a 	mov	r5,r3
    2e74:	00049740 	call	4974 <__adddf3>
    2e78:	018b80f4 	movhi	r6,11779
    2e7c:	01cee8f4 	movhi	r7,15267
    2e80:	319c1cc4 	addi	r6,r6,28787
    2e84:	39c66284 	addi	r7,r7,6538
    2e88:	1009883a 	mov	r4,r2
    2e8c:	180b883a 	mov	r5,r3
    2e90:	1025883a 	mov	r18,r2
    2e94:	1823883a 	mov	r17,r3
    2e98:	00049740 	call	4974 <__adddf3>
    2e9c:	100d883a 	mov	r6,r2
    2ea0:	180f883a 	mov	r7,r3
    2ea4:	9009883a 	mov	r4,r18
    2ea8:	880b883a 	mov	r5,r17
    2eac:	80800015 	stw	r2,0(r16)
    2eb0:	80c00115 	stw	r3,4(r16)
    2eb4:	00065c00 	call	65c0 <__subdf3>
    2eb8:	018b80f4 	movhi	r6,11779
    2ebc:	01cee8f4 	movhi	r7,15267
    2ec0:	319c1cc4 	addi	r6,r6,28787
    2ec4:	39c66284 	addi	r7,r7,6538
    2ec8:	003fd506 	br	2e20 <__alt_mem_VGA_Subsystem_Char_Buf_Subsystem_Onchip_SRAM+0xf7002e20>
    2ecc:	dac00917 	ldw	r11,36(sp)
    2ed0:	b815883a 	mov	r10,r23
    2ed4:	003f2b06 	br	2b84 <__alt_mem_VGA_Subsystem_Char_Buf_Subsystem_Onchip_SRAM+0xf7002b84>

00002ed8 <__kernel_cos>:
    2ed8:	defff304 	addi	sp,sp,-52
    2edc:	dc000315 	stw	r16,12(sp)
    2ee0:	04200034 	movhi	r16,32768
    2ee4:	843fffc4 	addi	r16,r16,-1
    2ee8:	008f9034 	movhi	r2,15936
    2eec:	df000b15 	stw	fp,44(sp)
    2ef0:	ddc00a15 	stw	r23,40(sp)
    2ef4:	dd800915 	stw	r22,36(sp)
    2ef8:	dcc00615 	stw	r19,24(sp)
    2efc:	dfc00c15 	stw	ra,48(sp)
    2f00:	dd400815 	stw	r21,32(sp)
    2f04:	dd000715 	stw	r20,28(sp)
    2f08:	dc800515 	stw	r18,20(sp)
    2f0c:	dc400415 	stw	r17,16(sp)
    2f10:	2c20703a 	and	r16,r5,r16
    2f14:	10bfffc4 	addi	r2,r2,-1
    2f18:	2827883a 	mov	r19,r5
    2f1c:	202d883a 	mov	r22,r4
    2f20:	302f883a 	mov	r23,r6
    2f24:	3839883a 	mov	fp,r7
    2f28:	14007516 	blt	r2,r16,3100 <__kernel_cos+0x228>
    2f2c:	0006ebc0 	call	6ebc <__fixdfsi>
    2f30:	10010f26 	beq	r2,zero,3370 <__kernel_cos+0x498>
    2f34:	b00d883a 	mov	r6,r22
    2f38:	980f883a 	mov	r7,r19
    2f3c:	b009883a 	mov	r4,r22
    2f40:	980b883a 	mov	r5,r19
    2f44:	0005d540 	call	5d54 <__muldf3>
    2f48:	01afa234 	movhi	r6,48776
    2f4c:	01ef6a74 	movhi	r7,48553
    2f50:	318e3504 	addi	r6,r6,14548
    2f54:	39feba44 	addi	r7,r7,-1303
    2f58:	1009883a 	mov	r4,r2
    2f5c:	180b883a 	mov	r5,r3
    2f60:	102b883a 	mov	r21,r2
    2f64:	1829883a 	mov	r20,r3
    2f68:	0005d540 	call	5d54 <__muldf3>
    2f6c:	01af6d74 	movhi	r6,48565
    2f70:	01cf88b4 	movhi	r7,15906
    2f74:	31ac7104 	addi	r6,r6,-20028
    2f78:	39fba784 	addi	r7,r7,-4450
    2f7c:	1009883a 	mov	r4,r2
    2f80:	180b883a 	mov	r5,r3
    2f84:	00049740 	call	4974 <__adddf3>
    2f88:	a80d883a 	mov	r6,r21
    2f8c:	a00f883a 	mov	r7,r20
    2f90:	1009883a 	mov	r4,r2
    2f94:	180b883a 	mov	r5,r3
    2f98:	0005d540 	call	5d54 <__muldf3>
    2f9c:	01a02734 	movhi	r6,32924
    2fa0:	01cfa4b4 	movhi	r7,16018
    2fa4:	3194ab44 	addi	r6,r6,21165
    2fa8:	39df93c4 	addi	r7,r7,32335
    2fac:	1009883a 	mov	r4,r2
    2fb0:	180b883a 	mov	r5,r3
    2fb4:	00065c00 	call	65c0 <__subdf3>
    2fb8:	a80d883a 	mov	r6,r21
    2fbc:	a00f883a 	mov	r7,r20
    2fc0:	1009883a 	mov	r4,r2
    2fc4:	180b883a 	mov	r5,r3
    2fc8:	0005d540 	call	5d54 <__muldf3>
    2fcc:	018672f4 	movhi	r6,6603
    2fd0:	01cfbeb4 	movhi	r7,16122
    2fd4:	31856404 	addi	r6,r6,5520
    2fd8:	39c06804 	addi	r7,r7,416
    2fdc:	1009883a 	mov	r4,r2
    2fe0:	180b883a 	mov	r5,r3
    2fe4:	00049740 	call	4974 <__adddf3>
    2fe8:	a80d883a 	mov	r6,r21
    2fec:	a00f883a 	mov	r7,r20
    2ff0:	1009883a 	mov	r4,r2
    2ff4:	180b883a 	mov	r5,r3
    2ff8:	0005d540 	call	5d54 <__muldf3>
    2ffc:	0185b074 	movhi	r6,5825
    3000:	01cfd5f4 	movhi	r7,16215
    3004:	31945dc4 	addi	r6,r6,20855
    3008:	39f05b04 	addi	r7,r7,-16020
    300c:	1009883a 	mov	r4,r2
    3010:	180b883a 	mov	r5,r3
    3014:	00065c00 	call	65c0 <__subdf3>
    3018:	a80d883a 	mov	r6,r21
    301c:	a00f883a 	mov	r7,r20
    3020:	1009883a 	mov	r4,r2
    3024:	180b883a 	mov	r5,r3
    3028:	0005d540 	call	5d54 <__muldf3>
    302c:	01955574 	movhi	r6,21845
    3030:	01cfe974 	movhi	r7,16293
    3034:	31955304 	addi	r6,r6,21836
    3038:	39d55544 	addi	r7,r7,21845
    303c:	1009883a 	mov	r4,r2
    3040:	180b883a 	mov	r5,r3
    3044:	00049740 	call	4974 <__adddf3>
    3048:	a80d883a 	mov	r6,r21
    304c:	a00f883a 	mov	r7,r20
    3050:	1009883a 	mov	r4,r2
    3054:	180b883a 	mov	r5,r3
    3058:	0005d540 	call	5d54 <__muldf3>
    305c:	1017883a 	mov	r11,r2
    3060:	1815883a 	mov	r10,r3
    3064:	a809883a 	mov	r4,r21
    3068:	a00b883a 	mov	r5,r20
    306c:	000d883a 	mov	r6,zero
    3070:	01cff834 	movhi	r7,16352
    3074:	da800215 	stw	r10,8(sp)
    3078:	dac00115 	stw	r11,4(sp)
    307c:	0005d540 	call	5d54 <__muldf3>
    3080:	dac00117 	ldw	r11,4(sp)
    3084:	da800217 	ldw	r10,8(sp)
    3088:	a809883a 	mov	r4,r21
    308c:	580d883a 	mov	r6,r11
    3090:	500f883a 	mov	r7,r10
    3094:	a00b883a 	mov	r5,r20
    3098:	1023883a 	mov	r17,r2
    309c:	1821883a 	mov	r16,r3
    30a0:	0005d540 	call	5d54 <__muldf3>
    30a4:	b80d883a 	mov	r6,r23
    30a8:	e00f883a 	mov	r7,fp
    30ac:	b009883a 	mov	r4,r22
    30b0:	980b883a 	mov	r5,r19
    30b4:	1029883a 	mov	r20,r2
    30b8:	1825883a 	mov	r18,r3
    30bc:	0005d540 	call	5d54 <__muldf3>
    30c0:	a009883a 	mov	r4,r20
    30c4:	900b883a 	mov	r5,r18
    30c8:	100d883a 	mov	r6,r2
    30cc:	180f883a 	mov	r7,r3
    30d0:	00065c00 	call	65c0 <__subdf3>
    30d4:	8809883a 	mov	r4,r17
    30d8:	800b883a 	mov	r5,r16
    30dc:	100d883a 	mov	r6,r2
    30e0:	180f883a 	mov	r7,r3
    30e4:	00065c00 	call	65c0 <__subdf3>
    30e8:	100d883a 	mov	r6,r2
    30ec:	180f883a 	mov	r7,r3
    30f0:	0009883a 	mov	r4,zero
    30f4:	014ffc34 	movhi	r5,16368
    30f8:	00065c00 	call	65c0 <__subdf3>
    30fc:	00008b06 	br	332c <__kernel_cos+0x454>
    3100:	200d883a 	mov	r6,r4
    3104:	280f883a 	mov	r7,r5
    3108:	0005d540 	call	5d54 <__muldf3>
    310c:	01afa234 	movhi	r6,48776
    3110:	01ef6a74 	movhi	r7,48553
    3114:	318e3504 	addi	r6,r6,14548
    3118:	39feba44 	addi	r7,r7,-1303
    311c:	1009883a 	mov	r4,r2
    3120:	180b883a 	mov	r5,r3
    3124:	1025883a 	mov	r18,r2
    3128:	1823883a 	mov	r17,r3
    312c:	0005d540 	call	5d54 <__muldf3>
    3130:	01af6d74 	movhi	r6,48565
    3134:	01cf88b4 	movhi	r7,15906
    3138:	31ac7104 	addi	r6,r6,-20028
    313c:	39fba784 	addi	r7,r7,-4450
    3140:	1009883a 	mov	r4,r2
    3144:	180b883a 	mov	r5,r3
    3148:	00049740 	call	4974 <__adddf3>
    314c:	900d883a 	mov	r6,r18
    3150:	880f883a 	mov	r7,r17
    3154:	1009883a 	mov	r4,r2
    3158:	180b883a 	mov	r5,r3
    315c:	0005d540 	call	5d54 <__muldf3>
    3160:	01a02734 	movhi	r6,32924
    3164:	01cfa4b4 	movhi	r7,16018
    3168:	3194ab44 	addi	r6,r6,21165
    316c:	39df93c4 	addi	r7,r7,32335
    3170:	1009883a 	mov	r4,r2
    3174:	180b883a 	mov	r5,r3
    3178:	00065c00 	call	65c0 <__subdf3>
    317c:	900d883a 	mov	r6,r18
    3180:	880f883a 	mov	r7,r17
    3184:	1009883a 	mov	r4,r2
    3188:	180b883a 	mov	r5,r3
    318c:	0005d540 	call	5d54 <__muldf3>
    3190:	018672f4 	movhi	r6,6603
    3194:	01cfbeb4 	movhi	r7,16122
    3198:	31856404 	addi	r6,r6,5520
    319c:	39c06804 	addi	r7,r7,416
    31a0:	1009883a 	mov	r4,r2
    31a4:	180b883a 	mov	r5,r3
    31a8:	00049740 	call	4974 <__adddf3>
    31ac:	900d883a 	mov	r6,r18
    31b0:	880f883a 	mov	r7,r17
    31b4:	1009883a 	mov	r4,r2
    31b8:	180b883a 	mov	r5,r3
    31bc:	0005d540 	call	5d54 <__muldf3>
    31c0:	0185b074 	movhi	r6,5825
    31c4:	01cfd5f4 	movhi	r7,16215
    31c8:	31945dc4 	addi	r6,r6,20855
    31cc:	39f05b04 	addi	r7,r7,-16020
    31d0:	1009883a 	mov	r4,r2
    31d4:	180b883a 	mov	r5,r3
    31d8:	00065c00 	call	65c0 <__subdf3>
    31dc:	900d883a 	mov	r6,r18
    31e0:	880f883a 	mov	r7,r17
    31e4:	1009883a 	mov	r4,r2
    31e8:	180b883a 	mov	r5,r3
    31ec:	0005d540 	call	5d54 <__muldf3>
    31f0:	01955574 	movhi	r6,21845
    31f4:	01cfe974 	movhi	r7,16293
    31f8:	31955304 	addi	r6,r6,21836
    31fc:	39d55544 	addi	r7,r7,21845
    3200:	1009883a 	mov	r4,r2
    3204:	180b883a 	mov	r5,r3
    3208:	00049740 	call	4974 <__adddf3>
    320c:	900d883a 	mov	r6,r18
    3210:	880f883a 	mov	r7,r17
    3214:	1009883a 	mov	r4,r2
    3218:	180b883a 	mov	r5,r3
    321c:	0005d540 	call	5d54 <__muldf3>
    3220:	1013883a 	mov	r9,r2
    3224:	1017883a 	mov	r11,r2
    3228:	008ff4f4 	movhi	r2,16339
    322c:	108ccc84 	addi	r2,r2,13106
    3230:	1811883a 	mov	r8,r3
    3234:	902b883a 	mov	r21,r18
    3238:	8829883a 	mov	r20,r17
    323c:	1815883a 	mov	r10,r3
    3240:	143f880e 	bge	r2,r16,3064 <__alt_mem_VGA_Subsystem_Char_Buf_Subsystem_Onchip_SRAM+0xf7003064>
    3244:	008ffa74 	movhi	r2,16361
    3248:	14004416 	blt	r2,r16,335c <__kernel_cos+0x484>
    324c:	00bff834 	movhi	r2,65504
    3250:	80a1883a 	add	r16,r16,r2
    3254:	000d883a 	mov	r6,zero
    3258:	800f883a 	mov	r7,r16
    325c:	0009883a 	mov	r4,zero
    3260:	014ffc34 	movhi	r5,16368
    3264:	da400115 	stw	r9,4(sp)
    3268:	d8c00215 	stw	r3,8(sp)
    326c:	00065c00 	call	65c0 <__subdf3>
    3270:	da000217 	ldw	r8,8(sp)
    3274:	da400117 	ldw	r9,4(sp)
    3278:	102b883a 	mov	r21,r2
    327c:	d8c00015 	stw	r3,0(sp)
    3280:	9009883a 	mov	r4,r18
    3284:	880b883a 	mov	r5,r17
    3288:	000d883a 	mov	r6,zero
    328c:	01cff834 	movhi	r7,16352
    3290:	da000215 	stw	r8,8(sp)
    3294:	da400115 	stw	r9,4(sp)
    3298:	0005d540 	call	5d54 <__muldf3>
    329c:	800f883a 	mov	r7,r16
    32a0:	000d883a 	mov	r6,zero
    32a4:	1009883a 	mov	r4,r2
    32a8:	180b883a 	mov	r5,r3
    32ac:	00065c00 	call	65c0 <__subdf3>
    32b0:	da400117 	ldw	r9,4(sp)
    32b4:	da000217 	ldw	r8,8(sp)
    32b8:	9009883a 	mov	r4,r18
    32bc:	480d883a 	mov	r6,r9
    32c0:	400f883a 	mov	r7,r8
    32c4:	880b883a 	mov	r5,r17
    32c8:	1029883a 	mov	r20,r2
    32cc:	1821883a 	mov	r16,r3
    32d0:	0005d540 	call	5d54 <__muldf3>
    32d4:	b80d883a 	mov	r6,r23
    32d8:	e00f883a 	mov	r7,fp
    32dc:	b009883a 	mov	r4,r22
    32e0:	980b883a 	mov	r5,r19
    32e4:	1025883a 	mov	r18,r2
    32e8:	1823883a 	mov	r17,r3
    32ec:	0005d540 	call	5d54 <__muldf3>
    32f0:	100d883a 	mov	r6,r2
    32f4:	180f883a 	mov	r7,r3
    32f8:	9009883a 	mov	r4,r18
    32fc:	880b883a 	mov	r5,r17
    3300:	00065c00 	call	65c0 <__subdf3>
    3304:	100d883a 	mov	r6,r2
    3308:	180f883a 	mov	r7,r3
    330c:	a009883a 	mov	r4,r20
    3310:	800b883a 	mov	r5,r16
    3314:	00065c00 	call	65c0 <__subdf3>
    3318:	d9400017 	ldw	r5,0(sp)
    331c:	100d883a 	mov	r6,r2
    3320:	180f883a 	mov	r7,r3
    3324:	a809883a 	mov	r4,r21
    3328:	00065c00 	call	65c0 <__subdf3>
    332c:	dfc00c17 	ldw	ra,48(sp)
    3330:	df000b17 	ldw	fp,44(sp)
    3334:	ddc00a17 	ldw	r23,40(sp)
    3338:	dd800917 	ldw	r22,36(sp)
    333c:	dd400817 	ldw	r21,32(sp)
    3340:	dd000717 	ldw	r20,28(sp)
    3344:	dcc00617 	ldw	r19,24(sp)
    3348:	dc800517 	ldw	r18,20(sp)
    334c:	dc400417 	ldw	r17,16(sp)
    3350:	dc000317 	ldw	r16,12(sp)
    3354:	dec00d04 	addi	sp,sp,52
    3358:	f800283a 	ret
    335c:	008ff9f4 	movhi	r2,16359
    3360:	002b883a 	mov	r21,zero
    3364:	d8800015 	stw	r2,0(sp)
    3368:	040ff4b4 	movhi	r16,16338
    336c:	003fc406 	br	3280 <__alt_mem_VGA_Subsystem_Char_Buf_Subsystem_Onchip_SRAM+0xf7003280>
    3370:	0005883a 	mov	r2,zero
    3374:	00cffc34 	movhi	r3,16368
    3378:	003fec06 	br	332c <__alt_mem_VGA_Subsystem_Char_Buf_Subsystem_Onchip_SRAM+0xf700332c>

0000337c <__kernel_rem_pio2>:
    337c:	deff5a04 	addi	sp,sp,-664
    3380:	da00a617 	ldw	r8,664(sp)
    3384:	00c00074 	movhi	r3,1
    3388:	18ca0004 	addi	r3,r3,10240
    338c:	4205883a 	add	r2,r8,r8
    3390:	1085883a 	add	r2,r2,r2
    3394:	1885883a 	add	r2,r3,r2
    3398:	d9008e15 	stw	r4,568(sp)
    339c:	d9408f15 	stw	r5,572(sp)
    33a0:	313fff44 	addi	r4,r6,-3
    33a4:	01400604 	movi	r5,24
    33a8:	dd80a215 	stw	r22,648(sp)
    33ac:	dc009c15 	stw	r16,624(sp)
    33b0:	dfc0a515 	stw	ra,660(sp)
    33b4:	df00a415 	stw	fp,656(sp)
    33b8:	ddc0a315 	stw	r23,652(sp)
    33bc:	dd40a115 	stw	r21,644(sp)
    33c0:	dd00a015 	stw	r20,640(sp)
    33c4:	dcc09f15 	stw	r19,636(sp)
    33c8:	dc809e15 	stw	r18,632(sp)
    33cc:	dc409d15 	stw	r17,628(sp)
    33d0:	3021883a 	mov	r16,r6
    33d4:	d9c09315 	stw	r7,588(sp)
    33d8:	15800017 	ldw	r22,0(r2)
    33dc:	00047980 	call	4798 <__divsi3>
    33e0:	da009317 	ldw	r8,588(sp)
    33e4:	d8809215 	stw	r2,584(sp)
    33e8:	423fffc4 	addi	r8,r8,-1
    33ec:	da008d15 	stw	r8,564(sp)
    33f0:	10033d16 	blt	r2,zero,40e8 <__kernel_rem_pio2+0xd6c>
    33f4:	da009217 	ldw	r8,584(sp)
    33f8:	017ffa04 	movi	r5,-24
    33fc:	42000044 	addi	r8,r8,1
    3400:	4009883a 	mov	r4,r8
    3404:	da009515 	stw	r8,596(sp)
    3408:	000494c0 	call	494c <__mulsi3>
    340c:	da008d17 	ldw	r8,564(sp)
    3410:	1421883a 	add	r16,r2,r16
    3414:	d8809217 	ldw	r2,584(sp)
    3418:	b207883a 	add	r3,r22,r8
    341c:	dc009015 	stw	r16,576(sp)
    3420:	1223c83a 	sub	r17,r2,r8
    3424:	18001016 	blt	r3,zero,3468 <__kernel_rem_pio2+0xec>
    3428:	da00a717 	ldw	r8,668(sp)
    342c:	8c65883a 	add	r18,r17,r17
    3430:	94a5883a 	add	r18,r18,r18
    3434:	1c47883a 	add	r3,r3,r17
    3438:	dcc05004 	addi	r19,sp,320
    343c:	44a5883a 	add	r18,r8,r18
    3440:	1c000044 	addi	r16,r3,1
    3444:	88015316 	blt	r17,zero,3994 <__kernel_rem_pio2+0x618>
    3448:	91000017 	ldw	r4,0(r18)
    344c:	0006f3c0 	call	6f3c <__floatsidf>
    3450:	98800015 	stw	r2,0(r19)
    3454:	98c00115 	stw	r3,4(r19)
    3458:	8c400044 	addi	r17,r17,1
    345c:	9cc00204 	addi	r19,r19,8
    3460:	94800104 	addi	r18,r18,4
    3464:	8c3ff71e 	bne	r17,r16,3444 <__alt_mem_VGA_Subsystem_Char_Buf_Subsystem_Onchip_SRAM+0xf7003444>
    3468:	b0002816 	blt	r22,zero,350c <__kernel_rem_pio2+0x190>
    346c:	da008d17 	ldw	r8,564(sp)
    3470:	b4c00044 	addi	r19,r22,1
    3474:	982690fa 	slli	r19,r19,3
    3478:	402490fa 	slli	r18,r8,3
    347c:	da008e17 	ldw	r8,568(sp)
    3480:	d8805004 	addi	r2,sp,320
    3484:	94000204 	addi	r16,r18,8
    3488:	d823883a 	mov	r17,sp
    348c:	14a5883a 	add	r18,r2,r18
    3490:	dcef883a 	add	r23,sp,r19
    3494:	4421883a 	add	r16,r8,r16
    3498:	dd809115 	stw	r22,580(sp)
    349c:	4039883a 	mov	fp,r8
    34a0:	da008d17 	ldw	r8,564(sp)
    34a4:	40016016 	blt	r8,zero,3a28 <__kernel_rem_pio2+0x6ac>
    34a8:	e027883a 	mov	r19,fp
    34ac:	9029883a 	mov	r20,r18
    34b0:	002d883a 	mov	r22,zero
    34b4:	002b883a 	mov	r21,zero
    34b8:	a1800017 	ldw	r6,0(r20)
    34bc:	a1c00117 	ldw	r7,4(r20)
    34c0:	99000017 	ldw	r4,0(r19)
    34c4:	99400117 	ldw	r5,4(r19)
    34c8:	9cc00204 	addi	r19,r19,8
    34cc:	a53ffe04 	addi	r20,r20,-8
    34d0:	0005d540 	call	5d54 <__muldf3>
    34d4:	b009883a 	mov	r4,r22
    34d8:	a80b883a 	mov	r5,r21
    34dc:	100d883a 	mov	r6,r2
    34e0:	180f883a 	mov	r7,r3
    34e4:	00049740 	call	4974 <__adddf3>
    34e8:	102d883a 	mov	r22,r2
    34ec:	182b883a 	mov	r21,r3
    34f0:	9c3ff11e 	bne	r19,r16,34b8 <__alt_mem_VGA_Subsystem_Char_Buf_Subsystem_Onchip_SRAM+0xf70034b8>
    34f4:	8d800015 	stw	r22,0(r17)
    34f8:	8d400115 	stw	r21,4(r17)
    34fc:	8c400204 	addi	r17,r17,8
    3500:	94800204 	addi	r18,r18,8
    3504:	8dffe61e 	bne	r17,r23,34a0 <__alt_mem_VGA_Subsystem_Char_Buf_Subsystem_Onchip_SRAM+0xf70034a0>
    3508:	dd809117 	ldw	r22,580(sp)
    350c:	00d00034 	movhi	r3,16384
    3510:	da009317 	ldw	r8,588(sp)
    3514:	18ffff84 	addi	r3,r3,-2
    3518:	b0c7883a 	add	r3,r22,r3
    351c:	18c7883a 	add	r3,r3,r3
    3520:	402090fa 	slli	r16,r8,3
    3524:	18c7883a 	add	r3,r3,r3
    3528:	da007804 	addi	r8,sp,480
    352c:	40d1883a 	add	r8,r8,r3
    3530:	b0bfffc4 	addi	r2,r22,-1
    3534:	da009615 	stw	r8,600(sp)
    3538:	da008e17 	ldw	r8,568(sp)
    353c:	1085883a 	add	r2,r2,r2
    3540:	1085883a 	add	r2,r2,r2
    3544:	19000104 	addi	r4,r3,4
    3548:	d885883a 	add	r2,sp,r2
    354c:	4421883a 	add	r16,r8,r16
    3550:	da007804 	addi	r8,sp,480
    3554:	4111883a 	add	r8,r8,r4
    3558:	10807804 	addi	r2,r2,480
    355c:	da009715 	stw	r8,604(sp)
    3560:	b025883a 	mov	r18,r22
    3564:	d8809815 	stw	r2,608(sp)
    3568:	dd809415 	stw	r22,592(sp)
    356c:	900490fa 	slli	r2,r18,3
    3570:	d885883a 	add	r2,sp,r2
    3574:	17000017 	ldw	fp,0(r2)
    3578:	15400117 	ldw	r21,4(r2)
    357c:	04802b0e 	bge	zero,r18,362c <__kernel_rem_pio2+0x2b0>
    3580:	00880034 	movhi	r2,8192
    3584:	10bfffc4 	addi	r2,r2,-1
    3588:	90a9883a 	add	r20,r18,r2
    358c:	a02890fa 	slli	r20,r20,3
    3590:	dc407804 	addi	r17,sp,480
    3594:	dcfffe04 	addi	r19,sp,-8
    3598:	dd29883a 	add	r20,sp,r20
    359c:	000d883a 	mov	r6,zero
    35a0:	01cf9c34 	movhi	r7,15984
    35a4:	e009883a 	mov	r4,fp
    35a8:	a80b883a 	mov	r5,r21
    35ac:	0005d540 	call	5d54 <__muldf3>
    35b0:	180b883a 	mov	r5,r3
    35b4:	1009883a 	mov	r4,r2
    35b8:	0006ebc0 	call	6ebc <__fixdfsi>
    35bc:	1009883a 	mov	r4,r2
    35c0:	0006f3c0 	call	6f3c <__floatsidf>
    35c4:	000d883a 	mov	r6,zero
    35c8:	01d05c34 	movhi	r7,16752
    35cc:	1009883a 	mov	r4,r2
    35d0:	180b883a 	mov	r5,r3
    35d4:	102f883a 	mov	r23,r2
    35d8:	182d883a 	mov	r22,r3
    35dc:	0005d540 	call	5d54 <__muldf3>
    35e0:	100d883a 	mov	r6,r2
    35e4:	180f883a 	mov	r7,r3
    35e8:	e009883a 	mov	r4,fp
    35ec:	a80b883a 	mov	r5,r21
    35f0:	00065c00 	call	65c0 <__subdf3>
    35f4:	180b883a 	mov	r5,r3
    35f8:	1009883a 	mov	r4,r2
    35fc:	0006ebc0 	call	6ebc <__fixdfsi>
    3600:	a1800017 	ldw	r6,0(r20)
    3604:	a1c00117 	ldw	r7,4(r20)
    3608:	88800015 	stw	r2,0(r17)
    360c:	b809883a 	mov	r4,r23
    3610:	b00b883a 	mov	r5,r22
    3614:	00049740 	call	4974 <__adddf3>
    3618:	a53ffe04 	addi	r20,r20,-8
    361c:	1039883a 	mov	fp,r2
    3620:	182b883a 	mov	r21,r3
    3624:	8c400104 	addi	r17,r17,4
    3628:	a4ffdc1e 	bne	r20,r19,359c <__alt_mem_VGA_Subsystem_Char_Buf_Subsystem_Onchip_SRAM+0xf700359c>
    362c:	d9809017 	ldw	r6,576(sp)
    3630:	a80b883a 	mov	r5,r21
    3634:	e009883a 	mov	r4,fp
    3638:	00045e00 	call	45e0 <scalbn>
    363c:	000d883a 	mov	r6,zero
    3640:	01cff034 	movhi	r7,16320
    3644:	1009883a 	mov	r4,r2
    3648:	180b883a 	mov	r5,r3
    364c:	1027883a 	mov	r19,r2
    3650:	1823883a 	mov	r17,r3
    3654:	0005d540 	call	5d54 <__muldf3>
    3658:	1009883a 	mov	r4,r2
    365c:	180b883a 	mov	r5,r3
    3660:	00043f40 	call	43f4 <floor>
    3664:	000d883a 	mov	r6,zero
    3668:	01d00834 	movhi	r7,16416
    366c:	1009883a 	mov	r4,r2
    3670:	180b883a 	mov	r5,r3
    3674:	0005d540 	call	5d54 <__muldf3>
    3678:	100d883a 	mov	r6,r2
    367c:	180f883a 	mov	r7,r3
    3680:	9809883a 	mov	r4,r19
    3684:	880b883a 	mov	r5,r17
    3688:	00065c00 	call	65c0 <__subdf3>
    368c:	180b883a 	mov	r5,r3
    3690:	1009883a 	mov	r4,r2
    3694:	1827883a 	mov	r19,r3
    3698:	1029883a 	mov	r20,r2
    369c:	0006ebc0 	call	6ebc <__fixdfsi>
    36a0:	1009883a 	mov	r4,r2
    36a4:	1023883a 	mov	r17,r2
    36a8:	0006f3c0 	call	6f3c <__floatsidf>
    36ac:	a009883a 	mov	r4,r20
    36b0:	100d883a 	mov	r6,r2
    36b4:	180f883a 	mov	r7,r3
    36b8:	980b883a 	mov	r5,r19
    36bc:	00065c00 	call	65c0 <__subdf3>
    36c0:	d9009017 	ldw	r4,576(sp)
    36c4:	1013883a 	mov	r9,r2
    36c8:	102b883a 	mov	r21,r2
    36cc:	1811883a 	mov	r8,r3
    36d0:	0100b30e 	bge	zero,r4,39a0 <__kernel_rem_pio2+0x624>
    36d4:	90bfffc4 	addi	r2,r18,-1
    36d8:	1085883a 	add	r2,r2,r2
    36dc:	1085883a 	add	r2,r2,r2
    36e0:	d885883a 	add	r2,sp,r2
    36e4:	10807804 	addi	r2,r2,480
    36e8:	d9809017 	ldw	r6,576(sp)
    36ec:	11400017 	ldw	r5,0(r2)
    36f0:	01000604 	movi	r4,24
    36f4:	2189c83a 	sub	r4,r4,r6
    36f8:	290dd83a 	sra	r6,r5,r4
    36fc:	d9c09017 	ldw	r7,576(sp)
    3700:	04c005c4 	movi	r19,23
    3704:	3108983a 	sll	r4,r6,r4
    3708:	99e7c83a 	sub	r19,r19,r7
    370c:	89a3883a 	add	r17,r17,r6
    3710:	2909c83a 	sub	r4,r5,r4
    3714:	24e7d83a 	sra	r19,r4,r19
    3718:	11000015 	stw	r4,0(r2)
    371c:	04c02a0e 	bge	zero,r19,37c8 <__kernel_rem_pio2+0x44c>
    3720:	8c400044 	addi	r17,r17,1
    3724:	0481570e 	bge	zero,r18,3c84 <__kernel_rem_pio2+0x908>
    3728:	02804034 	movhi	r10,256
    372c:	52bfffc4 	addi	r10,r10,-1
    3730:	d8807804 	addi	r2,sp,480
    3734:	000b883a 	mov	r5,zero
    3738:	0029883a 	mov	r20,zero
    373c:	01c04034 	movhi	r7,256
    3740:	00000706 	br	3760 <__kernel_rem_pio2+0x3e4>
    3744:	390dc83a 	sub	r6,r7,r4
    3748:	20000226 	beq	r4,zero,3754 <__kernel_rem_pio2+0x3d8>
    374c:	11800015 	stw	r6,0(r2)
    3750:	05000044 	movi	r20,1
    3754:	29400044 	addi	r5,r5,1
    3758:	10800104 	addi	r2,r2,4
    375c:	2c80080e 	bge	r5,r18,3780 <__kernel_rem_pio2+0x404>
    3760:	11000017 	ldw	r4,0(r2)
    3764:	a03ff726 	beq	r20,zero,3744 <__alt_mem_VGA_Subsystem_Char_Buf_Subsystem_Onchip_SRAM+0xf7003744>
    3768:	5109c83a 	sub	r4,r10,r4
    376c:	11000015 	stw	r4,0(r2)
    3770:	29400044 	addi	r5,r5,1
    3774:	05000044 	movi	r20,1
    3778:	10800104 	addi	r2,r2,4
    377c:	2cbff816 	blt	r5,r18,3760 <__alt_mem_VGA_Subsystem_Char_Buf_Subsystem_Onchip_SRAM+0xf7003760>
    3780:	d9009017 	ldw	r4,576(sp)
    3784:	01000e0e 	bge	zero,r4,37c0 <__kernel_rem_pio2+0x444>
    3788:	00800044 	movi	r2,1
    378c:	20808d26 	beq	r4,r2,39c4 <__kernel_rem_pio2+0x648>
    3790:	00800084 	movi	r2,2
    3794:	20800a1e 	bne	r4,r2,37c0 <__kernel_rem_pio2+0x444>
    3798:	90bfffc4 	addi	r2,r18,-1
    379c:	1085883a 	add	r2,r2,r2
    37a0:	1085883a 	add	r2,r2,r2
    37a4:	d885883a 	add	r2,sp,r2
    37a8:	10807804 	addi	r2,r2,480
    37ac:	11400017 	ldw	r5,0(r2)
    37b0:	01001034 	movhi	r4,64
    37b4:	213fffc4 	addi	r4,r4,-1
    37b8:	2908703a 	and	r4,r5,r4
    37bc:	11000015 	stw	r4,0(r2)
    37c0:	00800084 	movi	r2,2
    37c4:	98805d26 	beq	r19,r2,393c <__kernel_rem_pio2+0x5c0>
    37c8:	400b883a 	mov	r5,r8
    37cc:	000d883a 	mov	r6,zero
    37d0:	000f883a 	mov	r7,zero
    37d4:	a809883a 	mov	r4,r21
    37d8:	da009b15 	stw	r8,620(sp)
    37dc:	0005bf00 	call	5bf0 <__eqdf2>
    37e0:	da009b17 	ldw	r8,620(sp)
    37e4:	10012b1e 	bne	r2,zero,3c94 <__kernel_rem_pio2+0x918>
    37e8:	da009417 	ldw	r8,592(sp)
    37ec:	917fffc4 	addi	r5,r18,-1
    37f0:	2a000e16 	blt	r5,r8,382c <__kernel_rem_pio2+0x4b0>
    37f4:	00900034 	movhi	r2,16384
    37f8:	10bfffc4 	addi	r2,r2,-1
    37fc:	9085883a 	add	r2,r18,r2
    3800:	1085883a 	add	r2,r2,r2
    3804:	d9809717 	ldw	r6,604(sp)
    3808:	1085883a 	add	r2,r2,r2
    380c:	d9007804 	addi	r4,sp,480
    3810:	0007883a 	mov	r3,zero
    3814:	2085883a 	add	r2,r4,r2
    3818:	11000017 	ldw	r4,0(r2)
    381c:	10bfff04 	addi	r2,r2,-4
    3820:	1906b03a 	or	r3,r3,r4
    3824:	11bffc1e 	bne	r2,r6,3818 <__alt_mem_VGA_Subsystem_Char_Buf_Subsystem_Onchip_SRAM+0xf7003818>
    3828:	1800821e 	bne	r3,zero,3a34 <__kernel_rem_pio2+0x6b8>
    382c:	da009817 	ldw	r8,608(sp)
    3830:	40800017 	ldw	r2,0(r8)
    3834:	1001151e 	bne	r2,zero,3c8c <__kernel_rem_pio2+0x910>
    3838:	d8809617 	ldw	r2,600(sp)
    383c:	05000044 	movi	r20,1
    3840:	10bfff04 	addi	r2,r2,-4
    3844:	10c00117 	ldw	r3,4(r2)
    3848:	a5000044 	addi	r20,r20,1
    384c:	183ffc26 	beq	r3,zero,3840 <__alt_mem_VGA_Subsystem_Char_Buf_Subsystem_Onchip_SRAM+0xf7003840>
    3850:	9529883a 	add	r20,r18,r20
    3854:	90800044 	addi	r2,r18,1
    3858:	dd009115 	stw	r20,580(sp)
    385c:	a0803216 	blt	r20,r2,3928 <__kernel_rem_pio2+0x5ac>
    3860:	da009317 	ldw	r8,588(sp)
    3864:	d8c09117 	ldw	r3,580(sp)
    3868:	44a3883a 	add	r17,r8,r18
    386c:	da009217 	ldw	r8,584(sp)
    3870:	882290fa 	slli	r17,r17,3
    3874:	40a5883a 	add	r18,r8,r2
    3878:	da009517 	ldw	r8,596(sp)
    387c:	100490fa 	slli	r2,r2,3
    3880:	94a5883a 	add	r18,r18,r18
    3884:	40eb883a 	add	r21,r8,r3
    3888:	da00a717 	ldw	r8,668(sp)
    388c:	ad6b883a 	add	r21,r21,r21
    3890:	94a5883a 	add	r18,r18,r18
    3894:	ad6b883a 	add	r21,r21,r21
    3898:	d8c05004 	addi	r3,sp,320
    389c:	44a5883a 	add	r18,r8,r18
    38a0:	1c63883a 	add	r17,r3,r17
    38a4:	d8a7883a 	add	r19,sp,r2
    38a8:	456b883a 	add	r21,r8,r21
    38ac:	91000017 	ldw	r4,0(r18)
    38b0:	0006f3c0 	call	6f3c <__floatsidf>
    38b4:	da008d17 	ldw	r8,564(sp)
    38b8:	88800015 	stw	r2,0(r17)
    38bc:	88c00115 	stw	r3,4(r17)
    38c0:	40001b16 	blt	r8,zero,3930 <__kernel_rem_pio2+0x5b4>
    38c4:	dd008e17 	ldw	r20,568(sp)
    38c8:	882d883a 	mov	r22,r17
    38cc:	002f883a 	mov	r23,zero
    38d0:	0039883a 	mov	fp,zero
    38d4:	b1800017 	ldw	r6,0(r22)
    38d8:	b1c00117 	ldw	r7,4(r22)
    38dc:	a1000017 	ldw	r4,0(r20)
    38e0:	a1400117 	ldw	r5,4(r20)
    38e4:	a5000204 	addi	r20,r20,8
    38e8:	b5bffe04 	addi	r22,r22,-8
    38ec:	0005d540 	call	5d54 <__muldf3>
    38f0:	b809883a 	mov	r4,r23
    38f4:	e00b883a 	mov	r5,fp
    38f8:	100d883a 	mov	r6,r2
    38fc:	180f883a 	mov	r7,r3
    3900:	00049740 	call	4974 <__adddf3>
    3904:	102f883a 	mov	r23,r2
    3908:	1839883a 	mov	fp,r3
    390c:	a43ff11e 	bne	r20,r16,38d4 <__alt_mem_VGA_Subsystem_Char_Buf_Subsystem_Onchip_SRAM+0xf70038d4>
    3910:	9dc00015 	stw	r23,0(r19)
    3914:	9f000115 	stw	fp,4(r19)
    3918:	94800104 	addi	r18,r18,4
    391c:	8c400204 	addi	r17,r17,8
    3920:	9cc00204 	addi	r19,r19,8
    3924:	957fe11e 	bne	r18,r21,38ac <__alt_mem_VGA_Subsystem_Char_Buf_Subsystem_Onchip_SRAM+0xf70038ac>
    3928:	dc809117 	ldw	r18,580(sp)
    392c:	003f0f06 	br	356c <__alt_mem_VGA_Subsystem_Char_Buf_Subsystem_Onchip_SRAM+0xf700356c>
    3930:	002f883a 	mov	r23,zero
    3934:	0039883a 	mov	fp,zero
    3938:	003ff506 	br	3910 <__alt_mem_VGA_Subsystem_Char_Buf_Subsystem_Onchip_SRAM+0xf7003910>
    393c:	480d883a 	mov	r6,r9
    3940:	180f883a 	mov	r7,r3
    3944:	0009883a 	mov	r4,zero
    3948:	014ffc34 	movhi	r5,16368
    394c:	00065c00 	call	65c0 <__subdf3>
    3950:	102b883a 	mov	r21,r2
    3954:	1811883a 	mov	r8,r3
    3958:	a03f9b26 	beq	r20,zero,37c8 <__alt_mem_VGA_Subsystem_Char_Buf_Subsystem_Onchip_SRAM+0xf70037c8>
    395c:	d9809017 	ldw	r6,576(sp)
    3960:	0009883a 	mov	r4,zero
    3964:	014ffc34 	movhi	r5,16368
    3968:	d8c09b15 	stw	r3,620(sp)
    396c:	00045e00 	call	45e0 <scalbn>
    3970:	da009b17 	ldw	r8,620(sp)
    3974:	a809883a 	mov	r4,r21
    3978:	100d883a 	mov	r6,r2
    397c:	400b883a 	mov	r5,r8
    3980:	180f883a 	mov	r7,r3
    3984:	00065c00 	call	65c0 <__subdf3>
    3988:	102b883a 	mov	r21,r2
    398c:	1811883a 	mov	r8,r3
    3990:	003f8d06 	br	37c8 <__alt_mem_VGA_Subsystem_Char_Buf_Subsystem_Onchip_SRAM+0xf70037c8>
    3994:	0005883a 	mov	r2,zero
    3998:	0007883a 	mov	r3,zero
    399c:	003eac06 	br	3450 <__alt_mem_VGA_Subsystem_Char_Buf_Subsystem_Onchip_SRAM+0xf7003450>
    39a0:	d8809017 	ldw	r2,576(sp)
    39a4:	1000121e 	bne	r2,zero,39f0 <__kernel_rem_pio2+0x674>
    39a8:	90bfffc4 	addi	r2,r18,-1
    39ac:	1085883a 	add	r2,r2,r2
    39b0:	1085883a 	add	r2,r2,r2
    39b4:	d885883a 	add	r2,sp,r2
    39b8:	14c07817 	ldw	r19,480(r2)
    39bc:	9827d5fa 	srai	r19,r19,23
    39c0:	003f5606 	br	371c <__alt_mem_VGA_Subsystem_Char_Buf_Subsystem_Onchip_SRAM+0xf700371c>
    39c4:	90bfffc4 	addi	r2,r18,-1
    39c8:	1085883a 	add	r2,r2,r2
    39cc:	1085883a 	add	r2,r2,r2
    39d0:	d885883a 	add	r2,sp,r2
    39d4:	10807804 	addi	r2,r2,480
    39d8:	11000017 	ldw	r4,0(r2)
    39dc:	01402034 	movhi	r5,128
    39e0:	297fffc4 	addi	r5,r5,-1
    39e4:	2148703a 	and	r4,r4,r5
    39e8:	11000015 	stw	r4,0(r2)
    39ec:	003f7406 	br	37c0 <__alt_mem_VGA_Subsystem_Char_Buf_Subsystem_Onchip_SRAM+0xf70037c0>
    39f0:	4809883a 	mov	r4,r9
    39f4:	180b883a 	mov	r5,r3
    39f8:	000d883a 	mov	r6,zero
    39fc:	01cff834 	movhi	r7,16352
    3a00:	d8c09a15 	stw	r3,616(sp)
    3a04:	d8c09b15 	stw	r3,620(sp)
    3a08:	da409915 	stw	r9,612(sp)
    3a0c:	0005c780 	call	5c78 <__gedf2>
    3a10:	d8c09a17 	ldw	r3,616(sp)
    3a14:	da009b17 	ldw	r8,620(sp)
    3a18:	da409917 	ldw	r9,612(sp)
    3a1c:	1000920e 	bge	r2,zero,3c68 <__kernel_rem_pio2+0x8ec>
    3a20:	0027883a 	mov	r19,zero
    3a24:	003f6806 	br	37c8 <__alt_mem_VGA_Subsystem_Char_Buf_Subsystem_Onchip_SRAM+0xf70037c8>
    3a28:	002d883a 	mov	r22,zero
    3a2c:	002b883a 	mov	r21,zero
    3a30:	003eb006 	br	34f4 <__alt_mem_VGA_Subsystem_Char_Buf_Subsystem_Onchip_SRAM+0xf70034f4>
    3a34:	2945883a 	add	r2,r5,r5
    3a38:	da009017 	ldw	r8,576(sp)
    3a3c:	1085883a 	add	r2,r2,r2
    3a40:	d885883a 	add	r2,sp,r2
    3a44:	10807817 	ldw	r2,480(r2)
    3a48:	423ffa04 	addi	r8,r8,-24
    3a4c:	dc409115 	stw	r17,580(sp)
    3a50:	dcc08d15 	stw	r19,564(sp)
    3a54:	da009015 	stw	r8,576(sp)
    3a58:	dd809417 	ldw	r22,592(sp)
    3a5c:	2823883a 	mov	r17,r5
    3a60:	10000e1e 	bne	r2,zero,3a9c <__kernel_rem_pio2+0x720>
    3a64:	00900034 	movhi	r2,16384
    3a68:	10bfffc4 	addi	r2,r2,-1
    3a6c:	2885883a 	add	r2,r5,r2
    3a70:	1085883a 	add	r2,r2,r2
    3a74:	d8c07804 	addi	r3,sp,480
    3a78:	1085883a 	add	r2,r2,r2
    3a7c:	1885883a 	add	r2,r3,r2
    3a80:	4007883a 	mov	r3,r8
    3a84:	10bfff04 	addi	r2,r2,-4
    3a88:	11000117 	ldw	r4,4(r2)
    3a8c:	8c7fffc4 	addi	r17,r17,-1
    3a90:	18fffa04 	addi	r3,r3,-24
    3a94:	203ffb26 	beq	r4,zero,3a84 <__alt_mem_VGA_Subsystem_Char_Buf_Subsystem_Onchip_SRAM+0xf7003a84>
    3a98:	d8c09015 	stw	r3,576(sp)
    3a9c:	d9809017 	ldw	r6,576(sp)
    3aa0:	0009883a 	mov	r4,zero
    3aa4:	014ffc34 	movhi	r5,16368
    3aa8:	00045e00 	call	45e0 <scalbn>
    3aac:	1029883a 	mov	r20,r2
    3ab0:	182b883a 	mov	r21,r3
    3ab4:	88018416 	blt	r17,zero,40c8 <__kernel_rem_pio2+0xd4c>
    3ab8:	881090fa 	slli	r8,r17,3
    3abc:	d8c07804 	addi	r3,sp,480
    3ac0:	da008e15 	stw	r8,568(sp)
    3ac4:	d8808e17 	ldw	r2,568(sp)
    3ac8:	8c51883a 	add	r8,r17,r17
    3acc:	4211883a 	add	r8,r8,r8
    3ad0:	d8a1883a 	add	r16,sp,r2
    3ad4:	1a25883a 	add	r18,r3,r8
    3ad8:	da3ffe04 	addi	r8,sp,-8
    3adc:	da008c15 	stw	r8,560(sp)
    3ae0:	8039883a 	mov	fp,r16
    3ae4:	91000017 	ldw	r4,0(r18)
    3ae8:	e73ffe04 	addi	fp,fp,-8
    3aec:	94bfff04 	addi	r18,r18,-4
    3af0:	0006f3c0 	call	6f3c <__floatsidf>
    3af4:	a00d883a 	mov	r6,r20
    3af8:	a80f883a 	mov	r7,r21
    3afc:	1009883a 	mov	r4,r2
    3b00:	180b883a 	mov	r5,r3
    3b04:	0005d540 	call	5d54 <__muldf3>
    3b08:	a009883a 	mov	r4,r20
    3b0c:	a80b883a 	mov	r5,r21
    3b10:	e0800215 	stw	r2,8(fp)
    3b14:	e0c00315 	stw	r3,12(fp)
    3b18:	000d883a 	mov	r6,zero
    3b1c:	01cf9c34 	movhi	r7,15984
    3b20:	0005d540 	call	5d54 <__muldf3>
    3b24:	da008c17 	ldw	r8,560(sp)
    3b28:	1029883a 	mov	r20,r2
    3b2c:	182b883a 	mov	r21,r3
    3b30:	e23fec1e 	bne	fp,r8,3ae4 <__alt_mem_VGA_Subsystem_Char_Buf_Subsystem_Onchip_SRAM+0xf7003ae4>
    3b34:	0029883a 	mov	r20,zero
    3b38:	b0004f16 	blt	r22,zero,3c78 <__kernel_rem_pio2+0x8fc>
    3b3c:	05400074 	movhi	r21,1
    3b40:	014ffe74 	movhi	r5,16377
    3b44:	ad49f204 	addi	r21,r21,10184
    3b48:	8027883a 	mov	r19,r16
    3b4c:	01100034 	movhi	r4,16384
    3b50:	29487ec4 	addi	r5,r5,8699
    3b54:	0039883a 	mov	fp,zero
    3b58:	002f883a 	mov	r23,zero
    3b5c:	0025883a 	mov	r18,zero
    3b60:	00000506 	br	3b78 <__kernel_rem_pio2+0x7fc>
    3b64:	9cc00204 	addi	r19,r19,8
    3b68:	a4800f16 	blt	r20,r18,3ba8 <__kernel_rem_pio2+0x82c>
    3b6c:	a9000017 	ldw	r4,0(r21)
    3b70:	a9400117 	ldw	r5,4(r21)
    3b74:	ad400204 	addi	r21,r21,8
    3b78:	99800017 	ldw	r6,0(r19)
    3b7c:	99c00117 	ldw	r7,4(r19)
    3b80:	94800044 	addi	r18,r18,1
    3b84:	0005d540 	call	5d54 <__muldf3>
    3b88:	e009883a 	mov	r4,fp
    3b8c:	b80b883a 	mov	r5,r23
    3b90:	100d883a 	mov	r6,r2
    3b94:	180f883a 	mov	r7,r3
    3b98:	00049740 	call	4974 <__adddf3>
    3b9c:	1039883a 	mov	fp,r2
    3ba0:	182f883a 	mov	r23,r3
    3ba4:	b4bfef0e 	bge	r22,r18,3b64 <__alt_mem_VGA_Subsystem_Char_Buf_Subsystem_Onchip_SRAM+0xf7003b64>
    3ba8:	a00490fa 	slli	r2,r20,3
    3bac:	da008c17 	ldw	r8,560(sp)
    3bb0:	843ffe04 	addi	r16,r16,-8
    3bb4:	d885883a 	add	r2,sp,r2
    3bb8:	10802804 	addi	r2,r2,160
    3bbc:	17000015 	stw	fp,0(r2)
    3bc0:	15c00115 	stw	r23,4(r2)
    3bc4:	a5000044 	addi	r20,r20,1
    3bc8:	823fdb1e 	bne	r16,r8,3b38 <__alt_mem_VGA_Subsystem_Char_Buf_Subsystem_Onchip_SRAM+0xf7003b38>
    3bcc:	da00a617 	ldw	r8,664(sp)
    3bd0:	00800084 	movi	r2,2
    3bd4:	12006616 	blt	r2,r8,3d70 <__kernel_rem_pio2+0x9f4>
    3bd8:	0200de16 	blt	zero,r8,3f54 <__kernel_rem_pio2+0xbd8>
    3bdc:	4000141e 	bne	r8,zero,3c30 <__kernel_rem_pio2+0x8b4>
    3be0:	da008e17 	ldw	r8,568(sp)
    3be4:	d8802804 	addi	r2,sp,160
    3be8:	0007883a 	mov	r3,zero
    3bec:	1225883a 	add	r18,r2,r8
    3bf0:	043fffc4 	movi	r16,-1
    3bf4:	0005883a 	mov	r2,zero
    3bf8:	91800017 	ldw	r6,0(r18)
    3bfc:	91c00117 	ldw	r7,4(r18)
    3c00:	1009883a 	mov	r4,r2
    3c04:	180b883a 	mov	r5,r3
    3c08:	8c7fffc4 	addi	r17,r17,-1
    3c0c:	00049740 	call	4974 <__adddf3>
    3c10:	94bffe04 	addi	r18,r18,-8
    3c14:	8c3ff81e 	bne	r17,r16,3bf8 <__alt_mem_VGA_Subsystem_Char_Buf_Subsystem_Onchip_SRAM+0xf7003bf8>
    3c18:	da008d17 	ldw	r8,564(sp)
    3c1c:	40000126 	beq	r8,zero,3c24 <__kernel_rem_pio2+0x8a8>
    3c20:	18e0003c 	xorhi	r3,r3,32768
    3c24:	da008f17 	ldw	r8,572(sp)
    3c28:	40800015 	stw	r2,0(r8)
    3c2c:	40c00115 	stw	r3,4(r8)
    3c30:	da009117 	ldw	r8,580(sp)
    3c34:	408001cc 	andi	r2,r8,7
    3c38:	dfc0a517 	ldw	ra,660(sp)
    3c3c:	df00a417 	ldw	fp,656(sp)
    3c40:	ddc0a317 	ldw	r23,652(sp)
    3c44:	dd80a217 	ldw	r22,648(sp)
    3c48:	dd40a117 	ldw	r21,644(sp)
    3c4c:	dd00a017 	ldw	r20,640(sp)
    3c50:	dcc09f17 	ldw	r19,636(sp)
    3c54:	dc809e17 	ldw	r18,632(sp)
    3c58:	dc409d17 	ldw	r17,628(sp)
    3c5c:	dc009c17 	ldw	r16,624(sp)
    3c60:	dec0a604 	addi	sp,sp,664
    3c64:	f800283a 	ret
    3c68:	8c400044 	addi	r17,r17,1
    3c6c:	04810d0e 	bge	zero,r18,40a4 <__kernel_rem_pio2+0xd28>
    3c70:	04c00084 	movi	r19,2
    3c74:	003eac06 	br	3728 <__alt_mem_VGA_Subsystem_Char_Buf_Subsystem_Onchip_SRAM+0xf7003728>
    3c78:	0039883a 	mov	fp,zero
    3c7c:	002f883a 	mov	r23,zero
    3c80:	003fc906 	br	3ba8 <__alt_mem_VGA_Subsystem_Char_Buf_Subsystem_Onchip_SRAM+0xf7003ba8>
    3c84:	0029883a 	mov	r20,zero
    3c88:	003ebd06 	br	3780 <__alt_mem_VGA_Subsystem_Char_Buf_Subsystem_Onchip_SRAM+0xf7003780>
    3c8c:	05000044 	movi	r20,1
    3c90:	003eef06 	br	3850 <__alt_mem_VGA_Subsystem_Char_Buf_Subsystem_Onchip_SRAM+0xf7003850>
    3c94:	4029883a 	mov	r20,r8
    3c98:	da009017 	ldw	r8,576(sp)
    3c9c:	a809883a 	mov	r4,r21
    3ca0:	a00b883a 	mov	r5,r20
    3ca4:	020dc83a 	sub	r6,zero,r8
    3ca8:	dc409115 	stw	r17,580(sp)
    3cac:	dd809417 	ldw	r22,592(sp)
    3cb0:	dcc08d15 	stw	r19,564(sp)
    3cb4:	00045e00 	call	45e0 <scalbn>
    3cb8:	000d883a 	mov	r6,zero
    3cbc:	01d05c34 	movhi	r7,16752
    3cc0:	1009883a 	mov	r4,r2
    3cc4:	180b883a 	mov	r5,r3
    3cc8:	102b883a 	mov	r21,r2
    3ccc:	1823883a 	mov	r17,r3
    3cd0:	0005c780 	call	5c78 <__gedf2>
    3cd4:	1000e916 	blt	r2,zero,407c <__kernel_rem_pio2+0xd00>
    3cd8:	000d883a 	mov	r6,zero
    3cdc:	01cf9c34 	movhi	r7,15984
    3ce0:	880b883a 	mov	r5,r17
    3ce4:	a809883a 	mov	r4,r21
    3ce8:	0005d540 	call	5d54 <__muldf3>
    3cec:	180b883a 	mov	r5,r3
    3cf0:	1009883a 	mov	r4,r2
    3cf4:	0006ebc0 	call	6ebc <__fixdfsi>
    3cf8:	1029883a 	mov	r20,r2
    3cfc:	9485883a 	add	r2,r18,r18
    3d00:	1085883a 	add	r2,r2,r2
    3d04:	a009883a 	mov	r4,r20
    3d08:	d8a1883a 	add	r16,sp,r2
    3d0c:	0006f3c0 	call	6f3c <__floatsidf>
    3d10:	000d883a 	mov	r6,zero
    3d14:	01d05c34 	movhi	r7,16752
    3d18:	1009883a 	mov	r4,r2
    3d1c:	180b883a 	mov	r5,r3
    3d20:	0005d540 	call	5d54 <__muldf3>
    3d24:	880b883a 	mov	r5,r17
    3d28:	100d883a 	mov	r6,r2
    3d2c:	180f883a 	mov	r7,r3
    3d30:	a809883a 	mov	r4,r21
    3d34:	00065c00 	call	65c0 <__subdf3>
    3d38:	180b883a 	mov	r5,r3
    3d3c:	1009883a 	mov	r4,r2
    3d40:	0006ebc0 	call	6ebc <__fixdfsi>
    3d44:	da009017 	ldw	r8,576(sp)
    3d48:	94400044 	addi	r17,r18,1
    3d4c:	8c47883a 	add	r3,r17,r17
    3d50:	84007804 	addi	r16,r16,480
    3d54:	18c7883a 	add	r3,r3,r3
    3d58:	80800015 	stw	r2,0(r16)
    3d5c:	d8c7883a 	add	r3,sp,r3
    3d60:	42000604 	addi	r8,r8,24
    3d64:	da009015 	stw	r8,576(sp)
    3d68:	1d007815 	stw	r20,480(r3)
    3d6c:	003f4b06 	br	3a9c <__alt_mem_VGA_Subsystem_Char_Buf_Subsystem_Onchip_SRAM+0xf7003a9c>
    3d70:	da00a617 	ldw	r8,664(sp)
    3d74:	008000c4 	movi	r2,3
    3d78:	40bfad1e 	bne	r8,r2,3c30 <__alt_mem_VGA_Subsystem_Char_Buf_Subsystem_Onchip_SRAM+0xf7003c30>
    3d7c:	0440bc0e 	bge	zero,r17,4070 <__kernel_rem_pio2+0xcf4>
    3d80:	da008e17 	ldw	r8,568(sp)
    3d84:	882090fa 	slli	r16,r17,3
    3d88:	dd402804 	addi	r21,sp,160
    3d8c:	da05883a 	add	r2,sp,r8
    3d90:	10802804 	addi	r2,r2,160
    3d94:	15c00017 	ldw	r23,0(r2)
    3d98:	15800117 	ldw	r22,4(r2)
    3d9c:	8029883a 	mov	r20,r16
    3da0:	843ffe04 	addi	r16,r16,-8
    3da4:	ac21883a 	add	r16,r21,r16
    3da8:	ad29883a 	add	r20,r21,r20
    3dac:	dac02604 	addi	r11,sp,152
    3db0:	8811883a 	mov	r8,r17
    3db4:	84400017 	ldw	r17,0(r16)
    3db8:	87000117 	ldw	fp,4(r16)
    3dbc:	b80d883a 	mov	r6,r23
    3dc0:	b00f883a 	mov	r7,r22
    3dc4:	8809883a 	mov	r4,r17
    3dc8:	e00b883a 	mov	r5,fp
    3dcc:	da009b15 	stw	r8,620(sp)
    3dd0:	dac09915 	stw	r11,612(sp)
    3dd4:	00049740 	call	4974 <__adddf3>
    3dd8:	100d883a 	mov	r6,r2
    3ddc:	180f883a 	mov	r7,r3
    3de0:	8809883a 	mov	r4,r17
    3de4:	e00b883a 	mov	r5,fp
    3de8:	1027883a 	mov	r19,r2
    3dec:	1825883a 	mov	r18,r3
    3df0:	00065c00 	call	65c0 <__subdf3>
    3df4:	b80d883a 	mov	r6,r23
    3df8:	b00f883a 	mov	r7,r22
    3dfc:	1009883a 	mov	r4,r2
    3e00:	180b883a 	mov	r5,r3
    3e04:	00049740 	call	4974 <__adddf3>
    3e08:	dac09917 	ldw	r11,612(sp)
    3e0c:	a0800015 	stw	r2,0(r20)
    3e10:	a0c00115 	stw	r3,4(r20)
    3e14:	84c00015 	stw	r19,0(r16)
    3e18:	84800115 	stw	r18,4(r16)
    3e1c:	843ffe04 	addi	r16,r16,-8
    3e20:	a53ffe04 	addi	r20,r20,-8
    3e24:	982f883a 	mov	r23,r19
    3e28:	902d883a 	mov	r22,r18
    3e2c:	da009b17 	ldw	r8,620(sp)
    3e30:	5c3fe01e 	bne	r11,r16,3db4 <__alt_mem_VGA_Subsystem_Char_Buf_Subsystem_Onchip_SRAM+0xf7003db4>
    3e34:	00800044 	movi	r2,1
    3e38:	12008d0e 	bge	r2,r8,4070 <__kernel_rem_pio2+0xcf4>
    3e3c:	402090fa 	slli	r16,r8,3
    3e40:	da008e17 	ldw	r8,568(sp)
    3e44:	8023883a 	mov	r17,r16
    3e48:	da05883a 	add	r2,sp,r8
    3e4c:	10802804 	addi	r2,r2,160
    3e50:	15800017 	ldw	r22,0(r2)
    3e54:	15000117 	ldw	r20,4(r2)
    3e58:	ac63883a 	add	r17,r21,r17
    3e5c:	843ffe04 	addi	r16,r16,-8
    3e60:	ac21883a 	add	r16,r21,r16
    3e64:	8825883a 	mov	r18,r17
    3e68:	8811883a 	mov	r8,r17
    3e6c:	84400017 	ldw	r17,0(r16)
    3e70:	87000117 	ldw	fp,4(r16)
    3e74:	b009883a 	mov	r4,r22
    3e78:	a00b883a 	mov	r5,r20
    3e7c:	880d883a 	mov	r6,r17
    3e80:	e00f883a 	mov	r7,fp
    3e84:	da009b15 	stw	r8,620(sp)
    3e88:	00049740 	call	4974 <__adddf3>
    3e8c:	100d883a 	mov	r6,r2
    3e90:	180f883a 	mov	r7,r3
    3e94:	8809883a 	mov	r4,r17
    3e98:	e00b883a 	mov	r5,fp
    3e9c:	102f883a 	mov	r23,r2
    3ea0:	1827883a 	mov	r19,r3
    3ea4:	00065c00 	call	65c0 <__subdf3>
    3ea8:	b00d883a 	mov	r6,r22
    3eac:	a00f883a 	mov	r7,r20
    3eb0:	1009883a 	mov	r4,r2
    3eb4:	180b883a 	mov	r5,r3
    3eb8:	00049740 	call	4974 <__adddf3>
    3ebc:	90800015 	stw	r2,0(r18)
    3ec0:	90c00115 	stw	r3,4(r18)
    3ec4:	85c00015 	stw	r23,0(r16)
    3ec8:	84c00115 	stw	r19,4(r16)
    3ecc:	843ffe04 	addi	r16,r16,-8
    3ed0:	94bffe04 	addi	r18,r18,-8
    3ed4:	b82d883a 	mov	r22,r23
    3ed8:	9829883a 	mov	r20,r19
    3edc:	da009b17 	ldw	r8,620(sp)
    3ee0:	ac3fe21e 	bne	r21,r16,3e6c <__alt_mem_VGA_Subsystem_Char_Buf_Subsystem_Onchip_SRAM+0xf7003e6c>
    3ee4:	4023883a 	mov	r17,r8
    3ee8:	dc002a04 	addi	r16,sp,168
    3eec:	0005883a 	mov	r2,zero
    3ef0:	0007883a 	mov	r3,zero
    3ef4:	89800017 	ldw	r6,0(r17)
    3ef8:	89c00117 	ldw	r7,4(r17)
    3efc:	1009883a 	mov	r4,r2
    3f00:	8c7ffe04 	addi	r17,r17,-8
    3f04:	180b883a 	mov	r5,r3
    3f08:	00049740 	call	4974 <__adddf3>
    3f0c:	847ff91e 	bne	r16,r17,3ef4 <__alt_mem_VGA_Subsystem_Char_Buf_Subsystem_Onchip_SRAM+0xf7003ef4>
    3f10:	da008d17 	ldw	r8,564(sp)
    3f14:	40004726 	beq	r8,zero,4034 <__kernel_rem_pio2+0xcb8>
    3f18:	d9002b17 	ldw	r4,172(sp)
    3f1c:	d9402917 	ldw	r5,164(sp)
    3f20:	d9802a17 	ldw	r6,168(sp)
    3f24:	da008f17 	ldw	r8,572(sp)
    3f28:	d9c02817 	ldw	r7,160(sp)
    3f2c:	2960003c 	xorhi	r5,r5,32768
    3f30:	2120003c 	xorhi	r4,r4,32768
    3f34:	18e0003c 	xorhi	r3,r3,32768
    3f38:	41c00015 	stw	r7,0(r8)
    3f3c:	41400115 	stw	r5,4(r8)
    3f40:	41800215 	stw	r6,8(r8)
    3f44:	41000315 	stw	r4,12(r8)
    3f48:	40800415 	stw	r2,16(r8)
    3f4c:	40c00515 	stw	r3,20(r8)
    3f50:	003f3706 	br	3c30 <__alt_mem_VGA_Subsystem_Char_Buf_Subsystem_Onchip_SRAM+0xf7003c30>
    3f54:	da008e17 	ldw	r8,568(sp)
    3f58:	d8802804 	addi	r2,sp,160
    3f5c:	dc002604 	addi	r16,sp,152
    3f60:	1225883a 	add	r18,r2,r8
    3f64:	0007883a 	mov	r3,zero
    3f68:	0005883a 	mov	r2,zero
    3f6c:	91800017 	ldw	r6,0(r18)
    3f70:	91c00117 	ldw	r7,4(r18)
    3f74:	1009883a 	mov	r4,r2
    3f78:	94bffe04 	addi	r18,r18,-8
    3f7c:	180b883a 	mov	r5,r3
    3f80:	00049740 	call	4974 <__adddf3>
    3f84:	943ff91e 	bne	r18,r16,3f6c <__alt_mem_VGA_Subsystem_Char_Buf_Subsystem_Onchip_SRAM+0xf7003f6c>
    3f88:	da008d17 	ldw	r8,564(sp)
    3f8c:	d9002817 	ldw	r4,160(sp)
    3f90:	d9402917 	ldw	r5,164(sp)
    3f94:	40001a26 	beq	r8,zero,4000 <__kernel_rem_pio2+0xc84>
    3f98:	da008f17 	ldw	r8,572(sp)
    3f9c:	19a0003c 	xorhi	r6,r3,32768
    3fa0:	180f883a 	mov	r7,r3
    3fa4:	41800115 	stw	r6,4(r8)
    3fa8:	40800015 	stw	r2,0(r8)
    3fac:	100d883a 	mov	r6,r2
    3fb0:	00065c00 	call	65c0 <__subdf3>
    3fb4:	04400c0e 	bge	zero,r17,3fe8 <__kernel_rem_pio2+0xc6c>
    3fb8:	dc002a04 	addi	r16,sp,168
    3fbc:	04800044 	movi	r18,1
    3fc0:	81800017 	ldw	r6,0(r16)
    3fc4:	81c00117 	ldw	r7,4(r16)
    3fc8:	1009883a 	mov	r4,r2
    3fcc:	180b883a 	mov	r5,r3
    3fd0:	94800044 	addi	r18,r18,1
    3fd4:	00049740 	call	4974 <__adddf3>
    3fd8:	84000204 	addi	r16,r16,8
    3fdc:	8cbff80e 	bge	r17,r18,3fc0 <__alt_mem_VGA_Subsystem_Char_Buf_Subsystem_Onchip_SRAM+0xf7003fc0>
    3fe0:	da008d17 	ldw	r8,564(sp)
    3fe4:	40004226 	beq	r8,zero,40f0 <__kernel_rem_pio2+0xd74>
    3fe8:	da008f17 	ldw	r8,572(sp)
    3fec:	1009883a 	mov	r4,r2
    3ff0:	18a0003c 	xorhi	r2,r3,32768
    3ff4:	41000215 	stw	r4,8(r8)
    3ff8:	40800315 	stw	r2,12(r8)
    3ffc:	003f0c06 	br	3c30 <__alt_mem_VGA_Subsystem_Char_Buf_Subsystem_Onchip_SRAM+0xf7003c30>
    4000:	da008f17 	ldw	r8,572(sp)
    4004:	100d883a 	mov	r6,r2
    4008:	180f883a 	mov	r7,r3
    400c:	40800015 	stw	r2,0(r8)
    4010:	40c00115 	stw	r3,4(r8)
    4014:	00065c00 	call	65c0 <__subdf3>
    4018:	047fe716 	blt	zero,r17,3fb8 <__alt_mem_VGA_Subsystem_Char_Buf_Subsystem_Onchip_SRAM+0xf7003fb8>
    401c:	da008f17 	ldw	r8,572(sp)
    4020:	1009883a 	mov	r4,r2
    4024:	1805883a 	mov	r2,r3
    4028:	41000215 	stw	r4,8(r8)
    402c:	40800315 	stw	r2,12(r8)
    4030:	003eff06 	br	3c30 <__alt_mem_VGA_Subsystem_Char_Buf_Subsystem_Onchip_SRAM+0xf7003c30>
    4034:	da008f17 	ldw	r8,572(sp)
    4038:	d9802817 	ldw	r6,160(sp)
    403c:	d9402a17 	ldw	r5,168(sp)
    4040:	d9002b17 	ldw	r4,172(sp)
    4044:	41800015 	stw	r6,0(r8)
    4048:	d9802917 	ldw	r6,164(sp)
    404c:	41400215 	stw	r5,8(r8)
    4050:	41000315 	stw	r4,12(r8)
    4054:	41800115 	stw	r6,4(r8)
    4058:	40800415 	stw	r2,16(r8)
    405c:	40c00515 	stw	r3,20(r8)
    4060:	003ef306 	br	3c30 <__alt_mem_VGA_Subsystem_Char_Buf_Subsystem_Onchip_SRAM+0xf7003c30>
    4064:	da00a617 	ldw	r8,664(sp)
    4068:	008000c4 	movi	r2,3
    406c:	40bef01e 	bne	r8,r2,3c30 <__alt_mem_VGA_Subsystem_Char_Buf_Subsystem_Onchip_SRAM+0xf7003c30>
    4070:	0005883a 	mov	r2,zero
    4074:	0007883a 	mov	r3,zero
    4078:	003fa506 	br	3f10 <__alt_mem_VGA_Subsystem_Char_Buf_Subsystem_Onchip_SRAM+0xf7003f10>
    407c:	9485883a 	add	r2,r18,r18
    4080:	1085883a 	add	r2,r2,r2
    4084:	d8a1883a 	add	r16,sp,r2
    4088:	880b883a 	mov	r5,r17
    408c:	a809883a 	mov	r4,r21
    4090:	84007804 	addi	r16,r16,480
    4094:	0006ebc0 	call	6ebc <__fixdfsi>
    4098:	80800015 	stw	r2,0(r16)
    409c:	9023883a 	mov	r17,r18
    40a0:	003e7e06 	br	3a9c <__alt_mem_VGA_Subsystem_Char_Buf_Subsystem_Onchip_SRAM+0xf7003a9c>
    40a4:	a80d883a 	mov	r6,r21
    40a8:	400f883a 	mov	r7,r8
    40ac:	0009883a 	mov	r4,zero
    40b0:	014ffc34 	movhi	r5,16368
    40b4:	00065c00 	call	65c0 <__subdf3>
    40b8:	102b883a 	mov	r21,r2
    40bc:	1811883a 	mov	r8,r3
    40c0:	04c00084 	movi	r19,2
    40c4:	003dc006 	br	37c8 <__alt_mem_VGA_Subsystem_Char_Buf_Subsystem_Onchip_SRAM+0xf70037c8>
    40c8:	da00a617 	ldw	r8,664(sp)
    40cc:	00800084 	movi	r2,2
    40d0:	123fe416 	blt	r2,r8,4064 <__alt_mem_VGA_Subsystem_Char_Buf_Subsystem_Onchip_SRAM+0xf7004064>
    40d4:	02000c16 	blt	zero,r8,4108 <__kernel_rem_pio2+0xd8c>
    40d8:	403ed51e 	bne	r8,zero,3c30 <__alt_mem_VGA_Subsystem_Char_Buf_Subsystem_Onchip_SRAM+0xf7003c30>
    40dc:	0005883a 	mov	r2,zero
    40e0:	0007883a 	mov	r3,zero
    40e4:	003ecc06 	br	3c18 <__alt_mem_VGA_Subsystem_Char_Buf_Subsystem_Onchip_SRAM+0xf7003c18>
    40e8:	d8009215 	stw	zero,584(sp)
    40ec:	003cc106 	br	33f4 <__alt_mem_VGA_Subsystem_Char_Buf_Subsystem_Onchip_SRAM+0xf70033f4>
    40f0:	da008f17 	ldw	r8,572(sp)
    40f4:	1009883a 	mov	r4,r2
    40f8:	1805883a 	mov	r2,r3
    40fc:	41000215 	stw	r4,8(r8)
    4100:	40800315 	stw	r2,12(r8)
    4104:	003eca06 	br	3c30 <__alt_mem_VGA_Subsystem_Char_Buf_Subsystem_Onchip_SRAM+0xf7003c30>
    4108:	0005883a 	mov	r2,zero
    410c:	0007883a 	mov	r3,zero
    4110:	003f9d06 	br	3f88 <__alt_mem_VGA_Subsystem_Char_Buf_Subsystem_Onchip_SRAM+0xf7003f88>

00004114 <__kernel_sin>:
    4114:	00a00034 	movhi	r2,32768
    4118:	defff404 	addi	sp,sp,-48
    411c:	10bfffc4 	addi	r2,r2,-1
    4120:	00cf9034 	movhi	r3,15936
    4124:	ddc00915 	stw	r23,36(sp)
    4128:	dd800815 	stw	r22,32(sp)
    412c:	dc400315 	stw	r17,12(sp)
    4130:	dc000215 	stw	r16,8(sp)
    4134:	dfc00b15 	stw	ra,44(sp)
    4138:	df000a15 	stw	fp,40(sp)
    413c:	dd400715 	stw	r21,28(sp)
    4140:	dd000615 	stw	r20,24(sp)
    4144:	dcc00515 	stw	r19,20(sp)
    4148:	dc800415 	stw	r18,16(sp)
    414c:	2884703a 	and	r2,r5,r2
    4150:	18ffffc4 	addi	r3,r3,-1
    4154:	2821883a 	mov	r16,r5
    4158:	2023883a 	mov	r17,r4
    415c:	302f883a 	mov	r23,r6
    4160:	382d883a 	mov	r22,r7
    4164:	18800216 	blt	r3,r2,4170 <__kernel_sin+0x5c>
    4168:	0006ebc0 	call	6ebc <__fixdfsi>
    416c:	10009926 	beq	r2,zero,43d4 <__kernel_sin+0x2c0>
    4170:	880d883a 	mov	r6,r17
    4174:	800f883a 	mov	r7,r16
    4178:	8809883a 	mov	r4,r17
    417c:	800b883a 	mov	r5,r16
    4180:	0005d540 	call	5d54 <__muldf3>
    4184:	100d883a 	mov	r6,r2
    4188:	180f883a 	mov	r7,r3
    418c:	8809883a 	mov	r4,r17
    4190:	800b883a 	mov	r5,r16
    4194:	1027883a 	mov	r19,r2
    4198:	1825883a 	mov	r18,r3
    419c:	0005d540 	call	5d54 <__muldf3>
    41a0:	0196b434 	movhi	r6,23248
    41a4:	01cf79b4 	movhi	r7,15846
    41a8:	31b55f04 	addi	r6,r6,-10884
    41ac:	39f64e84 	addi	r7,r7,-9926
    41b0:	9809883a 	mov	r4,r19
    41b4:	900b883a 	mov	r5,r18
    41b8:	102b883a 	mov	r21,r2
    41bc:	1829883a 	mov	r20,r3
    41c0:	0005d540 	call	5d54 <__muldf3>
    41c4:	01a28b34 	movhi	r6,35372
    41c8:	01cf96f4 	movhi	r7,15963
    41cc:	31a73ac4 	addi	r6,r6,-25365
    41d0:	39f97984 	addi	r7,r7,-6682
    41d4:	1009883a 	mov	r4,r2
    41d8:	180b883a 	mov	r5,r3
    41dc:	00065c00 	call	65c0 <__subdf3>
    41e0:	980d883a 	mov	r6,r19
    41e4:	900f883a 	mov	r7,r18
    41e8:	1009883a 	mov	r4,r2
    41ec:	180b883a 	mov	r5,r3
    41f0:	0005d540 	call	5d54 <__muldf3>
    41f4:	0195ecb4 	movhi	r6,22450
    41f8:	01cfb1f4 	movhi	r7,16071
    41fc:	31bf9f44 	addi	r6,r6,-387
    4200:	39c778c4 	addi	r7,r7,7651
    4204:	1009883a 	mov	r4,r2
    4208:	180b883a 	mov	r5,r3
    420c:	00049740 	call	4974 <__adddf3>
    4210:	980d883a 	mov	r6,r19
    4214:	900f883a 	mov	r7,r18
    4218:	1009883a 	mov	r4,r2
    421c:	180b883a 	mov	r5,r3
    4220:	0005d540 	call	5d54 <__muldf3>
    4224:	01867074 	movhi	r6,6593
    4228:	01cfcab4 	movhi	r7,16170
    422c:	31987544 	addi	r6,r6,25045
    4230:	39c06804 	addi	r7,r7,416
    4234:	1009883a 	mov	r4,r2
    4238:	180b883a 	mov	r5,r3
    423c:	00065c00 	call	65c0 <__subdf3>
    4240:	980d883a 	mov	r6,r19
    4244:	900f883a 	mov	r7,r18
    4248:	1009883a 	mov	r4,r2
    424c:	180b883a 	mov	r5,r3
    4250:	0005d540 	call	5d54 <__muldf3>
    4254:	01844474 	movhi	r6,4369
    4258:	01cfe074 	movhi	r7,16257
    425c:	31be2984 	addi	r6,r6,-1882
    4260:	39c44444 	addi	r7,r7,4369
    4264:	1009883a 	mov	r4,r2
    4268:	180b883a 	mov	r5,r3
    426c:	00049740 	call	4974 <__adddf3>
    4270:	1011883a 	mov	r8,r2
    4274:	d8800c17 	ldw	r2,48(sp)
    4278:	1839883a 	mov	fp,r3
    427c:	10003e26 	beq	r2,zero,4378 <__kernel_sin+0x264>
    4280:	000d883a 	mov	r6,zero
    4284:	01cff834 	movhi	r7,16352
    4288:	b809883a 	mov	r4,r23
    428c:	b00b883a 	mov	r5,r22
    4290:	da000015 	stw	r8,0(sp)
    4294:	0005d540 	call	5d54 <__muldf3>
    4298:	da000017 	ldw	r8,0(sp)
    429c:	e00f883a 	mov	r7,fp
    42a0:	a809883a 	mov	r4,r21
    42a4:	400d883a 	mov	r6,r8
    42a8:	a00b883a 	mov	r5,r20
    42ac:	d8c00115 	stw	r3,4(sp)
    42b0:	d8800015 	stw	r2,0(sp)
    42b4:	0005d540 	call	5d54 <__muldf3>
    42b8:	da800017 	ldw	r10,0(sp)
    42bc:	da400117 	ldw	r9,4(sp)
    42c0:	100d883a 	mov	r6,r2
    42c4:	5009883a 	mov	r4,r10
    42c8:	480b883a 	mov	r5,r9
    42cc:	180f883a 	mov	r7,r3
    42d0:	00065c00 	call	65c0 <__subdf3>
    42d4:	980d883a 	mov	r6,r19
    42d8:	900f883a 	mov	r7,r18
    42dc:	1009883a 	mov	r4,r2
    42e0:	180b883a 	mov	r5,r3
    42e4:	0005d540 	call	5d54 <__muldf3>
    42e8:	b80d883a 	mov	r6,r23
    42ec:	b00f883a 	mov	r7,r22
    42f0:	1009883a 	mov	r4,r2
    42f4:	180b883a 	mov	r5,r3
    42f8:	00065c00 	call	65c0 <__subdf3>
    42fc:	01955574 	movhi	r6,21845
    4300:	01cff174 	movhi	r7,16325
    4304:	31955244 	addi	r6,r6,21833
    4308:	39d55544 	addi	r7,r7,21845
    430c:	a809883a 	mov	r4,r21
    4310:	a00b883a 	mov	r5,r20
    4314:	1027883a 	mov	r19,r2
    4318:	1825883a 	mov	r18,r3
    431c:	0005d540 	call	5d54 <__muldf3>
    4320:	100d883a 	mov	r6,r2
    4324:	180f883a 	mov	r7,r3
    4328:	9809883a 	mov	r4,r19
    432c:	900b883a 	mov	r5,r18
    4330:	00049740 	call	4974 <__adddf3>
    4334:	100d883a 	mov	r6,r2
    4338:	180f883a 	mov	r7,r3
    433c:	8809883a 	mov	r4,r17
    4340:	800b883a 	mov	r5,r16
    4344:	00065c00 	call	65c0 <__subdf3>
    4348:	dfc00b17 	ldw	ra,44(sp)
    434c:	df000a17 	ldw	fp,40(sp)
    4350:	ddc00917 	ldw	r23,36(sp)
    4354:	dd800817 	ldw	r22,32(sp)
    4358:	dd400717 	ldw	r21,28(sp)
    435c:	dd000617 	ldw	r20,24(sp)
    4360:	dcc00517 	ldw	r19,20(sp)
    4364:	dc800417 	ldw	r18,16(sp)
    4368:	dc400317 	ldw	r17,12(sp)
    436c:	dc000217 	ldw	r16,8(sp)
    4370:	dec00c04 	addi	sp,sp,48
    4374:	f800283a 	ret
    4378:	400d883a 	mov	r6,r8
    437c:	9809883a 	mov	r4,r19
    4380:	900b883a 	mov	r5,r18
    4384:	180f883a 	mov	r7,r3
    4388:	0005d540 	call	5d54 <__muldf3>
    438c:	01955574 	movhi	r6,21845
    4390:	01cff174 	movhi	r7,16325
    4394:	31955244 	addi	r6,r6,21833
    4398:	39d55544 	addi	r7,r7,21845
    439c:	1009883a 	mov	r4,r2
    43a0:	180b883a 	mov	r5,r3
    43a4:	00065c00 	call	65c0 <__subdf3>
    43a8:	a80d883a 	mov	r6,r21
    43ac:	a00f883a 	mov	r7,r20
    43b0:	1009883a 	mov	r4,r2
    43b4:	180b883a 	mov	r5,r3
    43b8:	0005d540 	call	5d54 <__muldf3>
    43bc:	880d883a 	mov	r6,r17
    43c0:	800f883a 	mov	r7,r16
    43c4:	1009883a 	mov	r4,r2
    43c8:	180b883a 	mov	r5,r3
    43cc:	00049740 	call	4974 <__adddf3>
    43d0:	003fdd06 	br	4348 <__alt_mem_VGA_Subsystem_Char_Buf_Subsystem_Onchip_SRAM+0xf7004348>
    43d4:	8805883a 	mov	r2,r17
    43d8:	8007883a 	mov	r3,r16
    43dc:	003fda06 	br	4348 <__alt_mem_VGA_Subsystem_Char_Buf_Subsystem_Onchip_SRAM+0xf7004348>

000043e0 <fabs>:
    43e0:	00e00034 	movhi	r3,32768
    43e4:	18ffffc4 	addi	r3,r3,-1
    43e8:	2005883a 	mov	r2,r4
    43ec:	28c6703a 	and	r3,r5,r3
    43f0:	f800283a 	ret

000043f4 <floor>:
    43f4:	2811d53a 	srai	r8,r5,20
    43f8:	defffa04 	addi	sp,sp,-24
    43fc:	dcc00315 	stw	r19,12(sp)
    4400:	4201ffcc 	andi	r8,r8,2047
    4404:	dc800215 	stw	r18,8(sp)
    4408:	dc400115 	stw	r17,4(sp)
    440c:	dc000015 	stw	r16,0(sp)
    4410:	dfc00515 	stw	ra,20(sp)
    4414:	dd000415 	stw	r20,16(sp)
    4418:	44bf0044 	addi	r18,r8,-1023
    441c:	018004c4 	movi	r6,19
    4420:	2821883a 	mov	r16,r5
    4424:	2005883a 	mov	r2,r4
    4428:	280f883a 	mov	r7,r5
    442c:	2827883a 	mov	r19,r5
    4430:	2023883a 	mov	r17,r4
    4434:	34801916 	blt	r6,r18,449c <floor+0xa8>
    4438:	90003c16 	blt	r18,zero,452c <floor+0x138>
    443c:	05000434 	movhi	r20,16
    4440:	a53fffc4 	addi	r20,r20,-1
    4444:	a4a9d83a 	sra	r20,r20,r18
    4448:	2d0c703a 	and	r6,r5,r20
    444c:	310cb03a 	or	r6,r6,r4
    4450:	30001626 	beq	r6,zero,44ac <floor+0xb8>
    4454:	01a20034 	movhi	r6,34816
    4458:	01df8e34 	movhi	r7,32312
    445c:	319d6704 	addi	r6,r6,30108
    4460:	39f90f04 	addi	r7,r7,-7108
    4464:	00049740 	call	4974 <__adddf3>
    4468:	000d883a 	mov	r6,zero
    446c:	000f883a 	mov	r7,zero
    4470:	1009883a 	mov	r4,r2
    4474:	180b883a 	mov	r5,r3
    4478:	0005c780 	call	5c78 <__gedf2>
    447c:	0080040e 	bge	zero,r2,4490 <floor+0x9c>
    4480:	80003c16 	blt	r16,zero,4574 <floor+0x180>
    4484:	0520303a 	nor	r16,zero,r20
    4488:	84e0703a 	and	r16,r16,r19
    448c:	0023883a 	mov	r17,zero
    4490:	8805883a 	mov	r2,r17
    4494:	8007883a 	mov	r3,r16
    4498:	00000506 	br	44b0 <floor+0xbc>
    449c:	01800cc4 	movi	r6,51
    44a0:	34800b0e 	bge	r6,r18,44d0 <floor+0xdc>
    44a4:	01810004 	movi	r6,1024
    44a8:	91802f26 	beq	r18,r6,4568 <floor+0x174>
    44ac:	3807883a 	mov	r3,r7
    44b0:	dfc00517 	ldw	ra,20(sp)
    44b4:	dd000417 	ldw	r20,16(sp)
    44b8:	dcc00317 	ldw	r19,12(sp)
    44bc:	dc800217 	ldw	r18,8(sp)
    44c0:	dc400117 	ldw	r17,4(sp)
    44c4:	dc000017 	ldw	r16,0(sp)
    44c8:	dec00604 	addi	sp,sp,24
    44cc:	f800283a 	ret
    44d0:	423efb44 	addi	r8,r8,-1043
    44d4:	053fffc4 	movi	r20,-1
    44d8:	a228d83a 	srl	r20,r20,r8
    44dc:	250c703a 	and	r6,r4,r20
    44e0:	303ff226 	beq	r6,zero,44ac <__alt_mem_VGA_Subsystem_Char_Buf_Subsystem_Onchip_SRAM+0xf70044ac>
    44e4:	01a20034 	movhi	r6,34816
    44e8:	01df8e34 	movhi	r7,32312
    44ec:	319d6704 	addi	r6,r6,30108
    44f0:	39f90f04 	addi	r7,r7,-7108
    44f4:	00049740 	call	4974 <__adddf3>
    44f8:	000d883a 	mov	r6,zero
    44fc:	000f883a 	mov	r7,zero
    4500:	1009883a 	mov	r4,r2
    4504:	180b883a 	mov	r5,r3
    4508:	0005c780 	call	5c78 <__gedf2>
    450c:	00bfe00e 	bge	zero,r2,4490 <__alt_mem_VGA_Subsystem_Char_Buf_Subsystem_Onchip_SRAM+0xf7004490>
    4510:	80001c16 	blt	r16,zero,4584 <floor+0x190>
    4514:	0510303a 	nor	r8,zero,r20
    4518:	9821883a 	mov	r16,r19
    451c:	8a22703a 	and	r17,r17,r8
    4520:	8805883a 	mov	r2,r17
    4524:	8007883a 	mov	r3,r16
    4528:	003fe106 	br	44b0 <__alt_mem_VGA_Subsystem_Char_Buf_Subsystem_Onchip_SRAM+0xf70044b0>
    452c:	01a20034 	movhi	r6,34816
    4530:	01df8e34 	movhi	r7,32312
    4534:	319d6704 	addi	r6,r6,30108
    4538:	39f90f04 	addi	r7,r7,-7108
    453c:	00049740 	call	4974 <__adddf3>
    4540:	000d883a 	mov	r6,zero
    4544:	000f883a 	mov	r7,zero
    4548:	1009883a 	mov	r4,r2
    454c:	180b883a 	mov	r5,r3
    4550:	0005c780 	call	5c78 <__gedf2>
    4554:	00bfce0e 	bge	zero,r2,4490 <__alt_mem_VGA_Subsystem_Char_Buf_Subsystem_Onchip_SRAM+0xf7004490>
    4558:	80001516 	blt	r16,zero,45b0 <floor+0x1bc>
    455c:	0023883a 	mov	r17,zero
    4560:	0021883a 	mov	r16,zero
    4564:	003fca06 	br	4490 <__alt_mem_VGA_Subsystem_Char_Buf_Subsystem_Onchip_SRAM+0xf7004490>
    4568:	200d883a 	mov	r6,r4
    456c:	00049740 	call	4974 <__adddf3>
    4570:	003fcf06 	br	44b0 <__alt_mem_VGA_Subsystem_Char_Buf_Subsystem_Onchip_SRAM+0xf70044b0>
    4574:	00800434 	movhi	r2,16
    4578:	14a5d83a 	sra	r18,r2,r18
    457c:	84a7883a 	add	r19,r16,r18
    4580:	003fc006 	br	4484 <__alt_mem_VGA_Subsystem_Char_Buf_Subsystem_Onchip_SRAM+0xf7004484>
    4584:	00800504 	movi	r2,20
    4588:	90801326 	beq	r18,r2,45d8 <floor+0x1e4>
    458c:	00800d04 	movi	r2,52
    4590:	14a5c83a 	sub	r18,r2,r18
    4594:	00800044 	movi	r2,1
    4598:	1484983a 	sll	r2,r2,r18
    459c:	1445883a 	add	r2,r2,r17
    45a0:	14400b2e 	bgeu	r2,r17,45d0 <floor+0x1dc>
    45a4:	84c00044 	addi	r19,r16,1
    45a8:	1023883a 	mov	r17,r2
    45ac:	003fd906 	br	4514 <__alt_mem_VGA_Subsystem_Char_Buf_Subsystem_Onchip_SRAM+0xf7004514>
    45b0:	00a00034 	movhi	r2,32768
    45b4:	10bfffc4 	addi	r2,r2,-1
    45b8:	8084703a 	and	r2,r16,r2
    45bc:	1462b03a 	or	r17,r2,r17
    45c0:	883fb326 	beq	r17,zero,4490 <__alt_mem_VGA_Subsystem_Char_Buf_Subsystem_Onchip_SRAM+0xf7004490>
    45c4:	0023883a 	mov	r17,zero
    45c8:	042ffc34 	movhi	r16,49136
    45cc:	003fb006 	br	4490 <__alt_mem_VGA_Subsystem_Char_Buf_Subsystem_Onchip_SRAM+0xf7004490>
    45d0:	1023883a 	mov	r17,r2
    45d4:	003fcf06 	br	4514 <__alt_mem_VGA_Subsystem_Char_Buf_Subsystem_Onchip_SRAM+0xf7004514>
    45d8:	84c00044 	addi	r19,r16,1
    45dc:	003fcd06 	br	4514 <__alt_mem_VGA_Subsystem_Char_Buf_Subsystem_Onchip_SRAM+0xf7004514>

000045e0 <scalbn>:
    45e0:	2a1ffc2c 	andhi	r8,r5,32752
    45e4:	4011d53a 	srai	r8,r8,20
    45e8:	defffe04 	addi	sp,sp,-8
    45ec:	dc000015 	stw	r16,0(sp)
    45f0:	dfc00115 	stw	ra,4(sp)
    45f4:	280f883a 	mov	r7,r5
    45f8:	2015883a 	mov	r10,r4
    45fc:	3021883a 	mov	r16,r6
    4600:	40001e1e 	bne	r8,zero,467c <scalbn+0x9c>
    4604:	00a00034 	movhi	r2,32768
    4608:	10bfffc4 	addi	r2,r2,-1
    460c:	2884703a 	and	r2,r5,r2
    4610:	1104b03a 	or	r2,r2,r4
    4614:	10002226 	beq	r2,zero,46a0 <scalbn+0xc0>
    4618:	01d0d434 	movhi	r7,17232
    461c:	000d883a 	mov	r6,zero
    4620:	0005d540 	call	5d54 <__muldf3>
    4624:	013ffff4 	movhi	r4,65535
    4628:	210f2c04 	addi	r4,r4,15536
    462c:	1015883a 	mov	r10,r2
    4630:	180f883a 	mov	r7,r3
    4634:	81002a16 	blt	r16,r4,46e0 <scalbn+0x100>
    4638:	191ffc2c 	andhi	r4,r3,32752
    463c:	2009d53a 	srai	r4,r4,20
    4640:	223ff284 	addi	r8,r4,-54
    4644:	8211883a 	add	r8,r16,r8
    4648:	0081ff84 	movi	r2,2046
    464c:	12002f16 	blt	r2,r8,470c <scalbn+0x12c>
    4650:	0200190e 	bge	zero,r8,46b8 <scalbn+0xd8>
    4654:	4010953a 	slli	r8,r8,20
    4658:	01600434 	movhi	r5,32784
    465c:	297fffc4 	addi	r5,r5,-1
    4660:	194e703a 	and	r7,r3,r5
    4664:	5005883a 	mov	r2,r10
    4668:	3a06b03a 	or	r3,r7,r8
    466c:	dfc00117 	ldw	ra,4(sp)
    4670:	dc000017 	ldw	r16,0(sp)
    4674:	dec00204 	addi	sp,sp,8
    4678:	f800283a 	ret
    467c:	0081ffc4 	movi	r2,2047
    4680:	2807883a 	mov	r3,r5
    4684:	40bfef1e 	bne	r8,r2,4644 <__alt_mem_VGA_Subsystem_Char_Buf_Subsystem_Onchip_SRAM+0xf7004644>
    4688:	200d883a 	mov	r6,r4
    468c:	00049740 	call	4974 <__adddf3>
    4690:	dfc00117 	ldw	ra,4(sp)
    4694:	dc000017 	ldw	r16,0(sp)
    4698:	dec00204 	addi	sp,sp,8
    469c:	f800283a 	ret
    46a0:	2005883a 	mov	r2,r4
    46a4:	2807883a 	mov	r3,r5
    46a8:	dfc00117 	ldw	ra,4(sp)
    46ac:	dc000017 	ldw	r16,0(sp)
    46b0:	dec00204 	addi	sp,sp,8
    46b4:	f800283a 	ret
    46b8:	00bff2c4 	movi	r2,-53
    46bc:	4080240e 	bge	r8,r2,4750 <scalbn+0x170>
    46c0:	00b0d414 	movui	r2,50000
    46c4:	14001116 	blt	r2,r16,470c <scalbn+0x12c>
    46c8:	0130be74 	movhi	r4,49913
    46cc:	01406974 	movhi	r5,421
    46d0:	213cd644 	addi	r4,r4,-3239
    46d4:	295b87c4 	addi	r5,r5,28191
    46d8:	500d883a 	mov	r6,r10
    46dc:	000477c0 	call	477c <copysign>
    46e0:	01b0be74 	movhi	r6,49913
    46e4:	01c06974 	movhi	r7,421
    46e8:	31bcd644 	addi	r6,r6,-3239
    46ec:	39db87c4 	addi	r7,r7,28191
    46f0:	1009883a 	mov	r4,r2
    46f4:	180b883a 	mov	r5,r3
    46f8:	0005d540 	call	5d54 <__muldf3>
    46fc:	dfc00117 	ldw	ra,4(sp)
    4700:	dc000017 	ldw	r16,0(sp)
    4704:	dec00204 	addi	sp,sp,8
    4708:	f800283a 	ret
    470c:	01220034 	movhi	r4,34816
    4710:	015f8e34 	movhi	r5,32312
    4714:	500d883a 	mov	r6,r10
    4718:	211d6704 	addi	r4,r4,30108
    471c:	29790f04 	addi	r5,r5,-7108
    4720:	000477c0 	call	477c <copysign>
    4724:	01a20034 	movhi	r6,34816
    4728:	01df8e34 	movhi	r7,32312
    472c:	319d6704 	addi	r6,r6,30108
    4730:	39f90f04 	addi	r7,r7,-7108
    4734:	1009883a 	mov	r4,r2
    4738:	180b883a 	mov	r5,r3
    473c:	0005d540 	call	5d54 <__muldf3>
    4740:	dfc00117 	ldw	ra,4(sp)
    4744:	dc000017 	ldw	r16,0(sp)
    4748:	dec00204 	addi	sp,sp,8
    474c:	f800283a 	ret
    4750:	42000d84 	addi	r8,r8,54
    4754:	4012953a 	slli	r9,r8,20
    4758:	01e00434 	movhi	r7,32784
    475c:	39ffffc4 	addi	r7,r7,-1
    4760:	19ca703a 	and	r5,r3,r7
    4764:	000d883a 	mov	r6,zero
    4768:	01cf2434 	movhi	r7,15504
    476c:	5009883a 	mov	r4,r10
    4770:	494ab03a 	or	r5,r9,r5
    4774:	0005d540 	call	5d54 <__muldf3>
    4778:	003fbc06 	br	466c <__alt_mem_VGA_Subsystem_Char_Buf_Subsystem_Onchip_SRAM+0xf700466c>

0000477c <copysign>:
    477c:	2005883a 	mov	r2,r4
    4780:	01200034 	movhi	r4,32768
    4784:	213fffc4 	addi	r4,r4,-1
    4788:	38e0002c 	andhi	r3,r7,32768
    478c:	290a703a 	and	r5,r5,r4
    4790:	28c6b03a 	or	r3,r5,r3
    4794:	f800283a 	ret

00004798 <__divsi3>:
    4798:	20001b16 	blt	r4,zero,4808 <__divsi3+0x70>
    479c:	000f883a 	mov	r7,zero
    47a0:	28001616 	blt	r5,zero,47fc <__divsi3+0x64>
    47a4:	200d883a 	mov	r6,r4
    47a8:	29001a2e 	bgeu	r5,r4,4814 <__divsi3+0x7c>
    47ac:	00800804 	movi	r2,32
    47b0:	00c00044 	movi	r3,1
    47b4:	00000106 	br	47bc <__divsi3+0x24>
    47b8:	10000d26 	beq	r2,zero,47f0 <__divsi3+0x58>
    47bc:	294b883a 	add	r5,r5,r5
    47c0:	10bfffc4 	addi	r2,r2,-1
    47c4:	18c7883a 	add	r3,r3,r3
    47c8:	293ffb36 	bltu	r5,r4,47b8 <__alt_mem_VGA_Subsystem_Char_Buf_Subsystem_Onchip_SRAM+0xf70047b8>
    47cc:	0005883a 	mov	r2,zero
    47d0:	18000726 	beq	r3,zero,47f0 <__divsi3+0x58>
    47d4:	0005883a 	mov	r2,zero
    47d8:	31400236 	bltu	r6,r5,47e4 <__divsi3+0x4c>
    47dc:	314dc83a 	sub	r6,r6,r5
    47e0:	10c4b03a 	or	r2,r2,r3
    47e4:	1806d07a 	srli	r3,r3,1
    47e8:	280ad07a 	srli	r5,r5,1
    47ec:	183ffa1e 	bne	r3,zero,47d8 <__alt_mem_VGA_Subsystem_Char_Buf_Subsystem_Onchip_SRAM+0xf70047d8>
    47f0:	38000126 	beq	r7,zero,47f8 <__divsi3+0x60>
    47f4:	0085c83a 	sub	r2,zero,r2
    47f8:	f800283a 	ret
    47fc:	014bc83a 	sub	r5,zero,r5
    4800:	39c0005c 	xori	r7,r7,1
    4804:	003fe706 	br	47a4 <__alt_mem_VGA_Subsystem_Char_Buf_Subsystem_Onchip_SRAM+0xf70047a4>
    4808:	0109c83a 	sub	r4,zero,r4
    480c:	01c00044 	movi	r7,1
    4810:	003fe306 	br	47a0 <__alt_mem_VGA_Subsystem_Char_Buf_Subsystem_Onchip_SRAM+0xf70047a0>
    4814:	00c00044 	movi	r3,1
    4818:	003fee06 	br	47d4 <__alt_mem_VGA_Subsystem_Char_Buf_Subsystem_Onchip_SRAM+0xf70047d4>

0000481c <__modsi3>:
    481c:	20001716 	blt	r4,zero,487c <__modsi3+0x60>
    4820:	000f883a 	mov	r7,zero
    4824:	2005883a 	mov	r2,r4
    4828:	28001216 	blt	r5,zero,4874 <__modsi3+0x58>
    482c:	2900162e 	bgeu	r5,r4,4888 <__modsi3+0x6c>
    4830:	01800804 	movi	r6,32
    4834:	00c00044 	movi	r3,1
    4838:	00000106 	br	4840 <__modsi3+0x24>
    483c:	30000a26 	beq	r6,zero,4868 <__modsi3+0x4c>
    4840:	294b883a 	add	r5,r5,r5
    4844:	31bfffc4 	addi	r6,r6,-1
    4848:	18c7883a 	add	r3,r3,r3
    484c:	293ffb36 	bltu	r5,r4,483c <__alt_mem_VGA_Subsystem_Char_Buf_Subsystem_Onchip_SRAM+0xf700483c>
    4850:	18000526 	beq	r3,zero,4868 <__modsi3+0x4c>
    4854:	1806d07a 	srli	r3,r3,1
    4858:	11400136 	bltu	r2,r5,4860 <__modsi3+0x44>
    485c:	1145c83a 	sub	r2,r2,r5
    4860:	280ad07a 	srli	r5,r5,1
    4864:	183ffb1e 	bne	r3,zero,4854 <__alt_mem_VGA_Subsystem_Char_Buf_Subsystem_Onchip_SRAM+0xf7004854>
    4868:	38000126 	beq	r7,zero,4870 <__modsi3+0x54>
    486c:	0085c83a 	sub	r2,zero,r2
    4870:	f800283a 	ret
    4874:	014bc83a 	sub	r5,zero,r5
    4878:	003fec06 	br	482c <__alt_mem_VGA_Subsystem_Char_Buf_Subsystem_Onchip_SRAM+0xf700482c>
    487c:	0109c83a 	sub	r4,zero,r4
    4880:	01c00044 	movi	r7,1
    4884:	003fe706 	br	4824 <__alt_mem_VGA_Subsystem_Char_Buf_Subsystem_Onchip_SRAM+0xf7004824>
    4888:	00c00044 	movi	r3,1
    488c:	003ff106 	br	4854 <__alt_mem_VGA_Subsystem_Char_Buf_Subsystem_Onchip_SRAM+0xf7004854>

00004890 <__udivsi3>:
    4890:	200d883a 	mov	r6,r4
    4894:	2900152e 	bgeu	r5,r4,48ec <__udivsi3+0x5c>
    4898:	28001416 	blt	r5,zero,48ec <__udivsi3+0x5c>
    489c:	00800804 	movi	r2,32
    48a0:	00c00044 	movi	r3,1
    48a4:	00000206 	br	48b0 <__udivsi3+0x20>
    48a8:	10000e26 	beq	r2,zero,48e4 <__udivsi3+0x54>
    48ac:	28000516 	blt	r5,zero,48c4 <__udivsi3+0x34>
    48b0:	294b883a 	add	r5,r5,r5
    48b4:	10bfffc4 	addi	r2,r2,-1
    48b8:	18c7883a 	add	r3,r3,r3
    48bc:	293ffa36 	bltu	r5,r4,48a8 <__alt_mem_VGA_Subsystem_Char_Buf_Subsystem_Onchip_SRAM+0xf70048a8>
    48c0:	18000826 	beq	r3,zero,48e4 <__udivsi3+0x54>
    48c4:	0005883a 	mov	r2,zero
    48c8:	31400236 	bltu	r6,r5,48d4 <__udivsi3+0x44>
    48cc:	314dc83a 	sub	r6,r6,r5
    48d0:	10c4b03a 	or	r2,r2,r3
    48d4:	1806d07a 	srli	r3,r3,1
    48d8:	280ad07a 	srli	r5,r5,1
    48dc:	183ffa1e 	bne	r3,zero,48c8 <__alt_mem_VGA_Subsystem_Char_Buf_Subsystem_Onchip_SRAM+0xf70048c8>
    48e0:	f800283a 	ret
    48e4:	0005883a 	mov	r2,zero
    48e8:	f800283a 	ret
    48ec:	00c00044 	movi	r3,1
    48f0:	003ff406 	br	48c4 <__alt_mem_VGA_Subsystem_Char_Buf_Subsystem_Onchip_SRAM+0xf70048c4>

000048f4 <__umodsi3>:
    48f4:	2005883a 	mov	r2,r4
    48f8:	2900122e 	bgeu	r5,r4,4944 <__umodsi3+0x50>
    48fc:	28001116 	blt	r5,zero,4944 <__umodsi3+0x50>
    4900:	01800804 	movi	r6,32
    4904:	00c00044 	movi	r3,1
    4908:	00000206 	br	4914 <__umodsi3+0x20>
    490c:	30000c26 	beq	r6,zero,4940 <__umodsi3+0x4c>
    4910:	28000516 	blt	r5,zero,4928 <__umodsi3+0x34>
    4914:	294b883a 	add	r5,r5,r5
    4918:	31bfffc4 	addi	r6,r6,-1
    491c:	18c7883a 	add	r3,r3,r3
    4920:	293ffa36 	bltu	r5,r4,490c <__alt_mem_VGA_Subsystem_Char_Buf_Subsystem_Onchip_SRAM+0xf700490c>
    4924:	18000626 	beq	r3,zero,4940 <__umodsi3+0x4c>
    4928:	1806d07a 	srli	r3,r3,1
    492c:	11400136 	bltu	r2,r5,4934 <__umodsi3+0x40>
    4930:	1145c83a 	sub	r2,r2,r5
    4934:	280ad07a 	srli	r5,r5,1
    4938:	183ffb1e 	bne	r3,zero,4928 <__alt_mem_VGA_Subsystem_Char_Buf_Subsystem_Onchip_SRAM+0xf7004928>
    493c:	f800283a 	ret
    4940:	f800283a 	ret
    4944:	00c00044 	movi	r3,1
    4948:	003ff706 	br	4928 <__alt_mem_VGA_Subsystem_Char_Buf_Subsystem_Onchip_SRAM+0xf7004928>

0000494c <__mulsi3>:
    494c:	0005883a 	mov	r2,zero
    4950:	20000726 	beq	r4,zero,4970 <__mulsi3+0x24>
    4954:	20c0004c 	andi	r3,r4,1
    4958:	2008d07a 	srli	r4,r4,1
    495c:	18000126 	beq	r3,zero,4964 <__mulsi3+0x18>
    4960:	1145883a 	add	r2,r2,r5
    4964:	294b883a 	add	r5,r5,r5
    4968:	203ffa1e 	bne	r4,zero,4954 <__alt_mem_VGA_Subsystem_Char_Buf_Subsystem_Onchip_SRAM+0xf7004954>
    496c:	f800283a 	ret
    4970:	f800283a 	ret

00004974 <__adddf3>:
    4974:	02c00434 	movhi	r11,16
    4978:	5affffc4 	addi	r11,r11,-1
    497c:	2806d7fa 	srli	r3,r5,31
    4980:	2ad4703a 	and	r10,r5,r11
    4984:	3ad2703a 	and	r9,r7,r11
    4988:	3804d53a 	srli	r2,r7,20
    498c:	3018d77a 	srli	r12,r6,29
    4990:	280ad53a 	srli	r5,r5,20
    4994:	501490fa 	slli	r10,r10,3
    4998:	2010d77a 	srli	r8,r4,29
    499c:	481290fa 	slli	r9,r9,3
    49a0:	380ed7fa 	srli	r7,r7,31
    49a4:	defffb04 	addi	sp,sp,-20
    49a8:	dc800215 	stw	r18,8(sp)
    49ac:	dc400115 	stw	r17,4(sp)
    49b0:	dc000015 	stw	r16,0(sp)
    49b4:	dfc00415 	stw	ra,16(sp)
    49b8:	dcc00315 	stw	r19,12(sp)
    49bc:	1c803fcc 	andi	r18,r3,255
    49c0:	2c01ffcc 	andi	r16,r5,2047
    49c4:	5210b03a 	or	r8,r10,r8
    49c8:	202290fa 	slli	r17,r4,3
    49cc:	1081ffcc 	andi	r2,r2,2047
    49d0:	4b12b03a 	or	r9,r9,r12
    49d4:	300c90fa 	slli	r6,r6,3
    49d8:	91c07526 	beq	r18,r7,4bb0 <__adddf3+0x23c>
    49dc:	8087c83a 	sub	r3,r16,r2
    49e0:	00c0ab0e 	bge	zero,r3,4c90 <__adddf3+0x31c>
    49e4:	10002a1e 	bne	r2,zero,4a90 <__adddf3+0x11c>
    49e8:	4984b03a 	or	r2,r9,r6
    49ec:	1000961e 	bne	r2,zero,4c48 <__adddf3+0x2d4>
    49f0:	888001cc 	andi	r2,r17,7
    49f4:	10000726 	beq	r2,zero,4a14 <__adddf3+0xa0>
    49f8:	888003cc 	andi	r2,r17,15
    49fc:	00c00104 	movi	r3,4
    4a00:	10c00426 	beq	r2,r3,4a14 <__adddf3+0xa0>
    4a04:	88c7883a 	add	r3,r17,r3
    4a08:	1c63803a 	cmpltu	r17,r3,r17
    4a0c:	4451883a 	add	r8,r8,r17
    4a10:	1823883a 	mov	r17,r3
    4a14:	4080202c 	andhi	r2,r8,128
    4a18:	10005926 	beq	r2,zero,4b80 <__adddf3+0x20c>
    4a1c:	84000044 	addi	r16,r16,1
    4a20:	0081ffc4 	movi	r2,2047
    4a24:	8080ba26 	beq	r16,r2,4d10 <__adddf3+0x39c>
    4a28:	00bfe034 	movhi	r2,65408
    4a2c:	10bfffc4 	addi	r2,r2,-1
    4a30:	4090703a 	and	r8,r8,r2
    4a34:	4004977a 	slli	r2,r8,29
    4a38:	4010927a 	slli	r8,r8,9
    4a3c:	8822d0fa 	srli	r17,r17,3
    4a40:	8401ffcc 	andi	r16,r16,2047
    4a44:	4010d33a 	srli	r8,r8,12
    4a48:	9007883a 	mov	r3,r18
    4a4c:	1444b03a 	or	r2,r2,r17
    4a50:	8401ffcc 	andi	r16,r16,2047
    4a54:	8020953a 	slli	r16,r16,20
    4a58:	18c03fcc 	andi	r3,r3,255
    4a5c:	01000434 	movhi	r4,16
    4a60:	213fffc4 	addi	r4,r4,-1
    4a64:	180697fa 	slli	r3,r3,31
    4a68:	4110703a 	and	r8,r8,r4
    4a6c:	4410b03a 	or	r8,r8,r16
    4a70:	40c6b03a 	or	r3,r8,r3
    4a74:	dfc00417 	ldw	ra,16(sp)
    4a78:	dcc00317 	ldw	r19,12(sp)
    4a7c:	dc800217 	ldw	r18,8(sp)
    4a80:	dc400117 	ldw	r17,4(sp)
    4a84:	dc000017 	ldw	r16,0(sp)
    4a88:	dec00504 	addi	sp,sp,20
    4a8c:	f800283a 	ret
    4a90:	0081ffc4 	movi	r2,2047
    4a94:	80bfd626 	beq	r16,r2,49f0 <__alt_mem_VGA_Subsystem_Char_Buf_Subsystem_Onchip_SRAM+0xf70049f0>
    4a98:	4a402034 	orhi	r9,r9,128
    4a9c:	00800e04 	movi	r2,56
    4aa0:	10c09f16 	blt	r2,r3,4d20 <__adddf3+0x3ac>
    4aa4:	008007c4 	movi	r2,31
    4aa8:	10c0c216 	blt	r2,r3,4db4 <__adddf3+0x440>
    4aac:	00800804 	movi	r2,32
    4ab0:	10c5c83a 	sub	r2,r2,r3
    4ab4:	488a983a 	sll	r5,r9,r2
    4ab8:	30c8d83a 	srl	r4,r6,r3
    4abc:	3084983a 	sll	r2,r6,r2
    4ac0:	48c6d83a 	srl	r3,r9,r3
    4ac4:	290cb03a 	or	r6,r5,r4
    4ac8:	1004c03a 	cmpne	r2,r2,zero
    4acc:	308cb03a 	or	r6,r6,r2
    4ad0:	898dc83a 	sub	r6,r17,r6
    4ad4:	89a3803a 	cmpltu	r17,r17,r6
    4ad8:	40d1c83a 	sub	r8,r8,r3
    4adc:	4451c83a 	sub	r8,r8,r17
    4ae0:	3023883a 	mov	r17,r6
    4ae4:	4080202c 	andhi	r2,r8,128
    4ae8:	10002326 	beq	r2,zero,4b78 <__adddf3+0x204>
    4aec:	04c02034 	movhi	r19,128
    4af0:	9cffffc4 	addi	r19,r19,-1
    4af4:	44e6703a 	and	r19,r8,r19
    4af8:	98007626 	beq	r19,zero,4cd4 <__adddf3+0x360>
    4afc:	9809883a 	mov	r4,r19
    4b00:	00070c00 	call	70c0 <__clzsi2>
    4b04:	10fffe04 	addi	r3,r2,-8
    4b08:	010007c4 	movi	r4,31
    4b0c:	20c07716 	blt	r4,r3,4cec <__adddf3+0x378>
    4b10:	00800804 	movi	r2,32
    4b14:	10c5c83a 	sub	r2,r2,r3
    4b18:	8884d83a 	srl	r2,r17,r2
    4b1c:	98d0983a 	sll	r8,r19,r3
    4b20:	88e2983a 	sll	r17,r17,r3
    4b24:	1204b03a 	or	r2,r2,r8
    4b28:	1c007416 	blt	r3,r16,4cfc <__adddf3+0x388>
    4b2c:	1c21c83a 	sub	r16,r3,r16
    4b30:	82000044 	addi	r8,r16,1
    4b34:	00c007c4 	movi	r3,31
    4b38:	1a009116 	blt	r3,r8,4d80 <__adddf3+0x40c>
    4b3c:	00c00804 	movi	r3,32
    4b40:	1a07c83a 	sub	r3,r3,r8
    4b44:	8a08d83a 	srl	r4,r17,r8
    4b48:	88e2983a 	sll	r17,r17,r3
    4b4c:	10c6983a 	sll	r3,r2,r3
    4b50:	1210d83a 	srl	r8,r2,r8
    4b54:	8804c03a 	cmpne	r2,r17,zero
    4b58:	1906b03a 	or	r3,r3,r4
    4b5c:	18a2b03a 	or	r17,r3,r2
    4b60:	0021883a 	mov	r16,zero
    4b64:	003fa206 	br	49f0 <__alt_mem_VGA_Subsystem_Char_Buf_Subsystem_Onchip_SRAM+0xf70049f0>
    4b68:	1890b03a 	or	r8,r3,r2
    4b6c:	40017d26 	beq	r8,zero,5164 <__adddf3+0x7f0>
    4b70:	1011883a 	mov	r8,r2
    4b74:	1823883a 	mov	r17,r3
    4b78:	888001cc 	andi	r2,r17,7
    4b7c:	103f9e1e 	bne	r2,zero,49f8 <__alt_mem_VGA_Subsystem_Char_Buf_Subsystem_Onchip_SRAM+0xf70049f8>
    4b80:	4004977a 	slli	r2,r8,29
    4b84:	8822d0fa 	srli	r17,r17,3
    4b88:	4010d0fa 	srli	r8,r8,3
    4b8c:	9007883a 	mov	r3,r18
    4b90:	1444b03a 	or	r2,r2,r17
    4b94:	0101ffc4 	movi	r4,2047
    4b98:	81002426 	beq	r16,r4,4c2c <__adddf3+0x2b8>
    4b9c:	8120703a 	and	r16,r16,r4
    4ba0:	01000434 	movhi	r4,16
    4ba4:	213fffc4 	addi	r4,r4,-1
    4ba8:	4110703a 	and	r8,r8,r4
    4bac:	003fa806 	br	4a50 <__alt_mem_VGA_Subsystem_Char_Buf_Subsystem_Onchip_SRAM+0xf7004a50>
    4bb0:	8089c83a 	sub	r4,r16,r2
    4bb4:	01005e0e 	bge	zero,r4,4d30 <__adddf3+0x3bc>
    4bb8:	10002b26 	beq	r2,zero,4c68 <__adddf3+0x2f4>
    4bbc:	0081ffc4 	movi	r2,2047
    4bc0:	80bf8b26 	beq	r16,r2,49f0 <__alt_mem_VGA_Subsystem_Char_Buf_Subsystem_Onchip_SRAM+0xf70049f0>
    4bc4:	4a402034 	orhi	r9,r9,128
    4bc8:	00800e04 	movi	r2,56
    4bcc:	1100a40e 	bge	r2,r4,4e60 <__adddf3+0x4ec>
    4bd0:	498cb03a 	or	r6,r9,r6
    4bd4:	300ac03a 	cmpne	r5,r6,zero
    4bd8:	0013883a 	mov	r9,zero
    4bdc:	2c4b883a 	add	r5,r5,r17
    4be0:	2c63803a 	cmpltu	r17,r5,r17
    4be4:	4a11883a 	add	r8,r9,r8
    4be8:	8a11883a 	add	r8,r17,r8
    4bec:	2823883a 	mov	r17,r5
    4bf0:	4080202c 	andhi	r2,r8,128
    4bf4:	103fe026 	beq	r2,zero,4b78 <__alt_mem_VGA_Subsystem_Char_Buf_Subsystem_Onchip_SRAM+0xf7004b78>
    4bf8:	84000044 	addi	r16,r16,1
    4bfc:	0081ffc4 	movi	r2,2047
    4c00:	8080d226 	beq	r16,r2,4f4c <__adddf3+0x5d8>
    4c04:	00bfe034 	movhi	r2,65408
    4c08:	10bfffc4 	addi	r2,r2,-1
    4c0c:	4090703a 	and	r8,r8,r2
    4c10:	880ad07a 	srli	r5,r17,1
    4c14:	400897fa 	slli	r4,r8,31
    4c18:	88c0004c 	andi	r3,r17,1
    4c1c:	28e2b03a 	or	r17,r5,r3
    4c20:	4010d07a 	srli	r8,r8,1
    4c24:	2462b03a 	or	r17,r4,r17
    4c28:	003f7106 	br	49f0 <__alt_mem_VGA_Subsystem_Char_Buf_Subsystem_Onchip_SRAM+0xf70049f0>
    4c2c:	4088b03a 	or	r4,r8,r2
    4c30:	20014526 	beq	r4,zero,5148 <__adddf3+0x7d4>
    4c34:	01000434 	movhi	r4,16
    4c38:	42000234 	orhi	r8,r8,8
    4c3c:	213fffc4 	addi	r4,r4,-1
    4c40:	4110703a 	and	r8,r8,r4
    4c44:	003f8206 	br	4a50 <__alt_mem_VGA_Subsystem_Char_Buf_Subsystem_Onchip_SRAM+0xf7004a50>
    4c48:	18ffffc4 	addi	r3,r3,-1
    4c4c:	1800491e 	bne	r3,zero,4d74 <__adddf3+0x400>
    4c50:	898bc83a 	sub	r5,r17,r6
    4c54:	8963803a 	cmpltu	r17,r17,r5
    4c58:	4251c83a 	sub	r8,r8,r9
    4c5c:	4451c83a 	sub	r8,r8,r17
    4c60:	2823883a 	mov	r17,r5
    4c64:	003f9f06 	br	4ae4 <__alt_mem_VGA_Subsystem_Char_Buf_Subsystem_Onchip_SRAM+0xf7004ae4>
    4c68:	4984b03a 	or	r2,r9,r6
    4c6c:	103f6026 	beq	r2,zero,49f0 <__alt_mem_VGA_Subsystem_Char_Buf_Subsystem_Onchip_SRAM+0xf70049f0>
    4c70:	213fffc4 	addi	r4,r4,-1
    4c74:	2000931e 	bne	r4,zero,4ec4 <__adddf3+0x550>
    4c78:	898d883a 	add	r6,r17,r6
    4c7c:	3463803a 	cmpltu	r17,r6,r17
    4c80:	4251883a 	add	r8,r8,r9
    4c84:	8a11883a 	add	r8,r17,r8
    4c88:	3023883a 	mov	r17,r6
    4c8c:	003fd806 	br	4bf0 <__alt_mem_VGA_Subsystem_Char_Buf_Subsystem_Onchip_SRAM+0xf7004bf0>
    4c90:	1800541e 	bne	r3,zero,4de4 <__adddf3+0x470>
    4c94:	80800044 	addi	r2,r16,1
    4c98:	1081ffcc 	andi	r2,r2,2047
    4c9c:	00c00044 	movi	r3,1
    4ca0:	1880a00e 	bge	r3,r2,4f24 <__adddf3+0x5b0>
    4ca4:	8989c83a 	sub	r4,r17,r6
    4ca8:	8905803a 	cmpltu	r2,r17,r4
    4cac:	4267c83a 	sub	r19,r8,r9
    4cb0:	98a7c83a 	sub	r19,r19,r2
    4cb4:	9880202c 	andhi	r2,r19,128
    4cb8:	10006326 	beq	r2,zero,4e48 <__adddf3+0x4d4>
    4cbc:	3463c83a 	sub	r17,r6,r17
    4cc0:	4a07c83a 	sub	r3,r9,r8
    4cc4:	344d803a 	cmpltu	r6,r6,r17
    4cc8:	19a7c83a 	sub	r19,r3,r6
    4ccc:	3825883a 	mov	r18,r7
    4cd0:	983f8a1e 	bne	r19,zero,4afc <__alt_mem_VGA_Subsystem_Char_Buf_Subsystem_Onchip_SRAM+0xf7004afc>
    4cd4:	8809883a 	mov	r4,r17
    4cd8:	00070c00 	call	70c0 <__clzsi2>
    4cdc:	10800804 	addi	r2,r2,32
    4ce0:	10fffe04 	addi	r3,r2,-8
    4ce4:	010007c4 	movi	r4,31
    4ce8:	20ff890e 	bge	r4,r3,4b10 <__alt_mem_VGA_Subsystem_Char_Buf_Subsystem_Onchip_SRAM+0xf7004b10>
    4cec:	10bff604 	addi	r2,r2,-40
    4cf0:	8884983a 	sll	r2,r17,r2
    4cf4:	0023883a 	mov	r17,zero
    4cf8:	1c3f8c0e 	bge	r3,r16,4b2c <__alt_mem_VGA_Subsystem_Char_Buf_Subsystem_Onchip_SRAM+0xf7004b2c>
    4cfc:	023fe034 	movhi	r8,65408
    4d00:	423fffc4 	addi	r8,r8,-1
    4d04:	80e1c83a 	sub	r16,r16,r3
    4d08:	1210703a 	and	r8,r2,r8
    4d0c:	003f3806 	br	49f0 <__alt_mem_VGA_Subsystem_Char_Buf_Subsystem_Onchip_SRAM+0xf70049f0>
    4d10:	9007883a 	mov	r3,r18
    4d14:	0011883a 	mov	r8,zero
    4d18:	0005883a 	mov	r2,zero
    4d1c:	003f4c06 	br	4a50 <__alt_mem_VGA_Subsystem_Char_Buf_Subsystem_Onchip_SRAM+0xf7004a50>
    4d20:	498cb03a 	or	r6,r9,r6
    4d24:	300cc03a 	cmpne	r6,r6,zero
    4d28:	0007883a 	mov	r3,zero
    4d2c:	003f6806 	br	4ad0 <__alt_mem_VGA_Subsystem_Char_Buf_Subsystem_Onchip_SRAM+0xf7004ad0>
    4d30:	20009c1e 	bne	r4,zero,4fa4 <__adddf3+0x630>
    4d34:	80800044 	addi	r2,r16,1
    4d38:	1141ffcc 	andi	r5,r2,2047
    4d3c:	01000044 	movi	r4,1
    4d40:	2140670e 	bge	r4,r5,4ee0 <__adddf3+0x56c>
    4d44:	0101ffc4 	movi	r4,2047
    4d48:	11007f26 	beq	r2,r4,4f48 <__adddf3+0x5d4>
    4d4c:	898d883a 	add	r6,r17,r6
    4d50:	4247883a 	add	r3,r8,r9
    4d54:	3451803a 	cmpltu	r8,r6,r17
    4d58:	40d1883a 	add	r8,r8,r3
    4d5c:	402297fa 	slli	r17,r8,31
    4d60:	300cd07a 	srli	r6,r6,1
    4d64:	4010d07a 	srli	r8,r8,1
    4d68:	1021883a 	mov	r16,r2
    4d6c:	89a2b03a 	or	r17,r17,r6
    4d70:	003f1f06 	br	49f0 <__alt_mem_VGA_Subsystem_Char_Buf_Subsystem_Onchip_SRAM+0xf70049f0>
    4d74:	0081ffc4 	movi	r2,2047
    4d78:	80bf481e 	bne	r16,r2,4a9c <__alt_mem_VGA_Subsystem_Char_Buf_Subsystem_Onchip_SRAM+0xf7004a9c>
    4d7c:	003f1c06 	br	49f0 <__alt_mem_VGA_Subsystem_Char_Buf_Subsystem_Onchip_SRAM+0xf70049f0>
    4d80:	843ff844 	addi	r16,r16,-31
    4d84:	01000804 	movi	r4,32
    4d88:	1406d83a 	srl	r3,r2,r16
    4d8c:	41005026 	beq	r8,r4,4ed0 <__adddf3+0x55c>
    4d90:	01001004 	movi	r4,64
    4d94:	2211c83a 	sub	r8,r4,r8
    4d98:	1204983a 	sll	r2,r2,r8
    4d9c:	88a2b03a 	or	r17,r17,r2
    4da0:	8822c03a 	cmpne	r17,r17,zero
    4da4:	1c62b03a 	or	r17,r3,r17
    4da8:	0011883a 	mov	r8,zero
    4dac:	0021883a 	mov	r16,zero
    4db0:	003f7106 	br	4b78 <__alt_mem_VGA_Subsystem_Char_Buf_Subsystem_Onchip_SRAM+0xf7004b78>
    4db4:	193ff804 	addi	r4,r3,-32
    4db8:	00800804 	movi	r2,32
    4dbc:	4908d83a 	srl	r4,r9,r4
    4dc0:	18804526 	beq	r3,r2,4ed8 <__adddf3+0x564>
    4dc4:	00801004 	movi	r2,64
    4dc8:	10c5c83a 	sub	r2,r2,r3
    4dcc:	4886983a 	sll	r3,r9,r2
    4dd0:	198cb03a 	or	r6,r3,r6
    4dd4:	300cc03a 	cmpne	r6,r6,zero
    4dd8:	218cb03a 	or	r6,r4,r6
    4ddc:	0007883a 	mov	r3,zero
    4de0:	003f3b06 	br	4ad0 <__alt_mem_VGA_Subsystem_Char_Buf_Subsystem_Onchip_SRAM+0xf7004ad0>
    4de4:	80002a26 	beq	r16,zero,4e90 <__adddf3+0x51c>
    4de8:	0101ffc4 	movi	r4,2047
    4dec:	11006826 	beq	r2,r4,4f90 <__adddf3+0x61c>
    4df0:	00c7c83a 	sub	r3,zero,r3
    4df4:	42002034 	orhi	r8,r8,128
    4df8:	01000e04 	movi	r4,56
    4dfc:	20c07c16 	blt	r4,r3,4ff0 <__adddf3+0x67c>
    4e00:	010007c4 	movi	r4,31
    4e04:	20c0da16 	blt	r4,r3,5170 <__adddf3+0x7fc>
    4e08:	01000804 	movi	r4,32
    4e0c:	20c9c83a 	sub	r4,r4,r3
    4e10:	4114983a 	sll	r10,r8,r4
    4e14:	88cad83a 	srl	r5,r17,r3
    4e18:	8908983a 	sll	r4,r17,r4
    4e1c:	40c6d83a 	srl	r3,r8,r3
    4e20:	5162b03a 	or	r17,r10,r5
    4e24:	2008c03a 	cmpne	r4,r4,zero
    4e28:	8922b03a 	or	r17,r17,r4
    4e2c:	3463c83a 	sub	r17,r6,r17
    4e30:	48c7c83a 	sub	r3,r9,r3
    4e34:	344d803a 	cmpltu	r6,r6,r17
    4e38:	1991c83a 	sub	r8,r3,r6
    4e3c:	1021883a 	mov	r16,r2
    4e40:	3825883a 	mov	r18,r7
    4e44:	003f2706 	br	4ae4 <__alt_mem_VGA_Subsystem_Char_Buf_Subsystem_Onchip_SRAM+0xf7004ae4>
    4e48:	24d0b03a 	or	r8,r4,r19
    4e4c:	40001b1e 	bne	r8,zero,4ebc <__adddf3+0x548>
    4e50:	0005883a 	mov	r2,zero
    4e54:	0007883a 	mov	r3,zero
    4e58:	0021883a 	mov	r16,zero
    4e5c:	003f4d06 	br	4b94 <__alt_mem_VGA_Subsystem_Char_Buf_Subsystem_Onchip_SRAM+0xf7004b94>
    4e60:	008007c4 	movi	r2,31
    4e64:	11003c16 	blt	r2,r4,4f58 <__adddf3+0x5e4>
    4e68:	00800804 	movi	r2,32
    4e6c:	1105c83a 	sub	r2,r2,r4
    4e70:	488e983a 	sll	r7,r9,r2
    4e74:	310ad83a 	srl	r5,r6,r4
    4e78:	3084983a 	sll	r2,r6,r2
    4e7c:	4912d83a 	srl	r9,r9,r4
    4e80:	394ab03a 	or	r5,r7,r5
    4e84:	1004c03a 	cmpne	r2,r2,zero
    4e88:	288ab03a 	or	r5,r5,r2
    4e8c:	003f5306 	br	4bdc <__alt_mem_VGA_Subsystem_Char_Buf_Subsystem_Onchip_SRAM+0xf7004bdc>
    4e90:	4448b03a 	or	r4,r8,r17
    4e94:	20003e26 	beq	r4,zero,4f90 <__adddf3+0x61c>
    4e98:	00c6303a 	nor	r3,zero,r3
    4e9c:	18003a1e 	bne	r3,zero,4f88 <__adddf3+0x614>
    4ea0:	3463c83a 	sub	r17,r6,r17
    4ea4:	4a07c83a 	sub	r3,r9,r8
    4ea8:	344d803a 	cmpltu	r6,r6,r17
    4eac:	1991c83a 	sub	r8,r3,r6
    4eb0:	1021883a 	mov	r16,r2
    4eb4:	3825883a 	mov	r18,r7
    4eb8:	003f0a06 	br	4ae4 <__alt_mem_VGA_Subsystem_Char_Buf_Subsystem_Onchip_SRAM+0xf7004ae4>
    4ebc:	2023883a 	mov	r17,r4
    4ec0:	003f0d06 	br	4af8 <__alt_mem_VGA_Subsystem_Char_Buf_Subsystem_Onchip_SRAM+0xf7004af8>
    4ec4:	0081ffc4 	movi	r2,2047
    4ec8:	80bf3f1e 	bne	r16,r2,4bc8 <__alt_mem_VGA_Subsystem_Char_Buf_Subsystem_Onchip_SRAM+0xf7004bc8>
    4ecc:	003ec806 	br	49f0 <__alt_mem_VGA_Subsystem_Char_Buf_Subsystem_Onchip_SRAM+0xf70049f0>
    4ed0:	0005883a 	mov	r2,zero
    4ed4:	003fb106 	br	4d9c <__alt_mem_VGA_Subsystem_Char_Buf_Subsystem_Onchip_SRAM+0xf7004d9c>
    4ed8:	0007883a 	mov	r3,zero
    4edc:	003fbc06 	br	4dd0 <__alt_mem_VGA_Subsystem_Char_Buf_Subsystem_Onchip_SRAM+0xf7004dd0>
    4ee0:	4444b03a 	or	r2,r8,r17
    4ee4:	8000871e 	bne	r16,zero,5104 <__adddf3+0x790>
    4ee8:	1000ba26 	beq	r2,zero,51d4 <__adddf3+0x860>
    4eec:	4984b03a 	or	r2,r9,r6
    4ef0:	103ebf26 	beq	r2,zero,49f0 <__alt_mem_VGA_Subsystem_Char_Buf_Subsystem_Onchip_SRAM+0xf70049f0>
    4ef4:	8985883a 	add	r2,r17,r6
    4ef8:	4247883a 	add	r3,r8,r9
    4efc:	1451803a 	cmpltu	r8,r2,r17
    4f00:	40d1883a 	add	r8,r8,r3
    4f04:	40c0202c 	andhi	r3,r8,128
    4f08:	1023883a 	mov	r17,r2
    4f0c:	183f1a26 	beq	r3,zero,4b78 <__alt_mem_VGA_Subsystem_Char_Buf_Subsystem_Onchip_SRAM+0xf7004b78>
    4f10:	00bfe034 	movhi	r2,65408
    4f14:	10bfffc4 	addi	r2,r2,-1
    4f18:	2021883a 	mov	r16,r4
    4f1c:	4090703a 	and	r8,r8,r2
    4f20:	003eb306 	br	49f0 <__alt_mem_VGA_Subsystem_Char_Buf_Subsystem_Onchip_SRAM+0xf70049f0>
    4f24:	4444b03a 	or	r2,r8,r17
    4f28:	8000291e 	bne	r16,zero,4fd0 <__adddf3+0x65c>
    4f2c:	10004b1e 	bne	r2,zero,505c <__adddf3+0x6e8>
    4f30:	4990b03a 	or	r8,r9,r6
    4f34:	40008b26 	beq	r8,zero,5164 <__adddf3+0x7f0>
    4f38:	4811883a 	mov	r8,r9
    4f3c:	3023883a 	mov	r17,r6
    4f40:	3825883a 	mov	r18,r7
    4f44:	003eaa06 	br	49f0 <__alt_mem_VGA_Subsystem_Char_Buf_Subsystem_Onchip_SRAM+0xf70049f0>
    4f48:	1021883a 	mov	r16,r2
    4f4c:	0011883a 	mov	r8,zero
    4f50:	0005883a 	mov	r2,zero
    4f54:	003f0f06 	br	4b94 <__alt_mem_VGA_Subsystem_Char_Buf_Subsystem_Onchip_SRAM+0xf7004b94>
    4f58:	217ff804 	addi	r5,r4,-32
    4f5c:	00800804 	movi	r2,32
    4f60:	494ad83a 	srl	r5,r9,r5
    4f64:	20807d26 	beq	r4,r2,515c <__adddf3+0x7e8>
    4f68:	00801004 	movi	r2,64
    4f6c:	1109c83a 	sub	r4,r2,r4
    4f70:	4912983a 	sll	r9,r9,r4
    4f74:	498cb03a 	or	r6,r9,r6
    4f78:	300cc03a 	cmpne	r6,r6,zero
    4f7c:	298ab03a 	or	r5,r5,r6
    4f80:	0013883a 	mov	r9,zero
    4f84:	003f1506 	br	4bdc <__alt_mem_VGA_Subsystem_Char_Buf_Subsystem_Onchip_SRAM+0xf7004bdc>
    4f88:	0101ffc4 	movi	r4,2047
    4f8c:	113f9a1e 	bne	r2,r4,4df8 <__alt_mem_VGA_Subsystem_Char_Buf_Subsystem_Onchip_SRAM+0xf7004df8>
    4f90:	4811883a 	mov	r8,r9
    4f94:	3023883a 	mov	r17,r6
    4f98:	1021883a 	mov	r16,r2
    4f9c:	3825883a 	mov	r18,r7
    4fa0:	003e9306 	br	49f0 <__alt_mem_VGA_Subsystem_Char_Buf_Subsystem_Onchip_SRAM+0xf70049f0>
    4fa4:	8000161e 	bne	r16,zero,5000 <__adddf3+0x68c>
    4fa8:	444ab03a 	or	r5,r8,r17
    4fac:	28005126 	beq	r5,zero,50f4 <__adddf3+0x780>
    4fb0:	0108303a 	nor	r4,zero,r4
    4fb4:	20004d1e 	bne	r4,zero,50ec <__adddf3+0x778>
    4fb8:	89a3883a 	add	r17,r17,r6
    4fbc:	4253883a 	add	r9,r8,r9
    4fc0:	898d803a 	cmpltu	r6,r17,r6
    4fc4:	3251883a 	add	r8,r6,r9
    4fc8:	1021883a 	mov	r16,r2
    4fcc:	003f0806 	br	4bf0 <__alt_mem_VGA_Subsystem_Char_Buf_Subsystem_Onchip_SRAM+0xf7004bf0>
    4fd0:	1000301e 	bne	r2,zero,5094 <__adddf3+0x720>
    4fd4:	4984b03a 	or	r2,r9,r6
    4fd8:	10007126 	beq	r2,zero,51a0 <__adddf3+0x82c>
    4fdc:	4811883a 	mov	r8,r9
    4fe0:	3023883a 	mov	r17,r6
    4fe4:	3825883a 	mov	r18,r7
    4fe8:	0401ffc4 	movi	r16,2047
    4fec:	003e8006 	br	49f0 <__alt_mem_VGA_Subsystem_Char_Buf_Subsystem_Onchip_SRAM+0xf70049f0>
    4ff0:	4462b03a 	or	r17,r8,r17
    4ff4:	8822c03a 	cmpne	r17,r17,zero
    4ff8:	0007883a 	mov	r3,zero
    4ffc:	003f8b06 	br	4e2c <__alt_mem_VGA_Subsystem_Char_Buf_Subsystem_Onchip_SRAM+0xf7004e2c>
    5000:	0141ffc4 	movi	r5,2047
    5004:	11403b26 	beq	r2,r5,50f4 <__adddf3+0x780>
    5008:	0109c83a 	sub	r4,zero,r4
    500c:	42002034 	orhi	r8,r8,128
    5010:	01400e04 	movi	r5,56
    5014:	29006716 	blt	r5,r4,51b4 <__adddf3+0x840>
    5018:	014007c4 	movi	r5,31
    501c:	29007016 	blt	r5,r4,51e0 <__adddf3+0x86c>
    5020:	01400804 	movi	r5,32
    5024:	290bc83a 	sub	r5,r5,r4
    5028:	4154983a 	sll	r10,r8,r5
    502c:	890ed83a 	srl	r7,r17,r4
    5030:	894a983a 	sll	r5,r17,r5
    5034:	4108d83a 	srl	r4,r8,r4
    5038:	51e2b03a 	or	r17,r10,r7
    503c:	280ac03a 	cmpne	r5,r5,zero
    5040:	8962b03a 	or	r17,r17,r5
    5044:	89a3883a 	add	r17,r17,r6
    5048:	2253883a 	add	r9,r4,r9
    504c:	898d803a 	cmpltu	r6,r17,r6
    5050:	3251883a 	add	r8,r6,r9
    5054:	1021883a 	mov	r16,r2
    5058:	003ee506 	br	4bf0 <__alt_mem_VGA_Subsystem_Char_Buf_Subsystem_Onchip_SRAM+0xf7004bf0>
    505c:	4984b03a 	or	r2,r9,r6
    5060:	103e6326 	beq	r2,zero,49f0 <__alt_mem_VGA_Subsystem_Char_Buf_Subsystem_Onchip_SRAM+0xf70049f0>
    5064:	8987c83a 	sub	r3,r17,r6
    5068:	88c9803a 	cmpltu	r4,r17,r3
    506c:	4245c83a 	sub	r2,r8,r9
    5070:	1105c83a 	sub	r2,r2,r4
    5074:	1100202c 	andhi	r4,r2,128
    5078:	203ebb26 	beq	r4,zero,4b68 <__alt_mem_VGA_Subsystem_Char_Buf_Subsystem_Onchip_SRAM+0xf7004b68>
    507c:	3463c83a 	sub	r17,r6,r17
    5080:	4a07c83a 	sub	r3,r9,r8
    5084:	344d803a 	cmpltu	r6,r6,r17
    5088:	1991c83a 	sub	r8,r3,r6
    508c:	3825883a 	mov	r18,r7
    5090:	003e5706 	br	49f0 <__alt_mem_VGA_Subsystem_Char_Buf_Subsystem_Onchip_SRAM+0xf70049f0>
    5094:	4984b03a 	or	r2,r9,r6
    5098:	10002e26 	beq	r2,zero,5154 <__adddf3+0x7e0>
    509c:	4004d0fa 	srli	r2,r8,3
    50a0:	8822d0fa 	srli	r17,r17,3
    50a4:	4010977a 	slli	r8,r8,29
    50a8:	10c0022c 	andhi	r3,r2,8
    50ac:	4462b03a 	or	r17,r8,r17
    50b0:	18000826 	beq	r3,zero,50d4 <__adddf3+0x760>
    50b4:	4808d0fa 	srli	r4,r9,3
    50b8:	20c0022c 	andhi	r3,r4,8
    50bc:	1800051e 	bne	r3,zero,50d4 <__adddf3+0x760>
    50c0:	300cd0fa 	srli	r6,r6,3
    50c4:	4806977a 	slli	r3,r9,29
    50c8:	2005883a 	mov	r2,r4
    50cc:	3825883a 	mov	r18,r7
    50d0:	19a2b03a 	or	r17,r3,r6
    50d4:	8810d77a 	srli	r8,r17,29
    50d8:	100490fa 	slli	r2,r2,3
    50dc:	882290fa 	slli	r17,r17,3
    50e0:	0401ffc4 	movi	r16,2047
    50e4:	4090b03a 	or	r8,r8,r2
    50e8:	003e4106 	br	49f0 <__alt_mem_VGA_Subsystem_Char_Buf_Subsystem_Onchip_SRAM+0xf70049f0>
    50ec:	0141ffc4 	movi	r5,2047
    50f0:	117fc71e 	bne	r2,r5,5010 <__alt_mem_VGA_Subsystem_Char_Buf_Subsystem_Onchip_SRAM+0xf7005010>
    50f4:	4811883a 	mov	r8,r9
    50f8:	3023883a 	mov	r17,r6
    50fc:	1021883a 	mov	r16,r2
    5100:	003e3b06 	br	49f0 <__alt_mem_VGA_Subsystem_Char_Buf_Subsystem_Onchip_SRAM+0xf70049f0>
    5104:	10002f26 	beq	r2,zero,51c4 <__adddf3+0x850>
    5108:	4984b03a 	or	r2,r9,r6
    510c:	10001126 	beq	r2,zero,5154 <__adddf3+0x7e0>
    5110:	4004d0fa 	srli	r2,r8,3
    5114:	8822d0fa 	srli	r17,r17,3
    5118:	4010977a 	slli	r8,r8,29
    511c:	10c0022c 	andhi	r3,r2,8
    5120:	4462b03a 	or	r17,r8,r17
    5124:	183feb26 	beq	r3,zero,50d4 <__alt_mem_VGA_Subsystem_Char_Buf_Subsystem_Onchip_SRAM+0xf70050d4>
    5128:	4808d0fa 	srli	r4,r9,3
    512c:	20c0022c 	andhi	r3,r4,8
    5130:	183fe81e 	bne	r3,zero,50d4 <__alt_mem_VGA_Subsystem_Char_Buf_Subsystem_Onchip_SRAM+0xf70050d4>
    5134:	300cd0fa 	srli	r6,r6,3
    5138:	4806977a 	slli	r3,r9,29
    513c:	2005883a 	mov	r2,r4
    5140:	19a2b03a 	or	r17,r3,r6
    5144:	003fe306 	br	50d4 <__alt_mem_VGA_Subsystem_Char_Buf_Subsystem_Onchip_SRAM+0xf70050d4>
    5148:	0011883a 	mov	r8,zero
    514c:	0005883a 	mov	r2,zero
    5150:	003e3f06 	br	4a50 <__alt_mem_VGA_Subsystem_Char_Buf_Subsystem_Onchip_SRAM+0xf7004a50>
    5154:	0401ffc4 	movi	r16,2047
    5158:	003e2506 	br	49f0 <__alt_mem_VGA_Subsystem_Char_Buf_Subsystem_Onchip_SRAM+0xf70049f0>
    515c:	0013883a 	mov	r9,zero
    5160:	003f8406 	br	4f74 <__alt_mem_VGA_Subsystem_Char_Buf_Subsystem_Onchip_SRAM+0xf7004f74>
    5164:	0005883a 	mov	r2,zero
    5168:	0007883a 	mov	r3,zero
    516c:	003e8906 	br	4b94 <__alt_mem_VGA_Subsystem_Char_Buf_Subsystem_Onchip_SRAM+0xf7004b94>
    5170:	197ff804 	addi	r5,r3,-32
    5174:	01000804 	movi	r4,32
    5178:	414ad83a 	srl	r5,r8,r5
    517c:	19002426 	beq	r3,r4,5210 <__adddf3+0x89c>
    5180:	01001004 	movi	r4,64
    5184:	20c7c83a 	sub	r3,r4,r3
    5188:	40c6983a 	sll	r3,r8,r3
    518c:	1c46b03a 	or	r3,r3,r17
    5190:	1806c03a 	cmpne	r3,r3,zero
    5194:	28e2b03a 	or	r17,r5,r3
    5198:	0007883a 	mov	r3,zero
    519c:	003f2306 	br	4e2c <__alt_mem_VGA_Subsystem_Char_Buf_Subsystem_Onchip_SRAM+0xf7004e2c>
    51a0:	0007883a 	mov	r3,zero
    51a4:	5811883a 	mov	r8,r11
    51a8:	00bfffc4 	movi	r2,-1
    51ac:	0401ffc4 	movi	r16,2047
    51b0:	003e7806 	br	4b94 <__alt_mem_VGA_Subsystem_Char_Buf_Subsystem_Onchip_SRAM+0xf7004b94>
    51b4:	4462b03a 	or	r17,r8,r17
    51b8:	8822c03a 	cmpne	r17,r17,zero
    51bc:	0009883a 	mov	r4,zero
    51c0:	003fa006 	br	5044 <__alt_mem_VGA_Subsystem_Char_Buf_Subsystem_Onchip_SRAM+0xf7005044>
    51c4:	4811883a 	mov	r8,r9
    51c8:	3023883a 	mov	r17,r6
    51cc:	0401ffc4 	movi	r16,2047
    51d0:	003e0706 	br	49f0 <__alt_mem_VGA_Subsystem_Char_Buf_Subsystem_Onchip_SRAM+0xf70049f0>
    51d4:	4811883a 	mov	r8,r9
    51d8:	3023883a 	mov	r17,r6
    51dc:	003e0406 	br	49f0 <__alt_mem_VGA_Subsystem_Char_Buf_Subsystem_Onchip_SRAM+0xf70049f0>
    51e0:	21fff804 	addi	r7,r4,-32
    51e4:	01400804 	movi	r5,32
    51e8:	41ced83a 	srl	r7,r8,r7
    51ec:	21400a26 	beq	r4,r5,5218 <__adddf3+0x8a4>
    51f0:	01401004 	movi	r5,64
    51f4:	2909c83a 	sub	r4,r5,r4
    51f8:	4108983a 	sll	r4,r8,r4
    51fc:	2448b03a 	or	r4,r4,r17
    5200:	2008c03a 	cmpne	r4,r4,zero
    5204:	3922b03a 	or	r17,r7,r4
    5208:	0009883a 	mov	r4,zero
    520c:	003f8d06 	br	5044 <__alt_mem_VGA_Subsystem_Char_Buf_Subsystem_Onchip_SRAM+0xf7005044>
    5210:	0007883a 	mov	r3,zero
    5214:	003fdd06 	br	518c <__alt_mem_VGA_Subsystem_Char_Buf_Subsystem_Onchip_SRAM+0xf700518c>
    5218:	0009883a 	mov	r4,zero
    521c:	003ff706 	br	51fc <__alt_mem_VGA_Subsystem_Char_Buf_Subsystem_Onchip_SRAM+0xf70051fc>

00005220 <__divdf3>:
    5220:	defff004 	addi	sp,sp,-64
    5224:	dc800815 	stw	r18,32(sp)
    5228:	2824d53a 	srli	r18,r5,20
    522c:	dd800c15 	stw	r22,48(sp)
    5230:	282cd7fa 	srli	r22,r5,31
    5234:	dc000615 	stw	r16,24(sp)
    5238:	04000434 	movhi	r16,16
    523c:	843fffc4 	addi	r16,r16,-1
    5240:	dfc00f15 	stw	ra,60(sp)
    5244:	df000e15 	stw	fp,56(sp)
    5248:	ddc00d15 	stw	r23,52(sp)
    524c:	dd400b15 	stw	r21,44(sp)
    5250:	dd000a15 	stw	r20,40(sp)
    5254:	dcc00915 	stw	r19,36(sp)
    5258:	dc400715 	stw	r17,28(sp)
    525c:	9481ffcc 	andi	r18,r18,2047
    5260:	2c20703a 	and	r16,r5,r16
    5264:	b2003fcc 	andi	r8,r22,255
    5268:	90006126 	beq	r18,zero,53f0 <__divdf3+0x1d0>
    526c:	0081ffc4 	movi	r2,2047
    5270:	202b883a 	mov	r21,r4
    5274:	90803726 	beq	r18,r2,5354 <__divdf3+0x134>
    5278:	80800434 	orhi	r2,r16,16
    527c:	100490fa 	slli	r2,r2,3
    5280:	2020d77a 	srli	r16,r4,29
    5284:	202a90fa 	slli	r21,r4,3
    5288:	94bf0044 	addi	r18,r18,-1023
    528c:	80a0b03a 	or	r16,r16,r2
    5290:	0013883a 	mov	r9,zero
    5294:	000b883a 	mov	r5,zero
    5298:	3806d53a 	srli	r3,r7,20
    529c:	382ed7fa 	srli	r23,r7,31
    52a0:	04400434 	movhi	r17,16
    52a4:	8c7fffc4 	addi	r17,r17,-1
    52a8:	18c1ffcc 	andi	r3,r3,2047
    52ac:	3029883a 	mov	r20,r6
    52b0:	3c62703a 	and	r17,r7,r17
    52b4:	bf003fcc 	andi	fp,r23,255
    52b8:	18006e26 	beq	r3,zero,5474 <__divdf3+0x254>
    52bc:	0081ffc4 	movi	r2,2047
    52c0:	18806626 	beq	r3,r2,545c <__divdf3+0x23c>
    52c4:	88800434 	orhi	r2,r17,16
    52c8:	100490fa 	slli	r2,r2,3
    52cc:	3022d77a 	srli	r17,r6,29
    52d0:	302890fa 	slli	r20,r6,3
    52d4:	18ff0044 	addi	r3,r3,-1023
    52d8:	88a2b03a 	or	r17,r17,r2
    52dc:	000f883a 	mov	r7,zero
    52e0:	b5e6f03a 	xor	r19,r22,r23
    52e4:	3a4cb03a 	or	r6,r7,r9
    52e8:	008003c4 	movi	r2,15
    52ec:	9809883a 	mov	r4,r19
    52f0:	90c7c83a 	sub	r3,r18,r3
    52f4:	9cc03fcc 	andi	r19,r19,255
    52f8:	11809636 	bltu	r2,r6,5554 <__divdf3+0x334>
    52fc:	300c90ba 	slli	r6,r6,2
    5300:	00800034 	movhi	r2,0
    5304:	1094c504 	addi	r2,r2,21268
    5308:	308d883a 	add	r6,r6,r2
    530c:	30800017 	ldw	r2,0(r6)
    5310:	1000683a 	jmp	r2
    5314:	00005554 	movui	zero,341
    5318:	0000538c 	andi	zero,zero,334
    531c:	00005544 	movi	zero,341
    5320:	00005380 	call	538 <uart_puts+0x28>
    5324:	00005544 	movi	zero,341
    5328:	00005518 	cmpnei	zero,zero,340
    532c:	00005544 	movi	zero,341
    5330:	00005380 	call	538 <uart_puts+0x28>
    5334:	0000538c 	andi	zero,zero,334
    5338:	0000538c 	andi	zero,zero,334
    533c:	00005518 	cmpnei	zero,zero,340
    5340:	00005380 	call	538 <uart_puts+0x28>
    5344:	00005370 	cmpltui	zero,zero,333
    5348:	00005370 	cmpltui	zero,zero,333
    534c:	00005370 	cmpltui	zero,zero,333
    5350:	000058dc 	xori	zero,zero,355
    5354:	2404b03a 	or	r2,r4,r16
    5358:	10006c1e 	bne	r2,zero,550c <__divdf3+0x2ec>
    535c:	02400204 	movi	r9,8
    5360:	0021883a 	mov	r16,zero
    5364:	002b883a 	mov	r21,zero
    5368:	01400084 	movi	r5,2
    536c:	003fca06 	br	5298 <__alt_mem_VGA_Subsystem_Char_Buf_Subsystem_Onchip_SRAM+0xf7005298>
    5370:	8023883a 	mov	r17,r16
    5374:	a829883a 	mov	r20,r21
    5378:	4039883a 	mov	fp,r8
    537c:	280f883a 	mov	r7,r5
    5380:	00800084 	movi	r2,2
    5384:	3881601e 	bne	r7,r2,5908 <__divdf3+0x6e8>
    5388:	e027883a 	mov	r19,fp
    538c:	9900004c 	andi	r4,r19,1
    5390:	0081ffc4 	movi	r2,2047
    5394:	0021883a 	mov	r16,zero
    5398:	002b883a 	mov	r21,zero
    539c:	1004953a 	slli	r2,r2,20
    53a0:	20c03fcc 	andi	r3,r4,255
    53a4:	01400434 	movhi	r5,16
    53a8:	297fffc4 	addi	r5,r5,-1
    53ac:	180697fa 	slli	r3,r3,31
    53b0:	8160703a 	and	r16,r16,r5
    53b4:	80a0b03a 	or	r16,r16,r2
    53b8:	80c6b03a 	or	r3,r16,r3
    53bc:	a805883a 	mov	r2,r21
    53c0:	dfc00f17 	ldw	ra,60(sp)
    53c4:	df000e17 	ldw	fp,56(sp)
    53c8:	ddc00d17 	ldw	r23,52(sp)
